File: /home/t3k/Downloads/MindStation.exe
Module type: PE (Portable Executable)

Flags: 0x010f (relocations stripped, executable, line numbers stripped, local symbols stripped, 32-bit)
Image type: 32-bit
File version: 0.0
Linker version: 6.0
Program entry point: 0x408947
Base of code section: 0x1000
Base of data section: 0x13000
Preferred base address: 0x400000
Required OS version: 4.0
Subsystem: GUI
Subsystem version: 4.0
DLL flags: 0x0000 ()
Stack size (reserve): 1048576 bytes
Stack size (commit): 4096 bytes
Heap size (reserve): 1048576 bytes
Heap size (commit): 4096 bytes

No export table

Imported modules:
	KERNEL32.dll
	USER32.dll
	GDI32.dll
	ADVAPI32.dll
	SHELL32.dll
	LZ32.dll
	COMCTL32.dll

Imported functions:
	KERNEL32.dll:
		GetProcAddress
		FormatMessageA
		DeleteFileA
		MulDiv
		IsDBCSLeadByte
		GetExitCodeProcess
		CreateProcessA
		GetTempFileNameA
		GetSystemDefaultLCID
		WaitForSingleObject
		CompareStringA
		Sleep
		SetFileTime
		LocalFileTimeToFileTime
		DosDateTimeToFileTime
		FreeLibrary
		RemoveDirectoryA
		FindNextFileA
		WritePrivateProfileSectionA
		GetStartupInfoA
		WriteFile
		ReadFile
		SetFileAttributesA
		LocalFree
		LocalAlloc
		LockResource
		LoadResource
		FindResourceA
		SizeofResource
		GetModuleHandleA
		GlobalFree
		GlobalUnlock
		GlobalLock
		GlobalAlloc
		MultiByteToWideChar
		lstrcmpiA
		GetDiskFreeSpaceA
		HeapAlloc
		GetProcessHeap
		HeapFree
		GetModuleFileNameA
		ExitProcess
		CreateFileA
		CreateFileMappingA
		MapViewOfFile
		UnmapViewOfFile
		lstrcpynA
		SetFilePointer
		GetFileSize
		FindFirstFileA
		CreateDirectoryA
		GetLastError
		GetPrivateProfileStringA
		FindClose
		GetFileAttributesA
		lstrcatA
		lstrlenA
		GetWindowsDirectoryA
		lstrcpyA
		GetSystemDirectoryA
		GetTempPathA
		GetPrivateProfileSectionA
		LoadLibraryA
		MoveFileExA
		WritePrivateProfileStringA
		GetShortPathNameA
		FlushFileBuffers
		CloseHandle
		IsBadCodePtr
		IsBadReadPtr
		SetStdHandle
		LCMapStringW
		LCMapStringA
		SetUnhandledExceptionFilter
		GetStdHandle
		SetHandleCount
		GetFileType
		GetEnvironmentStrings
		WideCharToMultiByte
		GetEnvironmentStringsW
		FreeEnvironmentStringsA
		UnhandledExceptionFilter
		FreeEnvironmentStringsW
		TerminateProcess
		GetStringTypeW
		GetCurrentProcess
		GetOEMCP
		GetACP
		GetStringTypeA
		IsBadWritePtr
		HeapReAlloc
		GetCPInfo
		VirtualFree
		HeapCreate
		VirtualAlloc
		GetVersion
		GetCommandLineA
		HeapDestroy
		RtlUnwind
	USER32.dll:
		GetParent
		GetDlgItem
		SetFocus
		SendDlgItemMessageA
		EnableWindow
		CheckRadioButton
		GetWindowLongA
		LoadStringA
		LoadImageA
		MessageBoxA
		CharNextA
		IsDlgButtonChecked
		GetDlgItemTextA
		CheckDlgButton
		SetDlgItemTextA
		ReleaseDC
		GetDC
		GetWindow
		PostMessageA
		SetWindowTextA
		wsprintfA
		GetDesktopWindow
		GetWindowTextA
		DestroyWindow
		CreateDialogParamA
		FillRect
		GetSysColor
		GetSysColorBrush
		EndPaint
		BeginPaint
		DrawTextA
		MoveWindow
		GetClientRect
		ScreenToClient
		GetNextDlgTabItem
		SetParent
		MapDialogRect
		IsWindow
		GetWindowRect
		CreateDialogIndirectParamA
		ShowWindow
		InvalidateRect
		IsWindowEnabled
		SetWindowPos
		UpdateWindow
		IsDialogMessageA
		SetWindowLongA
		GetActiveWindow
		SetActiveWindow
		LoadIconA
		PeekMessageA
		SendMessageA
		DispatchMessageA
		TranslateMessage
	GDI32.dll:
		CreateFontIndirectA
		RealizePalette
		SelectPalette
		CreatePalette
		GetObjectA
		GetStockObject
		CreateDIBitmap
		GetTextExtentPointA
		SelectObject
		EnumFontFamiliesExA
		DeleteDC
		BitBlt
		TextOutA
		SetBkMode
		SetBkColor
		CreateCompatibleDC
		CreateSolidBrush
		SetTextColor
		DeleteObject
		GetDeviceCaps
	ADVAPI32.dll:
		RegCloseKey
		RegQueryValueExA
		RegOpenKeyExA
	SHELL32.dll:
		ShellExecuteA
		SHBrowseForFolderA
		SHGetPathFromIDListA
		SHGetMalloc
	LZ32.dll:
		LZOpenFileA
		LZCopy
		LZClose
	COMCTL32.dll:
		<ordinal 17>

Section .text (start = 0x1000, length = 0x12000, minimum allocation = 0x11b16):
    Address: 1000
    Flags: 0x60000020 (code, executable, readable)
    Alignment: 1 (2**0)

401000 <no name>:
  401000:	55                        push	ebp
  401001:	8b ec                     mov	ebp, esp
  401003:	83 ec 0c                  sub	esp, 0Ch
  401006:	53                        push	ebx
  401007:	33 db                     xor	ebx, ebx
  401009:	53                        push	ebx
  40100a:	83 4d fc ff               or	dword [ebp-04h], FFh
  40100e:	68 80 00 00 00            push	dword 00000080h
  401013:	6a 03                     push	dword 00000003h
  401015:	53                        push	ebx
  401016:	6a 01                     push	dword 00000001h
  401018:	68 00 00 00 80            push	dword 80000000h
  40101d:	ff 75 08                  push	dword [ebp+08h]
  401020:	ff 15 14 31 41 00         call	dword [00413114h]	; <CreateFileA>
  401026:	8b 4d 0c                  mov	ecx, [ebp+0Ch]
  401029:	83 f8 ff                  cmp	eax, FFh
  40102c:	89 45 f4                  mov	[ebp-0Ch], eax
  40102f:	c7 01 f6 ff ff ff         mov	dword [ecx], FFFFFFF6h
  401035:	0f 84 81 00 00 00         jz	4010bc
  40103b:	53                        push	ebx
  40103c:	53                        push	ebx
  40103d:	53                        push	ebx
  40103e:	6a 02                     push	dword 00000002h
  401040:	53                        push	ebx
  401041:	50                        push	eax
  401042:	ff 15 18 31 41 00         call	dword [00413118h]	; <CreateFileMappingA>
  401048:	3b c3                     cmp	eax, ebx
  40104a:	89 45 f8                  mov	[ebp-08h], eax
  40104d:	74 64                     jz	4010b3
  40104f:	57                        push	edi
  401050:	53                        push	ebx
  401051:	53                        push	ebx
  401052:	53                        push	ebx
  401053:	6a 04                     push	dword 00000004h
  401055:	50                        push	eax
  401056:	ff 15 1c 31 41 00         call	dword [0041311Ch]	; <MapViewOfFile>
  40105c:	8b f8                     mov	edi, eax
  40105e:	3b fb                     cmp	edi, ebx
  401060:	74 47                     jz	4010a9
  401062:	81 3f 4d 53 43 46         cmp	dword [edi], 4643534Dh
  401068:	75 33                     jnz	40109d
  40106a:	56                        push	esi
  40106b:	8b 77 10                  mov	esi, [edi+10h]
  40106e:	03 f7                     add	esi, edi
  401070:	66 39 5f 1c               cmp	[edi+1Ch], bx
  401074:	89 5d fc                  mov	[ebp-04h], ebx
  401077:	89 5d 08                  mov	[ebp+08h], ebx
  40107a:	76 20                     jbe	40109c
  40107c:	8b 06                    >mov	eax, [esi]
  40107e:	83 c6 11                  add	esi, 11h
  401081:	01 45 fc                  add	[ebp-04h], eax
  401084:	56                        push	esi
  401085:	e8 46 65 00 00            call	4075d0
  40108a:	ff 45 08                  inc	dword [ebp+08h]
  40108d:	8d 74 06 01               lea	esi, [esi+eax*1+01h]
  401091:	66 8b 45 08               mov	ax, [ebp+08h]
  401095:	59                        pop	ecx
  401096:	66 3b 47 1c               cmp	ax, [edi+1Ch]
  40109a:	72 e0                     jb	40107c
  40109c:	5e                       >pop	esi
  40109d:	57                       >push	edi
  40109e:	ff 15 20 31 41 00         call	dword [00413120h]	; <UnmapViewOfFile>
  4010a4:	8b 45 0c                  mov	eax, [ebp+0Ch]
  4010a7:	89 18                     mov	[eax], ebx
  4010a9:	ff 75 f8                 >push	dword [ebp-08h]
  4010ac:	ff 15 78 31 41 00         call	dword [00413178h]	; <CloseHandle>
  4010b2:	5f                        pop	edi
  4010b3:	ff 75 f4                 >push	dword [ebp-0Ch]
  4010b6:	ff 15 78 31 41 00         call	dword [00413178h]	; <CloseHandle>
  4010bc:	8b 45 fc                 >mov	eax, [ebp-04h]
  4010bf:	5b                        pop	ebx
  4010c0:	c9                        leave
  4010c1:	c3                        ret

4010c2 <no name>:
  4010c2:	ff 74 24 10               push	dword [esp+10h]
  4010c6:	ff 74 24 10               push	dword [esp+10h]
  4010ca:	ff 74 24 0c               push	dword [esp+0Ch]
  4010ce:	e8 7e 00 00 00            call	401151
  4010d3:	83 c4 0c                  add	esp, 0Ch
  4010d6:	a3 38 61 41 00            mov	[416138h], eax
  4010db:	85 c0                     test	eax, eax
  4010dd:	75 0e                     jnz	4010ed
  4010df:	e8 f9 12 00 00            call	4023dd
  4010e4:	85 c0                     test	eax, eax
  4010e6:	a3 38 61 41 00            mov	[416138h], eax
  4010eb:	74 26                     jz	401113
  4010ed:	7e 1d                    >jle	40110c
  4010ef:	83 3d ec 60 41 00 00      cmp	dword [004160ECh], 00h
  4010f6:	75 14                     jnz	40110c
  4010f8:	6a 10                     push	dword 00000010h
  4010fa:	6a 01                     push	dword 00000001h
  4010fc:	50                        push	eax
  4010fd:	ff 15 74 32 41 00         call	dword [00413274h]	; <GetDesktopWindow>
  401103:	50                        push	eax
  401104:	e8 e3 22 00 00            call	4033ec
  401109:	83 c4 10                  add	esp, 10h
  40110c:	e8 5d 3d 00 00           >call	404e6e
  401111:	eb 32                     jmp	401145
  401113:	e8 56 3d 00 00           >call	404e6e
  401118:	85 c0                     test	eax, eax
  40111a:	a3 38 61 41 00            mov	[416138h], eax
  40111f:	74 16                     jz	401137
  401121:	6a 10                     push	dword 00000010h
  401123:	6a 01                     push	dword 00000001h
  401125:	50                        push	eax
  401126:	ff 15 74 32 41 00         call	dword [00413274h]	; <GetDesktopWindow>
  40112c:	50                        push	eax
  40112d:	e8 ba 22 00 00            call	4033ec
  401132:	83 c4 10                  add	esp, 10h
  401135:	eb 0e                     jmp	401145
  401137:	a1 70 61 41 00           >mov	eax, [416170h]
  40113c:	85 c0                     test	eax, eax
  40113e:	74 05                     jz	401145
  401140:	a3 38 61 41 00            mov	[416138h], eax
  401145:	ff 35 38 61 41 00        >push	dword [00416138h]
  40114b:	ff 15 10 31 41 00         call	dword [00413110h]	; <ExitProcess>

401151 <no name>:
  401151:	8b 44 24 04               mov	eax, [esp+04h]
  401155:	53                        push	ebx
  401156:	56                        push	esi
  401157:	a3 d8 60 41 00            mov	[4160D8h], eax
  40115c:	8b 44 24 14               mov	eax, [esp+14h]
  401160:	57                        push	edi
  401161:	68 08 02 00 00            push	dword 00000208h
  401166:	a3 dc 60 41 00            mov	[4160DCh], eax
  40116b:	e8 0a 65 00 00            call	40767a
  401170:	68 80 00 00 00            push	dword 00000080h
  401175:	a3 74 61 41 00            mov	[416174h], eax
  40117a:	e8 fb 64 00 00            call	40767a
  40117f:	be 04 01 00 00            mov	esi, 00000104h
  401184:	a3 78 61 41 00            mov	[416178h], eax
  401189:	56                        push	esi
  40118a:	e8 eb 64 00 00            call	40767a
  40118f:	56                        push	esi
  401190:	a3 7c 61 41 00            mov	[41617Ch], eax
  401195:	e8 e0 64 00 00            call	40767a
  40119a:	56                        push	esi
  40119b:	a3 80 61 41 00            mov	[416180h], eax
  4011a0:	e8 d5 64 00 00            call	40767a
  4011a5:	33 db                     xor	ebx, ebx
  4011a7:	83 c4 14                  add	esp, 14h
  4011aa:	39 1d 74 61 41 00         cmp	[00416174h], ebx
  4011b0:	a3 84 61 41 00            mov	[416184h], eax
  4011b5:	0f 84 89 00 00 00         jz	401244
  4011bb:	8b 0d 78 61 41 00         mov	ecx, [00416178h]
  4011c1:	3b cb                     cmp	ecx, ebx
  4011c3:	74 7f                     jz	401244
  4011c5:	39 1d 7c 61 41 00         cmp	[0041617Ch], ebx
  4011cb:	74 77                     jz	401244
  4011cd:	39 1d 80 61 41 00         cmp	[00416180h], ebx
  4011d3:	74 6f                     jz	401244
  4011d5:	3b c3                     cmp	eax, ebx
  4011d7:	74 6b                     jz	401244
  4011d9:	88 19                     mov	[ecx], bl
  4011db:	e8 6b 00 00 00            call	40124b
  4011e0:	68 40 50 41 00            push	dword 00415040h
  4011e5:	ff 15 64 31 41 00         call	dword [00413164h]	; <LoadLibraryA>
  4011eb:	a3 fc 60 41 00            mov	[4160FCh], eax
  4011f0:	a1 7c 61 41 00            mov	eax, [41617Ch]
  4011f5:	56                        push	esi
  4011f6:	88 18                     mov	[eax], bl
  4011f8:	e8 7d 64 00 00            call	40767a
  4011fd:	8b f8                     mov	edi, eax
  4011ff:	59                        pop	ecx
  401200:	3b fb                     cmp	edi, ebx
  401202:	74 40                     jz	401244
  401204:	56                        push	esi
  401205:	57                        push	edi
  401206:	53                        push	ebx
  401207:	ff 15 0c 31 41 00         call	dword [0041310Ch]	; <GetModuleFileNameA>
  40120d:	57                        push	edi
  40120e:	e8 e6 05 00 00            call	4017f9
  401213:	57                        push	edi
  401214:	8b f0                     mov	esi, eax
  401216:	e8 30 64 00 00            call	40764b
  40121b:	59                        pop	ecx
  40121c:	3b f3                     cmp	esi, ebx
  40121e:	59                        pop	ecx
  40121f:	74 04                     jz	401225
  401221:	8b c6                     mov	eax, esi
  401223:	eb 22                     jmp	401247
  401225:	8b 44 24 14              >mov	eax, [esp+14h]
  401229:	89 1d e4 60 41 00         mov	[004160E4h], ebx
  40122f:	3b c3                     cmp	eax, ebx
  401231:	74 0d                     jz	401240
  401233:	38 18                     cmp	[eax], bl
  401235:	74 09                     jz	401240
  401237:	50                        push	eax
  401238:	e8 68 04 00 00            call	4016a5
  40123d:	59                        pop	ecx
  40123e:	eb 07                     jmp	401247
  401240:	33 c0                    >xor	eax, eax
  401242:	eb 03                     jmp	401247
  401244:	6a 26                    >push	dword 00000026h
  401246:	58                        pop	eax
  401247:	5f                       >pop	edi
  401248:	5e                        pop	esi
  401249:	5b                        pop	ebx
  40124a:	c3                        ret

40124b <no name>:
  40124b:	55                        push	ebp
  40124c:	8b ec                     mov	ebp, esp
  40124e:	83 ec 0c                  sub	esp, 0Ch
  401251:	53                        push	ebx
  401252:	56                        push	esi
  401253:	8d 45 fc                  lea	eax, [ebp-04h]
  401256:	57                        push	edi
  401257:	33 db                     xor	ebx, ebx
  401259:	50                        push	eax
  40125a:	68 19 00 02 00            push	dword 00020019h
  40125f:	53                        push	ebx
  401260:	68 84 50 41 00            push	dword 00415084h
  401265:	68 02 00 00 80            push	dword 80000002h
  40126a:	89 5d fc                  mov	[ebp-04h], ebx
  40126d:	ff 15 08 30 41 00         call	dword [00413008h]	; <RegOpenKeyExA>
  401273:	8b 35 4c 31 41 00         mov	esi, [0041314Ch]
  401279:	bf 04 01 00 00            mov	edi, 00000104h
  40127e:	85 c0                     test	eax, eax
  401280:	0f 85 85 00 00 00         jnz	40130b
  401286:	8d 45 f8                  lea	eax, [ebp-08h]
  401289:	89 7d f8                  mov	[ebp-08h], edi
  40128c:	50                        push	eax
  40128d:	8d 45 f4                  lea	eax, [ebp-0Ch]
  401290:	ff 35 74 61 41 00         push	dword [00416174h]
  401296:	c7 45 f4 01 00 00 00      mov	dword [ebp-0Ch], 00000001h
  40129d:	50                        push	eax
  40129e:	53                        push	ebx
  40129f:	8b 1d 04 30 41 00         mov	ebx, [00413004h]
  4012a5:	68 74 50 41 00            push	dword 00415074h
  4012aa:	ff 75 fc                  push	dword [ebp-04h]
  4012ad:	ff d3                     call	ebx
  4012af:	ff 35 74 61 41 00         push	dword [00416174h]
  4012b5:	ff d6                     call	esi
  4012b7:	50                        push	eax
  4012b8:	ff 35 74 61 41 00         push	dword [00416174h]
  4012be:	e8 5f 01 00 00            call	401422
  4012c3:	59                        pop	ecx
  4012c4:	a3 e0 61 41 00            mov	[4161E0h], eax
  4012c9:	59                        pop	ecx
  4012ca:	8d 45 f8                  lea	eax, [ebp-08h]
  4012cd:	50                        push	eax
  4012ce:	8d 45 f4                  lea	eax, [ebp-0Ch]
  4012d1:	ff 35 74 61 41 00         push	dword [00416174h]
  4012d7:	89 7d f8                  mov	[ebp-08h], edi
  4012da:	50                        push	eax
  4012db:	6a 00                     push	dword 00000000h
  4012dd:	68 64 50 41 00            push	dword 00415064h
  4012e2:	ff 75 fc                  push	dword [ebp-04h]
  4012e5:	ff d3                     call	ebx
  4012e7:	ff 35 74 61 41 00         push	dword [00416174h]
  4012ed:	ff d6                     call	esi
  4012ef:	50                        push	eax
  4012f0:	ff 35 74 61 41 00         push	dword [00416174h]
  4012f6:	e8 27 01 00 00            call	401422
  4012fb:	59                        pop	ecx
  4012fc:	a3 e4 61 41 00            mov	[4161E4h], eax
  401301:	59                        pop	ecx
  401302:	ff 75 fc                  push	dword [ebp-04h]
  401305:	ff 15 00 30 41 00         call	dword [00413000h]	; <RegCloseKey>
  40130b:	57                       >push	edi
  40130c:	ff 35 74 61 41 00         push	dword [00416174h]
  401312:	ff 15 50 31 41 00         call	dword [00413150h]	; <GetWindowsDirectoryA>
  401318:	ff 35 74 61 41 00         push	dword [00416174h]
  40131e:	ff d6                     call	esi
  401320:	50                        push	eax
  401321:	ff 35 74 61 41 00         push	dword [00416174h]
  401327:	e8 f6 00 00 00            call	401422
  40132c:	8b 1d 48 31 41 00         mov	ebx, [00413148h]
  401332:	59                        pop	ecx
  401333:	59                        pop	ecx
  401334:	a3 e8 61 41 00            mov	[4161E8h], eax
  401339:	68 58 50 41 00            push	dword 00415058h
  40133e:	ff 35 74 61 41 00         push	dword [00416174h]
  401344:	ff d3                     call	ebx
  401346:	ff 35 74 61 41 00         push	dword [00416174h]
  40134c:	ff d6                     call	esi
  40134e:	50                        push	eax
  40134f:	ff 35 74 61 41 00         push	dword [00416174h]
  401355:	e8 c8 00 00 00            call	401422
  40135a:	59                        pop	ecx
  40135b:	a3 f0 61 41 00            mov	[4161F0h], eax
  401360:	59                        pop	ecx
  401361:	57                        push	edi
  401362:	ff 35 74 61 41 00         push	dword [00416174h]
  401368:	ff 15 58 31 41 00         call	dword [00413158h]	; <GetSystemDirectoryA>
  40136e:	ff 35 74 61 41 00         push	dword [00416174h]
  401374:	ff d6                     call	esi
  401376:	50                        push	eax
  401377:	ff 35 74 61 41 00         push	dword [00416174h]
  40137d:	e8 a0 00 00 00            call	401422
  401382:	59                        pop	ecx
  401383:	a3 ec 61 41 00            mov	[4161ECh], eax
  401388:	59                        pop	ecx
  401389:	ff 35 74 61 41 00         push	dword [00416174h]
  40138f:	57                        push	edi
  401390:	ff 15 5c 31 41 00         call	dword [0041315Ch]	; <GetTempPathA>
  401396:	8b 0d 74 61 41 00         mov	ecx, [00416174h]
  40139c:	80 7c 01 ff 5c            cmp	byte [ecx+eax*1-01h], 5Ch
  4013a1:	8d 44 01 ff               lea	eax, [ecx+eax*1-01h]
  4013a5:	75 03                     jnz	4013aa
  4013a7:	80 20 00                  and	byte [eax], 00h
  4013aa:	ff 35 74 61 41 00        >push	dword [00416174h]
  4013b0:	e8 f4 00 00 00            call	4014a9
  4013b5:	85 c0                     test	eax, eax
  4013b7:	59                        pop	ecx
  4013b8:	74 1d                     jz	4013d7
  4013ba:	ff 35 74 61 41 00         push	dword [00416174h]
  4013c0:	ff d6                     call	esi
  4013c2:	50                        push	eax
  4013c3:	ff 35 74 61 41 00         push	dword [00416174h]
  4013c9:	e8 54 00 00 00            call	401422
  4013ce:	59                        pop	ecx
  4013cf:	a3 f4 61 41 00            mov	[4161F4h], eax
  4013d4:	59                        pop	ecx
  4013d5:	eb 46                     jmp	40141d
  4013d7:	ff 35 e8 61 41 00        >push	dword [004161E8h]
  4013dd:	ff 35 74 61 41 00         push	dword [00416174h]
  4013e3:	ff 15 54 31 41 00         call	dword [00413154h]	; <lstrcpyA>
  4013e9:	68 50 50 41 00            push	dword 00415050h
  4013ee:	ff 35 74 61 41 00         push	dword [00416174h]
  4013f4:	ff d3                     call	ebx
  4013f6:	ff 35 74 61 41 00         push	dword [00416174h]
  4013fc:	ff d6                     call	esi
  4013fe:	50                        push	eax
  4013ff:	ff 35 74 61 41 00         push	dword [00416174h]
  401405:	e8 18 00 00 00            call	401422
  40140a:	ff 35 74 61 41 00         push	dword [00416174h]
  401410:	a3 f4 61 41 00            mov	[4161F4h], eax
  401415:	e8 07 01 00 00            call	401521
  40141a:	83 c4 0c                  add	esp, 0Ch
  40141d:	5f                       >pop	edi
  40141e:	5e                        pop	esi
  40141f:	5b                        pop	ebx
  401420:	c9                        leave
  401421:	c3                        ret

401422 <no name>:
  401422:	56                        push	esi
  401423:	57                        push	edi
  401424:	8b 7c 24 10               mov	edi, [esp+10h]
  401428:	8d 47 01                  lea	eax, [edi+01h]
  40142b:	85 c0                     test	eax, eax
  40142d:	75 04                     jnz	401433
  40142f:	33 f6                     xor	esi, esi
  401431:	eb 1f                     jmp	401452
  401433:	50                       >push	eax
  401434:	e8 41 62 00 00            call	40767a
  401439:	8b f0                     mov	esi, eax
  40143b:	59                        pop	ecx
  40143c:	85 f6                     test	esi, esi
  40143e:	74 12                     jz	401452
  401440:	57                        push	edi
  401441:	ff 74 24 10               push	dword [esp+10h]
  401445:	56                        push	esi
  401446:	e8 a5 62 00 00            call	4076f0
  40144b:	83 c4 0c                  add	esp, 0Ch
  40144e:	80 24 3e 00               and	byte [esi+edi*1], 00h
  401452:	8b c6                    >mov	eax, esi
  401454:	5f                        pop	edi
  401455:	5e                        pop	esi
  401456:	c3                        ret

401457 <no name>:
  401457:	55                        push	ebp
  401458:	8b ec                     mov	ebp, esp
  40145a:	51                        push	ecx
  40145b:	51                        push	ecx
  40145c:	80 65 f8 00               and	byte [ebp-08h], 00h
  401460:	57                        push	edi
  401461:	33 c0                     xor	eax, eax
  401463:	8d 7d f9                  lea	edi, [ebp-07h]
  401466:	39 05 c8 61 41 00         cmp	[004161C8h], eax
  40146c:	ab                        stosd
  40146d:	5f                        pop	edi
  40146e:	74 35                     jz	4014a5
  401470:	ff 75 0c                  push	dword [ebp+0Ch]
  401473:	8d 45 f8                  lea	eax, [ebp-08h]
  401476:	68 b0 50 41 00            push	dword 004150B0h
  40147b:	50                        push	eax
  40147c:	ff 15 70 32 41 00         call	dword [00413270h]	; <wsprintfA>
  401482:	83 c4 0c                  add	esp, 0Ch
  401485:	8d 45 f8                  lea	eax, [ebp-08h]
  401488:	ff 35 c8 61 41 00         push	dword [004161C8h]
  40148e:	ff 75 14                  push	dword [ebp+14h]
  401491:	ff 75 10                  push	dword [ebp+10h]
  401494:	68 04 63 41 00            push	dword 00416304h
  401499:	50                        push	eax
  40149a:	ff 75 08                  push	dword [ebp+08h]
  40149d:	ff 15 3c 31 41 00         call	dword [0041313Ch]	; <GetPrivateProfileStringA>
  4014a3:	c9                        leave
  4014a4:	c3                        ret
  4014a5:	33 c0                    >xor	eax, eax
  4014a7:	c9                        leave
  4014a8:	c3                        ret

4014a9 <no name>:
  4014a9:	ff 74 24 04               push	dword [esp+04h]
  4014ad:	ff 15 44 31 41 00         call	dword [00413144h]	; <GetFileAttributesA>
  4014b3:	83 f8 ff                  cmp	eax, FFh
  4014b6:	75 03                     jnz	4014bb
  4014b8:	33 c0                     xor	eax, eax
  4014ba:	c3                        ret
  4014bb:	c1 e8 04                 >shr	eax, 04h
  4014be:	83 e0 01                  and	eax, 01h
  4014c1:	c3                        ret

4014c2 <no name>:
  4014c2:	55                        push	ebp
  4014c3:	8b ec                     mov	ebp, esp
  4014c5:	81 ec 40 01 00 00         sub	esp, 00000140h
  4014cb:	83 a5 c0 fe ff ff 00      and	dword [ebp-00000140h], 00h
  4014d2:	56                        push	esi
  4014d3:	57                        push	edi
  4014d4:	6a 4f                     push	dword 0000004Fh
  4014d6:	59                        pop	ecx
  4014d7:	33 c0                     xor	eax, eax
  4014d9:	8d bd c4 fe ff ff         lea	edi, [ebp-0000013Ch]
  4014df:	f3 ab                     rep stosd
  4014e1:	8d 85 c0 fe ff ff         lea	eax, [ebp-00000140h]
  4014e7:	50                        push	eax
  4014e8:	ff 75 08                  push	dword [ebp+08h]
  4014eb:	ff 15 30 31 41 00         call	dword [00413130h]	; <FindFirstFileA>
  4014f1:	33 c9                     xor	ecx, ecx
  4014f3:	83 f8 ff                  cmp	eax, FFh
  4014f6:	0f 95 c1                  setnz	cl
  4014f9:	8b f1                     mov	esi, ecx
  4014fb:	85 f6                     test	esi, esi
  4014fd:	74 1c                     jz	40151b
  4014ff:	83 7d 0c 00               cmp	dword [ebp+0Ch], 00h
  401503:	74 0f                     jz	401514
  401505:	8b b5 c0 fe ff ff         mov	esi, [ebp-00000140h]
  40150b:	23 75 0c                  and	esi, [ebp+0Ch]
  40150e:	f7 de                     neg	esi
  401510:	1b f6                     sbb	esi, esi
  401512:	f7 de                     neg	esi
  401514:	50                       >push	eax
  401515:	ff 15 40 31 41 00         call	dword [00413140h]	; <FindClose>
  40151b:	8b c6                    >mov	eax, esi
  40151d:	5f                        pop	edi
  40151e:	5e                        pop	esi
  40151f:	c9                        leave
  401520:	c3                        ret

401521 <no name>:
  401521:	55                        push	ebp
  401522:	8b ec                     mov	ebp, esp
  401524:	81 ec 04 01 00 00         sub	esp, 00000104h
  40152a:	56                        push	esi
  40152b:	8b 35 34 31 41 00         mov	esi, [00413134h]
  401531:	6a 00                     push	dword 00000000h
  401533:	ff 75 08                  push	dword [ebp+08h]
  401536:	ff d6                     call	esi
  401538:	85 c0                     test	eax, eax
  40153a:	75 66                     jnz	4015a2
  40153c:	57                        push	edi
  40153d:	ff 15 38 31 41 00         call	dword [00413138h]	; <GetLastError>
  401543:	80 a5 fc fe ff ff 00      and	byte [ebp-00000104h], 00h
  40154a:	6a 40                     push	dword 00000040h
  40154c:	8b d0                     mov	edx, eax
  40154e:	59                        pop	ecx
  40154f:	33 c0                     xor	eax, eax
  401551:	8d bd fd fe ff ff         lea	edi, [ebp-00000103h]
  401557:	f3 ab                     rep stosd
  401559:	66 ab                     stosw
  40155b:	aa                        stosb
  40155c:	81 fa b7 00 00 00         cmp	edx, 000000B7h
  401562:	5f                        pop	edi
  401563:	74 3d                     jz	4015a2
  401565:	83 fa 05                  cmp	edx, 05h
  401568:	75 05                     jnz	40156f
  40156a:	6a 07                     push	dword 00000007h
  40156c:	58                        pop	eax
  40156d:	eb 35                     jmp	4015a4
  40156f:	ff 75 08                 >push	dword [ebp+08h]
  401572:	8d 85 fc fe ff ff         lea	eax, [ebp-00000104h]
  401578:	50                        push	eax
  401579:	e8 29 00 00 00            call	4015a7
  40157e:	59                        pop	ecx
  40157f:	85 c0                     test	eax, eax
  401581:	59                        pop	ecx
  401582:	74 1e                     jz	4015a2
  401584:	8d 85 fc fe ff ff         lea	eax, [ebp-00000104h]
  40158a:	50                        push	eax
  40158b:	e8 91 ff ff ff            call	401521
  401590:	85 c0                     test	eax, eax
  401592:	59                        pop	ecx
  401593:	75 0d                     jnz	4015a2
  401595:	50                        push	eax
  401596:	ff 75 08                  push	dword [ebp+08h]
  401599:	ff d6                     call	esi
  40159b:	f7 d8                     neg	eax
  40159d:	1b c0                     sbb	eax, eax
  40159f:	40                        inc	eax
  4015a0:	eb 02                     jmp	4015a4
  4015a2:	33 c0                    >xor	eax, eax
  4015a4:	5e                       >pop	esi
  4015a5:	c9                        leave
  4015a6:	c3                        ret

4015a7 <no name>:
  4015a7:	55                        push	ebp
  4015a8:	8b ec                     mov	ebp, esp
  4015aa:	68 b4 50 41 00            push	dword 004150B4h
  4015af:	ff 75 0c                  push	dword [ebp+0Ch]
  4015b2:	e8 ce 64 00 00            call	407a85
  4015b7:	59                        pop	ecx
  4015b8:	85 c0                     test	eax, eax
  4015ba:	59                        pop	ecx
  4015bb:	74 3d                     jz	4015fa
  4015bd:	56                        push	esi
  4015be:	ff 75 0c                  push	dword [ebp+0Ch]
  4015c1:	ff 75 08                  push	dword [ebp+08h]
  4015c4:	ff 15 54 31 41 00         call	dword [00413154h]	; <lstrcpyA>
  4015ca:	6a 5c                     push	dword 0000005Ch
  4015cc:	ff 75 08                  push	dword [ebp+08h]
  4015cf:	e8 51 64 00 00            call	407a25
  4015d4:	6a 2f                     push	dword 0000002Fh
  4015d6:	8b f0                     mov	esi, eax
  4015d8:	ff 75 08                  push	dword [ebp+08h]
  4015db:	e8 45 64 00 00            call	407a25
  4015e0:	83 c4 10                  add	esp, 10h
  4015e3:	3b f0                     cmp	esi, eax
  4015e5:	76 02                     jbe	4015e9
  4015e7:	8b c6                     mov	eax, esi
  4015e9:	80 20 00                 >and	byte [eax], 00h
  4015ec:	33 c9                     xor	ecx, ecx
  4015ee:	80 78 ff 3a               cmp	byte [eax-01h], 3Ah
  4015f2:	5e                        pop	esi
  4015f3:	0f 95 c1                  setnz	cl
  4015f6:	8b c1                     mov	eax, ecx
  4015f8:	5d                        pop	ebp
  4015f9:	c3                        ret
  4015fa:	33 c0                    >xor	eax, eax
  4015fc:	5d                        pop	ebp
  4015fd:	c3                        ret

4015fe <no name>:
  4015fe:	55                        push	ebp
  4015ff:	8b ec                     mov	ebp, esp
  401601:	53                        push	ebx
  401602:	56                        push	esi
  401603:	57                        push	edi
  401604:	8b 7d 0c                  mov	edi, [ebp+0Ch]
  401607:	8b 07                     mov	eax, [edi]
  401609:	85 c0                     test	eax, eax
  40160b:	74 07                     jz	401614
  40160d:	50                        push	eax
  40160e:	e8 38 60 00 00            call	40764b
  401613:	59                        pop	ecx
  401614:	8b 5d 08                 >mov	ebx, [ebp+08h]
  401617:	83 27 00                  and	dword [edi], 00h
  40161a:	8b f3                     mov	esi, ebx
  40161c:	89 5d 0c                  mov	[ebp+0Ch], ebx
  40161f:	8a 03                     mov	al, [ebx]
  401621:	84 c0                     test	al, al
  401623:	74 79                     jz	40169e
  401625:	3c 22                    >cmp	al, 22h
  401627:	75 11                     jnz	40163a
  401629:	80 7b 01 00               cmp	byte [ebx+01h], 00h
  40162d:	74 0b                     jz	40163a
  40162f:	53                        push	ebx
  401630:	ff 15 48 32 41 00         call	dword [00413248h]	; <CharNextA>
  401636:	8b d8                     mov	ebx, eax
  401638:	eb 19                     jmp	401653
  40163a:	8a 53 01                 >mov	dl, [ebx+01h]
  40163d:	8d 4b 01                  lea	ecx, [ebx+01h]
  401640:	80 fa 2d                  cmp	dl, 2Dh
  401643:	74 05                     jz	40164a
  401645:	80 fa 2f                  cmp	dl, 2Fh
  401648:	75 04                     jnz	40164e
  40164a:	3c 20                    >cmp	al, 20h
  40164c:	74 0d                     jz	40165b
  40164e:	88 06                    >mov	[esi], al
  401650:	46                        inc	esi
  401651:	8b d9                     mov	ebx, ecx
  401653:	8a 03                    >mov	al, [ebx]
  401655:	84 c0                     test	al, al
  401657:	75 cc                     jnz	401625
  401659:	eb 05                     jmp	401660
  40165b:	8a 03                    >mov	al, [ebx]
  40165d:	88 06                     mov	[esi], al
  40165f:	46                        inc	esi
  401660:	3b 75 0c                 >cmp	esi, [ebp+0Ch]
  401663:	74 39                     jz	40169e
  401665:	80 3e 22                  cmp	byte [esi], 22h
  401668:	75 04                     jnz	40166e
  40166a:	4e                        dec	esi
  40166b:	80 26 00                  and	byte [esi], 00h
  40166e:	68 04 01 00 00           >push	dword 00000104h
  401673:	e8 02 60 00 00            call	40767a
  401678:	2b 75 0c                  sub	esi, [ebp+0Ch]
  40167b:	89 07                     mov	[edi], eax
  40167d:	80 20 00                  and	byte [eax], 00h
  401680:	59                        pop	ecx
  401681:	46                        inc	esi
  401682:	56                        push	esi
  401683:	ff 75 0c                  push	dword [ebp+0Ch]
  401686:	ff 37                     push	dword [edi]
  401688:	ff 15 24 31 41 00         call	dword [00413124h]	; <lstrcpynA>
  40168e:	ff 37                     push	dword [edi]
  401690:	e8 5b 45 00 00            call	405bf0
  401695:	ff 37                     push	dword [edi]
  401697:	e8 93 45 00 00            call	405c2f
  40169c:	59                        pop	ecx
  40169d:	59                        pop	ecx
  40169e:	5f                       >pop	edi
  40169f:	8b c3                     mov	eax, ebx
  4016a1:	5e                        pop	esi
  4016a2:	5b                        pop	ebx
  4016a3:	5d                        pop	ebp
  4016a4:	c3                        ret

4016a5 <no name>:
  4016a5:	53                        push	ebx
  4016a6:	55                        push	ebp
  4016a7:	56                        push	esi
  4016a8:	8b 74 24 10               mov	esi, [esp+10h]
  4016ac:	33 db                     xor	ebx, ebx
  4016ae:	33 ed                     xor	ebp, ebp
  4016b0:	8a 06                     mov	al, [esi]
  4016b2:	57                        push	edi
  4016b3:	3a c3                     cmp	al, bl
  4016b5:	0f 84 37 01 00 00         jz	4017f2
  4016bb:	6a 01                     push	dword 00000001h
  4016bd:	5f                        pop	edi
  4016be:	3b eb                    >cmp	ebp, ebx
  4016c0:	75 04                     jnz	4016c6
  4016c2:	3c 2f                     cmp	al, 2Fh
  4016c4:	74 08                     jz	4016ce
  4016c6:	3c 2d                    >cmp	al, 2Dh
  4016c8:	0f 85 e5 00 00 00         jnz	4017b3
  4016ce:	0f be 46 01              >movsx	eax, byte [esi+01h]
  4016d2:	46                        inc	esi
  4016d3:	83 f8 61                  cmp	eax, 61h
  4016d6:	7f 13                     jg	4016eb
  4016d8:	0f 84 ef 00 00 00         jz	4017cd
  4016de:	83 e8 41                  sub	eax, 41h
  4016e1:	0f 84 e6 00 00 00         jz	4017cd
  4016e7:	48                        dec	eax
  4016e8:	48                        dec	eax
  4016e9:	eb 03                     jmp	4016ee
  4016eb:	83 e8 63                 >sub	eax, 63h
  4016ee:	0f 84 b3 00 00 00        >jz	4017a7
  4016f4:	48                        dec	eax
  4016f5:	0f 84 9e 00 00 00         jz	401799
  4016fb:	48                        dec	eax
  4016fc:	0f 84 90 00 00 00         jz	401792
  401702:	48                        dec	eax
  401703:	74 7b                     jz	401780
  401705:	83 e8 0a                  sub	eax, 0Ah
  401708:	74 1e                     jz	401728
  40170a:	83 e8 03                  sub	eax, 03h
  40170d:	0f 85 a0 00 00 00         jnz	4017b3
  401713:	89 3d f0 60 41 00         mov	[004160F0h], edi
  401719:	c7 05 e4 60 41 00 02      mov	dword [004160E4h], 00000002h
		00 00 00 
  401723:	e9 8b 00 00 00            jmp	4017b3
  401728:	8a 46 01                 >mov	al, [esi+01h]
  40172b:	46                        inc	esi
  40172c:	3c 64                     cmp	al, 64h
  40172e:	74 28                     jz	401758
  401730:	3c 44                     cmp	al, 44h
  401732:	74 24                     jz	401758
  401734:	3c 78                     cmp	al, 78h
  401736:	74 12                     jz	40174a
  401738:	3c 58                     cmp	al, 58h
  40173a:	74 0e                     jz	40174a
  40173c:	89 3d 58 61 41 00         mov	[00416158h], edi
  401742:	89 1d 5c 61 41 00         mov	[0041615Ch], ebx
  401748:	eb 69                     jmp	4017b3
  40174a:	89 3d 5c 61 41 00        >mov	[0041615Ch], edi
  401750:	89 1d 58 61 41 00         mov	[00416158h], ebx
  401756:	eb 5b                     jmp	4017b3
  401758:	8a 46 01                 >mov	al, [esi+01h]
  40175b:	46                        inc	esi
  40175c:	3c 78                     cmp	al, 78h
  40175e:	74 12                     jz	401772
  401760:	3c 58                     cmp	al, 58h
  401762:	74 0e                     jz	401772
  401764:	89 3d 60 61 41 00         mov	[00416160h], edi
  40176a:	89 1d 64 61 41 00         mov	[00416164h], ebx
  401770:	eb 41                     jmp	4017b3
  401772:	89 3d 64 61 41 00        >mov	[00416164h], edi
  401778:	89 1d 60 61 41 00         mov	[00416160h], ebx
  40177e:	eb 33                     jmp	4017b3
  401780:	68 bc 61 41 00           >push	dword 004161BCh
  401785:	46                       >inc	esi
  401786:	56                        push	esi
  401787:	e8 72 fe ff ff            call	4015fe
  40178c:	59                        pop	ecx
  40178d:	8b f0                     mov	esi, eax
  40178f:	59                        pop	ecx
  401790:	eb 21                     jmp	4017b3
  401792:	68 b4 61 41 00           >push	dword 004161B4h
  401797:	eb ec                     jmp	401785
  401799:	89 3d 68 61 41 00        >mov	[00416168h], edi
  40179f:	89 1d 6c 61 41 00         mov	[0041616Ch], ebx
  4017a5:	eb 0c                     jmp	4017b3
  4017a7:	89 3d 6c 61 41 00        >mov	[0041616Ch], edi
  4017ad:	89 1d 68 61 41 00         mov	[00416168h], ebx
  4017b3:	3b eb                    >cmp	ebp, ebx
  4017b5:	74 06                     jz	4017bd
  4017b7:	8a 06                     mov	al, [esi]
  4017b9:	88 45 00                  mov	[ebp+00h], al
  4017bc:	45                        inc	ebp
  4017bd:	38 1e                    >cmp	[esi], bl
  4017bf:	74 01                     jz	4017c2
  4017c1:	46                        inc	esi
  4017c2:	8a 06                    >mov	al, [esi]
  4017c4:	3a c3                     cmp	al, bl
  4017c6:	74 23                     jz	4017eb
  4017c8:	e9 f1 fe ff ff            jmp	4016be
  4017cd:	8a 46 01                 >mov	al, [esi+01h]
  4017d0:	46                        inc	esi
  4017d1:	3a c3                     cmp	al, bl
  4017d3:	74 0e                     jz	4017e3
  4017d5:	0f be c0                  movsx	eax, al
  4017d8:	50                        push	eax
  4017d9:	e8 2c 63 00 00            call	407b0a
  4017de:	85 c0                     test	eax, eax
  4017e0:	59                        pop	ecx
  4017e1:	75 ea                     jnz	4017cd
  4017e3:	89 35 cc 61 41 00        >mov	[004161CCh], esi
  4017e9:	eb 07                     jmp	4017f2
  4017eb:	3b eb                    >cmp	ebp, ebx
  4017ed:	74 03                     jz	4017f2
  4017ef:	88 5d 00                  mov	[ebp+00h], bl
  4017f2:	5f                       >pop	edi
  4017f3:	5e                        pop	esi
  4017f4:	5d                        pop	ebp
  4017f5:	33 c0                     xor	eax, eax
  4017f7:	5b                        pop	ebx
  4017f8:	c3                        ret

4017f9 <no name>:
  4017f9:	53                        push	ebx
  4017fa:	56                        push	esi
  4017fb:	57                        push	edi
  4017fc:	6a 03                     push	dword 00000003h
  4017fe:	5b                        pop	ebx
  4017ff:	33 ff                     xor	edi, edi
  401801:	68 00 01 00 00            push	dword 00000100h
  401806:	57                        push	edi
  401807:	ff 74 24 18               push	dword [esp+18h]
  40180b:	e8 cf 00 00 00            call	4018df
  401810:	8b f0                     mov	esi, eax
  401812:	83 c4 0c                  add	esp, 0Ch
  401815:	83 fe ff                  cmp	esi, FFh
  401818:	0f 84 96 00 00 00         jz	4018b4
  40181e:	55                        push	ebp
  40181f:	57                        push	edi
  401820:	56                        push	esi
  401821:	ff 15 2c 31 41 00         call	dword [0041312Ch]	; <GetFileSize>
  401827:	56                        push	esi
  401828:	8b d8                     mov	ebx, eax
  40182a:	e8 69 03 00 00            call	401b98
  40182f:	8b e8                     mov	ebp, eax
  401831:	59                        pop	ecx
  401832:	3b eb                     cmp	ebp, ebx
  401834:	75 05                     jnz	40183b
  401836:	6a 0d                     push	dword 0000000Dh
  401838:	5b                        pop	ebx
  401839:	eb 71                     jmp	4018ac
  40183b:	57                       >push	edi
  40183c:	55                        push	ebp
  40183d:	56                        push	esi
  40183e:	e8 3e 01 00 00            call	401981
  401843:	6a 04                     push	dword 00000004h
  401845:	68 00 61 41 00            push	dword 00416100h
  40184a:	56                        push	esi
  40184b:	e8 46 01 00 00            call	401996
  401850:	a1 00 61 41 00            mov	eax, [416100h]
  401855:	83 c4 18                  add	esp, 18h
  401858:	3b c7                     cmp	eax, edi
  40185a:	74 09                     jz	401865
  40185c:	50                        push	eax
  40185d:	e8 18 5e 00 00            call	40767a
  401862:	59                        pop	ecx
  401863:	8b f8                     mov	edi, eax
  401865:	ff 35 00 61 41 00        >push	dword [00416100h]
  40186b:	57                        push	edi
  40186c:	56                        push	esi
  40186d:	e8 24 01 00 00            call	401996
  401872:	ff 35 00 61 41 00         push	dword [00416100h]
  401878:	57                        push	edi
  401879:	e8 e2 03 00 00            call	401c60
  40187e:	ff 35 00 61 41 00         push	dword [00416100h]
  401884:	57                        push	edi
  401885:	e8 0e 04 00 00            call	401c98
  40188a:	8b d8                     mov	ebx, eax
  40188c:	83 c4 1c                  add	esp, 1Ch
  40188f:	85 db                     test	ebx, ebx
  401891:	75 0e                     jnz	4018a1
  401893:	a1 00 61 41 00            mov	eax, [416100h]
  401898:	8d 44 28 04               lea	eax, [eax+ebp*1+04h]
  40189c:	a3 04 61 41 00            mov	[416104h], eax
  4018a1:	85 ff                    >test	edi, edi
  4018a3:	74 07                     jz	4018ac
  4018a5:	57                        push	edi
  4018a6:	e8 a0 5d 00 00            call	40764b
  4018ab:	59                        pop	ecx
  4018ac:	56                       >push	esi
  4018ad:	e8 28 01 00 00            call	4019da
  4018b2:	59                        pop	ecx
  4018b3:	5d                        pop	ebp
  4018b4:	5f                       >pop	edi
  4018b5:	8b c3                     mov	eax, ebx
  4018b7:	5e                        pop	esi
  4018b8:	5b                        pop	ebx
  4018b9:	c3                        ret
     ...

4018df <no name>:
  4018df:	8b 4c 24 08               mov	ecx, [esp+08h]
  4018e3:	53                        push	ebx
  4018e4:	56                        push	esi
  4018e5:	57                        push	edi
  4018e6:	b8 00 00 00 c0            mov	eax, C0000000h
  4018eb:	6a 04                     push	dword 00000004h
  4018ed:	85 c9                     test	ecx, ecx
  4018ef:	8b d8                     mov	ebx, eax
  4018f1:	5f                        pop	edi
  4018f2:	75 09                     jnz	4018fd
  4018f4:	bb 00 00 00 80            mov	ebx, 80000000h
  4018f9:	6a 03                     push	dword 00000003h
  4018fb:	eb 15                     jmp	401912
  4018fd:	83 f9 02                 >cmp	ecx, 02h
  401900:	75 04                     jnz	401906
  401902:	8b d8                     mov	ebx, eax
  401904:	eb 0d                     jmp	401913
  401906:	83 f9 01                 >cmp	ecx, 01h
  401909:	75 08                     jnz	401913
  40190b:	bb 00 00 00 40            mov	ebx, 40000000h
  401910:	6a 02                     push	dword 00000002h
  401912:	5f                       >pop	edi
  401913:	f6 c5 03                 >test	ch, 03h
  401916:	74 03                     jz	40191b
  401918:	6a 02                     push	dword 00000002h
  40191a:	5f                        pop	edi
  40191b:	8b 74 24 10              >mov	esi, [esp+10h]
  40191f:	85 f6                     test	esi, esi
  401921:	74 2c                     jz	40194f
  401923:	56                        push	esi
  401924:	ff 15 4c 31 41 00         call	dword [0041314Ch]	; <lstrlenA>
  40192a:	83 f8 03                  cmp	eax, 03h
  40192d:	7e 20                     jle	40194f
  40192f:	80 7e 01 3a               cmp	byte [esi+01h], 3Ah
  401933:	75 1a                     jnz	40194f
  401935:	80 7e 02 5c               cmp	byte [esi+02h], 5Ch
  401939:	75 14                     jnz	40194f
  40193b:	80 7e 03 5c               cmp	byte [esi+03h], 5Ch
  40193f:	8d 46 03                  lea	eax, [esi+03h]
  401942:	75 0b                     jnz	40194f
  401944:	8d 4e 04                  lea	ecx, [esi+04h]
  401947:	51                        push	ecx
  401948:	50                        push	eax
  401949:	ff 15 54 31 41 00         call	dword [00413154h]	; <lstrcpyA>
  40194f:	6a 00                    >push	dword 00000000h
  401951:	68 80 00 00 00            push	dword 00000080h
  401956:	57                        push	edi
  401957:	6a 00                     push	dword 00000000h
  401959:	6a 03                     push	dword 00000003h
  40195b:	53                        push	ebx
  40195c:	56                        push	esi
  40195d:	ff 15 14 31 41 00         call	dword [00413114h]	; <CreateFileA>
  401963:	8b f8                     mov	edi, eax
  401965:	83 ff ff                  cmp	edi, FFh
  401968:	75 11                     jnz	40197b
  40196a:	6a 00                     push	dword 00000000h
  40196c:	56                        push	esi
  40196d:	e8 16 0a 00 00            call	402388
  401972:	50                        push	eax
  401973:	6a 00                     push	dword 00000000h
  401975:	ff 15 44 32 41 00         call	dword [00413244h]	; <MessageBoxA>
  40197b:	8b c7                    >mov	eax, edi
  40197d:	5f                        pop	edi
  40197e:	5e                        pop	esi
  40197f:	5b                        pop	ebx
  401980:	c3                        ret

401981 <no name>:
  401981:	ff 74 24 0c               push	dword [esp+0Ch]
  401985:	6a 00                     push	dword 00000000h
  401987:	ff 74 24 10               push	dword [esp+10h]
  40198b:	ff 74 24 10               push	dword [esp+10h]
  40198f:	ff 15 28 31 41 00         call	dword [00413128h]	; <SetFilePointer>
  401995:	c3                        ret

401996 <no name>:
  401996:	55                        push	ebp
  401997:	8b ec                     mov	ebp, esp
  401999:	51                        push	ecx
  40199a:	8d 45 fc                  lea	eax, [ebp-04h]
  40199d:	6a 00                     push	dword 00000000h
  40199f:	50                        push	eax
  4019a0:	83 65 fc 00               and	dword [ebp-04h], 00h
  4019a4:	ff 75 10                  push	dword [ebp+10h]
  4019a7:	ff 75 0c                  push	dword [ebp+0Ch]
  4019aa:	ff 75 08                  push	dword [ebp+08h]
  4019ad:	ff 15 c0 30 41 00         call	dword [004130C0h]	; <ReadFile>
  4019b3:	8b 45 fc                  mov	eax, [ebp-04h]
  4019b6:	c9                        leave
  4019b7:	c3                        ret

4019b8 <no name>:
  4019b8:	55                        push	ebp
  4019b9:	8b ec                     mov	ebp, esp
  4019bb:	51                        push	ecx
  4019bc:	8d 45 fc                  lea	eax, [ebp-04h]
  4019bf:	6a 00                     push	dword 00000000h
  4019c1:	50                        push	eax
  4019c2:	83 65 fc 00               and	dword [ebp-04h], 00h
  4019c6:	ff 75 10                  push	dword [ebp+10h]
  4019c9:	ff 75 0c                  push	dword [ebp+0Ch]
  4019cc:	ff 75 08                  push	dword [ebp+08h]
  4019cf:	ff 15 bc 30 41 00         call	dword [004130BCh]	; <WriteFile>
  4019d5:	8b 45 fc                  mov	eax, [ebp-04h]
  4019d8:	c9                        leave
  4019d9:	c3                        ret

4019da <no name>:
  4019da:	ff 74 24 04               push	dword [esp+04h]
  4019de:	ff 15 78 31 41 00         call	dword [00413178h]	; <CloseHandle>
  4019e4:	c3                        ret
     ...

401b98 <no name>:
  401b98:	55                        push	ebp
  401b99:	8b ec                     mov	ebp, esp
  401b9b:	81 ec 2c 01 00 00         sub	esp, 0000012Ch
  401ba1:	53                        push	ebx
  401ba2:	56                        push	esi
  401ba3:	8b 75 08                  mov	esi, [ebp+08h]
  401ba6:	33 db                     xor	ebx, ebx
  401ba8:	83 fe ff                  cmp	esi, FFh
  401bab:	57                        push	edi
  401bac:	0f 84 a7 00 00 00         jz	401c59
  401bb2:	20 5d 98                  and	[ebp-68h], bl
  401bb5:	6a 0f                     push	dword 0000000Fh
  401bb7:	59                        pop	ecx
  401bb8:	33 c0                     xor	eax, eax
  401bba:	8d 7d 99                  lea	edi, [ebp-67h]
  401bbd:	20 9d d4 fe ff ff         and	[ebp-0000012Ch], bl
  401bc3:	f3 ab                     rep stosd
  401bc5:	66 ab                     stosw
  401bc7:	aa                        stosb
  401bc8:	6a 30                     push	dword 00000030h
  401bca:	33 c0                     xor	eax, eax
  401bcc:	59                        pop	ecx
  401bcd:	8d bd d5 fe ff ff         lea	edi, [ebp-0000012Bh]
  401bd3:	f3 ab                     rep stosd
  401bd5:	66 ab                     stosw
  401bd7:	aa                        stosb
  401bd8:	8d 45 98                  lea	eax, [ebp-68h]
  401bdb:	6a 40                     push	dword 00000040h
  401bdd:	50                        push	eax
  401bde:	56                        push	esi
  401bdf:	89 5d 08                  mov	[ebp+08h], ebx
  401be2:	e8 af fd ff ff            call	401996
  401be7:	53                        push	ebx
  401be8:	ff 75 d4                  push	dword [ebp-2Ch]
  401beb:	56                        push	esi
  401bec:	e8 90 fd ff ff            call	401981
  401bf1:	8d 85 d4 fe ff ff         lea	eax, [ebp-0000012Ch]
  401bf7:	6a 18                     push	dword 00000018h
  401bf9:	50                        push	eax
  401bfa:	56                        push	esi
  401bfb:	e8 96 fd ff ff            call	401996
  401c00:	0f b7 85 e8 fe ff ff      movzx	eax, word [ebp-00000118h]
  401c07:	6a 01                     push	dword 00000001h
  401c09:	50                        push	eax
  401c0a:	56                        push	esi
  401c0b:	e8 71 fd ff ff            call	401981
  401c10:	83 c4 30                  add	esp, 30h
  401c13:	66 39 9d da fe ff ff      cmp	[ebp-00000126h], bx
  401c1a:	76 3d                     jbe	401c59
  401c1c:	80 65 d8 00              >and	byte [ebp-28h], 00h
  401c20:	6a 09                     push	dword 00000009h
  401c22:	59                        pop	ecx
  401c23:	33 c0                     xor	eax, eax
  401c25:	8d 7d d9                  lea	edi, [ebp-27h]
  401c28:	6a 28                     push	dword 00000028h
  401c2a:	f3 ab                     rep stosd
  401c2c:	66 ab                     stosw
  401c2e:	aa                        stosb
  401c2f:	8d 45 d8                  lea	eax, [ebp-28h]
  401c32:	50                        push	eax
  401c33:	56                        push	esi
  401c34:	e8 5d fd ff ff            call	401996
  401c39:	83 c4 0c                  add	esp, 0Ch
  401c3c:	66 83 7d 08 00            cmp	word [ebp+08h], 00h
  401c41:	75 03                     jnz	401c46
  401c43:	8b 5d ec                  mov	ebx, [ebp-14h]
  401c46:	03 5d e8                 >add	ebx, [ebp-18h]
  401c49:	ff 45 08                  inc	dword [ebp+08h]
  401c4c:	66 8b 45 08               mov	ax, [ebp+08h]
  401c50:	66 3b 85 da fe ff ff      cmp	ax, [ebp-00000126h]
  401c57:	72 c3                     jb	401c1c
  401c59:	5f                       >pop	edi
  401c5a:	8b c3                     mov	eax, ebx
  401c5c:	5e                        pop	esi
  401c5d:	5b                        pop	ebx
  401c5e:	c9                        leave
  401c5f:	c3                        ret

401c60 <no name>:
  401c60:	8b 44 24 08               mov	eax, [esp+08h]
  401c64:	53                        push	ebx
  401c65:	8b c8                     mov	ecx, eax
  401c67:	48                        dec	eax
  401c68:	85 c9                     test	ecx, ecx
  401c6a:	b3 61                     mov	bl, 61h
  401c6c:	74 28                     jz	401c96
  401c6e:	56                        push	esi
  401c6f:	8b 74 24 0c               mov	esi, [esp+0Ch]
  401c73:	57                        push	edi
  401c74:	8d 78 01                  lea	edi, [eax+01h]
  401c77:	8a 06                    >mov	al, [esi]
  401c79:	6a 00                     push	dword 00000000h
  401c7b:	50                        push	eax
  401c7c:	e8 f8 3c 00 00            call	405979
  401c81:	32 c3                     xor	al, bl
  401c83:	fe c3                     inc	bl
  401c85:	59                        pop	ecx
  401c86:	80 fb 7a                  cmp	bl, 7Ah
  401c89:	59                        pop	ecx
  401c8a:	88 06                     mov	[esi], al
  401c8c:	7e 02                     jle	401c90
  401c8e:	b3 61                     mov	bl, 61h
  401c90:	46                       >inc	esi
  401c91:	4f                        dec	edi
  401c92:	75 e3                     jnz	401c77
  401c94:	5f                        pop	edi
  401c95:	5e                        pop	esi
  401c96:	5b                       >pop	ebx
  401c97:	c3                        ret

401c98 <no name>:
  401c98:	55                        push	ebp
  401c99:	8b ec                     mov	ebp, esp
  401c9b:	51                        push	ecx
  401c9c:	51                        push	ecx
  401c9d:	83 65 fc 00               and	dword [ebp-04h], 00h
  401ca1:	57                        push	edi
  401ca2:	8b 7d 08                  mov	edi, [ebp+08h]
  401ca5:	6a 03                     push	dword 00000003h
  401ca7:	68 c8 50 41 00            push	dword 004150C8h
  401cac:	57                        push	edi
  401cad:	e8 72 03 00 00            call	402024
  401cb2:	83 c4 0c                  add	esp, 0Ch
  401cb5:	85 c0                     test	eax, eax
  401cb7:	74 08                     jz	401cc1
  401cb9:	6a 0e                     push	dword 0000000Eh
  401cbb:	58                        pop	eax
  401cbc:	e9 14 03 00 00            jmp	401fd5
  401cc1:	0f b6 4f 03              >movzx	ecx, byte [edi+03h]
  401cc5:	53                        push	ebx
  401cc6:	56                        push	esi
  401cc7:	8d 77 03                  lea	esi, [edi+03h]
  401cca:	83 25 08 61 41 00 00      and	dword [00416108h], 00h
  401cd1:	8b c1                     mov	eax, ecx
  401cd3:	46                        inc	esi
  401cd4:	c1 e0 02                  shl	eax, 02h
  401cd7:	85 c0                     test	eax, eax
  401cd9:	89 0d 0c 61 41 00         mov	[0041610Ch], ecx
  401cdf:	75 07                     jnz	401ce8
  401ce1:	a3 10 61 41 00            mov	[416110h], eax
  401ce6:	eb 12                     jmp	401cfa
  401ce8:	50                       >push	eax
  401ce9:	e8 8c 59 00 00            call	40767a
  401cee:	59                        pop	ecx
  401cef:	a3 10 61 41 00            mov	[416110h], eax
  401cf4:	8b 0d 0c 61 41 00         mov	ecx, [0041610Ch]
  401cfa:	33 d2                    >xor	edx, edx
  401cfc:	85 c9                     test	ecx, ecx
  401cfe:	7e 38                     jle	401d38
  401d00:	0f b6 5e 01              >movzx	ebx, byte [esi+01h]
  401d04:	33 c9                     xor	ecx, ecx
  401d06:	8a 6e 03                  mov	ch, [esi+03h]
  401d09:	8a 4e 02                  mov	cl, [esi+02h]
  401d0c:	c1 e1 08                  shl	ecx, 08h
  401d0f:	0b cb                     or	ecx, ebx
  401d11:	0f b6 1e                  movzx	ebx, byte [esi]
  401d14:	c1 e1 08                  shl	ecx, 08h
  401d17:	0b cb                     or	ecx, ebx
  401d19:	83 c6 04                  add	esi, 04h
  401d1c:	89 0c 90                  mov	[eax+edx*4], ecx
  401d1f:	a1 10 61 41 00            mov	eax, [416110h]
  401d24:	8b 0c 90                  mov	ecx, [eax+edx*4]
  401d27:	01 0d 08 61 41 00         add	[00416108h], ecx
  401d2d:	8b 0d 0c 61 41 00         mov	ecx, [0041610Ch]
  401d33:	42                        inc	edx
  401d34:	3b d1                     cmp	edx, ecx
  401d36:	7c c8                     jl	401d00
  401d38:	0f b6 06                 >movzx	eax, byte [esi]
  401d3b:	46                        inc	esi
  401d3c:	83 f8 12                  cmp	eax, 12h
  401d3f:	75 57                     jnz	401d98
  401d41:	8b c1                     mov	eax, ecx
  401d43:	c1 e0 02                  shl	eax, 02h
  401d46:	85 c0                     test	eax, eax
  401d48:	75 08                     jnz	401d52
  401d4a:	21 05 14 61 41 00         and	[00416114h], eax
  401d50:	eb 12                     jmp	401d64
  401d52:	50                       >push	eax
  401d53:	e8 22 59 00 00            call	40767a
  401d58:	59                        pop	ecx
  401d59:	a3 14 61 41 00            mov	[416114h], eax
  401d5e:	8b 0d 0c 61 41 00         mov	ecx, [0041610Ch]
  401d64:	33 c0                    >xor	eax, eax
  401d66:	85 c9                     test	ecx, ecx
  401d68:	7e 2e                     jle	401d98
  401d6a:	0f b6 56 01              >movzx	edx, byte [esi+01h]
  401d6e:	33 c9                     xor	ecx, ecx
  401d70:	8a 6e 03                  mov	ch, [esi+03h]
  401d73:	8a 4e 02                  mov	cl, [esi+02h]
  401d76:	c1 e1 08                  shl	ecx, 08h
  401d79:	0b ca                     or	ecx, edx
  401d7b:	0f b6 16                  movzx	edx, byte [esi]
  401d7e:	c1 e1 08                  shl	ecx, 08h
  401d81:	0b ca                     or	ecx, edx
  401d83:	8b 15 14 61 41 00         mov	edx, [00416114h]
  401d89:	83 c6 04                  add	esi, 04h
  401d8c:	89 0c 82                  mov	[edx+eax*4], ecx
  401d8f:	40                        inc	eax
  401d90:	3b 05 0c 61 41 00         cmp	eax, [0041610Ch]
  401d96:	7c d2                     jl	401d6a
  401d98:	8b c6                    >mov	eax, esi
  401d9a:	2b c7                     sub	eax, edi
  401d9c:	3b 45 0c                 >cmp	eax, [ebp+0Ch]
  401d9f:	0f 8d 2b 02 00 00         jge	401fd0
  401da5:	0f b6 06                  movzx	eax, byte [esi]
  401da8:	89 45 f8                  mov	[ebp-08h], eax
  401dab:	46                        inc	esi
  401dac:	81 65 f8 80 00 00 00      and	dword [ebp-08h], 00000080h
  401db3:	74 06                     jz	401dbb
  401db5:	0f b6 3e                  movzx	edi, byte [esi]
  401db8:	46                        inc	esi
  401db9:	eb 0b                     jmp	401dc6
  401dbb:	33 c9                    >xor	ecx, ecx
  401dbd:	8a 6e 01                  mov	ch, [esi+01h]
  401dc0:	8a 0e                     mov	cl, [esi]
  401dc2:	46                        inc	esi
  401dc3:	8b f9                     mov	edi, ecx
  401dc5:	46                        inc	esi
  401dc6:	b9 94 00 00 00           >mov	ecx, 00000094h
  401dcb:	3b c1                     cmp	eax, ecx
  401dcd:	0f 8f 91 01 00 00         jg	401f64
  401dd3:	0f 84 83 01 00 00         jz	401f5c
  401dd9:	48                        dec	eax
  401dda:	83 f8 12                  cmp	eax, 12h
  401ddd:	0f 87 db 01 00 00         ja	401fbe
  401de3:	ff 24 85 d8 1f 40 00      jmp	dword [eax*4+00401FD8h]
     ...
  401f5c:	89 3d dc 60 41 00        >mov	[004160DCh], edi
  401f62:	eb 5a                     jmp	401fbe
  401f64:	2d 95 00 00 00           >sub	eax, 00000095h
  401f69:	74 4d                     jz	401fb8
  401f6b:	48                        dec	eax
  401f6c:	74 42                     jz	401fb0
  401f6e:	48                        dec	eax
  401f6f:	74 37                     jz	401fa8
  401f71:	48                        dec	eax
  401f72:	74 28                     jz	401f9c
  401f74:	48                        dec	eax
  401f75:	74 14                     jz	401f8b
  401f77:	48                        dec	eax
  401f78:	75 44                     jnz	401fbe
  401f7a:	83 3d bc 61 41 00 00      cmp	dword [004161BCh], 00h
  401f81:	74 3b                     jz	401fbe
  401f83:	89 3d 4c 61 41 00         mov	[0041614Ch], edi
  401f89:	eb 33                     jmp	401fbe
  401f8b:	83 3d bc 61 41 00 00     >cmp	dword [004161BCh], 00h
  401f92:	74 2a                     jz	401fbe
  401f94:	89 3d 50 61 41 00         mov	[00416150h], edi
  401f9a:	eb 22                     jmp	401fbe
  401f9c:	57                       >push	edi
  401f9d:	e8 7b 03 00 00            call	40231d
  401fa2:	59                        pop	ecx
  401fa3:	89 45 fc                  mov	[ebp-04h], eax
  401fa6:	eb 16                     jmp	401fbe
  401fa8:	89 3d 24 61 41 00        >mov	[00416124h], edi
  401fae:	eb 0e                     jmp	401fbe
  401fb0:	89 3d 20 61 41 00        >mov	[00416120h], edi
  401fb6:	eb 06                     jmp	401fbe
  401fb8:	89 3d 1c 61 41 00        >mov	[0041611Ch], edi
  401fbe:	83 7d f8 00              >cmp	dword [ebp-08h], 00h
  401fc2:	75 02                     jnz	401fc6
  401fc4:	03 f7                     add	esi, edi
  401fc6:	8b c6                    >mov	eax, esi
  401fc8:	2b 45 08                  sub	eax, [ebp+08h]
  401fcb:	e9 cc fd ff ff            jmp	401d9c
  401fd0:	8b 45 fc                 >mov	eax, [ebp-04h]
  401fd3:	5e                        pop	esi
  401fd4:	5b                        pop	ebx
  401fd5:	5f                       >pop	edi
  401fd6:	c9                        leave
  401fd7:	c3                        ret
     ...

402024 <no name>:
  402024:	56                        push	esi
  402025:	33 f6                     xor	esi, esi
  402027:	39 74 24 10               cmp	[esp+10h], esi
  40202b:	7e 19                     jle	402046
  40202d:	8b 44 24 0c               mov	eax, [esp+0Ch]
  402031:	8b 4c 24 08               mov	ecx, [esp+08h]
  402035:	2b c8                     sub	ecx, eax
  402037:	8a 14 01                 >mov	dl, [ecx+eax*1]
  40203a:	3a 10                     cmp	dl, [eax]
  40203c:	75 0c                     jnz	40204a
  40203e:	46                        inc	esi
  40203f:	40                        inc	eax
  402040:	3b 74 24 10               cmp	esi, [esp+10h]
  402044:	7c f1                     jl	402037
  402046:	33 c0                    >xor	eax, eax
  402048:	5e                        pop	esi
  402049:	c3                        ret
  40204a:	6a 01                    >push	dword 00000001h
  40204c:	58                        pop	eax
  40204d:	5e                        pop	esi
  40204e:	c3                        ret
     ...

40231d <no name>:
  40231d:	a1 28 61 41 00            mov	eax, [416128h]
  402322:	53                        push	ebx
  402323:	85 c0                     test	eax, eax
  402325:	56                        push	esi
  402326:	74 56                     jz	40237e
  402328:	8a 5c 24 0c               mov	bl, [esp+0Ch]
  40232c:	8b 35 6c 30 41 00         mov	esi, [0041306Ch]
  402332:	f6 c3 01                  test	bl, 01h
  402335:	74 11                     jz	402348
  402337:	68 14 51 41 00            push	dword 00415114h
  40233c:	50                        push	eax
  40233d:	ff d6                     call	esi
  40233f:	85 c0                     test	eax, eax
  402341:	a3 2c 61 41 00            mov	[41612Ch], eax
  402346:	74 36                     jz	40237e
  402348:	f6 c3 02                 >test	bl, 02h
  40234b:	74 16                     jz	402363
  40234d:	68 08 51 41 00            push	dword 00415108h
  402352:	ff 35 28 61 41 00         push	dword [00416128h]
  402358:	ff d6                     call	esi
  40235a:	85 c0                     test	eax, eax
  40235c:	a3 30 61 41 00            mov	[416130h], eax
  402361:	74 1b                     jz	40237e
  402363:	f6 c3 04                 >test	bl, 04h
  402366:	74 1b                     jz	402383
  402368:	68 f8 50 41 00            push	dword 004150F8h
  40236d:	ff 35 28 61 41 00         push	dword [00416128h]
  402373:	ff d6                     call	esi
  402375:	85 c0                     test	eax, eax
  402377:	a3 34 61 41 00            mov	[416134h], eax
  40237c:	75 05                     jnz	402383
  40237e:	6a 30                    >push	dword 00000030h
  402380:	58                        pop	eax
  402381:	eb 02                     jmp	402385
  402383:	33 c0                    >xor	eax, eax
  402385:	5e                       >pop	esi
  402386:	5b                        pop	ebx
  402387:	c3                        ret

402388 <no name>:
  402388:	53                        push	ebx
  402389:	56                        push	esi
  40238a:	57                        push	edi
  40238b:	6a 00                     push	dword 00000000h
  40238d:	bb 00 62 41 00            mov	ebx, 00416200h
  402392:	68 ff 00 00 00            push	dword 000000FFh
  402397:	53                        push	ebx
  402398:	6a 00                     push	dword 00000000h
  40239a:	ff 15 38 31 41 00         call	dword [00413138h]	; <GetLastError>
  4023a0:	50                        push	eax
  4023a1:	6a 00                     push	dword 00000000h
  4023a3:	68 00 10 00 00            push	dword 00001000h
  4023a8:	ff 15 70 30 41 00         call	dword [00413070h]	; <FormatMessageA>
  4023ae:	85 c0                     test	eax, eax
  4023b0:	74 25                     jz	4023d7
  4023b2:	8d 70 ff                  lea	esi, [eax-01h]
  4023b5:	85 f6                     test	esi, esi
  4023b7:	74 1e                     jz	4023d7
  4023b9:	0f be 86 00 62 41 00     >movsx	eax, byte [esi+00416200h]
  4023c0:	8d be 00 62 41 00         lea	edi, [esi+00416200h]
  4023c6:	50                        push	eax
  4023c7:	e8 3e 57 00 00            call	407b0a
  4023cc:	85 c0                     test	eax, eax
  4023ce:	59                        pop	ecx
  4023cf:	74 06                     jz	4023d7
  4023d1:	80 27 00                  and	byte [edi], 00h
  4023d4:	4e                        dec	esi
  4023d5:	75 e2                     jnz	4023b9
  4023d7:	5f                       >pop	edi
  4023d8:	8b c3                     mov	eax, ebx
  4023da:	5e                        pop	esi
  4023db:	5b                        pop	ebx
  4023dc:	c3                        ret

4023dd <no name>:
  4023dd:	55                        push	ebp
  4023de:	8b ec                     mov	ebp, esp
  4023e0:	81 ec 70 01 00 00         sub	esp, 00000170h
  4023e6:	53                        push	ebx
  4023e7:	56                        push	esi
  4023e8:	57                        push	edi
  4023e9:	6a 4f                     push	dword 0000004Fh
  4023eb:	33 db                     xor	ebx, ebx
  4023ed:	59                        pop	ecx
  4023ee:	33 c0                     xor	eax, eax
  4023f0:	8d bd 94 fe ff ff         lea	edi, [ebp-0000016Ch]
  4023f6:	89 9d 90 fe ff ff         mov	[ebp-00000170h], ebx
  4023fc:	6a 09                     push	dword 00000009h
  4023fe:	f3 ab                     rep stosd
  402400:	59                        pop	ecx
  402401:	8d 7d d4                  lea	edi, [ebp-2Ch]
  402404:	89 5d d0                  mov	[ebp-30h], ebx
  402407:	89 5d fc                  mov	[ebp-04h], ebx
  40240a:	f3 ab                     rep stosd
  40240c:	ff 15 10 30 41 00         call	dword [00413010h]	; <COMCTL32.dll.17
>
  402412:	a1 2c 61 41 00            mov	eax, [41612Ch]
  402417:	3b c3                     cmp	eax, ebx
  402419:	74 0e                     jz	402429
  40241b:	ff d0                     call	eax
  40241d:	85 c0                     test	eax, eax
  40241f:	74 08                     jz	402429
  402421:	83 c8 ff                  or	eax, FFh
  402424:	e9 4f 03 00 00            jmp	402778
  402429:	39 1d f0 60 41 00        >cmp	[004160F0h], ebx
  40242f:	0f 85 17 02 00 00         jnz	40264c
  402435:	39 1d 8c 61 41 00         cmp	[0041618Ch], ebx
  40243b:	74 49                     jz	402486
  40243d:	a1 a4 61 41 00            mov	eax, [4161A4h]
  402442:	3b c3                     cmp	eax, ebx
  402444:	75 1e                     jnz	402464
  402446:	68 04 01 00 00            push	dword 00000104h
  40244b:	ff 35 74 61 41 00         push	dword [00416174h]
  402451:	6a 04                     push	dword 00000004h
  402453:	ff 35 d8 60 41 00         push	dword [004160D8h]
  402459:	ff 15 3c 32 41 00         call	dword [0041323Ch]	; <LoadStringA>
  40245f:	a1 74 61 41 00            mov	eax, [416174h]
  402464:	6a 04                    >push	dword 00000004h
  402466:	50                        push	eax
  402467:	ff 35 8c 61 41 00         push	dword [0041618Ch]
  40246d:	ff 15 74 32 41 00         call	dword [00413274h]	; <GetDesktopWindow>
  402473:	50                        push	eax
  402474:	ff 15 44 32 41 00         call	dword [00413244h]	; <MessageBoxA>
  40247a:	83 f8 06                  cmp	eax, 06h
  40247d:	74 07                     jz	402486
  40247f:	33 c0                     xor	eax, eax
  402481:	e9 f2 02 00 00            jmp	402778
  402486:	39 1d d8 61 41 00        >cmp	[004161D8h], ebx
  40248c:	6a 01                     push	dword 00000001h
  40248e:	5e                        pop	esi
  40248f:	75 30                     jnz	4024c1
  402491:	39 1d 88 61 41 00         cmp	[00416188h], ebx
  402497:	75 28                     jnz	4024c1
  402499:	39 1d 98 61 41 00         cmp	[00416198h], ebx
  40249f:	75 20                     jnz	4024c1
  4024a1:	39 1d 9c 61 41 00         cmp	[0041619Ch], ebx
  4024a7:	75 18                     jnz	4024c1
  4024a9:	39 1d a0 61 41 00         cmp	[004161A0h], ebx
  4024af:	75 10                     jnz	4024c1
  4024b1:	39 1d b0 61 41 00         cmp	[004161B0h], ebx
  4024b7:	75 08                     jnz	4024c1
  4024b9:	39 1d a8 61 41 00         cmp	[004161A8h], ebx
  4024bf:	74 34                     jz	4024f5
  4024c1:	f6 05 1c 61 41 00 02     >test	byte [0041611Ch], 02h
  4024c8:	75 2b                     jnz	4024f5
  4024ca:	8b 45 dc                  mov	eax, [ebp-24h]
  4024cd:	6a 02                     push	dword 00000002h
  4024cf:	c1 e0 05                  shl	eax, 05h
  4024d2:	ff 45 dc                  inc	dword [ebp-24h]
  4024d5:	68 7c 29 40 00            push	dword 0040297Ch
  4024da:	8d 84 05 90 fe ff ff      lea	eax, [ebp+eax*1-00000170h]
  4024e1:	68 e8 03 00 00            push	dword 000003E8h
  4024e6:	50                        push	eax
  4024e7:	e8 91 02 00 00            call	40277d
  4024ec:	83 c4 10                  add	esp, 10h
  4024ef:	09 35 e0 60 41 00         or	[004160E0h], esi
  4024f5:	39 1d 94 61 41 00        >cmp	[00416194h], ebx
  4024fb:	74 2b                     jz	402528
  4024fd:	8b 45 dc                  mov	eax, [ebp-24h]
  402500:	53                        push	ebx
  402501:	c1 e0 05                  shl	eax, 05h
  402504:	ff 45 dc                  inc	dword [ebp-24h]
  402507:	68 93 2a 40 00            push	dword 00402A93h
  40250c:	8d 84 05 90 fe ff ff      lea	eax, [ebp+eax*1-00000170h]
  402513:	68 e9 03 00 00            push	dword 000003E9h
  402518:	50                        push	eax
  402519:	e8 5f 02 00 00            call	40277d
  40251e:	83 c4 10                  add	esp, 10h
  402521:	83 0d e0 60 41 00 02      or	dword [004160E0h], 02h
  402528:	39 1d 90 61 41 00        >cmp	[00416190h], ebx
  40252e:	74 2b                     jz	40255b
  402530:	8b 45 dc                  mov	eax, [ebp-24h]
  402533:	53                        push	ebx
  402534:	c1 e0 05                  shl	eax, 05h
  402537:	ff 45 dc                  inc	dword [ebp-24h]
  40253a:	68 93 2b 40 00            push	dword 00402B93h
  40253f:	8d 84 05 90 fe ff ff      lea	eax, [ebp+eax*1-00000170h]
  402546:	68 eb 03 00 00            push	dword 000003EBh
  40254b:	50                        push	eax
  40254c:	e8 2c 02 00 00            call	40277d
  402551:	83 c4 10                  add	esp, 10h
  402554:	83 0d e0 60 41 00 04      or	dword [004160E0h], 04h
  40255b:	39 1d 5c 61 41 00        >cmp	[0041615Ch], ebx
  402561:	75 78                     jnz	4025db
  402563:	39 1d bc 61 41 00         cmp	[004161BCh], ebx
  402569:	74 08                     jz	402573
  40256b:	39 1d 50 61 41 00         cmp	[00416150h], ebx
  402571:	75 08                     jnz	40257b
  402573:	39 1d 58 61 41 00        >cmp	[00416158h], ebx
  402579:	74 60                     jz	4025db
  40257b:	39 1d 64 61 41 00        >cmp	[00416164h], ebx
  402581:	75 2d                     jnz	4025b0
  402583:	39 1d 4c 61 41 00         cmp	[0041614Ch], ebx
  402589:	75 08                     jnz	402593
  40258b:	39 1d 60 61 41 00         cmp	[00416160h], ebx
  402591:	74 1d                     jz	4025b0
  402593:	8b 45 dc                 >mov	eax, [ebp-24h]
  402596:	53                        push	ebx
  402597:	c1 e0 05                  shl	eax, 05h
  40259a:	ff 45 dc                  inc	dword [ebp-24h]
  40259d:	68 89 2c 40 00            push	dword 00402C89h
  4025a2:	8d 84 05 90 fe ff ff      lea	eax, [ebp+eax*1-00000170h]
  4025a9:	68 ef 03 00 00            push	dword 000003EFh
  4025ae:	eb 1b                     jmp	4025cb
  4025b0:	8b 45 dc                 >mov	eax, [ebp-24h]
  4025b3:	53                        push	ebx
  4025b4:	c1 e0 05                  shl	eax, 05h
  4025b7:	ff 45 dc                  inc	dword [ebp-24h]
  4025ba:	68 71 2e 40 00            push	dword 00402E71h
  4025bf:	8d 84 05 90 fe ff ff      lea	eax, [ebp+eax*1-00000170h]
  4025c6:	68 ea 03 00 00            push	dword 000003EAh
  4025cb:	50                       >push	eax
  4025cc:	e8 ac 01 00 00            call	40277d
  4025d1:	83 c4 10                  add	esp, 10h
  4025d4:	83 0d e0 60 41 00 08      or	dword [004160E0h], 08h
  4025db:	39 1d 68 61 41 00        >cmp	[00416168h], ebx
  4025e1:	74 08                     jz	4025eb
  4025e3:	89 35 4c 61 41 00         mov	[0041614Ch], esi
  4025e9:	eb 0e                     jmp	4025f9
  4025eb:	39 1d 6c 61 41 00        >cmp	[0041616Ch], ebx
  4025f1:	74 06                     jz	4025f9
  4025f3:	89 1d 4c 61 41 00         mov	[0041614Ch], ebx
  4025f9:	8b 45 dc                 >mov	eax, [ebp-24h]
  4025fc:	53                        push	ebx
  4025fd:	c1 e0 05                  shl	eax, 05h
  402600:	ff 45 dc                  inc	dword [ebp-24h]
  402603:	68 b8 2f 40 00            push	dword 00402FB8h
  402608:	8d 84 05 90 fe ff ff      lea	eax, [ebp+eax*1-00000170h]
  40260f:	68 ed 03 00 00            push	dword 000003EDh
  402614:	50                        push	eax
  402615:	e8 63 01 00 00            call	40277d
  40261a:	83 c4 10                  add	esp, 10h
  40261d:	39 1d b4 61 41 00         cmp	[004161B4h], ebx
  402623:	75 49                     jnz	40266e
  402625:	8b 45 dc                  mov	eax, [ebp-24h]
  402628:	6a 02                     push	dword 00000002h
  40262a:	c1 e0 05                  shl	eax, 05h
  40262d:	ff 45 dc                  inc	dword [ebp-24h]
  402630:	68 84 31 40 00            push	dword 00403184h
  402635:	8d 84 05 90 fe ff ff      lea	eax, [ebp+eax*1-00000170h]
  40263c:	68 ee 03 00 00            push	dword 000003EEh
  402641:	50                        push	eax
  402642:	e8 36 01 00 00            call	40277d
  402647:	83 c4 10                  add	esp, 10h
  40264a:	eb 22                     jmp	40266e
  40264c:	39 1d 68 61 41 00        >cmp	[00416168h], ebx
  402652:	74 0c                     jz	402660
  402654:	c7 05 4c 61 41 00 01      mov	dword [0041614Ch], 00000001h
		00 00 00 
  40265e:	eb 0e                     jmp	40266e
  402660:	39 1d 6c 61 41 00        >cmp	[0041616Ch], ebx
  402666:	74 06                     jz	40266e
  402668:	89 1d 4c 61 41 00         mov	[0041614Ch], ebx
  40266e:	39 5d dc                 >cmp	[ebp-24h], ebx
  402671:	0f 84 a9 00 00 00         jz	402720
  402677:	a1 d8 60 41 00            mov	eax, [4160D8h]
  40267c:	be 84 00 00 00            mov	esi, 00000084h
  402681:	89 45 d8                  mov	[ebp-28h], eax
  402684:	8d 85 90 fe ff ff         lea	eax, [ebp-00000170h]
  40268a:	56                        push	esi
  40268b:	89 5d d0                  mov	[ebp-30h], ebx
  40268e:	89 45 e4                  mov	[ebp-1Ch], eax
  402691:	c7 45 e8 fd 28 40 00      mov	dword [ebp-18h], 004028FDh
  402698:	e8 79 2d 00 00            call	405416
  40269d:	c7 04 24 00 20 00 00      mov	dword [esp], 00002000h
  4026a4:	53                        push	ebx
  4026a5:	53                        push	ebx
  4026a6:	53                        push	ebx
  4026a7:	56                        push	esi
  4026a8:	89 45 f4                  mov	[ebp-0Ch], eax
  4026ab:	ff 35 d8 60 41 00         push	dword [004160D8h]
  4026b1:	ff 15 40 32 41 00         call	dword [00413240h]	; <LoadImageA>
  4026b7:	6a 76                     push	dword 00000076h
  4026b9:	89 45 f0                  mov	[ebp-10h], eax
  4026bc:	e8 55 2d 00 00            call	405416
  4026c1:	a3 f8 61 41 00            mov	[4161F8h], eax
  4026c6:	8d 45 d0                  lea	eax, [ebp-30h]
  4026c9:	50                        push	eax
  4026ca:	e8 09 38 00 00            call	405ed8
  4026cf:	8b f0                     mov	esi, eax
  4026d1:	59                        pop	ecx
  4026d2:	81 ee 25 30 00 00         sub	esi, 00003025h
  4026d8:	59                        pop	ecx
  4026d9:	f7 de                     neg	esi
  4026db:	1b f6                     sbb	esi, esi
  4026dd:	89 5d f8                  mov	[ebp-08h], ebx
  4026e0:	46                        inc	esi
  4026e1:	39 5d dc                  cmp	[ebp-24h], ebx
  4026e4:	76 2f                     jbe	402715
  4026e6:	8d bd ac fe ff ff         lea	edi, [ebp-00000154h]
  4026ec:	8b 47 fc                 >mov	eax, [edi-04h]
  4026ef:	3b c3                     cmp	eax, ebx
  4026f1:	74 07                     jz	4026fa
  4026f3:	50                        push	eax
  4026f4:	e8 52 4f 00 00            call	40764b
  4026f9:	59                        pop	ecx
  4026fa:	8b 07                    >mov	eax, [edi]
  4026fc:	3b c3                     cmp	eax, ebx
  4026fe:	74 07                     jz	402707
  402700:	50                        push	eax
  402701:	e8 45 4f 00 00            call	40764b
  402706:	59                        pop	ecx
  402707:	ff 45 f8                 >inc	dword [ebp-08h]
  40270a:	83 c7 20                  add	edi, 20h
  40270d:	8b 45 f8                  mov	eax, [ebp-08h]
  402710:	3b 45 dc                  cmp	eax, [ebp-24h]
  402713:	72 d7                     jb	4026ec
  402715:	ff 75 f0                 >push	dword [ebp-10h]
  402718:	ff 15 60 30 41 00         call	dword [00413060h]	; <DeleteObject>
  40271e:	eb 13                     jmp	402733
  402720:	53                       >push	ebx
  402721:	e8 19 18 00 00            call	403f3f
  402726:	59                        pop	ecx
  402727:	89 45 fc                  mov	[ebp-04h], eax
  40272a:	33 c9                     xor	ecx, ecx
  40272c:	3b c3                     cmp	eax, ebx
  40272e:	0f 94 c1                  setz	cl
  402731:	8b f1                     mov	esi, ecx
  402733:	39 1d f4 60 41 00        >cmp	[004160F4h], ebx
  402739:	74 0a                     jz	402745
  40273b:	a1 38 61 41 00            mov	eax, [416138h]
  402740:	33 f6                     xor	esi, esi
  402742:	89 45 fc                  mov	[ebp-04h], eax
  402745:	3b f3                    >cmp	esi, ebx
  402747:	74 2c                     jz	402775
  402749:	39 1d ec 60 41 00         cmp	[004160ECh], ebx
  40274f:	75 24                     jnz	402775
  402751:	39 1d 3c 61 41 00         cmp	[0041613Ch], ebx
  402757:	75 1c                     jnz	402775
  402759:	a1 b4 61 41 00            mov	eax, [4161B4h]
  40275e:	3b c3                     cmp	eax, ebx
  402760:	74 13                     jz	402775
  402762:	50                        push	eax
  402763:	ff 15 4c 31 41 00         call	dword [0041314Ch]	; <lstrlenA>
  402769:	85 c0                     test	eax, eax
  40276b:	7e 08                     jle	402775
  40276d:	e8 65 11 00 00            call	4038d7
  402772:	89 45 fc                  mov	[ebp-04h], eax
  402775:	8b 45 fc                 >mov	eax, [ebp-04h]
  402778:	5f                       >pop	edi
  402779:	5e                        pop	esi
  40277a:	5b                        pop	ebx
  40277b:	c9                        leave
  40277c:	c3                        ret

40277d <no name>:
  40277d:	55                        push	ebp
  40277e:	8b ec                     mov	ebp, esp
  402780:	81 ec 20 01 00 00         sub	esp, 00000120h
  402786:	53                        push	ebx
  402787:	56                        push	esi
  402788:	57                        push	edi
  402789:	33 db                     xor	ebx, ebx
  40278b:	33 c0                     xor	eax, eax
  40278d:	8d 7d e5                  lea	edi, [ebp-1Bh]
  402790:	88 5d e4                  mov	[ebp-1Ch], bl
  402793:	6a 40                     push	dword 00000040h
  402795:	ab                        stosd
  402796:	ab                        stosd
  402797:	ab                        stosd
  402798:	ab                        stosd
  402799:	66 ab                     stosw
  40279b:	aa                        stosb
  40279c:	59                        pop	ecx
  40279d:	33 c0                     xor	eax, eax
  40279f:	8d bd e1 fe ff ff         lea	edi, [ebp-0000011Fh]
  4027a5:	88 9d e0 fe ff ff         mov	[ebp-00000120h], bl
  4027ab:	f3 ab                     rep stosd
  4027ad:	ff 75 0c                  push	dword [ebp+0Ch]
  4027b0:	89 5d f8                  mov	[ebp-08h], ebx
  4027b3:	66 ab                     stosw
  4027b5:	aa                        stosb
  4027b6:	8b 3d 70 32 41 00         mov	edi, [00413270h]
  4027bc:	8d 45 e4                  lea	eax, [ebp-1Ch]
  4027bf:	68 3c 51 41 00            push	dword 0041513Ch
  4027c4:	50                        push	eax
  4027c5:	89 5d fc                  mov	[ebp-04h], ebx
  4027c8:	ff d7                     call	edi
  4027ca:	be 04 01 00 00            mov	esi, 00000104h
  4027cf:	8d 85 e0 fe ff ff         lea	eax, [ebp-00000120h]
  4027d5:	56                        push	esi
  4027d6:	50                        push	eax
  4027d7:	8d 45 e4                  lea	eax, [ebp-1Ch]
  4027da:	53                        push	ebx
  4027db:	50                        push	eax
  4027dc:	e8 76 ec ff ff            call	401457
  4027e1:	83 c4 1c                  add	esp, 1Ch
  4027e4:	85 c0                     test	eax, eax
  4027e6:	74 2f                     jz	402817
  4027e8:	8d 85 e0 fe ff ff         lea	eax, [ebp-00000120h]
  4027ee:	50                        push	eax
  4027ef:	ff 15 4c 31 41 00         call	dword [0041314Ch]	; <lstrlenA>
  4027f5:	40                        inc	eax
  4027f6:	75 05                     jnz	4027fd
  4027f8:	89 5d f8                  mov	[ebp-08h], ebx
  4027fb:	eb 0a                     jmp	402807
  4027fd:	50                       >push	eax
  4027fe:	e8 77 4e 00 00            call	40767a
  402803:	59                        pop	ecx
  402804:	89 45 f8                  mov	[ebp-08h], eax
  402807:	8d 85 e0 fe ff ff        >lea	eax, [ebp-00000120h]
  40280d:	50                        push	eax
  40280e:	ff 75 f8                  push	dword [ebp-08h]
  402811:	ff 15 54 31 41 00         call	dword [00413154h]	; <lstrcpyA>
  402817:	8d 85 e0 fe ff ff        >lea	eax, [ebp-00000120h]
  40281d:	56                        push	esi
  40281e:	50                        push	eax
  40281f:	8d 45 e4                  lea	eax, [ebp-1Ch]
  402822:	6a 01                     push	dword 00000001h
  402824:	50                        push	eax
  402825:	e8 2d ec ff ff            call	401457
  40282a:	83 c4 10                  add	esp, 10h
  40282d:	85 c0                     test	eax, eax
  40282f:	74 2f                     jz	402860
  402831:	8d 85 e0 fe ff ff         lea	eax, [ebp-00000120h]
  402837:	50                        push	eax
  402838:	ff 15 4c 31 41 00         call	dword [0041314Ch]	; <lstrlenA>
  40283e:	40                        inc	eax
  40283f:	75 05                     jnz	402846
  402841:	89 5d fc                  mov	[ebp-04h], ebx
  402844:	eb 0a                     jmp	402850
  402846:	50                       >push	eax
  402847:	e8 2e 4e 00 00            call	40767a
  40284c:	59                        pop	ecx
  40284d:	89 45 fc                  mov	[ebp-04h], eax
  402850:	8d 85 e0 fe ff ff        >lea	eax, [ebp-00000120h]
  402856:	50                        push	eax
  402857:	ff 75 fc                  push	dword [ebp-04h]
  40285a:	ff 15 54 31 41 00         call	dword [00413154h]	; <lstrcpyA>
  402860:	39 1d dc 61 41 00        >cmp	[004161DCh], ebx
  402866:	75 5a                     jnz	4028c2
  402868:	56                        push	esi
  402869:	e8 0c 4e 00 00            call	40767a
  40286e:	a3 dc 61 41 00            mov	[4161DCh], eax
  402873:	8d 85 e0 fe ff ff         lea	eax, [ebp-00000120h]
  402879:	56                        push	esi
  40287a:	50                        push	eax
  40287b:	6a 04                     push	dword 00000004h
  40287d:	68 2c 51 41 00            push	dword 0041512Ch
  402882:	e8 d0 eb ff ff            call	401457
  402887:	83 c4 14                  add	esp, 14h
  40288a:	39 1d a4 61 41 00         cmp	[004161A4h], ebx
  402890:	75 13                     jnz	4028a5
  402892:	8d 85 e0 fe ff ff         lea	eax, [ebp-00000120h]
  402898:	50                        push	eax
  402899:	ff 35 dc 61 41 00         push	dword [004161DCh]
  40289f:	ff 15 54 31 41 00         call	dword [00413154h]	; <lstrcpyA>
  4028a5:	8d 85 e0 fe ff ff        >lea	eax, [ebp-00000120h]
  4028ab:	50                        push	eax
  4028ac:	ff 35 a4 61 41 00         push	dword [004161A4h]
  4028b2:	68 24 51 41 00            push	dword 00415124h
  4028b7:	ff 35 dc 61 41 00         push	dword [004161DCh]
  4028bd:	ff d7                     call	edi
  4028bf:	83 c4 10                  add	esp, 10h
  4028c2:	8b 45 08                 >mov	eax, [ebp+08h]
  4028c5:	8b 4d 14                  mov	ecx, [ebp+14h]
  4028c8:	5f                        pop	edi
  4028c9:	5e                        pop	esi
  4028ca:	89 08                     mov	[eax], ecx
  4028cc:	8b 0d d8 60 41 00         mov	ecx, [004160D8h]
  4028d2:	89 48 04                  mov	[eax+04h], ecx
  4028d5:	5b                        pop	ebx
  4028d6:	0f b7 4d 0c               movzx	ecx, word [ebp+0Ch]
  4028da:	89 48 08                  mov	[eax+08h], ecx
  4028dd:	8b 0d dc 61 41 00         mov	ecx, [004161DCh]
  4028e3:	89 48 0c                  mov	[eax+0Ch], ecx
  4028e6:	8b 4d 10                  mov	ecx, [ebp+10h]
  4028e9:	89 48 10                  mov	[eax+10h], ecx
  4028ec:	8b 4d f8                  mov	ecx, [ebp-08h]
  4028ef:	89 48 18                  mov	[eax+18h], ecx
  4028f2:	8b 4d fc                  mov	ecx, [ebp-04h]
  4028f5:	89 48 1c                  mov	[eax+1Ch], ecx
  4028f8:	8b 45 0c                  mov	eax, [ebp+0Ch]
  4028fb:	c9                        leave
  4028fc:	c3                        ret
     ...

4033ec <no name>:
  4033ec:	55                        push	ebp
  4033ed:	8b ec                     mov	ebp, esp
  4033ef:	81 ec 34 02 00 00         sub	esp, 00000234h
  4033f5:	83 3d f0 60 41 00 00      cmp	dword [004160F0h], 00h
  4033fc:	0f 85 ad 00 00 00         jnz	4034af
  403402:	80 a5 cc fd ff ff 00      and	byte [ebp-00000234h], 00h
  403409:	56                        push	esi
  40340a:	57                        push	edi
  40340b:	6a 7f                     push	dword 0000007Fh
  40340d:	59                        pop	ecx
  40340e:	33 c0                     xor	eax, eax
  403410:	8d bd cd fd ff ff         lea	edi, [ebp-00000233h]
  403416:	80 65 cc 00               and	byte [ebp-34h], 00h
  40341a:	f3 ab                     rep stosd
  40341c:	66 ab                     stosw
  40341e:	aa                        stosb
  40341f:	6a 0c                     push	dword 0000000Ch
  403421:	33 c0                     xor	eax, eax
  403423:	59                        pop	ecx
  403424:	8d 7d cd                  lea	edi, [ebp-33h]
  403427:	f3 ab                     rep stosd
  403429:	83 3d c8 61 41 00 00      cmp	dword [004161C8h], 00h
  403430:	68 00 02 00 00            push	dword 00000200h
  403435:	aa                        stosb
  403436:	8d 85 cc fd ff ff         lea	eax, [ebp-00000234h]
  40343c:	50                        push	eax
  40343d:	ff 75 0c                  push	dword [ebp+0Ch]
  403440:	74 1f                     jz	403461
  403442:	be 78 51 41 00            mov	esi, 00415178h
  403447:	56                        push	esi
  403448:	e8 0a e0 ff ff            call	401457
  40344d:	8d 45 cc                  lea	eax, [ebp-34h]
  403450:	6a 32                     push	dword 00000032h
  403452:	50                        push	eax
  403453:	ff 75 10                  push	dword [ebp+10h]
  403456:	56                        push	esi
  403457:	e8 fb df ff ff            call	401457
  40345c:	83 c4 20                  add	esp, 20h
  40345f:	eb 1f                     jmp	403480
  403461:	ff 35 d8 60 41 00        >push	dword [004160D8h]
  403467:	8b 35 3c 32 41 00         mov	esi, [0041323Ch]
  40346d:	ff d6                     call	esi
  40346f:	8d 45 cc                  lea	eax, [ebp-34h]
  403472:	6a 32                     push	dword 00000032h
  403474:	50                        push	eax
  403475:	ff 75 10                  push	dword [ebp+10h]
  403478:	ff 35 d8 60 41 00         push	dword [004160D8h]
  40347e:	ff d6                     call	esi
  403480:	a1 a4 61 41 00           >mov	eax, [4161A4h]
  403485:	5f                        pop	edi
  403486:	85 c0                     test	eax, eax
  403488:	5e                        pop	esi
  403489:	74 0b                     jz	403496
  40348b:	50                        push	eax
  40348c:	8d 45 cc                  lea	eax, [ebp-34h]
  40348f:	50                        push	eax
  403490:	ff 15 54 31 41 00         call	dword [00413154h]	; <lstrcpyA>
  403496:	ff 75 14                 >push	dword [ebp+14h]
  403499:	8d 45 cc                  lea	eax, [ebp-34h]
  40349c:	50                        push	eax
  40349d:	8d 85 cc fd ff ff         lea	eax, [ebp-00000234h]
  4034a3:	50                        push	eax
  4034a4:	ff 75 08                  push	dword [ebp+08h]
  4034a7:	ff 15 44 32 41 00         call	dword [00413244h]	; <MessageBoxA>
  4034ad:	c9                        leave
  4034ae:	c3                        ret
  4034af:	33 c0                    >xor	eax, eax
  4034b1:	c9                        leave
  4034b2:	c3                        ret
     ...

403701 <no name>:
  403701:	56                        push	esi
  403702:	8b 74 24 08               mov	esi, [esp+08h]
  403706:	56                        push	esi
  403707:	ff 15 4c 31 41 00         call	dword [0041314Ch]	; <lstrlenA>
  40370d:	03 f0                     add	esi, eax
  40370f:	80 7e ff 5c               cmp	byte [esi-01h], 5Ch
  403713:	75 0e                     jnz	403723
  403715:	8a 46 fe                  mov	al, [esi-02h]
  403718:	50                        push	eax
  403719:	ff 15 7c 30 41 00         call	dword [0041307Ch]	; <IsDBCSLeadByte>
  40371f:	85 c0                     test	eax, eax
  403721:	74 07                     jz	40372a
  403723:	c6 06 5c                 >mov	byte [esi], 5Ch
  403726:	80 66 01 00               and	byte [esi+01h], 00h
  40372a:	5e                       >pop	esi
  40372b:	c3                        ret

40372c <no name>:
  40372c:	56                        push	esi
  40372d:	8b 74 24 08               mov	esi, [esp+08h]
  403731:	56                        push	esi
  403732:	ff 15 4c 31 41 00         call	dword [0041314Ch]	; <lstrlenA>
  403738:	80 7c 30 ff 5c            cmp	byte [eax+esi*1-01h], 5Ch
  40373d:	8d 44 30 ff               lea	eax, [eax+esi*1-01h]
  403741:	5e                        pop	esi
  403742:	75 03                     jnz	403747
  403744:	80 20 00                  and	byte [eax], 00h
  403747:	c3                       >ret
     ...

40382b <no name>:
  40382b:	55                        push	ebp
  40382c:	8b ec                     mov	ebp, esp
  40382e:	51                        push	ecx
  40382f:	80 65 fc 00               and	byte [ebp-04h], 00h
  403833:	57                        push	edi
  403834:	33 c0                     xor	eax, eax
  403836:	8d 7d fd                  lea	edi, [ebp-03h]
  403839:	66 ab                     stosw
  40383b:	aa                        stosb
  40383c:	8d 45 08                  lea	eax, [ebp+08h]
  40383f:	6a 04                     push	dword 00000004h
  403841:	50                        push	eax
  403842:	8d 45 fc                  lea	eax, [ebp-04h]
  403845:	50                        push	eax
  403846:	e8 a5 3e 00 00            call	4076f0
  40384b:	0f b6 45 fc               movzx	eax, byte [ebp-04h]
  40384f:	6a 03                     push	dword 00000003h
  403851:	50                        push	eax
  403852:	e8 39 48 00 00            call	408090
  403857:	34 74                     xor	al, 74h
  403859:	6a 05                     push	dword 00000005h
  40385b:	88 45 fc                  mov	[ebp-04h], al
  40385e:	0f b6 45 fd               movzx	eax, byte [ebp-03h]
  403862:	50                        push	eax
  403863:	e8 ff 47 00 00            call	408067
  403868:	34 74                     xor	al, 74h
  40386a:	6a 07                     push	dword 00000007h
  40386c:	88 45 fd                  mov	[ebp-03h], al
  40386f:	0f b6 45 fe               movzx	eax, byte [ebp-02h]
  403873:	50                        push	eax
  403874:	e8 17 48 00 00            call	408090
  403879:	34 74                     xor	al, 74h
  40387b:	6a 03                     push	dword 00000003h
  40387d:	88 45 fe                  mov	[ebp-02h], al
  403880:	0f b6 45 ff               movzx	eax, byte [ebp-01h]
  403884:	50                        push	eax
  403885:	e8 dd 47 00 00            call	408067
  40388a:	34 74                     xor	al, 74h
  40388c:	6a 04                     push	dword 00000004h
  40388e:	88 45 ff                  mov	[ebp-01h], al
  403891:	8d 45 08                  lea	eax, [ebp+08h]
  403894:	50                        push	eax
  403895:	8d 45 fc                  lea	eax, [ebp-04h]
  403898:	50                        push	eax
  403899:	e8 9f 47 00 00            call	40803d
  40389e:	8b 45 08                  mov	eax, [ebp+08h]
  4038a1:	83 c4 38                  add	esp, 38h
  4038a4:	5f                        pop	edi
  4038a5:	c9                        leave
  4038a6:	c3                        ret

4038a7 <no name>:
  4038a7:	56                        push	esi
  4038a8:	e8 5f 1d 00 00            call	40560c
  4038ad:	6a ff                     push	dword FFFFFFFFh
  4038af:	ff 74 24 0c               push	dword [esp+0Ch]
  4038b3:	ff 15 4c 31 41 00         call	dword [0041314Ch]	; <lstrlenA>
  4038b9:	50                        push	eax
  4038ba:	ff 74 24 10               push	dword [esp+10h]
  4038be:	e8 a7 1d 00 00            call	40566a
  4038c3:	8b f0                     mov	esi, eax
  4038c5:	e8 88 1d 00 00            call	405652
  4038ca:	f7 d6                     not	esi
  4038cc:	56                        push	esi
  4038cd:	e8 59 ff ff ff            call	40382b
  4038d2:	83 c4 10                  add	esp, 10h
  4038d5:	5e                        pop	esi
  4038d6:	c3                        ret

4038d7 <no name>:
  4038d7:	55                        push	ebp
  4038d8:	8b ec                     mov	ebp, esp
  4038da:	81 ec c4 03 00 00         sub	esp, 000003C4h
  4038e0:	53                        push	ebx
  4038e1:	56                        push	esi
  4038e2:	57                        push	edi
  4038e3:	6a 40                     push	dword 00000040h
  4038e5:	33 db                     xor	ebx, ebx
  4038e7:	59                        pop	ecx
  4038e8:	33 c0                     xor	eax, eax
  4038ea:	8d bd a9 fe ff ff         lea	edi, [ebp-00000157h]
  4038f0:	88 9d a8 fe ff ff         mov	[ebp-00000158h], bl
  4038f6:	6a 40                     push	dword 00000040h
  4038f8:	f3 ab                     rep stosd
  4038fa:	66 ab                     stosw
  4038fc:	aa                        stosb
  4038fd:	59                        pop	ecx
  4038fe:	33 c0                     xor	eax, eax
  403900:	8d bd 41 fd ff ff         lea	edi, [ebp-000002BFh]
  403906:	88 9d 40 fd ff ff         mov	[ebp-000002C0h], bl
  40390c:	f3 ab                     rep stosd
  40390e:	66 ab                     stosw
  403910:	aa                        stosb
  403911:	6a 40                     push	dword 00000040h
  403913:	33 c0                     xor	eax, eax
  403915:	59                        pop	ecx
  403916:	8d bd 3d fc ff ff         lea	edi, [ebp-000003C3h]
  40391c:	88 9d 3c fc ff ff         mov	[ebp-000003C4h], bl
  403922:	89 5d f0                  mov	[ebp-10h], ebx
  403925:	f3 ab                     rep stosd
  403927:	66 ab                     stosw
  403929:	aa                        stosb
  40392a:	33 c0                     xor	eax, eax
  40392c:	8d 7d f4                  lea	edi, [ebp-0Ch]
  40392f:	ab                        stosd
  403930:	ab                        stosd
  403931:	ab                        stosd
  403932:	6a 10                     push	dword 00000010h
  403934:	33 c0                     xor	eax, eax
  403936:	59                        pop	ecx
  403937:	8d 7d b0                  lea	edi, [ebp-50h]
  40393a:	c7 45 ac 44 00 00 00      mov	dword [ebp-54h], 00000044h
  403941:	f3 ab                     rep stosd
  403943:	8d 45 ac                  lea	eax, [ebp-54h]
  403946:	50                        push	eax
  403947:	ff 15 b8 30 41 00         call	dword [004130B8h]	; <GetStartupInfoA>
  40394d:	a1 dc 60 41 00            mov	eax, [4160DCh]
  403952:	83 f8 03                  cmp	eax, 03h
  403955:	74 2d                     jz	403984
  403957:	83 4d d8 01               or	dword [ebp-28h], 01h
  40395b:	2b c3                     sub	eax, ebx
  40395d:	74 1f                     jz	40397e
  40395f:	48                        dec	eax
  403960:	74 14                     jz	403976
  403962:	48                        dec	eax
  403963:	74 09                     jz	40396e
  403965:	48                        dec	eax
  403966:	75 1c                     jnz	403984
  403968:	66 89 5d dc               mov	[ebp-24h], bx
  40396c:	eb 16                     jmp	403984
  40396e:	66 c7 45 dc 03 00        >mov	word [ebp-24h], 0003h
  403974:	eb 0e                     jmp	403984
  403976:	66 c7 45 dc 06 00        >mov	word [ebp-24h], 0006h
  40397c:	eb 06                     jmp	403984
  40397e:	66 c7 45 dc 05 00        >mov	word [ebp-24h], 0005h
  403984:	39 1d 40 61 41 00        >cmp	[00416140h], ebx
  40398a:	0f 85 d8 01 00 00         jnz	403b68
  403990:	a1 bc 61 41 00            mov	eax, [4161BCh]
  403995:	3b c3                     cmp	eax, ebx
  403997:	74 0b                     jz	4039a4
  403999:	39 1d 4c 61 41 00         cmp	[0041614Ch], ebx
  40399f:	75 03                     jnz	4039a4
  4039a1:	50                        push	eax
  4039a2:	eb 06                     jmp	4039aa
  4039a4:	ff 35 7c 61 41 00        >push	dword [0041617Ch]
  4039aa:	8b 35 54 31 41 00        >mov	esi, [00413154h]
  4039b0:	8d 85 40 fd ff ff         lea	eax, [ebp-000002C0h]
  4039b6:	50                        push	eax
  4039b7:	ff d6                     call	esi
  4039b9:	8d 85 40 fd ff ff         lea	eax, [ebp-000002C0h]
  4039bf:	50                        push	eax
  4039c0:	8d 85 a8 fe ff ff         lea	eax, [ebp-00000158h]
  4039c6:	50                        push	eax
  4039c7:	ff d6                     call	esi
  4039c9:	8d 85 a8 fe ff ff         lea	eax, [ebp-00000158h]
  4039cf:	50                        push	eax
  4039d0:	e8 2c fd ff ff            call	403701
  4039d5:	8b 3d 48 31 41 00         mov	edi, [00413148h]
  4039db:	59                        pop	ecx
  4039dc:	ff 35 b4 61 41 00         push	dword [004161B4h]
  4039e2:	8d 85 a8 fe ff ff         lea	eax, [ebp-00000158h]
  4039e8:	50                        push	eax
  4039e9:	ff d7                     call	edi
  4039eb:	8d 85 a8 fe ff ff         lea	eax, [ebp-00000158h]
  4039f1:	53                        push	ebx
  4039f2:	50                        push	eax
  4039f3:	e8 ca da ff ff            call	4014c2
  4039f8:	59                        pop	ecx
  4039f9:	85 c0                     test	eax, eax
  4039fb:	59                        pop	ecx
  4039fc:	75 0f                     jnz	403a0d
  4039fe:	ff 35 b4 61 41 00         push	dword [004161B4h]
  403a04:	8d 85 a8 fe ff ff         lea	eax, [ebp-00000158h]
  403a0a:	50                        push	eax
  403a0b:	ff d6                     call	esi
  403a0d:	8d 85 40 fd ff ff        >lea	eax, [ebp-000002C0h]
  403a13:	50                        push	eax
  403a14:	e8 13 fd ff ff            call	40372c
  403a19:	8d 85 a8 fe ff ff         lea	eax, [ebp-00000158h]
  403a1f:	50                        push	eax
  403a20:	e8 c9 01 00 00            call	403bee
  403a25:	59                        pop	ecx
  403a26:	85 c0                     test	eax, eax
  403a28:	59                        pop	ecx
  403a29:	75 4c                     jnz	403a77
  403a2b:	0f b7 45 dc               movzx	eax, word [ebp-24h]
  403a2f:	50                        push	eax
  403a30:	8d 85 40 fd ff ff         lea	eax, [ebp-000002C0h]
  403a36:	50                        push	eax
  403a37:	8d 85 a8 fe ff ff         lea	eax, [ebp-00000158h]
  403a3d:	ff 35 b8 61 41 00         push	dword [004161B8h]
  403a43:	50                        push	eax
  403a44:	68 a4 51 41 00            push	dword 004151A4h
  403a49:	53                        push	ebx
  403a4a:	ff 15 0c 32 41 00         call	dword [0041320Ch]	; <ShellExecuteA>
  403a50:	8b f0                     mov	esi, eax
  403a52:	83 fe 20                  cmp	esi, 20h
  403a55:	0f 8e 70 01 00 00         jle	403bcb
  403a5b:	53                       >push	ebx
  403a5c:	e8 f1 01 00 00            call	403c52
  403a61:	59                        pop	ecx
  403a62:	6a 64                     push	dword 00000064h
  403a64:	56                        push	esi
  403a65:	ff 15 90 30 41 00         call	dword [00413090h]	; <WaitForSingleObject>
  403a6b:	3d 02 01 00 00            cmp	eax, 00000102h
  403a70:	74 e9                     jz	403a5b
  403a72:	e9 f1 00 00 00            jmp	403b68
  403a77:	8d 85 a8 fe ff ff        >lea	eax, [ebp-00000158h]
  403a7d:	50                        push	eax
  403a7e:	8d 85 3c fc ff ff         lea	eax, [ebp-000003C4h]
  403a84:	50                        push	eax
  403a85:	ff d6                     call	esi
  403a87:	8d 85 3c fc ff ff         lea	eax, [ebp-000003C4h]
  403a8d:	50                        push	eax
  403a8e:	8d 85 a8 fe ff ff         lea	eax, [ebp-00000158h]
  403a94:	68 9c 51 41 00            push	dword 0041519Ch
  403a99:	50                        push	eax
  403a9a:	ff 15 70 32 41 00         call	dword [00413270h]	; <wsprintfA>
  403aa0:	83 c4 0c                  add	esp, 0Ch
  403aa3:	39 1d cc 61 41 00         cmp	[004161CCh], ebx
  403aa9:	be 98 51 41 00            mov	esi, 00415198h
  403aae:	74 19                     jz	403ac9
  403ab0:	8d 85 a8 fe ff ff         lea	eax, [ebp-00000158h]
  403ab6:	56                        push	esi
  403ab7:	50                        push	eax
  403ab8:	ff d7                     call	edi
  403aba:	ff 35 cc 61 41 00         push	dword [004161CCh]
  403ac0:	8d 85 a8 fe ff ff         lea	eax, [ebp-00000158h]
  403ac6:	50                        push	eax
  403ac7:	ff d7                     call	edi
  403ac9:	39 1d b8 61 41 00        >cmp	[004161B8h], ebx
  403acf:	74 19                     jz	403aea
  403ad1:	8d 85 a8 fe ff ff         lea	eax, [ebp-00000158h]
  403ad7:	56                        push	esi
  403ad8:	50                        push	eax
  403ad9:	ff d7                     call	edi
  403adb:	ff 35 b8 61 41 00         push	dword [004161B8h]
  403ae1:	8d 85 a8 fe ff ff         lea	eax, [ebp-00000158h]
  403ae7:	50                        push	eax
  403ae8:	ff d7                     call	edi
  403aea:	53                       >push	ebx
  403aeb:	68 d3 3b 40 00            push	dword 00403BD3h
  403af0:	53                        push	ebx
  403af1:	68 f1 03 00 00            push	dword 000003F1h
  403af6:	ff 35 d8 60 41 00         push	dword [004160D8h]
  403afc:	ff 15 80 32 41 00         call	dword [00413280h]	; <CreateDialogParamA>
  403b02:	8b f0                     mov	esi, eax
  403b04:	8d 45 f0                  lea	eax, [ebp-10h]
  403b07:	50                        push	eax
  403b08:	8d 45 ac                  lea	eax, [ebp-54h]
  403b0b:	50                        push	eax
  403b0c:	8d 85 40 fd ff ff         lea	eax, [ebp-000002C0h]
  403b12:	50                        push	eax
  403b13:	53                        push	ebx
  403b14:	53                        push	ebx
  403b15:	53                        push	ebx
  403b16:	53                        push	ebx
  403b17:	8d 85 a8 fe ff ff         lea	eax, [ebp-00000158h]
  403b1d:	53                        push	ebx
  403b1e:	50                        push	eax
  403b1f:	53                        push	ebx
  403b20:	ff 15 84 30 41 00         call	dword [00413084h]	; <CreateProcessA>
  403b26:	85 c0                     test	eax, eax
  403b28:	74 42                     jz	403b6c
  403b2a:	53                       >push	ebx
  403b2b:	e8 22 01 00 00            call	403c52
  403b30:	59                        pop	ecx
  403b31:	6a 64                     push	dword 00000064h
  403b33:	ff 75 f0                  push	dword [ebp-10h]
  403b36:	ff 15 90 30 41 00         call	dword [00413090h]	; <WaitForSingleObject>
  403b3c:	3d 02 01 00 00            cmp	eax, 00000102h
  403b41:	74 e7                     jz	403b2a
  403b43:	68 70 61 41 00            push	dword 00416170h
  403b48:	ff 75 f0                  push	dword [ebp-10h]
  403b4b:	ff 15 80 30 41 00         call	dword [00413080h]	; <GetExitCodeProcess>
  403b51:	ff 75 f0                  push	dword [ebp-10h]
  403b54:	8b 3d 78 31 41 00         mov	edi, [00413178h]
  403b5a:	ff d7                     call	edi
  403b5c:	ff 75 f4                  push	dword [ebp-0Ch]
  403b5f:	ff d7                     call	edi
  403b61:	56                        push	esi
  403b62:	ff 15 7c 32 41 00         call	dword [0041327Ch]	; <DestroyWindow>
  403b68:	33 c0                    >xor	eax, eax
  403b6a:	eb 62                     jmp	403bce
  403b6c:	6a 18                    >push	dword 00000018h
  403b6e:	33 c0                     xor	eax, eax
  403b70:	59                        pop	ecx
  403b71:	8d bd 45 fe ff ff         lea	edi, [ebp-000001BBh]
  403b77:	88 9d 44 fe ff ff         mov	[ebp-000001BCh], bl
  403b7d:	39 1d c8 61 41 00         cmp	[004161C8h], ebx
  403b83:	f3 ab                     rep stosd
  403b85:	66 ab                     stosw
  403b87:	aa                        stosb
  403b88:	74 26                     jz	403bb0
  403b8a:	8d 85 44 fe ff ff         lea	eax, [ebp-000001BCh]
  403b90:	6a 64                     push	dword 00000064h
  403b92:	50                        push	eax
  403b93:	6a 31                     push	dword 00000031h
  403b95:	68 78 51 41 00            push	dword 00415178h
  403b9a:	e8 b8 d8 ff ff            call	401457
  403b9f:	83 c4 10                  add	esp, 10h
  403ba2:	85 c0                     test	eax, eax
  403ba4:	74 0a                     jz	403bb0
  403ba6:	8d 85 44 fe ff ff         lea	eax, [ebp-000001BCh]
  403bac:	53                        push	ebx
  403bad:	50                        push	eax
  403bae:	eb 06                     jmp	403bb6
  403bb0:	53                       >push	ebx
  403bb1:	68 84 51 41 00            push	dword 00415184h
  403bb6:	8d 85 a8 fe ff ff        >lea	eax, [ebp-00000158h]
  403bbc:	50                        push	eax
  403bbd:	53                        push	ebx
  403bbe:	ff 15 44 32 41 00         call	dword [00413244h]	; <MessageBoxA>
  403bc4:	56                        push	esi
  403bc5:	ff 15 7c 32 41 00         call	dword [0041327Ch]	; <DestroyWindow>
  403bcb:	6a 0c                    >push	dword 0000000Ch
  403bcd:	58                        pop	eax
  403bce:	5f                       >pop	edi
  403bcf:	5e                        pop	esi
  403bd0:	5b                        pop	ebx
  403bd1:	c9                        leave
  403bd2:	c3                        ret
     ...

403bee <no name>:
  403bee:	53                        push	ebx
  403bef:	55                        push	ebp
  403bf0:	56                        push	esi
  403bf1:	57                        push	edi
  403bf2:	6a 2e                     push	dword 0000002Eh
  403bf4:	ff 74 24 18               push	dword [esp+18h]
  403bf8:	e8 28 3e 00 00            call	407a25
  403bfd:	8b d8                     mov	ebx, eax
  403bff:	59                        pop	ecx
  403c00:	85 db                     test	ebx, ebx
  403c02:	59                        pop	ecx
  403c03:	74 46                     jz	403c4b
  403c05:	8b 35 94 30 41 00         mov	esi, [00413094h]
  403c0b:	83 cd ff                  or	ebp, FFh
  403c0e:	55                        push	ebp
  403c0f:	68 bc 51 41 00            push	dword 004151BCh
  403c14:	55                        push	ebp
  403c15:	53                        push	ebx
  403c16:	bf 00 04 00 00            mov	edi, 00000400h
  403c1b:	6a 01                     push	dword 00000001h
  403c1d:	57                        push	edi
  403c1e:	ff d6                     call	esi
  403c20:	48                        dec	eax
  403c21:	48                        dec	eax
  403c22:	74 22                     jz	403c46
  403c24:	55                        push	ebp
  403c25:	68 b4 51 41 00            push	dword 004151B4h
  403c2a:	55                        push	ebp
  403c2b:	53                        push	ebx
  403c2c:	6a 01                     push	dword 00000001h
  403c2e:	57                        push	edi
  403c2f:	ff d6                     call	esi
  403c31:	48                        dec	eax
  403c32:	48                        dec	eax
  403c33:	74 11                     jz	403c46
  403c35:	55                        push	ebp
  403c36:	68 ac 51 41 00            push	dword 004151ACh
  403c3b:	55                        push	ebp
  403c3c:	53                        push	ebx
  403c3d:	6a 01                     push	dword 00000001h
  403c3f:	57                        push	edi
  403c40:	ff d6                     call	esi
  403c42:	48                        dec	eax
  403c43:	48                        dec	eax
  403c44:	75 05                     jnz	403c4b
  403c46:	6a 01                    >push	dword 00000001h
  403c48:	58                        pop	eax
  403c49:	eb 02                     jmp	403c4d
  403c4b:	33 c0                    >xor	eax, eax
  403c4d:	5f                       >pop	edi
  403c4e:	5e                        pop	esi
  403c4f:	5d                        pop	ebp
  403c50:	5b                        pop	ebx
  403c51:	c3                        ret

403c52 <no name>:
  403c52:	55                        push	ebp
  403c53:	8b ec                     mov	ebp, esp
  403c55:	83 ec 1c                  sub	esp, 1Ch
  403c58:	53                        push	ebx
  403c59:	56                        push	esi
  403c5a:	8b 35 e8 32 41 00         mov	esi, [004132E8h]
  403c60:	57                        push	edi
  403c61:	6a 06                     push	dword 00000006h
  403c63:	33 db                     xor	ebx, ebx
  403c65:	59                        pop	ecx
  403c66:	33 c0                     xor	eax, eax
  403c68:	8d 7d e8                  lea	edi, [ebp-18h]
  403c6b:	89 5d e4                  mov	[ebp-1Ch], ebx
  403c6e:	f3 ab                     rep stosd
  403c70:	6a 01                    >push	dword 00000001h
  403c72:	53                        push	ebx
  403c73:	53                        push	ebx
  403c74:	8d 45 e4                  lea	eax, [ebp-1Ch]
  403c77:	53                        push	ebx
  403c78:	50                        push	eax
  403c79:	ff d6                     call	esi
  403c7b:	85 c0                     test	eax, eax
  403c7d:	74 16                     jz	403c95
  403c7f:	8d 45 e4                  lea	eax, [ebp-1Ch]
  403c82:	50                        push	eax
  403c83:	ff 15 f4 32 41 00         call	dword [004132F4h]	; <TranslateMessage>
  403c89:	8d 45 e4                  lea	eax, [ebp-1Ch]
  403c8c:	50                        push	eax
  403c8d:	ff 15 f0 32 41 00         call	dword [004132F0h]	; <DispatchMessageA>
  403c93:	eb db                     jmp	403c70
  403c95:	39 5d 08                 >cmp	[ebp+08h], ebx
  403c98:	74 0b                     jz	403ca5
  403c9a:	68 e8 03 00 00            push	dword 000003E8h
  403c9f:	ff 15 98 30 41 00         call	dword [00413098h]	; <Sleep>
  403ca5:	8b 45 08                 >mov	eax, [ebp+08h]
  403ca8:	ff 4d 08                  dec	dword [ebp+08h]
  403cab:	85 c0                     test	eax, eax
  403cad:	75 c1                     jnz	403c70
  403caf:	5f                        pop	edi
  403cb0:	5e                        pop	esi
  403cb1:	5b                        pop	ebx
  403cb2:	c9                        leave
  403cb3:	c3                        ret
     ...

403f3f <no name>:
  403f3f:	55                        push	ebp
  403f40:	8b ec                     mov	ebp, esp
  403f42:	81 ec 08 02 00 00         sub	esp, 00000208h
  403f48:	80 a5 fc fe ff ff 00      and	byte [ebp-00000104h], 00h
  403f4f:	57                        push	edi
  403f50:	6a 40                     push	dword 00000040h
  403f52:	33 c0                     xor	eax, eax
  403f54:	59                        pop	ecx
  403f55:	8d bd fd fe ff ff         lea	edi, [ebp-00000103h]
  403f5b:	f3 ab                     rep stosd
  403f5d:	80 a5 f8 fd ff ff 00      and	byte [ebp-00000208h], 00h
  403f64:	6a 40                     push	dword 00000040h
  403f66:	66 ab                     stosw
  403f68:	aa                        stosb
  403f69:	59                        pop	ecx
  403f6a:	33 c0                     xor	eax, eax
  403f6c:	8d bd f9 fd ff ff         lea	edi, [ebp-00000207h]
  403f72:	83 3d 90 61 41 00 00      cmp	dword [00416190h], 00h
  403f79:	f3 ab                     rep stosd
  403f7b:	66 ab                     stosw
  403f7d:	aa                        stosb
  403f7e:	74 21                     jz	403fa1
  403f80:	ff 35 78 61 41 00         push	dword [00416178h]
  403f86:	e8 1c f9 ff ff            call	4038a7
  403f8b:	3b 05 18 61 41 00         cmp	eax, [00416118h]
  403f91:	59                        pop	ecx
  403f92:	74 0d                     jz	403fa1
  403f94:	6a 23                     push	dword 00000023h
  403f96:	58                        pop	eax
  403f97:	a3 38 61 41 00            mov	[416138h], eax
  403f9c:	e9 13 01 00 00            jmp	4040b4
  403fa1:	53                       >push	ebx
  403fa2:	56                        push	esi
  403fa3:	ff 75 08                  push	dword [ebp+08h]
  403fa6:	e8 0c 01 00 00            call	4040b7
  403fab:	8b 35 70 32 41 00         mov	esi, [00413270h]
  403fb1:	59                        pop	ecx
  403fb2:	85 c0                     test	eax, eax
  403fb4:	a3 38 61 41 00            mov	[416138h], eax
  403fb9:	bf b8 50 41 00            mov	edi, 004150B8h
  403fbe:	0f 85 93 00 00 00         jnz	404057
  403fc4:	83 3d ec 60 41 00 00      cmp	dword [004160ECh], 00h
  403fcb:	0f 85 95 00 00 00         jnz	404066
  403fd1:	ff 35 78 61 41 00         push	dword [00416178h]
  403fd7:	8d 85 f8 fd ff ff         lea	eax, [ebp-00000208h]
  403fdd:	50                        push	eax
  403fde:	ff 15 54 31 41 00         call	dword [00413154h]	; <lstrcpyA>
  403fe4:	8d 85 f8 fd ff ff         lea	eax, [ebp-00000208h]
  403fea:	50                        push	eax
  403feb:	ff 15 4c 31 41 00         call	dword [0041314Ch]	; <lstrlenA>
  403ff1:	85 c0                     test	eax, eax
  403ff3:	7e 54                     jle	404049
  403ff5:	6a 01                     push	dword 00000001h
  403ff7:	5b                        pop	ebx
  403ff8:	39 1d 0c 61 41 00         cmp	[0041610Ch], ebx
  403ffe:	7c 49                     jl	404049
  404000:	53                       >push	ebx
  404001:	8d 85 fc fe ff ff         lea	eax, [ebp-00000104h]
  404007:	ff 35 7c 61 41 00         push	dword [0041617Ch]
  40400d:	57                        push	edi
  40400e:	50                        push	eax
  40400f:	ff d6                     call	esi
  404011:	8d 85 fc fe ff ff         lea	eax, [ebp-00000104h]
  404017:	6a 00                     push	dword 00000000h
  404019:	50                        push	eax
  40401a:	e8 a3 d4 ff ff            call	4014c2
  40401f:	83 c4 18                  add	esp, 18h
  404022:	85 c0                     test	eax, eax
  404024:	74 1a                     jz	404040
  404026:	8d 85 f8 fd ff ff         lea	eax, [ebp-00000208h]
  40402c:	50                        push	eax
  40402d:	8d 85 fc fe ff ff         lea	eax, [ebp-00000104h]
  404033:	50                        push	eax
  404034:	e8 aa 19 00 00            call	4059e3
  404039:	59                        pop	ecx
  40403a:	a3 38 61 41 00            mov	[416138h], eax
  40403f:	59                        pop	ecx
  404040:	43                       >inc	ebx
  404041:	3b 1d 0c 61 41 00         cmp	ebx, [0041610Ch]
  404047:	7e b7                     jle	404000
  404049:	ff 75 08                 >push	dword [ebp+08h]
  40404c:	e8 f7 02 00 00            call	404348
  404051:	59                        pop	ecx
  404052:	a3 38 61 41 00            mov	[416138h], eax
  404057:	83 f8 f6                 >cmp	eax, F6h
  40405a:	75 0a                     jnz	404066
  40405c:	c7 05 40 61 41 00 01      mov	dword [00416140h], 00000001h
		00 00 00 
  404066:	6a 01                    >push	dword 00000001h
  404068:	5b                        pop	ebx
  404069:	39 1d 0c 61 41 00         cmp	[0041610Ch], ebx
  40406f:	7c 41                     jl	4040b2
  404071:	53                       >push	ebx
  404072:	8d 85 fc fe ff ff         lea	eax, [ebp-00000104h]
  404078:	ff 35 7c 61 41 00         push	dword [0041617Ch]
  40407e:	57                        push	edi
  40407f:	50                        push	eax
  404080:	ff d6                     call	esi
  404082:	8d 85 fc fe ff ff         lea	eax, [ebp-00000104h]
  404088:	6a 00                     push	dword 00000000h
  40408a:	50                        push	eax
  40408b:	e8 32 d4 ff ff            call	4014c2
  404090:	83 c4 18                  add	esp, 18h
  404093:	85 c0                     test	eax, eax
  404095:	74 0d                     jz	4040a4
  404097:	8d 85 fc fe ff ff         lea	eax, [ebp-00000104h]
  40409d:	50                        push	eax
  40409e:	ff 15 74 30 41 00         call	dword [00413074h]	; <DeleteFileA>
  4040a4:	43                       >inc	ebx
  4040a5:	3b 1d 0c 61 41 00         cmp	ebx, [0041610Ch]
  4040ab:	7e c4                     jle	404071
  4040ad:	a1 38 61 41 00            mov	eax, [416138h]
  4040b2:	5e                       >pop	esi
  4040b3:	5b                        pop	ebx
  4040b4:	5f                       >pop	edi
  4040b5:	c9                        leave
  4040b6:	c3                        ret

4040b7 <no name>:
  4040b7:	55                        push	ebp
  4040b8:	8b ec                     mov	ebp, esp
  4040ba:	81 ec 24 02 00 00         sub	esp, 00000224h
  4040c0:	53                        push	ebx
  4040c1:	56                        push	esi
  4040c2:	57                        push	edi
  4040c3:	6a 40                     push	dword 00000040h
  4040c5:	33 db                     xor	ebx, ebx
  4040c7:	59                        pop	ecx
  4040c8:	33 c0                     xor	eax, eax
  4040ca:	8d bd dd fd ff ff         lea	edi, [ebp-00000223h]
  4040d0:	88 9d dc fd ff ff         mov	[ebp-00000224h], bl
  4040d6:	6a 40                     push	dword 00000040h
  4040d8:	f3 ab                     rep stosd
  4040da:	66 ab                     stosw
  4040dc:	aa                        stosb
  4040dd:	59                        pop	ecx
  4040de:	33 c0                     xor	eax, eax
  4040e0:	ff 35 7c 61 41 00         push	dword [0041617Ch]
  4040e6:	8d bd e1 fe ff ff         lea	edi, [ebp-0000011Fh]
  4040ec:	88 9d e0 fe ff ff         mov	[ebp-00000120h], bl
  4040f2:	f3 ab                     rep stosd
  4040f4:	53                        push	ebx
  4040f5:	68 e0 51 41 00            push	dword 004151E0h
  4040fa:	ff 35 f4 61 41 00         push	dword [004161F4h]
  404100:	66 ab                     stosw
  404102:	aa                        stosb
  404103:	ff 15 88 30 41 00         call	dword [00413088h]	; <GetTempFileNameA>
  404109:	ff 35 7c 61 41 00         push	dword [0041617Ch]
  40410f:	ff 15 74 30 41 00         call	dword [00413074h]	; <DeleteFileA>
  404115:	ff 35 7c 61 41 00         push	dword [0041617Ch]
  40411b:	e8 01 d4 ff ff            call	401521
  404120:	c7 04 24 dc 51 41 00      mov	dword [esp], 004151DCh
  404127:	ff 35 7c 61 41 00         push	dword [0041617Ch]
  40412d:	ff 15 48 31 41 00         call	dword [00413148h]	; <lstrcatA>
  404133:	ff 35 08 61 41 00         push	dword [00416108h]
  404139:	ff 35 7c 61 41 00         push	dword [0041617Ch]
  40413f:	ff 75 08                  push	dword [ebp+08h]
  404142:	e8 b0 06 00 00            call	4047f7
  404147:	83 c4 0c                  add	esp, 0Ch
  40414a:	85 c0                     test	eax, eax
  40414c:	75 07                     jnz	404155
  40414e:	6a f6                     push	dword FFFFFFF6h
  404150:	e9 f0 01 00 00            jmp	404345
  404155:	8d 85 dc fd ff ff        >lea	eax, [ebp-00000224h]
  40415b:	68 04 01 00 00            push	dword 00000104h
  404160:	50                        push	eax
  404161:	53                        push	ebx
  404162:	ff 15 0c 31 41 00         call	dword [0041310Ch]	; <GetModuleFileNameA>
  404168:	68 00 01 00 00            push	dword 00000100h
  40416d:	8d 85 dc fd ff ff         lea	eax, [ebp-00000224h]
  404173:	53                        push	ebx
  404174:	50                        push	eax
  404175:	e8 65 d7 ff ff            call	4018df
  40417a:	83 c4 0c                  add	esp, 0Ch
  40417d:	83 f8 ff                  cmp	eax, FFh
  404180:	89 45 f8                  mov	[ebp-08h], eax
  404183:	75 07                     jnz	40418c
  404185:	6a 05                     push	dword 00000005h
  404187:	e9 b9 01 00 00            jmp	404345
  40418c:	68 00 00 04 00           >push	dword 00040000h
  404191:	e8 e4 34 00 00            call	40767a
  404196:	53                        push	ebx
  404197:	89 45 fc                  mov	[ebp-04h], eax
  40419a:	ff 35 04 61 41 00         push	dword [00416104h]
  4041a0:	ff 75 f8                  push	dword [ebp-08h]
  4041a3:	e8 d9 d7 ff ff            call	401981
  4041a8:	83 c4 10                  add	esp, 10h
  4041ab:	39 5d 08                  cmp	[ebp+08h], ebx
  4041ae:	74 20                     jz	4041d0
  4041b0:	a1 08 61 41 00            mov	eax, [416108h]
  4041b5:	c1 e8 12                  shr	eax, 12h
  4041b8:	c1 e0 10                  shl	eax, 10h
  4041bb:	50                        push	eax
  4041bc:	53                        push	ebx
  4041bd:	68 01 04 00 00            push	dword 00000401h
  4041c2:	68 f0 03 00 00            push	dword 000003F0h
  4041c7:	ff 75 08                  push	dword [ebp+08h]
  4041ca:	ff 15 2c 32 41 00         call	dword [0041322Ch]	; <SendDlgItemMessageA>
  4041d0:	33 f6                    >xor	esi, esi
  4041d2:	39 1d 0c 61 41 00         cmp	[0041610Ch], ebx
  4041d8:	0f 8e fe 00 00 00         jle	4042dc
  4041de:	8d 46 01                 >lea	eax, [esi+01h]
  4041e1:	50                        push	eax
  4041e2:	89 45 e4                  mov	[ebp-1Ch], eax
  4041e5:	ff 35 7c 61 41 00         push	dword [0041617Ch]
  4041eb:	8d 85 e0 fe ff ff         lea	eax, [ebp-00000120h]
  4041f1:	68 b8 50 41 00            push	dword 004150B8h
  4041f6:	50                        push	eax
  4041f7:	ff 15 70 32 41 00         call	dword [00413270h]	; <wsprintfA>
  4041fd:	68 80 01 00 00            push	dword 00000180h
  404202:	8d 85 e0 fe ff ff         lea	eax, [ebp-00000120h]
  404208:	68 01 01 00 00            push	dword 00000101h
  40420d:	50                        push	eax
  40420e:	e8 cc d6 ff ff            call	4018df
  404213:	83 c4 1c                  add	esp, 1Ch
  404216:	83 f8 ff                  cmp	eax, FFh
  404219:	89 45 e8                  mov	[ebp-18h], eax
  40421c:	0f 84 d8 00 00 00         jz	4042fa
  404222:	a1 10 61 41 00            mov	eax, [416110h]
  404227:	8b fe                     mov	edi, esi
  404229:	c1 e7 02                  shl	edi, 02h
  40422c:	89 7d ec                  mov	[ebp-14h], edi
  40422f:	89 5d f0                  mov	[ebp-10h], ebx
  404232:	8b 34 07                  mov	esi, [edi+eax*1]
  404235:	3b f3                     cmp	esi, ebx
  404237:	74 5e                     jz	404297
  404239:	39 1d ec 60 41 00        >cmp	[004160ECh], ebx
  40423f:	75 56                     jnz	404297
  404241:	b8 00 00 04 00            mov	eax, 00040000h
  404246:	3b f0                     cmp	esi, eax
  404248:	89 45 f4                  mov	[ebp-0Ch], eax
  40424b:	77 03                     ja	404250
  40424d:	89 75 f4                  mov	[ebp-0Ch], esi
  404250:	ff 75 f4                 >push	dword [ebp-0Ch]
  404253:	ff 75 fc                  push	dword [ebp-04h]
  404256:	ff 75 f8                  push	dword [ebp-08h]
  404259:	e8 38 d7 ff ff            call	401996
  40425e:	8b f8                     mov	edi, eax
  404260:	57                        push	edi
  404261:	ff 75 fc                  push	dword [ebp-04h]
  404264:	ff 75 e8                  push	dword [ebp-18h]
  404267:	e8 4c d7 ff ff            call	4019b8
  40426c:	53                        push	ebx
  40426d:	e8 e0 f9 ff ff            call	403c52
  404272:	83 c4 1c                  add	esp, 1Ch
  404275:	2b 75 f4                  sub	esi, [ebp-0Ch]
  404278:	01 7d f0                  add	[ebp-10h], edi
  40427b:	53                        push	ebx
  40427c:	53                        push	ebx
  40427d:	68 05 04 00 00            push	dword 00000405h
  404282:	68 f0 03 00 00            push	dword 000003F0h
  404287:	ff 75 08                  push	dword [ebp+08h]
  40428a:	ff 15 2c 32 41 00         call	dword [0041322Ch]	; <SendDlgItemMessageA>
  404290:	8b 7d ec                  mov	edi, [ebp-14h]
  404293:	3b f3                     cmp	esi, ebx
  404295:	75 a2                     jnz	404239
  404297:	ff 75 e8                 >push	dword [ebp-18h]
  40429a:	e8 3b d7 ff ff            call	4019da
  40429f:	39 1d ec 60 41 00         cmp	[004160ECh], ebx
  4042a5:	59                        pop	ecx
  4042a6:	75 0d                     jnz	4042b5
  4042a8:	a1 10 61 41 00            mov	eax, [416110h]
  4042ad:	8b 4d f0                  mov	ecx, [ebp-10h]
  4042b0:	3b 0c 07                  cmp	ecx, [edi+eax*1]
  4042b3:	75 6d                     jnz	404322
  4042b5:	8d 85 e0 fe ff ff        >lea	eax, [ebp-00000120h]
  4042bb:	50                        push	eax
  4042bc:	e8 07 13 00 00            call	4055c8
  4042c1:	59                        pop	ecx
  4042c2:	8b 0d 14 61 41 00         mov	ecx, [00416114h]
  4042c8:	3b 04 0f                  cmp	eax, [edi+ecx*1]
  4042cb:	75 55                     jnz	404322
  4042cd:	8b 75 e4                  mov	esi, [ebp-1Ch]
  4042d0:	3b 35 0c 61 41 00         cmp	esi, [0041610Ch]
  4042d6:	0f 8c 02 ff ff ff         jl	4041de
  4042dc:	ff 75 f8                 >push	dword [ebp-08h]
  4042df:	e8 f6 d6 ff ff            call	4019da
  4042e4:	39 5d fc                  cmp	[ebp-04h], ebx
  4042e7:	59                        pop	ecx
  4042e8:	74 09                     jz	4042f3
  4042ea:	ff 75 fc                  push	dword [ebp-04h]
  4042ed:	e8 59 33 00 00            call	40764b
  4042f2:	59                        pop	ecx
  4042f3:	33 c0                    >xor	eax, eax
  4042f5:	5f                       >pop	edi
  4042f6:	5e                        pop	esi
  4042f7:	5b                        pop	ebx
  4042f8:	c9                        leave
  4042f9:	c3                        ret
  4042fa:	8d 85 e0 fe ff ff        >lea	eax, [ebp-00000120h]
  404300:	50                        push	eax
  404301:	ff 15 74 30 41 00         call	dword [00413074h]	; <DeleteFileA>
  404307:	ff 75 f8                  push	dword [ebp-08h]
  40430a:	e8 cb d6 ff ff            call	4019da
  40430f:	39 5d fc                  cmp	[ebp-04h], ebx
  404312:	59                        pop	ecx
  404313:	74 09                     jz	40431e
  404315:	ff 75 fc                  push	dword [ebp-04h]
  404318:	e8 2e 33 00 00            call	40764b
  40431d:	59                        pop	ecx
  40431e:	6a 06                    >push	dword 00000006h
  404320:	eb 23                     jmp	404345
  404322:	39 5d fc                 >cmp	[ebp-04h], ebx
  404325:	c7 05 f4 60 41 00 01      mov	dword [004160F4h], 00000001h
		00 00 00 
  40432f:	74 09                     jz	40433a
  404331:	ff 75 fc                  push	dword [ebp-04h]
  404334:	e8 12 33 00 00            call	40764b
  404339:	59                        pop	ecx
  40433a:	ff 75 f8                 >push	dword [ebp-08h]
  40433d:	e8 98 d6 ff ff            call	4019da
  404342:	59                        pop	ecx
  404343:	6a 02                     push	dword 00000002h
  404345:	58                       >pop	eax
  404346:	eb ad                     jmp	4042f5

404348 <no name>:
  404348:	55                        push	ebp
  404349:	8b ec                     mov	ebp, esp
  40434b:	81 ec 38 01 00 00         sub	esp, 00000138h
  404351:	53                        push	ebx
  404352:	56                        push	esi
  404353:	57                        push	edi
  404354:	33 db                     xor	ebx, ebx
  404356:	33 c0                     xor	eax, eax
  404358:	8d 7d e8                  lea	edi, [ebp-18h]
  40435b:	89 5d e4                  mov	[ebp-1Ch], ebx
  40435e:	89 5d cc                  mov	[ebp-34h], ebx
  404361:	ab                        stosd
  404362:	ab                        stosd
  404363:	33 c0                     xor	eax, eax
  404365:	8d 7d d0                  lea	edi, [ebp-30h]
  404368:	ab                        stosd
  404369:	ab                        stosd
  40436a:	ab                        stosd
  40436b:	ab                        stosd
  40436c:	ab                        stosd
  40436d:	6a 40                     push	dword 00000040h
  40436f:	33 c0                     xor	eax, eax
  404371:	59                        pop	ecx
  404372:	8d bd c9 fe ff ff         lea	edi, [ebp-00000137h]
  404378:	88 9d c8 fe ff ff         mov	[ebp-00000138h], bl
  40437e:	89 5d fc                  mov	[ebp-04h], ebx
  404381:	f3 ab                     rep stosd
  404383:	66 ab                     stosw
  404385:	aa                        stosb
  404386:	a1 bc 61 41 00            mov	eax, [4161BCh]
  40438b:	3b c3                     cmp	eax, ebx
  40438d:	74 0b                     jz	40439a
  40438f:	39 1d 4c 61 41 00         cmp	[0041614Ch], ebx
  404395:	75 03                     jnz	40439a
  404397:	50                        push	eax
  404398:	eb 06                     jmp	4043a0
  40439a:	ff 35 7c 61 41 00        >push	dword [0041617Ch]
  4043a0:	ff 35 80 61 41 00        >push	dword [00416180h]
  4043a6:	e8 15 3a 00 00            call	407dc0
  4043ab:	a1 bc 61 41 00            mov	eax, [4161BCh]
  4043b0:	59                        pop	ecx
  4043b1:	3b c3                     cmp	eax, ebx
  4043b3:	59                        pop	ecx
  4043b4:	74 17                     jz	4043cd
  4043b6:	83 3d 54 61 41 00 01      cmp	dword [00416154h], 01h
  4043bd:	75 0e                     jnz	4043cd
  4043bf:	50                        push	eax
  4043c0:	ff 35 80 61 41 00         push	dword [00416180h]
  4043c6:	e8 f5 39 00 00            call	407dc0
  4043cb:	59                        pop	ecx
  4043cc:	59                        pop	ecx
  4043cd:	ff 35 80 61 41 00        >push	dword [00416180h]
  4043d3:	e8 49 d1 ff ff            call	401521
  4043d8:	ff 35 80 61 41 00         push	dword [00416180h]
  4043de:	e8 1e f3 ff ff            call	403701
  4043e3:	ff 35 84 61 41 00         push	dword [00416184h]
  4043e9:	ff 35 80 61 41 00         push	dword [00416180h]
  4043ef:	e8 d2 01 00 00            call	4045c6
  4043f4:	8d 45 e4                  lea	eax, [ebp-1Ch]
  4043f7:	50                        push	eax
  4043f8:	6a 01                     push	dword 00000001h
  4043fa:	5e                        pop	esi
  4043fb:	56                        push	esi
  4043fc:	68 81 19 40 00            push	dword 00401981h
  404401:	68 da 19 40 00            push	dword 004019DAh
  404406:	68 b8 19 40 00            push	dword 004019B8h
  40440b:	68 96 19 40 00            push	dword 00401996h
  404410:	68 df 18 40 00            push	dword 004018DFh
  404415:	68 cd 18 40 00            push	dword 004018CDh
  40441a:	68 ba 18 40 00            push	dword 004018BAh
  40441f:	e8 ba 9c 00 00            call	40e0de
  404424:	83 c4 34                  add	esp, 34h
  404427:	3b c3                     cmp	eax, ebx
  404429:	89 45 f4                  mov	[ebp-0Ch], eax
  40442c:	75 07                     jnz	404435
  40442e:	6a 09                     push	dword 00000009h
  404430:	e9 8e 01 00 00            jmp	4045c3
  404435:	a1 84 61 41 00           >mov	eax, [416184h]
  40443a:	38 18                     cmp	[eax], bl
  40443c:	74 16                     jz	404454
  40443e:	ff 75 08                  push	dword [ebp+08h]
  404441:	50                        push	eax
  404442:	e8 22 02 00 00            call	404669
  404447:	59                        pop	ecx
  404448:	85 c0                     test	eax, eax
  40444a:	59                        pop	ecx
  40444b:	75 07                     jnz	404454
  40444d:	6a f6                     push	dword FFFFFFF6h
  40444f:	e9 6f 01 00 00            jmp	4045c3
  404454:	56                       >push	esi
  404455:	8d 85 c8 fe ff ff         lea	eax, [ebp-00000138h]
  40445b:	ff 35 7c 61 41 00         push	dword [0041617Ch]
  404461:	89 1d ec 60 41 00         mov	[004160ECh], ebx
  404467:	89 75 f8                  mov	[ebp-08h], esi
  40446a:	68 b8 50 41 00            push	dword 004150B8h
  40446f:	50                        push	eax
  404470:	ff 15 70 32 41 00         call	dword [00413270h]	; <wsprintfA>
  404476:	8d 85 c8 fe ff ff         lea	eax, [ebp-00000138h]
  40447c:	53                        push	ebx
  40447d:	50                        push	eax
  40447e:	e8 3f d0 ff ff            call	4014c2
  404483:	83 c4 18                  add	esp, 18h
  404486:	85 c0                     test	eax, eax
  404488:	0f 84 19 01 00 00         jz	4045a7
  40448e:	8b 35 2c 32 41 00         mov	esi, [0041322Ch]
  404494:	bf f0 03 00 00            mov	edi, 000003F0h
  404499:	53                       >push	ebx
  40449a:	8d 85 c8 fe ff ff         lea	eax, [ebp-00000138h]
  4044a0:	68 00 80 00 00            push	dword 00008000h
  4044a5:	50                        push	eax
  4044a6:	e8 34 d4 ff ff            call	4018df
  4044ab:	83 c4 0c                  add	esp, 0Ch
  4044ae:	83 f8 ff                  cmp	eax, FFh
  4044b1:	89 45 f0                  mov	[ebp-10h], eax
  4044b4:	0f 84 fe 00 00 00         jz	4045b8
  4044ba:	8d 4d cc                  lea	ecx, [ebp-34h]
  4044bd:	51                        push	ecx
  4044be:	50                        push	eax
  4044bf:	ff 75 f4                  push	dword [ebp-0Ch]
  4044c2:	e8 02 9d 00 00            call	40e1c9
  4044c7:	83 c4 0c                  add	esp, 0Ch
  4044ca:	85 c0                     test	eax, eax
  4044cc:	0f 84 e6 00 00 00         jz	4045b8
  4044d2:	0f b7 45 d2               movzx	eax, word [ebp-2Eh]
  4044d6:	39 5d 08                  cmp	[ebp+08h], ebx
  4044d9:	a3 e8 60 41 00            mov	[4160E8h], eax
  4044de:	74 2e                     jz	40450e
  4044e0:	0f b7 c0                  movzx	eax, ax
  4044e3:	c1 e0 10                  shl	eax, 10h
  4044e6:	50                        push	eax
  4044e7:	53                        push	ebx
  4044e8:	68 01 04 00 00            push	dword 00000401h
  4044ed:	57                        push	edi
  4044ee:	ff 75 08                  push	dword [ebp+08h]
  4044f1:	ff d6                     call	esi
  4044f3:	53                        push	ebx
  4044f4:	6a 01                     push	dword 00000001h
  4044f6:	68 04 04 00 00            push	dword 00000404h
  4044fb:	57                        push	edi
  4044fc:	ff 75 08                  push	dword [ebp+08h]
  4044ff:	ff d6                     call	esi
  404501:	53                        push	ebx
  404502:	53                        push	ebx
  404503:	68 02 04 00 00            push	dword 00000402h
  404508:	57                        push	edi
  404509:	ff 75 08                  push	dword [ebp+08h]
  40450c:	ff d6                     call	esi
  40450e:	ff 75 f8                 >push	dword [ebp-08h]
  404511:	8d 85 c8 fe ff ff         lea	eax, [ebp-00000138h]
  404517:	68 e8 51 41 00            push	dword 004151E8h
  40451c:	50                        push	eax
  40451d:	ff 15 70 32 41 00         call	dword [00413270h]	; <wsprintfA>
  404523:	53                        push	ebx
  404524:	53                        push	ebx
  404525:	68 e5 19 40 00            push	dword 004019E5h
  40452a:	53                        push	ebx
  40452b:	ff 35 7c 61 41 00         push	dword [0041617Ch]
  404531:	8d 85 c8 fe ff ff         lea	eax, [ebp-00000138h]
  404537:	50                        push	eax
  404538:	ff 75 f4                  push	dword [ebp-0Ch]
  40453b:	e8 15 9d 00 00            call	40e255
  404540:	83 c4 28                  add	esp, 28h
  404543:	85 c0                     test	eax, eax
  404545:	75 14                     jnz	40455b
  404547:	a1 3c 61 41 00            mov	eax, [41613Ch]
  40454c:	3b c3                     cmp	eax, ebx
  40454e:	75 08                     jnz	404558
  404550:	8b 45 e4                  mov	eax, [ebp-1Ch]
  404553:	05 2c 01 00 00            add	eax, 0000012Ch
  404558:	89 45 fc                 >mov	[ebp-04h], eax
  40455b:	ff 75 f0                 >push	dword [ebp-10h]
  40455e:	ff 45 f8                  inc	dword [ebp-08h]
  404561:	e8 74 d4 ff ff            call	4019da
  404566:	39 1d ec 60 41 00         cmp	[004160ECh], ebx
  40456c:	59                        pop	ecx
  40456d:	75 38                     jnz	4045a7
  40456f:	39 5d fc                  cmp	[ebp-04h], ebx
  404572:	75 33                     jnz	4045a7
  404574:	ff 75 f8                  push	dword [ebp-08h]
  404577:	8d 85 c8 fe ff ff         lea	eax, [ebp-00000138h]
  40457d:	ff 35 7c 61 41 00         push	dword [0041617Ch]
  404583:	68 b8 50 41 00            push	dword 004150B8h
  404588:	50                        push	eax
  404589:	ff 15 70 32 41 00         call	dword [00413270h]	; <wsprintfA>
  40458f:	8d 85 c8 fe ff ff         lea	eax, [ebp-00000138h]
  404595:	53                        push	ebx
  404596:	50                        push	eax
  404597:	e8 26 cf ff ff            call	4014c2
  40459c:	83 c4 18                  add	esp, 18h
  40459f:	85 c0                     test	eax, eax
  4045a1:	0f 85 f2 fe ff ff         jnz	404499
  4045a7:	ff 75 f4                 >push	dword [ebp-0Ch]
  4045aa:	e8 bf 9b 00 00            call	40e16e
  4045af:	8b 45 fc                  mov	eax, [ebp-04h]
  4045b2:	59                        pop	ecx
  4045b3:	5f                       >pop	edi
  4045b4:	5e                        pop	esi
  4045b5:	5b                        pop	ebx
  4045b6:	c9                        leave
  4045b7:	c3                        ret
  4045b8:	ff 75 f0                 >push	dword [ebp-10h]
  4045bb:	e8 1a d4 ff ff            call	4019da
  4045c0:	59                        pop	ecx
  4045c1:	6a 0a                     push	dword 0000000Ah
  4045c3:	58                       >pop	eax
  4045c4:	eb ed                     jmp	4045b3

4045c6 <no name>:
  4045c6:	53                        push	ebx
  4045c7:	56                        push	esi
  4045c8:	8b 74 24 10               mov	esi, [esp+10h]
  4045cc:	68 04 01 00 00            push	dword 00000104h
  4045d1:	ff 74 24 10               push	dword [esp+10h]
  4045d5:	56                        push	esi
  4045d6:	ff 15 24 31 41 00         call	dword [00413124h]	; <lstrcpynA>
  4045dc:	8a 0e                     mov	cl, [esi]
  4045de:	8b c6                     mov	eax, esi
  4045e0:	32 db                     xor	bl, bl
  4045e2:	3a cb                    >cmp	cl, bl
  4045e4:	74 22                     jz	404608
  4045e6:	80 f9 5c                  cmp	cl, 5Ch
  4045e9:	74 05                     jz	4045f0
  4045eb:	80 f9 2f                  cmp	cl, 2Fh
  4045ee:	75 0d                     jnz	4045fd
  4045f0:	8a 48 01                 >mov	cl, [eax+01h]
  4045f3:	80 f9 5c                  cmp	cl, 5Ch
  4045f6:	74 10                     jz	404608
  4045f8:	80 f9 2f                  cmp	cl, 2Fh
  4045fb:	74 0b                     jz	404608
  4045fd:	50                       >push	eax
  4045fe:	e8 b6 3a 00 00            call	4080b9
  404603:	59                        pop	ecx
  404604:	8a 08                     mov	cl, [eax]
  404606:	eb da                     jmp	4045e2
  404608:	38 18                    >cmp	[eax], bl
  40460a:	74 40                     jz	40464c
  40460c:	40                        inc	eax
  40460d:	40                        inc	eax
  40460e:	8a 08                    >mov	cl, [eax]
  404610:	3a cb                     cmp	cl, bl
  404612:	74 13                     jz	404627
  404614:	80 f9 5c                  cmp	cl, 5Ch
  404617:	74 0e                     jz	404627
  404619:	80 f9 2f                  cmp	cl, 2Fh
  40461c:	74 09                     jz	404627
  40461e:	50                        push	eax
  40461f:	e8 95 3a 00 00            call	4080b9
  404624:	59                        pop	ecx
  404625:	eb e7                     jmp	40460e
  404627:	38 18                    >cmp	[eax], bl
  404629:	74 07                     jz	404632
  40462b:	50                       >push	eax
  40462c:	e8 88 3a 00 00            call	4080b9
  404631:	59                        pop	ecx
  404632:	8a 08                    >mov	cl, [eax]
  404634:	3a cb                     cmp	cl, bl
  404636:	74 0a                     jz	404642
  404638:	80 f9 5c                  cmp	cl, 5Ch
  40463b:	74 05                     jz	404642
  40463d:	80 f9 2f                  cmp	cl, 2Fh
  404640:	75 e9                     jnz	40462b
  404642:	38 18                    >cmp	[eax], bl
  404644:	74 03                     jz	404649
  404646:	88 58 01                  mov	[eax+01h], bl
  404649:	5e                       >pop	esi
  40464a:	5b                        pop	ebx
  40464b:	c3                        ret
  40464c:	8a 0e                    >mov	cl, [esi]
  40464e:	8b c6                     mov	eax, esi
  404650:	3a cb                    >cmp	cl, bl
  404652:	74 ee                     jz	404642
  404654:	80 f9 5c                  cmp	cl, 5Ch
  404657:	74 e9                     jz	404642
  404659:	80 f9 2f                  cmp	cl, 2Fh
  40465c:	74 e4                     jz	404642
  40465e:	50                        push	eax
  40465f:	e8 55 3a 00 00            call	4080b9
  404664:	59                        pop	ecx
  404665:	8a 08                     mov	cl, [eax]
  404667:	eb e7                     jmp	404650

404669 <no name>:
  404669:	55                        push	ebp
  40466a:	8b ec                     mov	ebp, esp
  40466c:	81 ec 1c 04 00 00         sub	esp, 0000041Ch
  404672:	53                        push	ebx
  404673:	56                        push	esi
  404674:	57                        push	edi
  404675:	6a 01                     push	dword 00000001h
  404677:	80 a5 f0 fe ff ff 00      and	byte [ebp-00000110h], 00h
  40467e:	5a                        pop	edx
  40467f:	6a 40                     push	dword 00000040h
  404681:	33 c0                     xor	eax, eax
  404683:	5e                        pop	esi
  404684:	8d bd f1 fe ff ff         lea	edi, [ebp-0000010Fh]
  40468a:	8b ce                     mov	ecx, esi
  40468c:	83 65 fc 00               and	dword [ebp-04h], 00h
  404690:	f3 ab                     rep stosd
  404692:	66 ab                     stosw
  404694:	83 65 f4 00               and	dword [ebp-0Ch], 00h
  404698:	8b 1d 70 32 41 00         mov	ebx, [00413270h]
  40469e:	52                        push	edx
  40469f:	89 55 f8                  mov	[ebp-08h], edx
  4046a2:	ff 35 7c 61 41 00         push	dword [0041617Ch]
  4046a8:	aa                        stosb
  4046a9:	bf b8 50 41 00            mov	edi, 004150B8h
  4046ae:	8d 85 f0 fe ff ff         lea	eax, [ebp-00000110h]
  4046b4:	57                        push	edi
  4046b5:	50                        push	eax
  4046b6:	ff d3                    >call	ebx
  4046b8:	8d 85 f0 fe ff ff         lea	eax, [ebp-00000110h]
  4046be:	6a 00                     push	dword 00000000h
  4046c0:	50                        push	eax
  4046c1:	e8 fc cd ff ff            call	4014c2
  4046c6:	83 c4 18                  add	esp, 18h
  4046c9:	85 c0                     test	eax, eax
  4046cb:	0f 84 06 01 00 00         jz	4047d7
  4046d1:	8d 45 fc                  lea	eax, [ebp-04h]
  4046d4:	50                        push	eax
  4046d5:	8d 85 f0 fe ff ff         lea	eax, [ebp-00000110h]
  4046db:	50                        push	eax
  4046dc:	e8 1f c9 ff ff            call	401000
  4046e1:	83 7d fc 00               cmp	dword [ebp-04h], 00h
  4046e5:	59                        pop	ecx
  4046e6:	59                        pop	ecx
  4046e7:	7c 08                     jl	4046f1
  4046e9:	01 45 f4                  add	[ebp-0Ch], eax
  4046ec:	ff 45 f8                  inc	dword [ebp-08h]
  4046ef:	eb 06                     jmp	4046f7
  4046f1:	83 7d fc f6              >cmp	dword [ebp-04h], F6h
  4046f5:	74 13                     jz	40470a
  4046f7:	ff 75 f8                 >push	dword [ebp-08h]
  4046fa:	8d 85 f0 fe ff ff         lea	eax, [ebp-00000110h]
  404700:	ff 35 7c 61 41 00         push	dword [0041617Ch]
  404706:	57                        push	edi
  404707:	50                        push	eax
  404708:	eb ac                     jmp	4046b6
  40470a:	80 a5 e8 fc ff ff 00     >and	byte [ebp-00000318h], 00h
  404711:	8b ce                     mov	ecx, esi
  404713:	33 c0                     xor	eax, eax
  404715:	8d bd e9 fc ff ff         lea	edi, [ebp-00000317h]
  40471b:	f3 ab                     rep stosd
  40471d:	80 a5 e4 fb ff ff 00      and	byte [ebp-0000041Ch], 00h
  404724:	8b ce                     mov	ecx, esi
  404726:	66 ab                     stosw
  404728:	aa                        stosb
  404729:	33 c0                     xor	eax, eax
  40472b:	8d bd e5 fb ff ff         lea	edi, [ebp-0000041Bh]
  404731:	f3 ab                     rep stosd
  404733:	80 a5 ec fd ff ff 00      and	byte [ebp-00000214h], 00h
  40473a:	8b ce                     mov	ecx, esi
  40473c:	66 ab                     stosw
  40473e:	aa                        stosb
  40473f:	33 c0                     xor	eax, eax
  404741:	8d bd ed fd ff ff         lea	edi, [ebp-00000213h]
  404747:	f3 ab                     rep stosd
  404749:	66 ab                     stosw
  40474b:	aa                        stosb
  40474c:	be 04 01 00 00            mov	esi, 00000104h
  404751:	8d 85 e8 fc ff ff         lea	eax, [ebp-00000318h]
  404757:	56                        push	esi
  404758:	bf 3e 01 00 00            mov	edi, 0000013Eh
  40475d:	50                        push	eax
  40475e:	57                        push	edi
  40475f:	ff 35 d8 60 41 00         push	dword [004160D8h]
  404765:	ff 15 3c 32 41 00         call	dword [0041323Ch]	; <LoadStringA>
  40476b:	8d 85 e8 fc ff ff         lea	eax, [ebp-00000318h]
  404771:	56                        push	esi
  404772:	50                        push	eax
  404773:	57                        push	edi
  404774:	68 78 51 41 00            push	dword 00415178h
  404779:	e8 d9 cc ff ff            call	401457
  40477e:	83 c4 10                  add	esp, 10h
  404781:	8d 85 ec fd ff ff         lea	eax, [ebp-00000214h]
  404787:	56                        push	esi
  404788:	50                        push	eax
  404789:	ff 15 58 31 41 00         call	dword [00413158h]	; <GetSystemDirectoryA>
  40478f:	8d 85 ec fd ff ff         lea	eax, [ebp-00000214h]
  404795:	6a 04                     push	dword 00000004h
  404797:	50                        push	eax
  404798:	8d 85 ec fd ff ff         lea	eax, [ebp-00000214h]
  40479e:	50                        push	eax
  40479f:	ff 15 24 31 41 00         call	dword [00413124h]	; <lstrcpynA>
  4047a5:	8d 85 ec fd ff ff         lea	eax, [ebp-00000214h]
  4047ab:	50                        push	eax
  4047ac:	8d 85 e8 fc ff ff         lea	eax, [ebp-00000318h]
  4047b2:	50                        push	eax
  4047b3:	8d 85 e4 fb ff ff         lea	eax, [ebp-0000041Ch]
  4047b9:	50                        push	eax
  4047ba:	ff d3                     call	ebx
  4047bc:	83 c4 0c                  add	esp, 0Ch
  4047bf:	8d 85 e4 fb ff ff         lea	eax, [ebp-0000041Ch]
  4047c5:	6a 10                     push	dword 00000010h
  4047c7:	ff 35 a4 61 41 00         push	dword [004161A4h]
  4047cd:	50                        push	eax
  4047ce:	ff 75 0c                  push	dword [ebp+0Ch]
  4047d1:	ff 15 44 32 41 00         call	dword [00413244h]	; <MessageBoxA>
  4047d7:	83 7d fc f6              >cmp	dword [ebp-04h], F6h
  4047db:	5f                        pop	edi
  4047dc:	5e                        pop	esi
  4047dd:	5b                        pop	ebx
  4047de:	75 04                     jnz	4047e4
  4047e0:	33 c0                     xor	eax, eax
  4047e2:	c9                        leave
  4047e3:	c3                        ret
  4047e4:	ff 75 f4                 >push	dword [ebp-0Ch]
  4047e7:	ff 75 08                  push	dword [ebp+08h]
  4047ea:	ff 75 0c                  push	dword [ebp+0Ch]
  4047ed:	e8 05 00 00 00            call	4047f7
  4047f2:	83 c4 0c                  add	esp, 0Ch
  4047f5:	c9                        leave
  4047f6:	c3                        ret

4047f7 <no name>:
  4047f7:	55                        push	ebp
  4047f8:	8b ec                     mov	ebp, esp
  4047fa:	81 ec 1c 05 00 00         sub	esp, 0000051Ch
  404800:	80 a5 f0 fd ff ff 00      and	byte [ebp-00000210h], 00h
  404807:	53                        push	ebx
  404808:	56                        push	esi
  404809:	57                        push	edi
  40480a:	6a 40                     push	dword 00000040h
  40480c:	33 c0                     xor	eax, eax
  40480e:	59                        pop	ecx
  40480f:	8d bd f1 fd ff ff         lea	edi, [ebp-0000020Fh]
  404815:	f3 ab                     rep stosd
  404817:	66 ab                     stosw
  404819:	aa                        stosb
  40481a:	8d 85 f0 fd ff ff         lea	eax, [ebp-00000210h]
  404820:	50                        push	eax
  404821:	ff 75 0c                  push	dword [ebp+0Ch]
  404824:	e8 9d fd ff ff            call	4045c6
  404829:	ff 75 10                  push	dword [ebp+10h]
  40482c:	8d 85 f0 fd ff ff         lea	eax, [ebp-00000210h]
  404832:	50                        push	eax
  404833:	e8 cc 01 00 00            call	404a04
  404838:	83 c4 10                  add	esp, 10h
  40483b:	85 c0                     test	eax, eax
  40483d:	0f 85 56 01 00 00         jnz	404999
  404843:	8b 1d 3c 32 41 00         mov	ebx, [0041323Ch]
  404849:	be 04 01 00 00            mov	esi, 00000104h
  40484e:	80 a5 f4 fe ff ff 00     >and	byte [ebp-0000010Ch], 00h
  404855:	6a 40                     push	dword 00000040h
  404857:	5a                        pop	edx
  404858:	33 c0                     xor	eax, eax
  40485a:	8b ca                     mov	ecx, edx
  40485c:	8d bd f5 fe ff ff         lea	edi, [ebp-0000010Bh]
  404862:	f3 ab                     rep stosd
  404864:	80 a5 ec fc ff ff 00      and	byte [ebp-00000314h], 00h
  40486b:	8b ca                     mov	ecx, edx
  40486d:	66 ab                     stosw
  40486f:	aa                        stosb
  404870:	33 c0                     xor	eax, eax
  404872:	8d bd ed fc ff ff         lea	edi, [ebp-00000313h]
  404878:	f3 ab                     rep stosd
  40487a:	80 a5 e8 fb ff ff 00      and	byte [ebp-00000418h], 00h
  404881:	8b ca                     mov	ecx, edx
  404883:	66 ab                     stosw
  404885:	aa                        stosb
  404886:	33 c0                     xor	eax, eax
  404888:	8d bd e9 fb ff ff         lea	edi, [ebp-00000417h]
  40488e:	f3 ab                     rep stosd
  404890:	80 a5 e4 fa ff ff 00      and	byte [ebp-0000051Ch], 00h
  404897:	8b ca                     mov	ecx, edx
  404899:	66 ab                     stosw
  40489b:	aa                        stosb
  40489c:	33 c0                     xor	eax, eax
  40489e:	8d bd e5 fa ff ff         lea	edi, [ebp-0000051Bh]
  4048a4:	f3 ab                     rep stosd
  4048a6:	66 ab                     stosw
  4048a8:	aa                        stosb
  4048a9:	8d 85 e8 fb ff ff         lea	eax, [ebp-00000418h]
  4048af:	56                        push	esi
  4048b0:	50                        push	eax
  4048b1:	ff 75 10                  push	dword [ebp+10h]
  4048b4:	e8 ec 00 00 00            call	4049a5
  4048b9:	83 c4 0c                  add	esp, 0Ch
  4048bc:	8d 85 f4 fe ff ff         lea	eax, [ebp-0000010Ch]
  4048c2:	dd 5d f8                  fstp	qword [ebp-08h]
  4048c5:	56                        push	esi
  4048c6:	bf 3a 01 00 00            mov	edi, 0000013Ah
  4048cb:	50                        push	eax
  4048cc:	57                        push	edi
  4048cd:	ff 35 d8 60 41 00         push	dword [004160D8h]
  4048d3:	ff d3                     call	ebx
  4048d5:	8d 85 f4 fe ff ff         lea	eax, [ebp-0000010Ch]
  4048db:	56                        push	esi
  4048dc:	50                        push	eax
  4048dd:	57                        push	edi
  4048de:	bf 78 51 41 00            mov	edi, 00415178h
  4048e3:	57                        push	edi
  4048e4:	e8 6e cb ff ff            call	401457
  4048e9:	83 c4 10                  add	esp, 10h
  4048ec:	8d 85 ec fc ff ff         lea	eax, [ebp-00000314h]
  4048f2:	56                        push	esi
  4048f3:	50                        push	eax
  4048f4:	68 44 01 00 00            push	dword 00000144h
  4048f9:	ff 35 d8 60 41 00         push	dword [004160D8h]
  4048ff:	ff d3                     call	ebx
  404901:	8d 85 ec fc ff ff         lea	eax, [ebp-00000314h]
  404907:	56                        push	esi
  404908:	50                        push	eax
  404909:	68 44 01 00 00            push	dword 00000144h
  40490e:	57                        push	edi
  40490f:	e8 43 cb ff ff            call	401457
  404914:	8d 85 ec fc ff ff         lea	eax, [ebp-00000314h]
  40491a:	50                        push	eax
  40491b:	8d 85 f4 fe ff ff         lea	eax, [ebp-0000010Ch]
  404921:	50                        push	eax
  404922:	8d 85 f4 fe ff ff         lea	eax, [ebp-0000010Ch]
  404928:	68 f4 51 41 00            push	dword 004151F4h
  40492d:	50                        push	eax
  40492e:	ff 15 70 32 41 00         call	dword [00413270h]	; <wsprintfA>
  404934:	dd 45 f8                  fld	qword [ebp-08h]
  404937:	83 c4 20                  add	esp, 20h
  40493a:	8d 85 e8 fb ff ff         lea	eax, [ebp-00000418h]
  404940:	50                        push	eax
  404941:	51                        push	ecx
  404942:	51                        push	ecx
  404943:	8d 85 f0 fd ff ff         lea	eax, [ebp-00000210h]
  404949:	dd 1c 24                  fstp	qword [esp]
  40494c:	50                        push	eax
  40494d:	8d 85 f4 fe ff ff         lea	eax, [ebp-0000010Ch]
  404953:	50                        push	eax
  404954:	8d 85 e4 fa ff ff         lea	eax, [ebp-0000051Ch]
  40495a:	50                        push	eax
  40495b:	e8 70 37 00 00            call	4080d0
  404960:	83 c4 18                  add	esp, 18h
  404963:	8d 85 e4 fa ff ff         lea	eax, [ebp-0000051Ch]
  404969:	6a 15                     push	dword 00000015h
  40496b:	ff 35 a4 61 41 00         push	dword [004161A4h]
  404971:	50                        push	eax
  404972:	ff 75 08                  push	dword [ebp+08h]
  404975:	ff 15 44 32 41 00         call	dword [00413244h]	; <MessageBoxA>
  40497b:	83 f8 02                  cmp	eax, 02h
  40497e:	74 21                     jz	4049a1
  404980:	ff 75 10                  push	dword [ebp+10h]
  404983:	8d 85 f0 fd ff ff         lea	eax, [ebp-00000210h]
  404989:	50                        push	eax
  40498a:	e8 75 00 00 00            call	404a04
  40498f:	59                        pop	ecx
  404990:	85 c0                     test	eax, eax
  404992:	59                        pop	ecx
  404993:	0f 84 b5 fe ff ff         jz	40484e
  404999:	6a 01                    >push	dword 00000001h
  40499b:	58                        pop	eax
  40499c:	5f                       >pop	edi
  40499d:	5e                        pop	esi
  40499e:	5b                        pop	ebx
  40499f:	c9                        leave
  4049a0:	c3                        ret
  4049a1:	33 c0                    >xor	eax, eax
  4049a3:	eb f7                     jmp	40499c

4049a5 <no name>:
  4049a5:	55                        push	ebp
  4049a6:	8b ec                     mov	ebp, esp
  4049a8:	51                        push	ecx
  4049a9:	51                        push	ecx
  4049aa:	8b 45 08                  mov	eax, [ebp+08h]
  4049ad:	83 65 fc 00               and	dword [ebp-04h], 00h
  4049b1:	89 45 f8                  mov	[ebp-08h], eax
  4049b4:	3d 00 04 00 00            cmp	eax, 00000400h
  4049b9:	df 6d f8                  fild	qword [ebp-08h]
  4049bc:	dd 55 f8                  fst	qword [ebp-08h]
  4049bf:	73 09                     jae	4049ca
  4049c1:	dd d8                     fstp	st0
  4049c3:	b8 3d 01 00 00            mov	eax, 0000013Dh
  4049c8:	eb 22                     jmp	4049ec
  4049ca:	3d 00 00 10 00           >cmp	eax, 00100000h
  4049cf:	73 0d                     jae	4049de
  4049d1:	dc 0d 08 33 41 00         fmul	qword [00413308h]
  4049d7:	b8 3c 01 00 00            mov	eax, 0000013Ch
  4049dc:	eb 0b                     jmp	4049e9
  4049de:	dc 0d 00 33 41 00        >fmul	qword [00413300h]
  4049e4:	b8 3b 01 00 00            mov	eax, 0000013Bh
  4049e9:	dd 5d f8                 >fstp	qword [ebp-08h]
  4049ec:	ff 75 10                 >push	dword [ebp+10h]
  4049ef:	ff 75 0c                  push	dword [ebp+0Ch]
  4049f2:	50                        push	eax
  4049f3:	ff 35 d8 60 41 00         push	dword [004160D8h]
  4049f9:	ff 15 3c 32 41 00         call	dword [0041323Ch]	; <LoadStringA>
  4049ff:	dd 45 f8                  fld	qword [ebp-08h]
  404a02:	c9                        leave
  404a03:	c3                        ret

404a04 <no name>:
  404a04:	55                        push	ebp
  404a05:	8b ec                     mov	ebp, esp
  404a07:	83 ec 18                  sub	esp, 18h
  404a0a:	83 65 f8 00               and	dword [ebp-08h], 00h
  404a0e:	57                        push	edi
  404a0f:	33 c0                     xor	eax, eax
  404a11:	8d 7d fc                  lea	edi, [ebp-04h]
  404a14:	21 45 e8                  and	[ebp-18h], eax
  404a17:	21 45 f0                  and	[ebp-10h], eax
  404a1a:	ab                        stosd
  404a1b:	8d 7d ec                  lea	edi, [ebp-14h]
  404a1e:	ab                        stosd
  404a1f:	8d 7d f4                  lea	edi, [ebp-0Ch]
  404a22:	ab                        stosd
  404a23:	8d 45 f0                  lea	eax, [ebp-10h]
  404a26:	50                        push	eax
  404a27:	8d 45 e8                  lea	eax, [ebp-18h]
  404a2a:	50                        push	eax
  404a2b:	8d 45 f8                  lea	eax, [ebp-08h]
  404a2e:	50                        push	eax
  404a2f:	ff 75 08                  push	dword [ebp+08h]
  404a32:	e8 35 12 00 00            call	405c6c
  404a37:	83 c4 10                  add	esp, 10h
  404a3a:	85 c0                     test	eax, eax
  404a3c:	5f                        pop	edi
  404a3d:	74 16                     jz	404a55
  404a3f:	83 7d fc 00               cmp	dword [ebp-04h], 00h
  404a43:	74 05                     jz	404a4a
  404a45:	6a 01                     push	dword 00000001h
  404a47:	58                        pop	eax
  404a48:	c9                        leave
  404a49:	c3                        ret
  404a4a:	8b 45 f8                 >mov	eax, [ebp-08h]
  404a4d:	3b 45 0c                  cmp	eax, [ebp+0Ch]
  404a50:	1b c0                     sbb	eax, eax
  404a52:	40                        inc	eax
  404a53:	c9                        leave
  404a54:	c3                        ret
  404a55:	33 c0                    >xor	eax, eax
  404a57:	c9                        leave
  404a58:	c3                        ret
     ...

404e6e <no name>:
  404e6e:	a1 fc 60 41 00            mov	eax, [4160FCh]
  404e73:	53                        push	ebx
  404e74:	33 db                     xor	ebx, ebx
  404e76:	3b c3                     cmp	eax, ebx
  404e78:	74 0d                     jz	404e87
  404e7a:	50                        push	eax
  404e7b:	ff 15 a8 30 41 00         call	dword [004130A8h]	; <FreeLibrary>
  404e81:	89 1d fc 60 41 00         mov	[004160FCh], ebx
  404e87:	a1 7c 61 41 00           >mov	eax, [41617Ch]
  404e8c:	3b c3                     cmp	eax, ebx
  404e8e:	74 18                     jz	404ea8
  404e90:	38 18                     cmp	[eax], bl
  404e92:	74 14                     jz	404ea8
  404e94:	6a 07                     push	dword 00000007h
  404e96:	e8 b7 ed ff ff            call	403c52
  404e9b:	ff 35 7c 61 41 00         push	dword [0041617Ch]
  404ea1:	e8 2f 02 00 00            call	4050d5
  404ea6:	59                        pop	ecx
  404ea7:	59                        pop	ecx
  404ea8:	a1 c8 61 41 00           >mov	eax, [4161C8h]
  404ead:	3b c3                     cmp	eax, ebx
  404eaf:	74 0b                     jz	404ebc
  404eb1:	38 18                     cmp	[eax], bl
  404eb3:	74 07                     jz	404ebc
  404eb5:	50                        push	eax
  404eb6:	ff 15 74 30 41 00         call	dword [00413074h]	; <DeleteFileA>
  404ebc:	e8 1f 05 00 00           >call	4053e0
  404ec1:	a1 c8 61 41 00            mov	eax, [4161C8h]
  404ec6:	3b c3                     cmp	eax, ebx
  404ec8:	74 07                     jz	404ed1
  404eca:	50                        push	eax
  404ecb:	e8 7b 27 00 00            call	40764b
  404ed0:	59                        pop	ecx
  404ed1:	a1 74 61 41 00           >mov	eax, [416174h]
  404ed6:	89 1d c8 61 41 00         mov	[004161C8h], ebx
  404edc:	3b c3                     cmp	eax, ebx
  404ede:	74 07                     jz	404ee7
  404ee0:	50                        push	eax
  404ee1:	e8 65 27 00 00            call	40764b
  404ee6:	59                        pop	ecx
  404ee7:	a1 78 61 41 00           >mov	eax, [416178h]
  404eec:	89 1d 74 61 41 00         mov	[00416174h], ebx
  404ef2:	3b c3                     cmp	eax, ebx
  404ef4:	74 07                     jz	404efd
  404ef6:	50                        push	eax
  404ef7:	e8 4f 27 00 00            call	40764b
  404efc:	59                        pop	ecx
  404efd:	a1 7c 61 41 00           >mov	eax, [41617Ch]
  404f02:	89 1d 78 61 41 00         mov	[00416178h], ebx
  404f08:	3b c3                     cmp	eax, ebx
  404f0a:	74 07                     jz	404f13
  404f0c:	50                        push	eax
  404f0d:	e8 39 27 00 00            call	40764b
  404f12:	59                        pop	ecx
  404f13:	a1 80 61 41 00           >mov	eax, [416180h]
  404f18:	89 1d 7c 61 41 00         mov	[0041617Ch], ebx
  404f1e:	3b c3                     cmp	eax, ebx
  404f20:	74 07                     jz	404f29
  404f22:	50                        push	eax
  404f23:	e8 23 27 00 00            call	40764b
  404f28:	59                        pop	ecx
  404f29:	a1 84 61 41 00           >mov	eax, [416184h]
  404f2e:	89 1d 80 61 41 00         mov	[00416180h], ebx
  404f34:	3b c3                     cmp	eax, ebx
  404f36:	74 07                     jz	404f3f
  404f38:	50                        push	eax
  404f39:	e8 0d 27 00 00            call	40764b
  404f3e:	59                        pop	ecx
  404f3f:	a1 8c 61 41 00           >mov	eax, [41618Ch]
  404f44:	89 1d 84 61 41 00         mov	[00416184h], ebx
  404f4a:	3b c3                     cmp	eax, ebx
  404f4c:	74 07                     jz	404f55
  404f4e:	50                        push	eax
  404f4f:	e8 f7 26 00 00            call	40764b
  404f54:	59                        pop	ecx
  404f55:	a1 90 61 41 00           >mov	eax, [416190h]
  404f5a:	89 1d 8c 61 41 00         mov	[0041618Ch], ebx
  404f60:	3b c3                     cmp	eax, ebx
  404f62:	74 07                     jz	404f6b
  404f64:	50                        push	eax
  404f65:	e8 e1 26 00 00            call	40764b
  404f6a:	59                        pop	ecx
  404f6b:	a1 94 61 41 00           >mov	eax, [416194h]
  404f70:	89 1d 90 61 41 00         mov	[00416190h], ebx
  404f76:	3b c3                     cmp	eax, ebx
  404f78:	74 07                     jz	404f81
  404f7a:	50                        push	eax
  404f7b:	e8 cb 26 00 00            call	40764b
  404f80:	59                        pop	ecx
  404f81:	a1 88 61 41 00           >mov	eax, [416188h]
  404f86:	89 1d 94 61 41 00         mov	[00416194h], ebx
  404f8c:	3b c3                     cmp	eax, ebx
  404f8e:	74 07                     jz	404f97
  404f90:	50                        push	eax
  404f91:	e8 b5 26 00 00            call	40764b
  404f96:	59                        pop	ecx
  404f97:	a1 98 61 41 00           >mov	eax, [416198h]
  404f9c:	89 1d 88 61 41 00         mov	[00416188h], ebx
  404fa2:	3b c3                     cmp	eax, ebx
  404fa4:	74 07                     jz	404fad
  404fa6:	50                        push	eax
  404fa7:	e8 9f 26 00 00            call	40764b
  404fac:	59                        pop	ecx
  404fad:	a1 a0 61 41 00           >mov	eax, [4161A0h]
  404fb2:	89 1d 98 61 41 00         mov	[00416198h], ebx
  404fb8:	3b c3                     cmp	eax, ebx
  404fba:	74 07                     jz	404fc3
  404fbc:	50                        push	eax
  404fbd:	e8 89 26 00 00            call	40764b
  404fc2:	59                        pop	ecx
  404fc3:	a1 a4 61 41 00           >mov	eax, [4161A4h]
  404fc8:	89 1d a0 61 41 00         mov	[004161A0h], ebx
  404fce:	3b c3                     cmp	eax, ebx
  404fd0:	74 07                     jz	404fd9
  404fd2:	50                        push	eax
  404fd3:	e8 73 26 00 00            call	40764b
  404fd8:	59                        pop	ecx
  404fd9:	a1 a8 61 41 00           >mov	eax, [4161A8h]
  404fde:	89 1d a4 61 41 00         mov	[004161A4h], ebx
  404fe4:	3b c3                     cmp	eax, ebx
  404fe6:	74 07                     jz	404fef
  404fe8:	50                        push	eax
  404fe9:	e8 5d 26 00 00            call	40764b
  404fee:	59                        pop	ecx
  404fef:	a1 ac 61 41 00           >mov	eax, [4161ACh]
  404ff4:	89 1d a8 61 41 00         mov	[004161A8h], ebx
  404ffa:	3b c3                     cmp	eax, ebx
  404ffc:	74 07                     jz	405005
  404ffe:	50                        push	eax
  404fff:	e8 47 26 00 00            call	40764b
  405004:	59                        pop	ecx
  405005:	a1 b0 61 41 00           >mov	eax, [4161B0h]
  40500a:	89 1d ac 61 41 00         mov	[004161ACh], ebx
  405010:	3b c3                     cmp	eax, ebx
  405012:	74 07                     jz	40501b
  405014:	50                        push	eax
  405015:	e8 31 26 00 00            call	40764b
  40501a:	59                        pop	ecx
  40501b:	a1 9c 61 41 00           >mov	eax, [41619Ch]
  405020:	89 1d b0 61 41 00         mov	[004161B0h], ebx
  405026:	3b c3                     cmp	eax, ebx
  405028:	74 07                     jz	405031
  40502a:	50                        push	eax
  40502b:	e8 1b 26 00 00            call	40764b
  405030:	59                        pop	ecx
  405031:	a1 b4 61 41 00           >mov	eax, [4161B4h]
  405036:	89 1d 9c 61 41 00         mov	[0041619Ch], ebx
  40503c:	3b c3                     cmp	eax, ebx
  40503e:	74 07                     jz	405047
  405040:	50                        push	eax
  405041:	e8 05 26 00 00            call	40764b
  405046:	59                        pop	ecx
  405047:	a1 b8 61 41 00           >mov	eax, [4161B8h]
  40504c:	89 1d b4 61 41 00         mov	[004161B4h], ebx
  405052:	3b c3                     cmp	eax, ebx
  405054:	74 07                     jz	40505d
  405056:	50                        push	eax
  405057:	e8 ef 25 00 00            call	40764b
  40505c:	59                        pop	ecx
  40505d:	a1 bc 61 41 00           >mov	eax, [4161BCh]
  405062:	89 1d b8 61 41 00         mov	[004161B8h], ebx
  405068:	3b c3                     cmp	eax, ebx
  40506a:	74 07                     jz	405073
  40506c:	50                        push	eax
  40506d:	e8 d9 25 00 00            call	40764b
  405072:	59                        pop	ecx
  405073:	a1 c0 61 41 00           >mov	eax, [4161C0h]
  405078:	89 1d bc 61 41 00         mov	[004161BCh], ebx
  40507e:	3b c3                     cmp	eax, ebx
  405080:	74 07                     jz	405089
  405082:	50                        push	eax
  405083:	e8 c3 25 00 00            call	40764b
  405088:	59                        pop	ecx
  405089:	a1 d0 61 41 00           >mov	eax, [4161D0h]
  40508e:	89 1d c0 61 41 00         mov	[004161C0h], ebx
  405094:	3b c3                     cmp	eax, ebx
  405096:	74 07                     jz	40509f
  405098:	50                        push	eax
  405099:	e8 ad 25 00 00            call	40764b
  40509e:	59                        pop	ecx
  40509f:	a1 d4 61 41 00           >mov	eax, [4161D4h]
  4050a4:	89 1d d0 61 41 00         mov	[004161D0h], ebx
  4050aa:	3b c3                     cmp	eax, ebx
  4050ac:	74 07                     jz	4050b5
  4050ae:	50                        push	eax
  4050af:	e8 97 25 00 00            call	40764b
  4050b4:	59                        pop	ecx
  4050b5:	a1 dc 61 41 00           >mov	eax, [4161DCh]
  4050ba:	89 1d d4 61 41 00         mov	[004161D4h], ebx
  4050c0:	3b c3                     cmp	eax, ebx
  4050c2:	74 07                     jz	4050cb
  4050c4:	50                        push	eax
  4050c5:	e8 81 25 00 00            call	40764b
  4050ca:	59                        pop	ecx
  4050cb:	89 1d dc 61 41 00        >mov	[004161DCh], ebx
  4050d1:	33 c0                     xor	eax, eax
  4050d3:	5b                        pop	ebx
  4050d4:	c3                        ret

4050d5 <no name>:
  4050d5:	55                        push	ebp
  4050d6:	8b ec                     mov	ebp, esp
  4050d8:	81 ec 4c 02 00 00         sub	esp, 0000024Ch
  4050de:	83 a5 b4 fd ff ff 00      and	dword [ebp-0000024Ch], 00h
  4050e5:	56                        push	esi
  4050e6:	57                        push	edi
  4050e7:	6a 4f                     push	dword 0000004Fh
  4050e9:	59                        pop	ecx
  4050ea:	33 c0                     xor	eax, eax
  4050ec:	20 85 f4 fe ff ff         and	[ebp-0000010Ch], al
  4050f2:	8d bd b8 fd ff ff         lea	edi, [ebp-00000248h]
  4050f8:	f3 ab                     rep stosd
  4050fa:	6a 40                     push	dword 00000040h
  4050fc:	8d bd f5 fe ff ff         lea	edi, [ebp-0000010Bh]
  405102:	59                        pop	ecx
  405103:	83 65 fc 00               and	dword [ebp-04h], 00h
  405107:	f3 ab                     rep stosd
  405109:	ff 75 08                  push	dword [ebp+08h]
  40510c:	66 ab                     stosw
  40510e:	aa                        stosb
  40510f:	8b 3d 54 31 41 00         mov	edi, [00413154h]
  405115:	8d 85 f4 fe ff ff         lea	eax, [ebp-0000010Ch]
  40511b:	50                        push	eax
  40511c:	ff d7                     call	edi
  40511e:	8b 35 48 31 41 00         mov	esi, [00413148h]
  405124:	8d 85 f4 fe ff ff         lea	eax, [ebp-0000010Ch]
  40512a:	68 fc 51 41 00            push	dword 004151FCh
  40512f:	50                        push	eax
  405130:	ff d6                     call	esi
  405132:	ff 75 08                  push	dword [ebp+08h]
  405135:	e8 44 01 00 00            call	40527e
  40513a:	85 c0                     test	eax, eax
  40513c:	59                        pop	ecx
  40513d:	75 08                     jnz	405147
  40513f:	6a 01                     push	dword 00000001h
  405141:	58                        pop	eax
  405142:	e9 33 01 00 00            jmp	40527a
  405147:	a1 c8 61 41 00           >mov	eax, [4161C8h]
  40514c:	53                        push	ebx
  40514d:	8b 1d 74 30 41 00         mov	ebx, [00413074h]
  405153:	85 c0                     test	eax, eax
  405155:	74 08                     jz	40515f
  405157:	80 38 00                  cmp	byte [eax], 00h
  40515a:	74 03                     jz	40515f
  40515c:	50                        push	eax
  40515d:	ff d3                     call	ebx
  40515f:	8d 85 b4 fd ff ff        >lea	eax, [ebp-0000024Ch]
  405165:	50                        push	eax
  405166:	8d 85 f4 fe ff ff         lea	eax, [ebp-0000010Ch]
  40516c:	50                        push	eax
  40516d:	ff 15 30 31 41 00         call	dword [00413130h]	; <FindFirstFileA>
  405173:	83 f8 ff                  cmp	eax, FFh
  405176:	89 45 f8                  mov	[ebp-08h], eax
  405179:	0f 84 b0 00 00 00         jz	40522f
  40517f:	f6 85 b4 fd ff ff 10     >test	byte [ebp-0000024Ch], 10h
  405186:	74 45                     jz	4051cd
  405188:	80 bd e0 fd ff ff 2e      cmp	byte [ebp-00000220h], 2Eh
  40518f:	74 7d                     jz	40520e
  405191:	ff 75 08                  push	dword [ebp+08h]
  405194:	8d 85 f4 fe ff ff         lea	eax, [ebp-0000010Ch]
  40519a:	50                        push	eax
  40519b:	ff d7                     call	edi
  40519d:	8d 85 e0 fd ff ff         lea	eax, [ebp-00000220h]
  4051a3:	50                        push	eax
  4051a4:	8d 85 f4 fe ff ff         lea	eax, [ebp-0000010Ch]
  4051aa:	50                        push	eax
  4051ab:	ff d6                     call	esi
  4051ad:	8d 85 f4 fe ff ff         lea	eax, [ebp-0000010Ch]
  4051b3:	68 dc 51 41 00            push	dword 004151DCh
  4051b8:	50                        push	eax
  4051b9:	ff d6                     call	esi
  4051bb:	8d 85 f4 fe ff ff         lea	eax, [ebp-0000010Ch]
  4051c1:	50                        push	eax
  4051c2:	e8 0e ff ff ff            call	4050d5
  4051c7:	59                        pop	ecx
  4051c8:	89 45 fc                  mov	[ebp-04h], eax
  4051cb:	eb 41                     jmp	40520e
  4051cd:	ff 75 08                 >push	dword [ebp+08h]
  4051d0:	8d 85 f4 fe ff ff         lea	eax, [ebp-0000010Ch]
  4051d6:	50                        push	eax
  4051d7:	ff d7                     call	edi
  4051d9:	8d 85 e0 fd ff ff         lea	eax, [ebp-00000220h]
  4051df:	50                        push	eax
  4051e0:	8d 85 f4 fe ff ff         lea	eax, [ebp-0000010Ch]
  4051e6:	50                        push	eax
  4051e7:	ff d6                     call	esi
  4051e9:	8d 85 f4 fe ff ff         lea	eax, [ebp-0000010Ch]
  4051ef:	50                        push	eax
  4051f0:	ff d3                     call	ebx
  4051f2:	85 c0                     test	eax, eax
  4051f4:	75 18                     jnz	40520e
  4051f6:	39 05 44 61 41 00         cmp	[00416144h], eax
  4051fc:	74 0d                     jz	40520b
  4051fe:	8d 85 f4 fe ff ff         lea	eax, [ebp-0000010Ch]
  405204:	50                        push	eax
  405205:	e8 d3 00 00 00            call	4052dd
  40520a:	59                        pop	ecx
  40520b:	ff 45 fc                 >inc	dword [ebp-04h]
  40520e:	8d 85 b4 fd ff ff        >lea	eax, [ebp-0000024Ch]
  405214:	50                        push	eax
  405215:	ff 75 f8                  push	dword [ebp-08h]
  405218:	ff 15 b0 30 41 00         call	dword [004130B0h]	; <FindNextFileA>
  40521e:	85 c0                     test	eax, eax
  405220:	0f 85 59 ff ff ff         jnz	40517f
  405226:	ff 75 f8                  push	dword [ebp-08h]
  405229:	ff 15 40 31 41 00         call	dword [00413140h]	; <FindClose>
  40522f:	ff 75 08                 >push	dword [ebp+08h]
  405232:	8d 85 f4 fe ff ff         lea	eax, [ebp-0000010Ch]
  405238:	50                        push	eax
  405239:	ff d7                     call	edi
  40523b:	8d 85 f4 fe ff ff         lea	eax, [ebp-0000010Ch]
  405241:	50                        push	eax
  405242:	ff 15 4c 31 41 00         call	dword [0041314Ch]	; <lstrlenA>
  405248:	80 a4 05 f3 fe ff ff      and	byte [ebp+eax*1-0000010Dh], 00h
		00 
  405250:	8d 85 f4 fe ff ff         lea	eax, [ebp-0000010Ch]
  405256:	50                        push	eax
  405257:	ff 15 ac 30 41 00         call	dword [004130ACh]	; <RemoveDirectoryA>
  40525d:	85 c0                     test	eax, eax
  40525f:	5b                        pop	ebx
  405260:	75 15                     jnz	405277
  405262:	39 05 44 61 41 00         cmp	[00416144h], eax
  405268:	74 0d                     jz	405277
  40526a:	8d 85 f4 fe ff ff         lea	eax, [ebp-0000010Ch]
  405270:	50                        push	eax
  405271:	e8 67 00 00 00            call	4052dd
  405276:	59                        pop	ecx
  405277:	8b 45 fc                 >mov	eax, [ebp-04h]
  40527a:	5f                       >pop	edi
  40527b:	5e                        pop	esi
  40527c:	c9                        leave
  40527d:	c3                        ret

40527e <no name>:
  40527e:	55                        push	ebp
  40527f:	8b ec                     mov	ebp, esp
  405281:	51                        push	ecx
  405282:	80 65 fc 00               and	byte [ebp-04h], 00h
  405286:	57                        push	edi
  405287:	33 c0                     xor	eax, eax
  405289:	8d 7d fd                  lea	edi, [ebp-03h]
  40528c:	66 ab                     stosw
  40528e:	aa                        stosb
  40528f:	8d 45 fc                  lea	eax, [ebp-04h]
  405292:	68 00 52 41 00            push	dword 00415200h
  405297:	50                        push	eax
  405298:	ff 15 54 31 41 00         call	dword [00413154h]	; <lstrcpyA>
  40529e:	0f be 45 fc               movsx	eax, byte [ebp-04h]
  4052a2:	50                        push	eax
  4052a3:	ff 75 08                  push	dword [ebp+08h]
  4052a6:	e8 1f 2d 00 00            call	407fca
  4052ab:	59                        pop	ecx
  4052ac:	59                        pop	ecx
  4052ad:	5f                        pop	edi
  4052ae:	85 c0                    >test	eax, eax
  4052b0:	74 27                     jz	4052d9
  4052b2:	8a 50 01                  mov	dl, [eax+01h]
  4052b5:	8d 48 01                  lea	ecx, [eax+01h]
  4052b8:	3a 55 fd                  cmp	dl, [ebp-03h]
  4052bb:	75 08                     jnz	4052c5
  4052bd:	8a 40 02                  mov	al, [eax+02h]
  4052c0:	3a 45 fe                  cmp	al, [ebp-02h]
  4052c3:	74 0f                     jz	4052d4
  4052c5:	0f be 45 fc              >movsx	eax, byte [ebp-04h]
  4052c9:	50                        push	eax
  4052ca:	51                        push	ecx
  4052cb:	e8 fa 2c 00 00            call	407fca
  4052d0:	59                        pop	ecx
  4052d1:	59                        pop	ecx
  4052d2:	eb da                     jmp	4052ae
  4052d4:	6a 01                    >push	dword 00000001h
  4052d6:	58                        pop	eax
  4052d7:	c9                        leave
  4052d8:	c3                        ret
  4052d9:	33 c0                    >xor	eax, eax
  4052db:	c9                        leave
  4052dc:	c3                        ret

4052dd <no name>:
  4052dd:	55                        push	ebp
  4052de:	8b ec                     mov	ebp, esp
  4052e0:	b8 04 7e 00 00            mov	eax, 00007E04h
  4052e5:	e8 c6 2e 00 00            call	4081b0
  4052ea:	53                        push	ebx
  4052eb:	56                        push	esi
  4052ec:	57                        push	edi
  4052ed:	6a 04                     push	dword 00000004h
  4052ef:	6a 00                     push	dword 00000000h
  4052f1:	ff 75 08                  push	dword [ebp+08h]
  4052f4:	ff 15 68 31 41 00         call	dword [00413168h]	; <MoveFileExA>
  4052fa:	85 c0                     test	eax, eax
  4052fc:	0f 85 d7 00 00 00         jnz	4053d9
  405302:	20 85 fc fe ff ff         and	[ebp-00000104h], al
  405308:	6a 40                     push	dword 00000040h
  40530a:	59                        pop	ecx
  40530b:	8d bd fd fe ff ff         lea	edi, [ebp-00000103h]
  405311:	f3 ab                     rep stosd
  405313:	80 a5 fc 81 ff ff 00      and	byte [ebp-00007E04h], 00h
  40531a:	b9 3f 1f 00 00            mov	ecx, 00001F3Fh
  40531f:	66 ab                     stosw
  405321:	aa                        stosb
  405322:	33 c0                     xor	eax, eax
  405324:	8d bd fd 81 ff ff         lea	edi, [ebp-00007E03h]
  40532a:	f3 ab                     rep stosd
  40532c:	66 ab                     stosw
  40532e:	bb 14 52 41 00            mov	ebx, 00415214h
  405333:	aa                        stosb
  405334:	53                        push	ebx
  405335:	8d 85 fc 81 ff ff         lea	eax, [ebp-00007E04h]
  40533b:	68 ff 7c 00 00            push	dword 00007CFFh
  405340:	bf 0c 52 41 00            mov	edi, 0041520Ch
  405345:	50                        push	eax
  405346:	57                        push	edi
  405347:	ff 15 60 31 41 00         call	dword [00413160h]	; <GetPrivateProfileSectionA>
  40534d:	8b f0                     mov	esi, eax
  40534f:	8d 85 fc fe ff ff         lea	eax, [ebp-00000104h]
  405355:	68 04 01 00 00            push	dword 00000104h
  40535a:	50                        push	eax
  40535b:	ff 75 08                  push	dword [ebp+08h]
  40535e:	ff 15 70 31 41 00         call	dword [00413170h]	; <GetShortPathNameA>
  405364:	85 c0                     test	eax, eax
  405366:	75 10                     jnz	405378
  405368:	ff 75 08                  push	dword [ebp+08h]
  40536b:	8d 85 fc fe ff ff         lea	eax, [ebp-00000104h]
  405371:	50                        push	eax
  405372:	ff 15 54 31 41 00         call	dword [00413154h]	; <lstrcpyA>
  405378:	85 f6                    >test	esi, esi
  40537a:	75 16                     jnz	405392
  40537c:	8d 85 fc fe ff ff         lea	eax, [ebp-00000104h]
  405382:	53                        push	ebx
  405383:	50                        push	eax
  405384:	68 08 52 41 00            push	dword 00415208h
  405389:	57                        push	edi
  40538a:	ff 15 6c 31 41 00         call	dword [0041316Ch]	; <WritePrivateProfileStringA>
  405390:	eb 47                     jmp	4053d9
  405392:	8d 84 35 fc 81 ff ff     >lea	eax, [ebp+esi*1-00007E04h]
  405399:	8b 35 48 31 41 00         mov	esi, [00413148h]
  40539f:	68 08 52 41 00            push	dword 00415208h
  4053a4:	50                        push	eax
  4053a5:	89 45 08                  mov	[ebp+08h], eax
  4053a8:	ff d6                     call	esi
  4053aa:	68 04 52 41 00            push	dword 00415204h
  4053af:	ff 75 08                  push	dword [ebp+08h]
  4053b2:	ff d6                     call	esi
  4053b4:	8d 85 fc fe ff ff         lea	eax, [ebp-00000104h]
  4053ba:	50                        push	eax
  4053bb:	ff 75 08                  push	dword [ebp+08h]
  4053be:	ff d6                     call	esi
  4053c0:	68 08 63 41 00            push	dword 00416308h
  4053c5:	ff 75 08                  push	dword [ebp+08h]
  4053c8:	ff d6                     call	esi
  4053ca:	8d 85 fc 81 ff ff         lea	eax, [ebp-00007E04h]
  4053d0:	53                        push	ebx
  4053d1:	50                        push	eax
  4053d2:	57                        push	edi
  4053d3:	ff 15 b4 30 41 00         call	dword [004130B4h]	; <WritePrivateProfileSectionA>
  4053d9:	5f                       >pop	edi
  4053da:	5e                        pop	esi
  4053db:	33 c0                     xor	eax, eax
  4053dd:	5b                        pop	ebx
  4053de:	c9                        leave
  4053df:	c3                        ret

4053e0 <no name>:
  4053e0:	83 3d 28 61 41 00 00      cmp	dword [00416128h], 00h
  4053e7:	74 2a                     jz	405413
  4053e9:	a1 34 61 41 00            mov	eax, [416134h]
  4053ee:	85 c0                     test	eax, eax
  4053f0:	74 02                     jz	4053f4
  4053f2:	ff d0                     call	eax
  4053f4:	ff 35 28 61 41 00        >push	dword [00416128h]
  4053fa:	ff 15 a8 30 41 00         call	dword [004130A8h]	; <FreeLibrary>
  405400:	ff 35 c4 61 41 00         push	dword [004161C4h]
  405406:	ff 15 74 30 41 00         call	dword [00413074h]	; <DeleteFileA>
  40540c:	83 25 28 61 41 00 00      and	dword [00416128h], 00h
  405413:	33 c0                    >xor	eax, eax
  405415:	c3                        ret

405416 <no name>:
  405416:	55                        push	ebp
  405417:	8b ec                     mov	ebp, esp
  405419:	51                        push	ecx
  40541a:	0f b7 45 08               movzx	eax, word [ebp+08h]
  40541e:	53                        push	ebx
  40541f:	56                        push	esi
  405420:	57                        push	edi
  405421:	33 db                     xor	ebx, ebx
  405423:	6a 02                     push	dword 00000002h
  405425:	50                        push	eax
  405426:	53                        push	ebx
  405427:	89 5d fc                  mov	[ebp-04h], ebx
  40542a:	ff 15 d8 30 41 00         call	dword [004130D8h]	; <FindResourceA>
  405430:	50                        push	eax
  405431:	53                        push	ebx
  405432:	ff 15 d4 30 41 00         call	dword [004130D4h]	; <LoadResource>
  405438:	50                        push	eax
  405439:	ff 15 d0 30 41 00         call	dword [004130D0h]	; <LockResource>
  40543f:	3b c3                     cmp	eax, ebx
  405441:	89 45 08                  mov	[ebp+08h], eax
  405444:	74 6d                     jz	4054b3
  405446:	66 8b 48 0e               mov	cx, [eax+0Eh]
  40544a:	66 83 f9 08               cmp	cx, 08h
  40544e:	77 63                     ja	4054b3
  405450:	6a 01                     push	dword 00000001h
  405452:	5e                        pop	esi
  405453:	d3 e6                     shl	esi, cl
  405455:	0f b7 fe                  movzx	edi, si
  405458:	8d 04 bd 08 00 00 00      lea	eax, [edi*4+00000008h]
  40545f:	50                        push	eax
  405460:	53                        push	ebx
  405461:	ff 15 cc 30 41 00         call	dword [004130CCh]	; <LocalAlloc>
  405467:	8b 4d 08                  mov	ecx, [ebp+08h]
  40546a:	8b d8                     mov	ebx, eax
  40546c:	8b 01                     mov	eax, [ecx]
  40546e:	03 c1                     add	eax, ecx
  405470:	85 db                     test	ebx, ebx
  405472:	74 3f                     jz	4054b3
  405474:	66 85 f6                  test	si, si
  405477:	66 c7 03 00 03            mov	word [ebx], 0300h
  40547c:	66 89 73 02               mov	[ebx+02h], si
  405480:	76 20                     jbe	4054a2
  405482:	8d 4b 05                  lea	ecx, [ebx+05h]
  405485:	8a 50 02                 >mov	dl, [eax+02h]
  405488:	88 51 ff                  mov	[ecx-01h], dl
  40548b:	8a 50 01                  mov	dl, [eax+01h]
  40548e:	88 11                     mov	[ecx], dl
  405490:	8a 10                     mov	dl, [eax]
  405492:	88 51 01                  mov	[ecx+01h], dl
  405495:	80 61 02 00               and	byte [ecx+02h], 00h
  405499:	83 c1 04                  add	ecx, 04h
  40549c:	83 c0 04                  add	eax, 04h
  40549f:	4f                        dec	edi
  4054a0:	75 e3                     jnz	405485
  4054a2:	53                       >push	ebx
  4054a3:	ff 15 24 30 41 00         call	dword [00413024h]	; <CreatePalette>
  4054a9:	53                        push	ebx
  4054aa:	89 45 fc                  mov	[ebp-04h], eax
  4054ad:	ff 15 c8 30 41 00         call	dword [004130C8h]	; <LocalFree>
  4054b3:	8b 45 fc                 >mov	eax, [ebp-04h]
  4054b6:	5f                        pop	edi
  4054b7:	5e                        pop	esi
  4054b8:	5b                        pop	ebx
  4054b9:	c9                        leave
  4054ba:	c3                        ret
     ...

4055c8 <no name>:
  4055c8:	56                        push	esi
  4055c9:	57                        push	edi
  4055ca:	33 ff                     xor	edi, edi
  4055cc:	e8 3b 00 00 00            call	40560c
  4055d1:	57                        push	edi
  4055d2:	68 80 00 00 00            push	dword 00000080h
  4055d7:	6a 03                     push	dword 00000003h
  4055d9:	57                        push	edi
  4055da:	6a 01                     push	dword 00000001h
  4055dc:	68 00 00 00 80            push	dword 80000000h
  4055e1:	ff 74 24 24               push	dword [esp+24h]
  4055e5:	ff 15 14 31 41 00         call	dword [00413114h]	; <CreateFileA>
  4055eb:	8b f0                     mov	esi, eax
  4055ed:	83 fe ff                  cmp	esi, FFh
  4055f0:	74 10                     jz	405602
  4055f2:	56                        push	esi
  4055f3:	e8 b1 00 00 00            call	4056a9
  4055f8:	59                        pop	ecx
  4055f9:	8b f8                     mov	edi, eax
  4055fb:	56                        push	esi
  4055fc:	ff 15 78 31 41 00         call	dword [00413178h]	; <CloseHandle>
  405602:	e8 4b 00 00 00           >call	405652
  405607:	8b c7                     mov	eax, edi
  405609:	5f                        pop	edi
  40560a:	5e                        pop	esi
  40560b:	c3                        ret

40560c <no name>:
  40560c:	83 3d 0c 63 41 00 00      cmp	dword [0041630Ch], 00h
  405613:	75 3c                     jnz	405651
  405615:	68 00 04 00 00            push	dword 00000400h
  40561a:	e8 c0 2b 00 00            call	4081df
  40561f:	a3 0c 63 41 00            mov	[41630Ch], eax
  405624:	59                        pop	ecx
  405625:	33 c0                     xor	eax, eax
  405627:	6a 08                    >push	dword 00000008h
  405629:	8b c8                     mov	ecx, eax
  40562b:	5a                        pop	edx
  40562c:	f6 c1 01                 >test	cl, 01h
  40562f:	74 0a                     jz	40563b
  405631:	d1 e9                     shr	ecx, 1h
  405633:	81 f1 20 83 b8 ed         xor	ecx, EDB88320h
  405639:	eb 02                     jmp	40563d
  40563b:	d1 e9                    >shr	ecx, 1h
  40563d:	4a                       >dec	edx
  40563e:	75 ec                     jnz	40562c
  405640:	8b 15 0c 63 41 00         mov	edx, [0041630Ch]
  405646:	89 0c 82                  mov	[edx+eax*4], ecx
  405649:	40                        inc	eax
  40564a:	3d ff 00 00 00            cmp	eax, 000000FFh
  40564f:	7e d6                     jle	405627
  405651:	c3                       >ret

405652 <no name>:
  405652:	a1 0c 63 41 00            mov	eax, [41630Ch]
  405657:	85 c0                     test	eax, eax
  405659:	74 07                     jz	405662
  40565b:	50                        push	eax
  40565c:	e8 8c 2b 00 00            call	4081ed
  405661:	59                        pop	ecx
  405662:	83 25 0c 63 41 00 00     >and	dword [0041630Ch], 00h
  405669:	c3                        ret

40566a <no name>:
  40566a:	55                        push	ebp
  40566b:	8b ec                     mov	ebp, esp
  40566d:	8b 45 0c                  mov	eax, [ebp+0Ch]
  405670:	8b c8                     mov	ecx, eax
  405672:	48                        dec	eax
  405673:	85 c9                     test	ecx, ecx
  405675:	74 2d                     jz	4056a4
  405677:	8b 4d 08                  mov	ecx, [ebp+08h]
  40567a:	56                        push	esi
  40567b:	8d 50 01                  lea	edx, [eax+01h]
  40567e:	8b 45 10                 >mov	eax, [ebp+10h]
  405681:	0f b6 31                  movzx	esi, byte [ecx]
  405684:	25 ff 00 00 00            and	eax, 000000FFh
  405689:	33 c6                     xor	eax, esi
  40568b:	8b 35 0c 63 41 00         mov	esi, [0041630Ch]
  405691:	41                        inc	ecx
  405692:	8b 04 86                  mov	eax, [esi+eax*4]
  405695:	8b 75 10                  mov	esi, [ebp+10h]
  405698:	c1 ee 08                  shr	esi, 08h
  40569b:	33 f0                     xor	esi, eax
  40569d:	4a                        dec	edx
  40569e:	89 75 10                  mov	[ebp+10h], esi
  4056a1:	75 db                     jnz	40567e
  4056a3:	5e                        pop	esi
  4056a4:	8b 45 10                 >mov	eax, [ebp+10h]
  4056a7:	5d                        pop	ebp
  4056a8:	c3                        ret

4056a9 <no name>:
  4056a9:	55                        push	ebp
  4056aa:	8b ec                     mov	ebp, esp
  4056ac:	83 ec 0c                  sub	esp, 0Ch
  4056af:	83 4d f4 ff               or	dword [ebp-0Ch], FFh
  4056b3:	83 7d 08 ff               cmp	dword [ebp+08h], FFh
  4056b7:	74 6e                     jz	405727
  4056b9:	53                        push	ebx
  4056ba:	56                        push	esi
  4056bb:	be 00 80 00 00            mov	esi, 00008000h
  4056c0:	57                        push	edi
  4056c1:	33 db                     xor	ebx, ebx
  4056c3:	56                        push	esi
  4056c4:	89 5d fc                  mov	[ebp-04h], ebx
  4056c7:	e8 13 2b 00 00            call	4081df
  4056cc:	59                        pop	ecx
  4056cd:	89 45 f8                  mov	[ebp-08h], eax
  4056d0:	53                        push	ebx
  4056d1:	53                        push	ebx
  4056d2:	53                        push	ebx
  4056d3:	ff 75 08                  push	dword [ebp+08h]
  4056d6:	ff 15 28 31 41 00         call	dword [00413128h]	; <SetFilePointer>
  4056dc:	8d 45 fc                  lea	eax, [ebp-04h]
  4056df:	8b 3d c0 30 41 00         mov	edi, [004130C0h]
  4056e5:	53                        push	ebx
  4056e6:	50                        push	eax
  4056e7:	56                        push	esi
  4056e8:	ff 75 f8                  push	dword [ebp-08h]
  4056eb:	ff 75 08                  push	dword [ebp+08h]
  4056ee:	ff d7                    >call	edi
  4056f0:	85 c0                     test	eax, eax
  4056f2:	74 27                     jz	40571b
  4056f4:	39 5d fc                  cmp	[ebp-04h], ebx
  4056f7:	74 22                     jz	40571b
  4056f9:	ff 75 f4                  push	dword [ebp-0Ch]
  4056fc:	ff 75 fc                  push	dword [ebp-04h]
  4056ff:	ff 75 f8                  push	dword [ebp-08h]
  405702:	e8 63 ff ff ff            call	40566a
  405707:	83 c4 0c                  add	esp, 0Ch
  40570a:	89 45 f4                  mov	[ebp-0Ch], eax
  40570d:	8d 45 fc                  lea	eax, [ebp-04h]
  405710:	53                        push	ebx
  405711:	50                        push	eax
  405712:	56                        push	esi
  405713:	ff 75 f8                  push	dword [ebp-08h]
  405716:	ff 75 08                  push	dword [ebp+08h]
  405719:	eb d3                     jmp	4056ee
  40571b:	ff 75 f8                 >push	dword [ebp-08h]
  40571e:	e8 ca 2a 00 00            call	4081ed
  405723:	59                        pop	ecx
  405724:	5f                        pop	edi
  405725:	5e                        pop	esi
  405726:	5b                        pop	ebx
  405727:	8b 45 f4                 >mov	eax, [ebp-0Ch]
  40572a:	f7 d0                     not	eax
  40572c:	c9                        leave
  40572d:	c3                        ret

40572e <no name>:
  40572e:	53                        push	ebx
  40572f:	55                        push	ebp
  405730:	56                        push	esi
  405731:	8b f1                     mov	esi, ecx
  405733:	57                        push	edi
  405734:	6a 00                     push	dword 00000000h
  405736:	c7 06 10 33 41 00         mov	dword [esi], 00413310h
  40573c:	ff 15 e0 30 41 00         call	dword [004130E0h]	; <GetModuleHandleA>
  405742:	6a 05                     push	dword 00000005h
  405744:	8b f8                     mov	edi, eax
  405746:	ff 74 24 18               push	dword [esp+18h]
  40574a:	57                        push	edi
  40574b:	ff 15 d8 30 41 00         call	dword [004130D8h]	; <FindResourceA>
  405751:	8b d8                     mov	ebx, eax
  405753:	53                        push	ebx
  405754:	57                        push	edi
  405755:	ff 15 d4 30 41 00         call	dword [004130D4h]	; <LoadResource>
  40575b:	53                        push	ebx
  40575c:	57                        push	edi
  40575d:	8b e8                     mov	ebp, eax
  40575f:	ff 15 dc 30 41 00         call	dword [004130DCh]	; <SizeofResource>
  405765:	50                        push	eax
  405766:	55                        push	ebp
  405767:	ff 15 d0 30 41 00         call	dword [004130D0h]	; <LockResource>
  40576d:	50                        push	eax
  40576e:	8b ce                     mov	ecx, esi
  405770:	e8 50 00 00 00            call	4057c5
  405775:	8b c6                     mov	eax, esi
  405777:	5f                        pop	edi
  405778:	5e                        pop	esi
  405779:	5d                        pop	ebp
  40577a:	5b                        pop	ebx
  40577b:	c2 04 00                  ret	0004h
     ...

4057a3 <no name>:
  4057a3:	56                        push	esi
  4057a4:	8b f1                     mov	esi, ecx
  4057a6:	8b 46 04                  mov	eax, [esi+04h]
  4057a9:	c7 06 10 33 41 00         mov	dword [esi], 00413310h
  4057af:	85 c0                     test	eax, eax
  4057b1:	74 10                     jz	4057c3
  4057b3:	50                        push	eax
  4057b4:	ff 15 e8 30 41 00         call	dword [004130E8h]	; <GlobalUnlock>
  4057ba:	ff 76 04                  push	dword [esi+04h]
  4057bd:	ff 15 e4 30 41 00         call	dword [004130E4h]	; <GlobalFree>
  4057c3:	5e                       >pop	esi
  4057c4:	c3                        ret

4057c5 <no name>:
  4057c5:	8b 44 24 08               mov	eax, [esp+08h]
  4057c9:	56                        push	esi
  4057ca:	8b f1                     mov	esi, ecx
  4057cc:	89 46 0c                  mov	[esi+0Ch], eax
  4057cf:	83 c0 40                  add	eax, 40h
  4057d2:	50                        push	eax
  4057d3:	6a 40                     push	dword 00000040h
  4057d5:	ff 15 f0 30 41 00         call	dword [004130F0h]	; <GlobalAlloc>
  4057db:	85 c0                     test	eax, eax
  4057dd:	89 46 04                  mov	[esi+04h], eax
  4057e0:	74 1d                     jz	4057ff
  4057e2:	50                        push	eax
  4057e3:	ff 15 ec 30 41 00         call	dword [004130ECh]	; <GlobalLock>
  4057e9:	ff 76 0c                  push	dword [esi+0Ch]
  4057ec:	89 46 08                  mov	[esi+08h], eax
  4057ef:	ff 74 24 0c               push	dword [esp+0Ch]
  4057f3:	50                        push	eax
  4057f4:	e8 f7 1e 00 00            call	4076f0
  4057f9:	83 c4 0c                  add	esp, 0Ch
  4057fc:	6a 01                     push	dword 00000001h
  4057fe:	58                        pop	eax
  4057ff:	5e                       >pop	esi
  405800:	c2 08 00                  ret	0008h

405803 <no name>:
  405803:	8b 44 24 04               mov	eax, [esp+04h]
  405807:	66 81 78 02 ff ff         cmp	word [eax+02h], FFFFh
  40580d:	75 05                     jnz	405814
  40580f:	83 c0 1a                  add	eax, 1Ah
  405812:	eb 03                     jmp	405817
  405814:	83 c0 12                 >add	eax, 12h
  405817:	66 8b 08                 >mov	cx, [eax]
  40581a:	6a 02                     push	dword 00000002h
  40581c:	66 81 f9 ff ff            cmp	cx, FFFFh
  405821:	5a                        pop	edx
  405822:	75 12                     jnz	405836
  405824:	83 c0 04                  add	eax, 04h
  405827:	66 8b 08                 >mov	cx, [eax]
  40582a:	66 81 f9 ff ff            cmp	cx, FFFFh
  40582f:	75 11                     jnz	405842
  405831:	83 c0 04                  add	eax, 04h
  405834:	eb 18                     jmp	40584e
  405836:	03 c2                    >add	eax, edx
  405838:	66 85 c9                  test	cx, cx
  40583b:	74 ea                     jz	405827
  40583d:	66 8b 08                  mov	cx, [eax]
  405840:	eb f4                     jmp	405836
  405842:	03 c2                    >add	eax, edx
  405844:	66 85 c9                  test	cx, cx
  405847:	74 05                     jz	40584e
  405849:	66 8b 08                  mov	cx, [eax]
  40584c:	eb f4                     jmp	405842
  40584e:	66 8b 08                 >mov	cx, [eax]
  405851:	03 c2                     add	eax, edx
  405853:	66 85 c9                  test	cx, cx
  405856:	75 f6                     jnz	40584e
  405858:	c3                        ret

405859 <no name>:
  405859:	55                        push	ebp
  40585a:	8b ec                     mov	ebp, esp
  40585c:	83 ec 50                  sub	esp, 50h
  40585f:	57                        push	edi
  405860:	8b f9                     mov	edi, ecx
  405862:	33 d2                     xor	edx, edx
  405864:	89 7d f8                  mov	[ebp-08h], edi
  405867:	39 57 04                  cmp	[edi+04h], edx
  40586a:	0f 84 02 01 00 00         jz	405972
  405870:	39 57 0c                  cmp	[edi+0Ch], edx
  405873:	0f 84 f9 00 00 00         jz	405972
  405879:	8b 47 08                  mov	eax, [edi+08h]
  40587c:	33 c9                     xor	ecx, ecx
  40587e:	66 81 78 02 ff ff         cmp	word [eax+02h], FFFFh
  405884:	0f 94 c1                  setz	cl
  405887:	66 81 78 02 ff ff         cmp	word [eax+02h], FFFFh
  40588d:	89 4d fc                  mov	[ebp-04h], ecx
  405890:	75 05                     jnz	405897
  405892:	8b 48 0c                  mov	ecx, [eax+0Ch]
  405895:	eb 02                     jmp	405899
  405897:	8b 08                    >mov	ecx, [eax]
  405899:	53                       >push	ebx
  40589a:	56                        push	esi
  40589b:	8b 75 fc                  mov	esi, [ebp-04h]
  40589e:	83 e1 40                  and	ecx, 40h
  4058a1:	f7 de                     neg	esi
  4058a3:	1b f6                     sbb	esi, esi
  4058a5:	89 4d f4                  mov	[ebp-0Ch], ecx
  4058a8:	83 e6 02                  and	esi, 02h
  4058ab:	46                        inc	esi
  4058ac:	d1 e6                     shl	esi, 1h
  4058ae:	39 55 fc                  cmp	[ebp-04h], edx
  4058b1:	74 06                     jz	4058b9
  4058b3:	83 48 0c 40               or	dword [eax+0Ch], 40h
  4058b7:	eb 03                     jmp	4058bc
  4058b9:	83 08 40                 >or	dword [eax], 40h
  4058bc:	8d 45 b0                 >lea	eax, [ebp-50h]
  4058bf:	6a 20                     push	dword 00000020h
  4058c1:	50                        push	eax
  4058c2:	6a ff                     push	dword FFFFFFFFh
  4058c4:	ff 75 08                  push	dword [ebp+08h]
  4058c7:	52                        push	edx
  4058c8:	52                        push	edx
  4058c9:	ff 15 f4 30 41 00         call	dword [004130F4h]	; <MultiByteToWideChar>
  4058cf:	ff 77 08                  push	dword [edi+08h]
  4058d2:	8d 1c 46                  lea	ebx, [esi+eax*2]
  4058d5:	89 5d f0                  mov	[ebp-10h], ebx
  4058d8:	e8 26 ff ff ff            call	405803
  4058dd:	59                        pop	ecx
  4058de:	8b f8                     mov	edi, eax
  4058e0:	33 c9                     xor	ecx, ecx
  4058e2:	39 4d f4                  cmp	[ebp-0Ch], ecx
  4058e5:	74 0e                     jz	4058f5
  4058e7:	8d 04 37                  lea	eax, [edi+esi*1]
  4058ea:	50                        push	eax
  4058eb:	e8 45 2c 00 00            call	408535
  4058f0:	59                        pop	ecx
  4058f1:	8d 4c 46 02               lea	ecx, [esi+eax*2+02h]
  4058f5:	8b 45 f8                 >mov	eax, [ebp-08h]
  4058f8:	89 4d 08                  mov	[ebp+08h], ecx
  4058fb:	8d 4c 39 03               lea	ecx, [ecx+edi*1+03h]
  4058ff:	8d 54 1f 03               lea	edx, [edi+ebx*1+03h]
  405903:	8b 40 08                  mov	eax, [eax+08h]
  405906:	83 e1 fc                  and	ecx, FCh
  405909:	83 e2 fc                  and	edx, FCh
  40590c:	83 7d fc 00               cmp	dword [ebp-04h], 00h
  405910:	74 06                     jz	405918
  405912:	66 8b 58 10               mov	bx, [eax+10h]
  405916:	eb 04                     jmp	40591c
  405918:	66 8b 58 08              >mov	bx, [eax+08h]
  40591c:	66 89 5d f4              >mov	[ebp-0Ch], bx
  405920:	8b 5d 08                  mov	ebx, [ebp+08h]
  405923:	39 5d f0                  cmp	[ebp-10h], ebx
  405926:	74 1a                     jz	405942
  405928:	66 83 7d f4 00            cmp	word [ebp-0Ch], 00h
  40592d:	76 13                     jbe	405942
  40592f:	8b 5d f8                  mov	ebx, [ebp-08h]
  405932:	2b c1                     sub	eax, ecx
  405934:	03 43 0c                  add	eax, [ebx+0Ch]
  405937:	50                        push	eax
  405938:	51                        push	ecx
  405939:	52                        push	edx
  40593a:	e8 c1 28 00 00            call	408200
  40593f:	83 c4 0c                  add	esp, 0Ch
  405942:	8b 45 f0                 >mov	eax, [ebp-10h]
  405945:	2b c6                     sub	eax, esi
  405947:	50                        push	eax
  405948:	8d 45 b0                  lea	eax, [ebp-50h]
  40594b:	50                        push	eax
  40594c:	8d 04 37                  lea	eax, [edi+esi*1]
  40594f:	50                        push	eax
  405950:	e8 ab 28 00 00            call	408200
  405955:	66 8b 45 10               mov	ax, [ebp+10h]
  405959:	83 c4 0c                  add	esp, 0Ch
  40595c:	83 7d fc 00               cmp	dword [ebp-04h], 00h
  405960:	66 89 07                  mov	[edi], ax
  405963:	5e                        pop	esi
  405964:	5b                        pop	ebx
  405965:	74 06                     jz	40596d
  405967:	8a 45 0c                  mov	al, [ebp+0Ch]
  40596a:	88 47 05                  mov	[edi+05h], al
  40596d:	6a 01                    >push	dword 00000001h
  40596f:	58                        pop	eax
  405970:	eb 02                     jmp	405974
  405972:	33 c0                    >xor	eax, eax
  405974:	5f                       >pop	edi
  405975:	c9                        leave
  405976:	c2 0c 00                  ret	000Ch

405979 <no name>:
  405979:	8a 4c 24 04               mov	cl, [esp+04h]
  40597d:	8a c1                     mov	al, cl
  40597f:	c0 e8 04                  shr	al, 04h
  405982:	c0 e1 04                  shl	cl, 04h
  405985:	0a c1                     or	al, cl
  405987:	32 44 24 08               xor	al, [esp+08h]
  40598b:	f6 d0                     not	al
  40598d:	c3                        ret

40598e <no name>:
  40598e:	55                        push	ebp
  40598f:	8b ec                     mov	ebp, esp
  405991:	51                        push	ecx
  405992:	53                        push	ebx
  405993:	56                        push	esi
  405994:	57                        push	edi
  405995:	8b 7d 08                  mov	edi, [ebp+08h]
  405998:	57                        push	edi
  405999:	c6 45 fc 13               mov	byte [ebp-04h], 13h
  40599d:	c6 45 fd 35               mov	byte [ebp-03h], 35h
  4059a1:	c6 45 fe 86               mov	byte [ebp-02h], 86h
  4059a5:	c6 45 ff 07               mov	byte [ebp-01h], 07h
  4059a9:	ff 15 4c 31 41 00         call	dword [0041314Ch]	; <lstrlenA>
  4059af:	8b d8                     mov	ebx, eax
  4059b1:	53                        push	ebx
  4059b2:	e8 28 28 00 00            call	4081df
  4059b7:	8b f0                     mov	esi, eax
  4059b9:	59                        pop	ecx
  4059ba:	85 f6                     test	esi, esi
  4059bc:	74 1e                     jz	4059dc
  4059be:	33 d2                     xor	edx, edx
  4059c0:	85 db                     test	ebx, ebx
  4059c2:	76 18                     jbe	4059dc
  4059c4:	2b fe                     sub	edi, esi
  4059c6:	8b c2                    >mov	eax, edx
  4059c8:	8d 0c 32                  lea	ecx, [edx+esi*1]
  4059cb:	83 e0 03                  and	eax, 03h
  4059ce:	8a 44 05 fc               mov	al, [ebp+eax*1-04h]
  4059d2:	32 04 0f                  xor	al, [edi+ecx*1]
  4059d5:	42                        inc	edx
  4059d6:	3b d3                     cmp	edx, ebx
  4059d8:	88 01                     mov	[ecx], al
  4059da:	72 ea                     jb	4059c6
  4059dc:	8b c6                    >mov	eax, esi
  4059de:	5f                        pop	edi
  4059df:	5e                        pop	esi
  4059e0:	5b                        pop	ebx
  4059e1:	c9                        leave
  4059e2:	c3                        ret

4059e3 <no name>:
  4059e3:	56                        push	esi
  4059e4:	33 f6                     xor	esi, esi
  4059e6:	57                        push	edi
  4059e7:	56                        push	esi
  4059e8:	68 80 00 00 00            push	dword 00000080h
  4059ed:	6a 03                     push	dword 00000003h
  4059ef:	56                        push	esi
  4059f0:	6a 01                     push	dword 00000001h
  4059f2:	68 00 00 00 c0            push	dword C0000000h
  4059f7:	ff 74 24 24               push	dword [esp+24h]
  4059fb:	ff 15 14 31 41 00         call	dword [00413114h]	; <CreateFileA>
  405a01:	8b f8                     mov	edi, eax
  405a03:	83 ff ff                  cmp	edi, FFh
  405a06:	74 5d                     jz	405a65
  405a08:	53                        push	ebx
  405a09:	56                        push	esi
  405a0a:	57                        push	edi
  405a0b:	ff 15 2c 31 41 00         call	dword [0041312Ch]	; <GetFileSize>
  405a11:	56                        push	esi
  405a12:	56                        push	esi
  405a13:	56                        push	esi
  405a14:	6a 04                     push	dword 00000004h
  405a16:	56                        push	esi
  405a17:	57                        push	edi
  405a18:	89 44 24 28               mov	[esp+28h], eax
  405a1c:	ff 15 18 31 41 00         call	dword [00413118h]	; <CreateFileMappingA>
  405a22:	8b d8                     mov	ebx, eax
  405a24:	3b de                     cmp	ebx, esi
  405a26:	74 35                     jz	405a5d
  405a28:	55                        push	ebp
  405a29:	56                        push	esi
  405a2a:	56                        push	esi
  405a2b:	56                        push	esi
  405a2c:	6a 02                     push	dword 00000002h
  405a2e:	53                        push	ebx
  405a2f:	ff 15 1c 31 41 00         call	dword [0041311Ch]	; <MapViewOfFile>
  405a35:	8b e8                     mov	ebp, eax
  405a37:	3b ee                     cmp	ebp, esi
  405a39:	74 1a                     jz	405a55
  405a3b:	ff 74 24 18               push	dword [esp+18h]
  405a3f:	ff 74 24 18               push	dword [esp+18h]
  405a43:	55                        push	ebp
  405a44:	e8 21 00 00 00            call	405a6a
  405a49:	83 c4 0c                  add	esp, 0Ch
  405a4c:	8b f0                     mov	esi, eax
  405a4e:	55                        push	ebp
  405a4f:	ff 15 20 31 41 00         call	dword [00413120h]	; <UnmapViewOfFile>
  405a55:	53                       >push	ebx
  405a56:	ff 15 78 31 41 00         call	dword [00413178h]	; <CloseHandle>
  405a5c:	5d                        pop	ebp
  405a5d:	57                       >push	edi
  405a5e:	ff 15 78 31 41 00         call	dword [00413178h]	; <CloseHandle>
  405a64:	5b                        pop	ebx
  405a65:	8b c6                    >mov	eax, esi
  405a67:	5f                        pop	edi
  405a68:	5e                        pop	esi
  405a69:	c3                        ret

405a6a <no name>:
  405a6a:	55                        push	ebp
  405a6b:	8b ec                     mov	ebp, esp
  405a6d:	53                        push	ebx
  405a6e:	57                        push	edi
  405a6f:	ff 75 10                  push	dword [ebp+10h]
  405a72:	e8 17 ff ff ff            call	40598e
  405a77:	8b d8                     mov	ebx, eax
  405a79:	33 ff                     xor	edi, edi
  405a7b:	3b df                     cmp	ebx, edi
  405a7d:	59                        pop	ecx
  405a7e:	75 04                     jnz	405a84
  405a80:	33 c0                     xor	eax, eax
  405a82:	eb 40                     jmp	405ac4
  405a84:	ff 75 10                 >push	dword [ebp+10h]
  405a87:	ff 15 4c 31 41 00         call	dword [0041314Ch]	; <lstrlenA>
  405a8d:	39 7d 0c                  cmp	[ebp+0Ch], edi
  405a90:	89 45 10                  mov	[ebp+10h], eax
  405a93:	76 25                     jbe	405aba
  405a95:	56                        push	esi
  405a96:	8b 45 08                 >mov	eax, [ebp+08h]
  405a99:	33 d2                     xor	edx, edx
  405a9b:	8d 34 07                  lea	esi, [edi+eax*1]
  405a9e:	8b c7                     mov	eax, edi
  405aa0:	f7 75 10                  div	dword [ebp+10h]
  405aa3:	8a 04 1a                  mov	al, [edx+ebx*1]
  405aa6:	50                        push	eax
  405aa7:	8a 06                     mov	al, [esi]
  405aa9:	50                        push	eax
  405aaa:	e8 ca fe ff ff            call	405979
  405aaf:	47                        inc	edi
  405ab0:	59                        pop	ecx
  405ab1:	3b 7d 0c                  cmp	edi, [ebp+0Ch]
  405ab4:	59                        pop	ecx
  405ab5:	88 06                     mov	[esi], al
  405ab7:	72 dd                     jb	405a96
  405ab9:	5e                        pop	esi
  405aba:	53                       >push	ebx
  405abb:	e8 2d 27 00 00            call	4081ed
  405ac0:	59                        pop	ecx
  405ac1:	6a 01                     push	dword 00000001h
  405ac3:	58                        pop	eax
  405ac4:	5f                       >pop	edi
  405ac5:	5b                        pop	ebx
  405ac6:	5d                        pop	ebp
  405ac7:	c3                        ret

405ac8 <no name>:
  405ac8:	55                        push	ebp
  405ac9:	8b ec                     mov	ebp, esp
  405acb:	81 ec bc 00 00 00         sub	esp, 000000BCh
  405ad1:	53                        push	ebx
  405ad2:	56                        push	esi
  405ad3:	57                        push	edi
  405ad4:	6a 0e                     push	dword 0000000Eh
  405ad6:	33 db                     xor	ebx, ebx
  405ad8:	59                        pop	ecx
  405ad9:	33 c0                     xor	eax, eax
  405adb:	8d 7d 84                  lea	edi, [ebp-7Ch]
  405ade:	89 5d 80                  mov	[ebp-80h], ebx
  405ae1:	6a 0f                     push	dword 0000000Fh
  405ae3:	f3 ab                     rep stosd
  405ae5:	59                        pop	ecx
  405ae6:	8d 7d bd                  lea	edi, [ebp-43h]
  405ae9:	88 5d bc                  mov	[ebp-44h], bl
  405aec:	53                        push	ebx
  405aed:	f3 ab                     rep stosd
  405aef:	66 ab                     stosw
  405af1:	aa                        stosb
  405af2:	ff 15 60 32 41 00         call	dword [00413260h]	; <GetDC>
  405af8:	8b 35 24 31 41 00         mov	esi, [00413124h]
  405afe:	89 45 fc                  mov	[ebp-04h], eax
  405b01:	8a 45 0c                  mov	al, [ebp+0Ch]
  405b04:	6a 20                     push	dword 00000020h
  405b06:	ff 75 08                  push	dword [ebp+08h]
  405b09:	88 45 97                  mov	[ebp-69h], al
  405b0c:	8d 45 9c                  lea	eax, [ebp-64h]
  405b0f:	50                        push	eax
  405b10:	ff d6                     call	esi
  405b12:	6a 20                     push	dword 00000020h
  405b14:	8d 45 bc                  lea	eax, [ebp-44h]
  405b17:	ff 75 08                  push	dword [ebp+08h]
  405b1a:	50                        push	eax
  405b1b:	ff d6                     call	esi
  405b1d:	8d 45 bc                  lea	eax, [ebp-44h]
  405b20:	53                        push	ebx
  405b21:	50                        push	eax
  405b22:	8d 45 80                  lea	eax, [ebp-80h]
  405b25:	68 b4 5b 40 00            push	dword 00405BB4h
  405b2a:	50                        push	eax
  405b2b:	ff 75 fc                  push	dword [ebp-04h]
  405b2e:	ff 15 3c 30 41 00         call	dword [0041303Ch]	; <EnumFontFamiliesExA>
  405b34:	38 5d dc                  cmp	[ebp-24h], bl
  405b37:	74 06                     jz	405b3f
  405b39:	8d 45 dc                  lea	eax, [ebp-24h]
  405b3c:	50                        push	eax
  405b3d:	eb 49                     jmp	405b88
  405b3f:	8b 35 2c 30 41 00        >mov	esi, [0041302Ch]
  405b45:	6a 0e                     push	dword 0000000Eh
  405b47:	59                        pop	ecx
  405b48:	33 c0                     xor	eax, eax
  405b4a:	8d bd 48 ff ff ff         lea	edi, [ebp-000000B8h]
  405b50:	89 9d 44 ff ff ff         mov	[ebp-000000BCh], ebx
  405b56:	f3 ab                     rep stosd
  405b58:	6a 11                     push	dword 00000011h
  405b5a:	bf 28 52 41 00            mov	edi, 00415228h
  405b5f:	ff d6                     call	esi
  405b61:	3b c3                     cmp	eax, ebx
  405b63:	75 08                     jnz	405b6d
  405b65:	6a 0d                     push	dword 0000000Dh
  405b67:	ff d6                     call	esi
  405b69:	3b c3                     cmp	eax, ebx
  405b6b:	74 1a                     jz	405b87
  405b6d:	8d 8d 44 ff ff ff        >lea	ecx, [ebp-000000BCh]
  405b73:	51                        push	ecx
  405b74:	6a 3c                     push	dword 0000003Ch
  405b76:	50                        push	eax
  405b77:	ff 15 28 30 41 00         call	dword [00413028h]	; <GetObjectA>
  405b7d:	85 c0                     test	eax, eax
  405b7f:	74 06                     jz	405b87
  405b81:	8d bd 60 ff ff ff         lea	edi, [ebp-000000A0h]
  405b87:	57                       >push	edi
  405b88:	ff 75 10                 >push	dword [ebp+10h]
  405b8b:	ff 15 54 31 41 00         call	dword [00413154h]	; <lstrcpyA>
  405b91:	ff 75 fc                  push	dword [ebp-04h]
  405b94:	53                        push	ebx
  405b95:	ff 15 5c 32 41 00         call	dword [0041325Ch]	; <ReleaseDC>
  405b9b:	ff 75 10                  push	dword [ebp+10h]
  405b9e:	68 20 52 41 00            push	dword 00415220h
  405ba3:	ff 15 f8 30 41 00         call	dword [004130F8h]	; <lstrcmpiA>
  405ba9:	f7 d8                     neg	eax
  405bab:	1b c0                     sbb	eax, eax
  405bad:	5f                        pop	edi
  405bae:	5e                        pop	esi
  405baf:	5b                        pop	ebx
  405bb0:	f7 d8                     neg	eax
  405bb2:	c9                        leave
  405bb3:	c3                        ret
     ...

405bf0 <no name>:
  405bf0:	56                        push	esi
  405bf1:	8b 74 24 08               mov	esi, [esp+08h]
  405bf5:	57                        push	edi
  405bf6:	8b fe                     mov	edi, esi
  405bf8:	8a 06                     mov	al, [esi]
  405bfa:	84 c0                     test	al, al
  405bfc:	74 2e                     jz	405c2c
  405bfe:	0f be c0                 >movsx	eax, al
  405c01:	50                        push	eax
  405c02:	e8 03 1f 00 00            call	407b0a
  405c07:	85 c0                     test	eax, eax
  405c09:	59                        pop	ecx
  405c0a:	74 0f                     jz	405c1b
  405c0c:	56                        push	esi
  405c0d:	e8 a7 24 00 00            call	4080b9
  405c12:	8b f0                     mov	esi, eax
  405c14:	59                        pop	ecx
  405c15:	8a 06                     mov	al, [esi]
  405c17:	84 c0                     test	al, al
  405c19:	75 e3                     jnz	405bfe
  405c1b:	3b fe                    >cmp	edi, esi
  405c1d:	74 0d                     jz	405c2c
  405c1f:	80 3e 00                  cmp	byte [esi], 00h
  405c22:	74 08                     jz	405c2c
  405c24:	56                        push	esi
  405c25:	57                        push	edi
  405c26:	ff 15 54 31 41 00         call	dword [00413154h]	; <lstrcpyA>
  405c2c:	5f                       >pop	edi
  405c2d:	5e                        pop	esi
  405c2e:	c3                        ret

405c2f <no name>:
  405c2f:	56                        push	esi
  405c30:	57                        push	edi
  405c31:	8b 7c 24 0c               mov	edi, [esp+0Ch]
  405c35:	33 f6                     xor	esi, esi
  405c37:	80 3f 00                  cmp	byte [edi], 00h
  405c3a:	74 2d                     jz	405c69
  405c3c:	0f be 07                 >movsx	eax, byte [edi]
  405c3f:	50                        push	eax
  405c40:	e8 c5 1e 00 00            call	407b0a
  405c45:	85 c0                     test	eax, eax
  405c47:	59                        pop	ecx
  405c48:	74 08                     jz	405c52
  405c4a:	85 f6                     test	esi, esi
  405c4c:	75 06                     jnz	405c54
  405c4e:	8b f7                     mov	esi, edi
  405c50:	eb 02                     jmp	405c54
  405c52:	33 f6                    >xor	esi, esi
  405c54:	57                       >push	edi
  405c55:	e8 5f 24 00 00            call	4080b9
  405c5a:	8b f8                     mov	edi, eax
  405c5c:	59                        pop	ecx
  405c5d:	80 3f 00                  cmp	byte [edi], 00h
  405c60:	75 da                     jnz	405c3c
  405c62:	85 f6                     test	esi, esi
  405c64:	74 03                     jz	405c69
  405c66:	80 26 00                  and	byte [esi], 00h
  405c69:	5f                       >pop	edi
  405c6a:	5e                        pop	esi
  405c6b:	c3                        ret

405c6c <no name>:
  405c6c:	55                        push	ebp
  405c6d:	8b ec                     mov	ebp, esp
  405c6f:	81 ec 1c 02 00 00         sub	esp, 0000021Ch
  405c75:	53                        push	ebx
  405c76:	56                        push	esi
  405c77:	57                        push	edi
  405c78:	6a 40                     push	dword 00000040h
  405c7a:	33 db                     xor	ebx, ebx
  405c7c:	59                        pop	ecx
  405c7d:	33 c0                     xor	eax, eax
  405c7f:	8d bd e9 fe ff ff         lea	edi, [ebp-00000117h]
  405c85:	88 9d e8 fe ff ff         mov	[ebp-00000118h], bl
  405c8b:	6a 40                     push	dword 00000040h
  405c8d:	f3 ab                     rep stosd
  405c8f:	66 ab                     stosw
  405c91:	aa                        stosb
  405c92:	59                        pop	ecx
  405c93:	33 c0                     xor	eax, eax
  405c95:	8d bd e5 fd ff ff         lea	edi, [ebp-0000021Bh]
  405c9b:	88 9d e4 fd ff ff         mov	[ebp-0000021Ch], bl
  405ca1:	f3 ab                     rep stosd
  405ca3:	66 ab                     stosw
  405ca5:	68 40 52 41 00            push	dword 00415240h
  405caa:	68 30 52 41 00            push	dword 00415230h
  405caf:	aa                        stosb
  405cb0:	89 5d f8                  mov	[ebp-08h], ebx
  405cb3:	89 5d fc                  mov	[ebp-04h], ebx
  405cb6:	89 5d f0                  mov	[ebp-10h], ebx
  405cb9:	89 5d f4                  mov	[ebp-0Ch], ebx
  405cbc:	ff 15 e0 30 41 00         call	dword [004130E0h]	; <GetModuleHandleA>
  405cc2:	50                        push	eax
  405cc3:	ff 15 6c 30 41 00         call	dword [0041306Ch]	; <GetProcAddress>
  405cc9:	89 45 ec                  mov	[ebp-14h], eax
  405ccc:	8b 45 08                  mov	eax, [ebp+08h]
  405ccf:	8a 08                     mov	cl, [eax]
  405cd1:	80 f9 5c                  cmp	cl, 5Ch
  405cd4:	75 27                     jnz	405cfd
  405cd6:	38 48 01                  cmp	[eax+01h], cl
  405cd9:	75 22                     jnz	405cfd
  405cdb:	50                        push	eax
  405cdc:	8d 85 e4 fd ff ff         lea	eax, [ebp-0000021Ch]
  405ce2:	50                        push	eax
  405ce3:	ff 15 54 31 41 00         call	dword [00413154h]	; <lstrcpyA>
  405ce9:	8d 85 e4 fd ff ff         lea	eax, [ebp-0000021Ch]
  405cef:	68 dc 51 41 00            push	dword 004151DCh
  405cf4:	50                        push	eax
  405cf5:	ff 15 48 31 41 00         call	dword [00413148h]	; <lstrcatA>
  405cfb:	eb 1c                     jmp	405d19
  405cfd:	8a 40 01                 >mov	al, [eax+01h]
  405d00:	88 8d e8 fe ff ff         mov	[ebp-00000118h], cl
  405d06:	88 85 e9 fe ff ff         mov	[ebp-00000117h], al
  405d0c:	c6 85 ea fe ff ff 5c      mov	byte [ebp-00000116h], 5Ch
  405d13:	88 9d eb fe ff ff         mov	[ebp-00000115h], bl
  405d19:	39 5d ec                 >cmp	[ebp-14h], ebx
  405d1c:	8b 75 14                  mov	esi, [ebp+14h]
  405d1f:	8b 7d 10                  mov	edi, [ebp+10h]
  405d22:	74 37                     jz	405d5b
  405d24:	38 9d e4 fd ff ff         cmp	[ebp-0000021Ch], bl
  405d2a:	8d 85 e4 fd ff ff         lea	eax, [ebp-0000021Ch]
  405d30:	75 06                     jnz	405d38
  405d32:	8d 85 e8 fe ff ff         lea	eax, [ebp-00000118h]
  405d38:	56                       >push	esi
  405d39:	57                        push	edi
  405d3a:	ff 75 0c                  push	dword [ebp+0Ch]
  405d3d:	50                        push	eax
  405d3e:	ff 55 ec                  call	dword [ebp-14h]
  405d41:	3b c3                     cmp	eax, ebx
  405d43:	89 45 08                  mov	[ebp+08h], eax
  405d46:	0f 85 a5 00 00 00         jnz	405df1
  405d4c:	ff 15 38 31 41 00         call	dword [00413138h]	; <GetLastError>
  405d52:	83 f8 78                  cmp	eax, 78h
  405d55:	0f 85 96 00 00 00         jnz	405df1
  405d5b:	38 9d e4 fd ff ff        >cmp	[ebp-0000021Ch], bl
  405d61:	74 1f                     jz	405d82
  405d63:	8d 85 e8 fe ff ff         lea	eax, [ebp-00000118h]
  405d69:	68 04 01 00 00            push	dword 00000104h
  405d6e:	50                        push	eax
  405d6f:	8d 85 e4 fd ff ff         lea	eax, [ebp-0000021Ch]
  405d75:	50                        push	eax
  405d76:	e8 7e 00 00 00            call	405df9
  405d7b:	83 c4 0c                  add	esp, 0Ch
  405d7e:	85 c0                     test	eax, eax
  405d80:	74 72                     jz	405df4
  405d82:	8d 45 f4                 >lea	eax, [ebp-0Ch]
  405d85:	50                        push	eax
  405d86:	8d 45 f0                  lea	eax, [ebp-10h]
  405d89:	50                        push	eax
  405d8a:	8d 45 fc                  lea	eax, [ebp-04h]
  405d8d:	50                        push	eax
  405d8e:	8d 45 f8                  lea	eax, [ebp-08h]
  405d91:	50                        push	eax
  405d92:	8d 85 e8 fe ff ff         lea	eax, [ebp-00000118h]
  405d98:	50                        push	eax
  405d99:	ff 15 fc 30 41 00         call	dword [004130FCh]	; <GetDiskFreeSpaceA>
  405d9f:	3b c3                     cmp	eax, ebx
  405da1:	89 45 08                  mov	[ebp+08h], eax
  405da4:	74 36                     jz	405ddc
  405da6:	ff 75 f4                  push	dword [ebp-0Ch]
  405da9:	89 5f 04                  mov	[edi+04h], ebx
  405dac:	ff 75 fc                  push	dword [ebp-04h]
  405daf:	ff 75 f8                  push	dword [ebp-08h]
  405db2:	e8 d0 00 00 00            call	405e87
  405db7:	ff 75 f0                  push	dword [ebp-10h]
  405dba:	89 07                     mov	[edi], eax
  405dbc:	89 5e 04                  mov	[esi+04h], ebx
  405dbf:	ff 75 fc                  push	dword [ebp-04h]
  405dc2:	ff 75 f8                  push	dword [ebp-08h]
  405dc5:	e8 bd 00 00 00            call	405e87
  405dca:	89 06                     mov	[esi], eax
  405dcc:	8b c8                     mov	ecx, eax
  405dce:	8b 45 0c                  mov	eax, [ebp+0Ch]
  405dd1:	83 c4 18                  add	esp, 18h
  405dd4:	89 08                     mov	[eax], ecx
  405dd6:	8b 4e 04                  mov	ecx, [esi+04h]
  405dd9:	89 48 04                  mov	[eax+04h], ecx
  405ddc:	38 9d e4 fd ff ff        >cmp	[ebp-0000021Ch], bl
  405de2:	74 0d                     jz	405df1
  405de4:	8d 85 e8 fe ff ff         lea	eax, [ebp-00000118h]
  405dea:	50                        push	eax
  405deb:	e8 c0 00 00 00            call	405eb0
  405df0:	59                        pop	ecx
  405df1:	8b 45 08                 >mov	eax, [ebp+08h]
  405df4:	5f                       >pop	edi
  405df5:	5e                        pop	esi
  405df6:	5b                        pop	ebx
  405df7:	c9                        leave
  405df8:	c3                        ret

405df9 <no name>:
  405df9:	55                        push	ebp
  405dfa:	8b ec                     mov	ebp, esp
  405dfc:	83 ec 28                  sub	esp, 28h
  405dff:	53                        push	ebx
  405e00:	57                        push	edi
  405e01:	6a 07                     push	dword 00000007h
  405e03:	33 db                     xor	ebx, ebx
  405e05:	59                        pop	ecx
  405e06:	33 c0                     xor	eax, eax
  405e08:	8d 7d dc                  lea	edi, [ebp-24h]
  405e0b:	89 5d d8                  mov	[ebp-28h], ebx
  405e0e:	68 5c 52 41 00            push	dword 0041525Ch
  405e13:	68 54 52 41 00            push	dword 00415254h
  405e18:	f3 ab                     rep stosd
  405e1a:	89 5d fc                  mov	[ebp-04h], ebx
  405e1d:	ff 15 64 31 41 00         call	dword [00413164h]	; <LoadLibraryA>
  405e23:	50                        push	eax
  405e24:	ff 15 6c 30 41 00         call	dword [0041306Ch]	; <GetProcAddress>
  405e2a:	3b c3                     cmp	eax, ebx
  405e2c:	89 45 f8                  mov	[ebp-08h], eax
  405e2f:	75 04                     jnz	405e35
  405e31:	33 c0                     xor	eax, eax
  405e33:	eb 4e                     jmp	405e83
  405e35:	8b 3d 4c 31 41 00        >mov	edi, [0041314Ch]
  405e3b:	56                        push	esi
  405e3c:	8b 75 08                  mov	esi, [ebp+08h]
  405e3f:	56                        push	esi
  405e40:	ff d7                     call	edi
  405e42:	80 7c 30 ff 5c            cmp	byte [eax+esi*1-01h], 5Ch
  405e47:	75 07                     jnz	405e50
  405e49:	56                        push	esi
  405e4a:	ff d7                     call	edi
  405e4c:	88 5c 30 ff               mov	[eax+esi*1-01h], bl
  405e50:	8d 45 fc                 >lea	eax, [ebp-04h]
  405e53:	c7 45 dc 01 00 00 00      mov	dword [ebp-24h], 00000001h
  405e5a:	50                        push	eax
  405e5b:	8d 45 10                  lea	eax, [ebp+10h]
  405e5e:	50                        push	eax
  405e5f:	8d 45 d8                  lea	eax, [ebp-28h]
  405e62:	ff 75 0c                  push	dword [ebp+0Ch]
  405e65:	89 75 ec                  mov	[ebp-14h], esi
  405e68:	c7 45 fc 00 01 00 00      mov	dword [ebp-04h], 00000100h
  405e6f:	68 80 00 00 00            push	dword 00000080h
  405e74:	53                        push	ebx
  405e75:	53                        push	ebx
  405e76:	50                        push	eax
  405e77:	53                        push	ebx
  405e78:	ff 55 f8                  call	dword [ebp-08h]
  405e7b:	33 c9                     xor	ecx, ecx
  405e7d:	5e                        pop	esi
  405e7e:	3b c8                     cmp	ecx, eax
  405e80:	1b c0                     sbb	eax, eax
  405e82:	40                        inc	eax
  405e83:	5f                       >pop	edi
  405e84:	5b                        pop	ebx
  405e85:	c9                        leave
  405e86:	c3                        ret

405e87 <no name>:
  405e87:	8b 4c 24 04               mov	ecx, [esp+04h]
  405e8b:	0f af 4c 24 08            imul	ecx, [esp+08h]
  405e90:	85 c9                     test	ecx, ecx
  405e92:	75 03                     jnz	405e97
  405e94:	33 c0                     xor	eax, eax
  405e96:	c3                        ret
  405e97:	83 c8 ff                 >or	eax, FFh
  405e9a:	33 d2                     xor	edx, edx
  405e9c:	f7 f1                     div	ecx
  405e9e:	3b 44 24 0c               cmp	eax, [esp+0Ch]
  405ea2:	73 04                     jae	405ea8
  405ea4:	83 c8 ff                  or	eax, FFh
  405ea7:	c3                        ret
  405ea8:	8b c1                    >mov	eax, ecx
  405eaa:	0f af 44 24 0c            imul	eax, [esp+0Ch]
  405eaf:	c3                        ret

405eb0 <no name>:
  405eb0:	68 70 52 41 00            push	dword 00415270h
  405eb5:	68 54 52 41 00            push	dword 00415254h
  405eba:	ff 15 64 31 41 00         call	dword [00413164h]	; <LoadLibraryA>
  405ec0:	50                        push	eax
  405ec1:	ff 15 6c 30 41 00         call	dword [0041306Ch]	; <GetProcAddress>
  405ec7:	85 c0                     test	eax, eax
  405ec9:	75 01                     jnz	405ecc
  405ecb:	c3                        ret
  405ecc:	6a 01                    >push	dword 00000001h
  405ece:	ff 74 24 08               push	dword [esp+08h]
  405ed2:	ff d0                     call	eax
  405ed4:	6a 01                     push	dword 00000001h
  405ed6:	58                        pop	eax
  405ed7:	c3                        ret

405ed8 <no name>:
  405ed8:	55                        push	ebp
  405ed9:	8b ec                     mov	ebp, esp
  405edb:	83 ec 1c                  sub	esp, 1Ch
  405ede:	53                        push	ebx
  405edf:	56                        push	esi
  405ee0:	8b 75 08                  mov	esi, [ebp+08h]
  405ee3:	57                        push	edi
  405ee4:	83 cf ff                  or	edi, FFh
  405ee7:	8b 46 0c                  mov	eax, [esi+0Ch]
  405eea:	85 c0                     test	eax, eax
  405eec:	0f 84 b5 00 00 00         jz	405fa7
  405ef2:	39 46 10                  cmp	[esi+10h], eax
  405ef5:	0f 83 ac 00 00 00         jae	405fa7
  405efb:	83 7e 14 00               cmp	dword [esi+14h], 00h
  405eff:	0f 84 a2 00 00 00         jz	405fa7
  405f05:	56                        push	esi
  405f06:	e8 29 03 00 00            call	406234
  405f0b:	8b d8                     mov	ebx, eax
  405f0d:	59                        pop	ecx
  405f0e:	85 db                     test	ebx, ebx
  405f10:	0f 84 91 00 00 00         jz	405fa7
  405f16:	53                        push	ebx
  405f17:	68 6b 6c 40 00            push	dword 00406C6Bh
  405f1c:	ff 76 04                  push	dword [esi+04h]
  405f1f:	68 88 52 41 00            push	dword 00415288h
  405f24:	ff 76 08                  push	dword [esi+08h]
  405f27:	e8 45 01 00 00            call	406071
  405f2c:	83 c4 14                  add	esp, 14h
  405f2f:	f6 06 02                  test	byte [esi], 02h
  405f32:	74 04                     jz	405f38
  405f34:	8b f8                     mov	edi, eax
  405f36:	eb 6f                     jmp	405fa7
  405f38:	83 65 e4 00              >and	dword [ebp-1Ch], 00h
  405f3c:	6a 06                     push	dword 00000006h
  405f3e:	59                        pop	ecx
  405f3f:	33 c0                     xor	eax, eax
  405f41:	ff 33                     push	dword [ebx]
  405f43:	8d 7d e8                  lea	edi, [ebp-18h]
  405f46:	f3 ab                     rep stosd
  405f48:	ff 15 b4 32 41 00         call	dword [004132B4h]	; <IsWindow>
  405f4e:	85 c0                     test	eax, eax
  405f50:	74 4b                     jz	405f9d
  405f52:	8b 35 e8 32 41 00         mov	esi, [004132E8h]
  405f58:	6a 01                    >push	dword 00000001h
  405f5a:	33 ff                     xor	edi, edi
  405f5c:	57                       >push	edi
  405f5d:	57                        push	edi
  405f5e:	8d 45 e4                  lea	eax, [ebp-1Ch]
  405f61:	57                        push	edi
  405f62:	50                        push	eax
  405f63:	ff d6                     call	esi
  405f65:	85 c0                     test	eax, eax
  405f67:	74 28                     jz	405f91
  405f69:	8d 45 e4                  lea	eax, [ebp-1Ch]
  405f6c:	50                        push	eax
  405f6d:	ff 33                     push	dword [ebx]
  405f6f:	ff 15 d4 32 41 00         call	dword [004132D4h]	; <IsDialogMessageA>
  405f75:	85 c0                     test	eax, eax
  405f77:	75 14                     jnz	405f8d
  405f79:	8d 45 e4                  lea	eax, [ebp-1Ch]
  405f7c:	50                        push	eax
  405f7d:	ff 15 f4 32 41 00         call	dword [004132F4h]	; <TranslateMessage>
  405f83:	8d 45 e4                  lea	eax, [ebp-1Ch]
  405f86:	50                        push	eax
  405f87:	ff 15 f0 32 41 00         call	dword [004132F0h]	; <DispatchMessageA>
  405f8d:	6a 01                    >push	dword 00000001h
  405f8f:	eb cb                     jmp	405f5c
  405f91:	ff 33                    >push	dword [ebx]
  405f93:	ff 15 b4 32 41 00         call	dword [004132B4h]	; <IsWindow>
  405f99:	85 c0                     test	eax, eax
  405f9b:	75 bb                     jnz	405f58
  405f9d:	8b 7b 38                 >mov	edi, [ebx+38h]
  405fa0:	53                        push	ebx
  405fa1:	e8 36 03 00 00            call	4062dc
  405fa6:	59                        pop	ecx
  405fa7:	8b c7                    >mov	eax, edi
  405fa9:	5f                        pop	edi
  405faa:	5e                        pop	esi
  405fab:	5b                        pop	ebx
  405fac:	c9                        leave
  405fad:	c3                        ret

405fae <no name>:
  405fae:	55                        push	ebp
  405faf:	8b ec                     mov	ebp, esp
  405fb1:	81 ec 08 01 00 00         sub	esp, 00000108h
  405fb7:	53                        push	ebx
  405fb8:	57                        push	edi
  405fb9:	6a 40                     push	dword 00000040h
  405fbb:	33 db                     xor	ebx, ebx
  405fbd:	59                        pop	ecx
  405fbe:	33 c0                     xor	eax, eax
  405fc0:	8d bd f9 fe ff ff         lea	edi, [ebp-00000107h]
  405fc6:	88 9d f8 fe ff ff         mov	[ebp-00000108h], bl
  405fcc:	f3 ab                     rep stosd
  405fce:	66 ab                     stosw
  405fd0:	aa                        stosb
  405fd1:	8d 85 f8 fe ff ff         lea	eax, [ebp-00000108h]
  405fd7:	6a 32                     push	dword 00000032h
  405fd9:	50                        push	eax
  405fda:	c7 45 fc 08 00 00 00      mov	dword [ebp-04h], 00000008h
  405fe1:	ff 75 08                  push	dword [ebp+08h]
  405fe4:	68 64 51 41 00            push	dword 00415164h
  405fe9:	e8 69 b4 ff ff            call	401457
  405fee:	83 c4 10                  add	esp, 10h
  405ff1:	85 c0                     test	eax, eax
  405ff3:	75 1e                     jnz	406013
  405ff5:	8d 85 f8 fe ff ff         lea	eax, [ebp-00000108h]
  405ffb:	6a 32                     push	dword 00000032h
  405ffd:	50                        push	eax
  405ffe:	ff 75 08                  push	dword [ebp+08h]
  406001:	53                        push	ebx
  406002:	ff 15 e0 30 41 00         call	dword [004130E0h]	; <GetModuleHandleA>
  406008:	50                        push	eax
  406009:	ff 15 3c 32 41 00         call	dword [0041323Ch]	; <LoadStringA>
  40600f:	85 c0                     test	eax, eax
  406011:	74 5a                     jz	40606d
  406013:	56                       >push	esi
  406014:	8d 85 f8 fe ff ff         lea	eax, [ebp-00000108h]
  40601a:	6a 2c                     push	dword 0000002Ch
  40601c:	50                        push	eax
  40601d:	e8 a8 1f 00 00            call	407fca
  406022:	8b f0                     mov	esi, eax
  406024:	59                        pop	ecx
  406025:	3b f3                     cmp	esi, ebx
  406027:	59                        pop	ecx
  406028:	75 0b                     jnz	406035
  40602a:	8b 7d fc                  mov	edi, [ebp-04h]
  40602d:	8d b5 f8 fe ff ff         lea	esi, [ebp-00000108h]
  406033:	eb 12                     jmp	406047
  406035:	8d 85 f8 fe ff ff        >lea	eax, [ebp-00000108h]
  40603b:	88 1e                     mov	[esi], bl
  40603d:	50                        push	eax
  40603e:	46                        inc	esi
  40603f:	e8 fb 1e 00 00            call	407f3f
  406044:	59                        pop	ecx
  406045:	8b f8                     mov	edi, eax
  406047:	38 1e                    >cmp	[esi], bl
  406049:	75 05                     jnz	406050
  40604b:	be 98 52 41 00            mov	esi, 00415298h
  406050:	39 5d 0c                 >cmp	[ebp+0Ch], ebx
  406053:	74 0a                     jz	40605f
  406055:	56                        push	esi
  406056:	ff 75 0c                  push	dword [ebp+0Ch]
  406059:	ff 15 54 31 41 00         call	dword [00413154h]	; <lstrcpyA>
  40605f:	8b 45 10                 >mov	eax, [ebp+10h]
  406062:	5e                        pop	esi
  406063:	3b c3                     cmp	eax, ebx
  406065:	74 03                     jz	40606a
  406067:	66 89 38                  mov	[eax], di
  40606a:	6a 01                    >push	dword 00000001h
  40606c:	58                        pop	eax
  40606d:	5f                       >pop	edi
  40606e:	5b                        pop	ebx
  40606f:	c9                        leave
  406070:	c3                        ret

406071 <no name>:
  406071:	b8 0c 2b 41 00            mov	eax, 00412B0Ch
  406076:	e8 ad 28 00 00            call	408928
  40607b:	83 ec 54                  sub	esp, 54h
  40607e:	57                        push	edi
  40607f:	8d 4d e0                  lea	ecx, [ebp-20h]
  406082:	ff 75 0c                  push	dword [ebp+0Ch]
  406085:	c7 45 f0 08 00 00 00      mov	dword [ebp-10h], 00000008h
  40608c:	e8 9d f6 ff ff            call	40572e
  406091:	80 65 a0 00               and	byte [ebp-60h], 00h
  406095:	6a 0f                     push	dword 0000000Fh
  406097:	59                        pop	ecx
  406098:	33 c0                     xor	eax, eax
  40609a:	8d 7d a1                  lea	edi, [ebp-5Fh]
  40609d:	83 65 fc 00               and	dword [ebp-04h], 00h
  4060a1:	f3 ab                     rep stosd
  4060a3:	66 ab                     stosw
  4060a5:	aa                        stosb
  4060a6:	8d 45 f0                  lea	eax, [ebp-10h]
  4060a9:	50                        push	eax
  4060aa:	8d 45 a0                  lea	eax, [ebp-60h]
  4060ad:	50                        push	eax
  4060ae:	68 72 17 00 00            push	dword 00001772h
  4060b3:	e8 f6 fe ff ff            call	405fae
  4060b8:	83 c4 0c                  add	esp, 0Ch
  4060bb:	85 c0                     test	eax, eax
  4060bd:	5f                        pop	edi
  4060be:	74 3b                     jz	4060fb
  4060c0:	ff 15 8c 30 41 00         call	dword [0041308Ch]	; <GetSystemDefaultLCID>
  4060c6:	2d 11 04 00 00            sub	eax, 00000411h
  4060cb:	f7 d8                     neg	eax
  4060cd:	1a c0                     sbb	al, al
  4060cf:	24 81                     and	al, 81h
  4060d1:	04 80                     add	al, 80h
  4060d3:	88 45 0c                  mov	[ebp+0Ch], al
  4060d6:	8d 45 a0                  lea	eax, [ebp-60h]
  4060d9:	50                        push	eax
  4060da:	8d 45 a0                  lea	eax, [ebp-60h]
  4060dd:	ff 75 0c                  push	dword [ebp+0Ch]
  4060e0:	50                        push	eax
  4060e1:	e8 e2 f9 ff ff            call	405ac8
  4060e6:	83 c4 0c                  add	esp, 0Ch
  4060e9:	8d 45 a0                  lea	eax, [ebp-60h]
  4060ec:	8d 4d e0                  lea	ecx, [ebp-20h]
  4060ef:	ff 75 f0                  push	dword [ebp-10h]
  4060f2:	ff 75 0c                  push	dword [ebp+0Ch]
  4060f5:	50                        push	eax
  4060f6:	e8 5e f7 ff ff            call	405859
  4060fb:	56                       >push	esi
  4060fc:	ff 75 18                  push	dword [ebp+18h]
  4060ff:	ff 75 14                  push	dword [ebp+14h]
  406102:	ff 75 10                  push	dword [ebp+10h]
  406105:	ff 75 e8                  push	dword [ebp-18h]
  406108:	ff 75 08                  push	dword [ebp+08h]
  40610b:	ff 15 bc 32 41 00         call	dword [004132BCh]	; <CreateDialogIndirectParamA>
  406111:	83 4d fc ff               or	dword [ebp-04h], FFh
  406115:	8d 4d e0                  lea	ecx, [ebp-20h]
  406118:	8b f0                     mov	esi, eax
  40611a:	e8 84 f6 ff ff            call	4057a3
  40611f:	8b 4d f4                  mov	ecx, [ebp-0Ch]
  406122:	8b c6                     mov	eax, esi
  406124:	5e                        pop	esi
  406125:	64 89 0d 00 00 00 00      mov	[fs:00000000h], ecx
  40612c:	c9                        leave
  40612d:	c3                        ret
     ...

4061fb <no name>:
  4061fb:	83 7c 24 04 00            cmp	dword [esp+04h], 00h
  406200:	74 14                     jz	406216
  406202:	ff 74 24 04               push	dword [esp+04h]
  406206:	6a 08                     push	dword 00000008h
  406208:	ff 15 04 31 41 00         call	dword [00413104h]	; <GetProcessHeap>
  40620e:	50                        push	eax
  40620f:	ff 15 00 31 41 00         call	dword [00413100h]	; <HeapAlloc>
  406215:	c3                        ret
  406216:	33 c0                    >xor	eax, eax
  406218:	c3                        ret

406219 <no name>:
  406219:	83 7c 24 04 00            cmp	dword [esp+04h], 00h
  40621e:	74 13                     jz	406233
  406220:	ff 74 24 04               push	dword [esp+04h]
  406224:	6a 00                     push	dword 00000000h
  406226:	ff 15 04 31 41 00         call	dword [00413104h]	; <GetProcessHeap>
  40622c:	50                        push	eax
  40622d:	ff 15 08 31 41 00         call	dword [00413108h]	; <HeapFree>
  406233:	c3                       >ret

406234 <no name>:
  406234:	55                        push	ebp
  406235:	8b ec                     mov	ebp, esp
  406237:	53                        push	ebx
  406238:	56                        push	esi
  406239:	57                        push	edi
  40623a:	6a 3c                     push	dword 0000003Ch
  40623c:	e8 ba ff ff ff            call	4061fb
  406241:	8b f0                     mov	esi, eax
  406243:	33 db                     xor	ebx, ebx
  406245:	3b f3                     cmp	esi, ebx
  406247:	59                        pop	ecx
  406248:	0f 84 87 00 00 00         jz	4062d5
  40624e:	8b 7d 08                  mov	edi, [ebp+08h]
  406251:	8b 47 0c                  mov	eax, [edi+0Ch]
  406254:	8d 04 c0                  lea	eax, [eax+eax*8]
  406257:	c1 e0 02                  shl	eax, 02h
  40625a:	50                        push	eax
  40625b:	e8 9b ff ff ff            call	4061fb
  406260:	3b c3                     cmp	eax, ebx
  406262:	59                        pop	ecx
  406263:	89 46 2c                  mov	[esi+2Ch], eax
  406266:	75 0b                     jnz	406273
  406268:	56                        push	esi
  406269:	e8 ab ff ff ff            call	406219
  40626e:	59                        pop	ecx
  40626f:	33 f6                     xor	esi, esi
  406271:	eb 62                     jmp	4062d5
  406273:	6a 28                    >push	dword 00000028h
  406275:	8d 46 04                  lea	eax, [esi+04h]
  406278:	57                        push	edi
  406279:	50                        push	eax
  40627a:	e8 71 14 00 00            call	4076f0
  40627f:	83 c4 0c                  add	esp, 0Ch
  406282:	39 5e 10                  cmp	[esi+10h], ebx
  406285:	76 2b                     jbe	4062b2
  406287:	33 ff                     xor	edi, edi
  406289:	21 7d 08                  and	[ebp+08h], edi
  40628c:	8b 46 18                 >mov	eax, [esi+18h]
  40628f:	6a 20                     push	dword 00000020h
  406291:	03 45 08                  add	eax, [ebp+08h]
  406294:	50                        push	eax
  406295:	8b 46 2c                  mov	eax, [esi+2Ch]
  406298:	8d 44 38 04               lea	eax, [eax+edi*1+04h]
  40629c:	50                        push	eax
  40629d:	e8 4e 14 00 00            call	4076f0
  4062a2:	83 45 08 20               add	dword [ebp+08h], 20h
  4062a6:	83 c4 0c                  add	esp, 0Ch
  4062a9:	43                        inc	ebx
  4062aa:	83 c7 24                  add	edi, 24h
  4062ad:	3b 5e 10                  cmp	ebx, [esi+10h]
  4062b0:	72 da                     jb	40628c
  4062b2:	8b 0d 10 63 41 00        >mov	ecx, [00416310h]
  4062b8:	85 c9                     test	ecx, ecx
  4062ba:	75 08                     jnz	4062c4
  4062bc:	89 35 10 63 41 00         mov	[00416310h], esi
  4062c2:	eb 11                     jmp	4062d5
  4062c4:	8b 41 34                 >mov	eax, [ecx+34h]
  4062c7:	85 c0                    >test	eax, eax
  4062c9:	74 07                     jz	4062d2
  4062cb:	8b c8                     mov	ecx, eax
  4062cd:	8b 40 34                  mov	eax, [eax+34h]
  4062d0:	eb f5                     jmp	4062c7
  4062d2:	89 71 34                 >mov	[ecx+34h], esi
  4062d5:	8b c6                    >mov	eax, esi
  4062d7:	5f                        pop	edi
  4062d8:	5e                        pop	esi
  4062d9:	5b                        pop	ebx
  4062da:	5d                        pop	ebp
  4062db:	c3                        ret

4062dc <no name>:
  4062dc:	56                        push	esi
  4062dd:	8b 74 24 08               mov	esi, [esp+08h]
  4062e1:	85 f6                     test	esi, esi
  4062e3:	74 40                     jz	406325
  4062e5:	8b 0d 10 63 41 00         mov	ecx, [00416310h]
  4062eb:	3b ce                     cmp	ecx, esi
  4062ed:	75 0a                     jnz	4062f9
  4062ef:	8b 46 34                  mov	eax, [esi+34h]
  4062f2:	a3 10 63 41 00            mov	[416310h], eax
  4062f7:	eb 1c                     jmp	406315
  4062f9:	8b 41 34                 >mov	eax, [ecx+34h]
  4062fc:	85 c0                    >test	eax, eax
  4062fe:	74 0b                     jz	40630b
