File: Mindstation/LeapFrog/LbkUtils.exe
Module type: PE (Portable Executable)

Flags: 0x010f (relocations stripped, executable, line numbers stripped, local symbols stripped, 32-bit)
Image type: 32-bit
File version: 0.0
Linker version: 6.0
Program entry point: 0x408806
Base of code section: 0x1000
Base of data section: 0xa000
Preferred base address: 0x400000
Required OS version: 4.0
Subsystem: CUI
Subsystem version: 4.0
DLL flags: 0x0000 ()
Stack size (reserve): 1048576 bytes
Stack size (commit): 4096 bytes
Heap size (reserve): 1048576 bytes
Heap size (commit): 4096 bytes

No export table

Imported modules:
	KERNEL32.dll
	zlib.dll
	Utils.dll
	MSVCP60.dll
	MSVCRT.dll

Imported functions:
	KERNEL32.dll:
		InterlockedIncrement
		InterlockedDecrement
	zlib.dll:
		<ordinal 26>
		<ordinal 2>
	Utils.dll:
		?ExtendFileName@FileLocation@@QBE?AV1@ABV?$basic_string@DU?$char_traits@D@std@@V?$allocator@D@2@@std@@@Z
		?GetTemporaryFileName@FileManager@@SA?AVFileLocation@@PBD@Z
		?Move@FileManager@@SAXABVFileLocation@@0@Z
		?FileName@FileLocation@@QBE?AV?$basic_string@DU?$char_traits@D@std@@V?$allocator@D@2@@std@@XZ
		??0FileLocation@@QAE@ABV0@@Z
		??1FileLocation@@QAE@XZ
		?makeLocation@FileManager@@SA?AVFileLocation@@ABV?$basic_string@DU?$char_traits@D@std@@V?$allocator@D@2@@std@@@Z
		?Open@FileLocation@@QBEPAU_iobuf@@PBD@Z
	MSVCP60.dll:
		??1?$basic_ios@DU?$char_traits@D@std@@@std@@UAE@XZ
		??6std@@YAAAV?$basic_ostream@DU?$char_traits@D@std@@@0@AAV10@PBD@Z
		?endl@std@@YAAAV?$basic_ostream@DU?$char_traits@D@std@@@1@AAV21@@Z
		??1ios_base@std@@UAE@XZ
		?find_last_of@?$basic_string@DU?$char_traits@D@std@@V?$allocator@D@2@@std@@QBEIPBDII@Z
		??0?$basic_string@DU?$char_traits@D@std@@V?$allocator@D@2@@std@@QAE@PBDABV?$allocator@D@1@@Z
		??0?$basic_string@DU?$char_traits@D@std@@V?$allocator@D@2@@std@@QAE@ABV?$allocator@D@1@@Z
		??_8?$basic_stringstream@DU?$char_traits@D@std@@V?$allocator@D@2@@std@@7B?$basic_istream@DU?$char_traits@D@std@@@1@@
		??_8?$basic_stringstream@DU?$char_traits@D@std@@V?$allocator@D@2@@std@@7B?$basic_ostream@DU?$char_traits@D@std@@@1@@
		?erase@?$basic_string@DU?$char_traits@D@std@@V?$allocator@D@2@@std@@QAEAAV12@II@Z
		??0?$basic_iostream@DU?$char_traits@D@std@@@std@@QAE@PAV?$basic_streambuf@DU?$char_traits@D@std@@@1@@Z
		??0?$basic_stringbuf@DU?$char_traits@D@std@@V?$allocator@D@2@@std@@QAE@H@Z
		??0?$basic_ios@DU?$char_traits@D@std@@@std@@IAE@XZ
		??6std@@YAAAV?$basic_ostream@DU?$char_traits@D@std@@@0@AAV10@ABV?$basic_string@DU?$char_traits@D@std@@V?$allocator@D@2@@0@@Z
		??_7?$basic_stringstream@DU?$char_traits@D@std@@V?$allocator@D@2@@std@@6B@
		?str@?$basic_stringstream@DU?$char_traits@D@std@@V?$allocator@D@2@@std@@QBE?AV?$basic_string@DU?$char_traits@D@std@@V?$allocator@D@2@@2@XZ
		??1?$basic_string@DU?$char_traits@D@std@@V?$allocator@D@2@@std@@QAE@XZ
		?_Copy@?$basic_string@DU?$char_traits@D@std@@V?$allocator@D@2@@std@@AAEXI@Z
		?_Tidy@?$basic_string@DU?$char_traits@D@std@@V?$allocator@D@2@@std@@AAEX_N@Z
		?_Xlen@std@@YAXXZ
		?_C@?1??_Nullstr@?$basic_string@DU?$char_traits@D@std@@V?$allocator@D@2@@std@@CAPBDXZ@4DB
		??0Init@ios_base@std@@QAE@XZ
		??1Init@ios_base@std@@QAE@XZ
		??0_Winit@std@@QAE@XZ
		??1_Winit@std@@QAE@XZ
		?cout@std@@3V?$basic_ostream@DU?$char_traits@D@std@@@1@A
		?_Eos@?$basic_string@DU?$char_traits@D@std@@V?$allocator@D@2@@std@@AAEXI@Z
		?_Grow@?$basic_string@DU?$char_traits@D@std@@V?$allocator@D@2@@std@@AAE_NI_N@Z
		?_Split@?$basic_string@DU?$char_traits@D@std@@V?$allocator@D@2@@std@@AAEXXZ
		?_Xran@std@@YAXXZ
		?npos@?$basic_string@DU?$char_traits@D@std@@V?$allocator@D@2@@std@@2IB
		?assign@?$basic_string@DU?$char_traits@D@std@@V?$allocator@D@2@@std@@QAEAAV12@ABV12@II@Z
		?substr@?$basic_string@DU?$char_traits@D@std@@V?$allocator@D@2@@std@@QBE?AV12@II@Z
		?assign@?$basic_string@DU?$char_traits@D@std@@V?$allocator@D@2@@std@@QAEAAV12@PBDI@Z
		??_7?$basic_stringbuf@DU?$char_traits@D@std@@V?$allocator@D@2@@std@@6B@
		??Hstd@@YA?AV?$basic_string@DU?$char_traits@D@std@@V?$allocator@D@2@@0@ABV10@PBD@Z
		??Hstd@@YA?AV?$basic_string@DU?$char_traits@D@std@@V?$allocator@D@2@@0@PBDABV10@@Z
		??Hstd@@YA?AV?$basic_string@DU?$char_traits@D@std@@V?$allocator@D@2@@0@ABV10@0@Z
		?append@?$basic_string@DU?$char_traits@D@std@@V?$allocator@D@2@@std@@QAEAAV12@ABV12@II@Z
		?append@?$basic_string@DU?$char_traits@D@std@@V?$allocator@D@2@@std@@QAEAAV12@PBDI@Z
		?_Refcnt@?$basic_string@DU?$char_traits@D@std@@V?$allocator@D@2@@std@@AAEAAEPBD@Z
		??1?$basic_streambuf@DU?$char_traits@D@std@@@std@@UAE@XZ
		??_D?$basic_stringstream@DU?$char_traits@D@std@@V?$allocator@D@2@@std@@QAEXXZ
		??1?$basic_iostream@DU?$char_traits@D@std@@@std@@UAE@XZ
		??_7?$basic_ios@DU?$char_traits@D@std@@@std@@6B@
		??_7?$basic_istream@DU?$char_traits@D@std@@@std@@6B@
		??_7?$basic_ostream@DU?$char_traits@D@std@@@std@@6B@
		??_7?$basic_iostream@DU?$char_traits@D@std@@@std@@6B@
		??1locale@std@@QAE@XZ
		??_7?$basic_streambuf@DU?$char_traits@D@std@@@std@@6B@
		?_Tidy@?$basic_stringbuf@DU?$char_traits@D@std@@V?$allocator@D@2@@std@@IAEXXZ
	MSVCRT.dll:
		_XcptFilter
		_onexit
		_exit
		__getmainargs
		exit
		__p___initenv
		_adjust_fdiv
		_initterm
		__setusermatherr
		__set_app_type
		__p__commode
		__p__fmode
		_controlfp
		_except_handler3
		__dllonexit
		_purecall
		fwrite
		free
		_mbsicmp
		__CxxFrameHandler
		fread
		fseek
		fclose
		strtoul
		??2@YAPAXI@Z
		_mbscmp
		sprintf
		memmove
		printf
		_ftol

Section .text (start = 0x1000, length = 0x9000, minimum allocation = 0x80cb):
    Address: 1000
    Flags: 0x60000020 (code, executable, readable)
    Alignment: 1 (2**0)

401000 <no name>:
  401000:	51                        push	ecx
  401001:	8b 44 24 0c               mov	eax, [esp+0Ch]
  401005:	8b 4c 24 08               mov	ecx, [esp+08h]
  401009:	50                        push	eax
  40100a:	51                        push	ecx
  40100b:	8d 4c 24 08               lea	ecx, [esp+08h]
  40100f:	c7 44 24 08 88 a1 40      mov	dword [esp+08h], 0040A188h
		00 
  401017:	e8 24 25 00 00            call	403540
  40101c:	59                        pop	ecx
  40101d:	c3                        ret
     ...

401020 <no name>:
  401020:	51                        push	ecx
  401021:	8a 54 24 03               mov	dl, [esp+03h]
  401025:	8b c1                     mov	eax, ecx
  401027:	33 c9                     xor	ecx, ecx
  401029:	89 48 04                  mov	[eax+04h], ecx
  40102c:	89 48 08                  mov	[eax+08h], ecx
  40102f:	89 48 0c                  mov	[eax+0Ch], ecx
  401032:	88 50 10                  mov	[eax+10h], dl
  401035:	8a 54 24 03               mov	dl, [esp+03h]
  401039:	89 48 14                  mov	[eax+14h], ecx
  40103c:	89 48 18                  mov	[eax+18h], ecx
  40103f:	89 48 1c                  mov	[eax+1Ch], ecx
  401042:	88 50 20                  mov	[eax+20h], dl
  401045:	89 48 24                  mov	[eax+24h], ecx
  401048:	89 48 28                  mov	[eax+28h], ecx
  40104b:	89 48 2c                  mov	[eax+2Ch], ecx
  40104e:	c7 40 30 ff ff ff ff      mov	dword [eax+30h], FFFFFFFFh
  401055:	c7 00 8c a1 40 00         mov	dword [eax], 0040A18Ch
  40105b:	59                        pop	ecx
  40105c:	c3                        ret
     ...

401080 <no name>:
  401080:	6a ff                     push	dword FFFFFFFFh
  401082:	68 68 89 40 00            push	dword 00408968h
  401087:	64 a1 00 00 00 00         mov	eax, [fs:0000h]
  40108d:	50                        push	eax
  40108e:	64 89 25 00 00 00 00      mov	[fs:00000000h], esp
  401095:	51                        push	ecx
  401096:	53                        push	ebx
  401097:	56                        push	esi
  401098:	8b f1                     mov	esi, ecx
  40109a:	89 74 24 08               mov	[esp+08h], esi
  40109e:	c7 06 8c a1 40 00         mov	dword [esi], 0040A18Ch
  4010a4:	c7 44 24 14 01 00 00      mov	dword [esp+14h], 00000001h
		00 
  4010ac:	e8 9f 02 00 00            call	401350
  4010b1:	8b 46 24                  mov	eax, [esi+24h]
  4010b4:	33 db                     xor	ebx, ebx
  4010b6:	3b c3                     cmp	eax, ebx
  4010b8:	74 1d                     jz	4010d7
  4010ba:	8d 48 ff                  lea	ecx, [eax-01h]
  4010bd:	8a 40 ff                  mov	al, [eax-01h]
  4010c0:	3a c3                     cmp	al, bl
  4010c2:	74 0a                     jz	4010ce
  4010c4:	3c ff                     cmp	al, FFh
  4010c6:	74 06                     jz	4010ce
  4010c8:	fe c8                     dec	al
  4010ca:	88 01                     mov	[ecx], al
  4010cc:	eb 09                     jmp	4010d7
  4010ce:	51                       >push	ecx
  4010cf:	e8 78 76 00 00            call	40874c
  4010d4:	83 c4 04                  add	esp, 04h
  4010d7:	89 5e 24                 >mov	[esi+24h], ebx
  4010da:	89 5e 28                  mov	[esi+28h], ebx
  4010dd:	89 5e 2c                  mov	[esi+2Ch], ebx
  4010e0:	8b 46 14                  mov	eax, [esi+14h]
  4010e3:	3b c3                     cmp	eax, ebx
  4010e5:	74 1d                     jz	401104
  4010e7:	8d 48 ff                  lea	ecx, [eax-01h]
  4010ea:	8a 40 ff                  mov	al, [eax-01h]
  4010ed:	3a c3                     cmp	al, bl
  4010ef:	74 0a                     jz	4010fb
  4010f1:	3c ff                     cmp	al, FFh
  4010f3:	74 06                     jz	4010fb
  4010f5:	fe c8                     dec	al
  4010f7:	88 01                     mov	[ecx], al
  4010f9:	eb 09                     jmp	401104
  4010fb:	51                       >push	ecx
  4010fc:	e8 4b 76 00 00            call	40874c
  401101:	83 c4 04                  add	esp, 04h
  401104:	8b 4c 24 0c              >mov	ecx, [esp+0Ch]
  401108:	89 5e 14                  mov	[esi+14h], ebx
  40110b:	89 5e 18                  mov	[esi+18h], ebx
  40110e:	89 5e 1c                  mov	[esi+1Ch], ebx
  401111:	5e                        pop	esi
  401112:	5b                        pop	ebx
  401113:	64 89 0d 00 00 00 00      mov	[fs:00000000h], ecx
  40111a:	83 c4 10                  add	esp, 10h
  40111d:	c3                        ret
     ...

401120 <no name>:
  401120:	81 ec 08 01 00 00         sub	esp, 00000108h
  401126:	56                        push	esi
  401127:	8b f1                     mov	esi, ecx
  401129:	57                        push	edi
  40112a:	89 74 24 08               mov	[esp+08h], esi
  40112e:	e8 1d 02 00 00            call	401350
  401133:	8b 8c 24 14 01 00 00      mov	ecx, [esp+00000114h]
  40113a:	68 50 c0 40 00            push	dword 0040C050h
  40113f:	ff 15 74 a1 40 00         call	dword [0040A174h]	; <?Open@FileLocation@@QBEPAU_iobuf@@PBD@Z>
  401145:	85 c0                     test	eax, eax
  401147:	89 46 04                  mov	[esi+04h], eax
  40114a:	75 10                     jnz	40115c
  40114c:	5f                        pop	edi
  40114d:	b8 8a 00 00 00            mov	eax, 0000008Ah
  401152:	5e                        pop	esi
  401153:	81 c4 08 01 00 00         add	esp, 00000108h
  401159:	c2 04 00                  ret	0004h
  40115c:	8b ce                    >mov	ecx, esi
  40115e:	e8 2d 07 00 00            call	401890
  401163:	83 f8 6e                  cmp	eax, 6Eh
  401166:	0f 85 cc 01 00 00         jnz	401338
  40116c:	83 7e 0c 01               cmp	dword [esi+0Ch], 01h
  401170:	75 21                     jnz	401193
  401172:	8b 46 04                  mov	eax, [esi+04h]
  401175:	6a 00                     push	dword 00000000h
  401177:	6a 00                     push	dword 00000000h
  401179:	50                        push	eax
  40117a:	ff 15 30 a1 40 00         call	dword [0040A130h]	; <fseek>
  401180:	83 c4 0c                  add	esp, 0Ch
  401183:	b8 6e 00 00 00            mov	eax, 0000006Eh
  401188:	5f                        pop	edi
  401189:	5e                        pop	esi
  40118a:	81 c4 08 01 00 00         add	esp, 00000108h
  401190:	c2 04 00                  ret	0004h
  401193:	8d 4c 24 0c              >lea	ecx, [esp+0Ch]
  401197:	51                        push	ecx
  401198:	8b ce                     mov	ecx, esi
  40119a:	e8 91 07 00 00            call	401930
  40119f:	83 f8 6e                  cmp	eax, 6Eh
  4011a2:	0f 85 90 01 00 00         jnz	401338
  4011a8:	8b 56 04                  mov	edx, [esi+04h]
  4011ab:	8b 3d 2c a1 40 00         mov	edi, [0040A12Ch]
  4011b1:	52                        push	edx
  4011b2:	68 80 00 00 00            push	dword 00000080h
  4011b7:	8d 44 24 18               lea	eax, [esp+18h]
  4011bb:	6a 01                     push	dword 00000001h
  4011bd:	50                        push	eax
  4011be:	ff d7                     call	edi
  4011c0:	83 c4 10                  add	esp, 10h
  4011c3:	3d 80 00 00 00            cmp	eax, 00000080h
  4011c8:	74 10                     jz	4011da
  4011ca:	5f                        pop	edi
  4011cb:	b8 70 00 00 00            mov	eax, 00000070h
  4011d0:	5e                        pop	esi
  4011d1:	81 c4 08 01 00 00         add	esp, 00000108h
  4011d7:	c2 04 00                  ret	0004h
  4011da:	8b 4e 04                 >mov	ecx, [esi+04h]
  4011dd:	53                        push	ebx
  4011de:	55                        push	ebp
  4011df:	51                        push	ecx
  4011e0:	68 80 00 00 00            push	dword 00000080h
  4011e5:	8d 94 24 a0 00 00 00      lea	edx, [esp+000000A0h]
  4011ec:	6a 01                     push	dword 00000001h
  4011ee:	52                        push	edx
  4011ef:	ff d7                     call	edi
  4011f1:	8d 7c 24 28               lea	edi, [esp+28h]
  4011f5:	83 c9 ff                  or	ecx, FFh
  4011f8:	33 c0                     xor	eax, eax
  4011fa:	83 c4 10                  add	esp, 10h
  4011fd:	f2 ae                     repne scasb
  4011ff:	f7 d1                     not	ecx
  401201:	49                        dec	ecx
  401202:	8d 5e 10                  lea	ebx, [esi+10h]
  401205:	8b e9                     mov	ebp, ecx
  401207:	83 fd fd                  cmp	ebp, FDh
  40120a:	76 06                     jbe	401212
  40120c:	ff 15 58 a0 40 00         call	dword [0040A058h]	; <?_Xlen@std@@YAXXZ>
  401212:	8b 4b 04                 >mov	ecx, [ebx+04h]
  401215:	85 c9                     test	ecx, ecx
  401217:	74 1f                     jz	401238
  401219:	8a 41 ff                  mov	al, [ecx-01h]
  40121c:	84 c0                     test	al, al
  40121e:	74 18                     jz	401238
  401220:	3c ff                     cmp	al, FFh
  401222:	74 14                     jz	401238
  401224:	85 ed                     test	ebp, ebp
  401226:	75 36                     jnz	40125e
  401228:	fe c8                     dec	al
  40122a:	55                        push	ebp
  40122b:	88 41 ff                  mov	[ecx-01h], al
  40122e:	8b cb                     mov	ecx, ebx
  401230:	ff 15 54 a0 40 00         call	dword [0040A054h]	; <?_Tidy@?$basic_string@DU?$char_traits@D@std@@V?$allocator@D@2@@std@@AAEX_N@Z>
  401236:	eb 54                     jmp	40128c
  401238:	85 ed                    >test	ebp, ebp
  40123a:	75 0c                     jnz	401248
  40123c:	6a 01                     push	dword 00000001h
  40123e:	8b cb                     mov	ecx, ebx
  401240:	ff 15 54 a0 40 00         call	dword [0040A054h]	; <?_Tidy@?$basic_string@DU?$char_traits@D@std@@V?$allocator@D@2@@std@@AAEX_N@Z>
  401246:	eb 44                     jmp	40128c
  401248:	8b 43 0c                 >mov	eax, [ebx+0Ch]
  40124b:	83 f8 1f                  cmp	eax, 1Fh
  40124e:	77 04                     ja	401254
  401250:	3b c5                     cmp	eax, ebp
  401252:	73 13                     jae	401267
  401254:	6a 01                    >push	dword 00000001h
  401256:	8b cb                     mov	ecx, ebx
  401258:	ff 15 54 a0 40 00         call	dword [0040A054h]	; <?_Tidy@?$basic_string@DU?$char_traits@D@std@@V?$allocator@D@2@@std@@AAEX_N@Z>
  40125e:	55                       >push	ebp
  40125f:	8b cb                     mov	ecx, ebx
  401261:	ff 15 50 a0 40 00         call	dword [0040A050h]	; <?_Copy@?$basic_string@DU?$char_traits@D@std@@V?$allocator@D@2@@std@@AAEXI@Z>
  401267:	8b 7b 04                 >mov	edi, [ebx+04h]
  40126a:	8b cd                     mov	ecx, ebp
  40126c:	8b c1                     mov	eax, ecx
  40126e:	8d 74 24 18               lea	esi, [esp+18h]
  401272:	c1 e9 02                  shr	ecx, 02h
  401275:	f3 a5                     rep movsd
  401277:	8b c8                     mov	ecx, eax
  401279:	83 e1 03                  and	ecx, 03h
  40127c:	f3 a4                     rep movsb
  40127e:	8b 4b 04                  mov	ecx, [ebx+04h]
  401281:	8b 74 24 10               mov	esi, [esp+10h]
  401285:	89 6b 08                  mov	[ebx+08h], ebp
  401288:	c6 04 29 00               mov	byte [ecx+ebp*1], 00h
  40128c:	8d bc 24 98 00 00 00     >lea	edi, [esp+00000098h]
  401293:	83 c9 ff                  or	ecx, FFh
  401296:	33 c0                     xor	eax, eax
  401298:	8d 5e 20                  lea	ebx, [esi+20h]
  40129b:	f2 ae                     repne scasb
  40129d:	f7 d1                     not	ecx
  40129f:	49                        dec	ecx
  4012a0:	8b e9                     mov	ebp, ecx
  4012a2:	83 fd fd                  cmp	ebp, FDh
  4012a5:	76 06                     jbe	4012ad
  4012a7:	ff 15 58 a0 40 00         call	dword [0040A058h]	; <?_Xlen@std@@YAXXZ>
  4012ad:	8b 4b 04                 >mov	ecx, [ebx+04h]
  4012b0:	85 c9                     test	ecx, ecx
  4012b2:	74 1f                     jz	4012d3
  4012b4:	8a 41 ff                  mov	al, [ecx-01h]
  4012b7:	84 c0                     test	al, al
  4012b9:	74 18                     jz	4012d3
  4012bb:	3c ff                     cmp	al, FFh
  4012bd:	74 14                     jz	4012d3
  4012bf:	85 ed                     test	ebp, ebp
  4012c1:	75 36                     jnz	4012f9
  4012c3:	fe c8                     dec	al
  4012c5:	55                        push	ebp
  4012c6:	88 41 ff                  mov	[ecx-01h], al
  4012c9:	8b cb                     mov	ecx, ebx
  4012cb:	ff 15 54 a0 40 00         call	dword [0040A054h]	; <?_Tidy@?$basic_string@DU?$char_traits@D@std@@V?$allocator@D@2@@std@@AAEX_N@Z>
  4012d1:	eb 57                     jmp	40132a
  4012d3:	85 ed                    >test	ebp, ebp
  4012d5:	75 0c                     jnz	4012e3
  4012d7:	6a 01                     push	dword 00000001h
  4012d9:	8b cb                     mov	ecx, ebx
  4012db:	ff 15 54 a0 40 00         call	dword [0040A054h]	; <?_Tidy@?$basic_string@DU?$char_traits@D@std@@V?$allocator@D@2@@std@@AAEX_N@Z>
  4012e1:	eb 47                     jmp	40132a
  4012e3:	8b 43 0c                 >mov	eax, [ebx+0Ch]
  4012e6:	83 f8 1f                  cmp	eax, 1Fh
  4012e9:	77 04                     ja	4012ef
  4012eb:	3b c5                     cmp	eax, ebp
  4012ed:	73 13                     jae	401302
  4012ef:	6a 01                    >push	dword 00000001h
  4012f1:	8b cb                     mov	ecx, ebx
  4012f3:	ff 15 54 a0 40 00         call	dword [0040A054h]	; <?_Tidy@?$basic_string@DU?$char_traits@D@std@@V?$allocator@D@2@@std@@AAEX_N@Z>
  4012f9:	55                       >push	ebp
  4012fa:	8b cb                     mov	ecx, ebx
  4012fc:	ff 15 50 a0 40 00         call	dword [0040A050h]	; <?_Copy@?$basic_string@DU?$char_traits@D@std@@V?$allocator@D@2@@std@@AAEXI@Z>
  401302:	8b 7b 04                 >mov	edi, [ebx+04h]
  401305:	8b cd                     mov	ecx, ebp
  401307:	8b d1                     mov	edx, ecx
  401309:	8d b4 24 98 00 00 00      lea	esi, [esp+00000098h]
  401310:	c1 e9 02                  shr	ecx, 02h
  401313:	f3 a5                     rep movsd
  401315:	8b ca                     mov	ecx, edx
  401317:	83 e1 03                  and	ecx, 03h
  40131a:	f3 a4                     rep movsb
  40131c:	8b 43 04                  mov	eax, [ebx+04h]
  40131f:	8b 74 24 10               mov	esi, [esp+10h]
  401323:	89 6b 08                  mov	[ebx+08h], ebp
  401326:	c6 04 28 00               mov	byte [eax+ebp*1], 00h
  40132a:	8b 4c 24 14              >mov	ecx, [esp+14h]
  40132e:	5d                        pop	ebp
  40132f:	89 4e 30                  mov	[esi+30h], ecx
  401332:	5b                        pop	ebx
  401333:	b8 6e 00 00 00            mov	eax, 0000006Eh
  401338:	5f                       >pop	edi
  401339:	5e                        pop	esi
  40133a:	81 c4 08 01 00 00         add	esp, 00000108h
  401340:	c2 04 00                  ret	0004h
     ...

401350 <no name>:
  401350:	56                        push	esi
  401351:	8b f1                     mov	esi, ecx
  401353:	8b 46 04                  mov	eax, [esi+04h]
  401356:	85 c0                     test	eax, eax
  401358:	74 18                     jz	401372
  40135a:	50                        push	eax
  40135b:	ff 15 34 a1 40 00         call	dword [0040A134h]	; <fclose>
  401361:	83 c4 04                  add	esp, 04h
  401364:	c7 46 04 00 00 00 00      mov	dword [esi+04h], 00000000h
  40136b:	c7 46 0c 00 00 00 00      mov	dword [esi+0Ch], 00000000h
  401372:	5e                       >pop	esi
  401373:	c3                        ret
     ...

401380 <no name>:
  401380:	8b 41 0c                  mov	eax, [ecx+0Ch]
  401383:	c3                        ret
     ...

401390 <no name>:
  401390:	8d 41 10                  lea	eax, [ecx+10h]
  401393:	c3                        ret
     ...

4013a0 <no name>:
  4013a0:	8d 41 20                  lea	eax, [ecx+20h]
  4013a3:	c3                        ret
     ...

4013b0 <no name>:
  4013b0:	8b 41 30                  mov	eax, [ecx+30h]
  4013b3:	c3                        ret
     ...

4013c0 <no name>:
  4013c0:	83 ec 20                  sub	esp, 20h
  4013c3:	56                        push	esi
  4013c4:	8b f1                     mov	esi, ecx
  4013c6:	57                        push	edi
  4013c7:	8b 7c 24 2c               mov	edi, [esp+2Ch]
  4013cb:	8b 46 04                  mov	eax, [esi+04h]
  4013ce:	8d 4c 24 08               lea	ecx, [esp+08h]
  4013d2:	50                        push	eax
  4013d3:	57                        push	edi
  4013d4:	6a 01                     push	dword 00000001h
  4013d6:	51                        push	ecx
  4013d7:	ff 15 2c a1 40 00         call	dword [0040A12Ch]	; <fread>
  4013dd:	83 c4 10                  add	esp, 10h
  4013e0:	3b f8                     cmp	edi, eax
  4013e2:	74 14                     jz	4013f8
  4013e4:	8b ce                     mov	ecx, esi
  4013e6:	e8 65 ff ff ff            call	401350
  4013eb:	5f                        pop	edi
  4013ec:	b8 72 00 00 00            mov	eax, 00000072h
  4013f1:	5e                        pop	esi
  4013f2:	83 c4 20                  add	esp, 20h
  4013f5:	c2 08 00                  ret	0008h
  4013f8:	8d 54 24 2c              >lea	edx, [esp+2Ch]
  4013fc:	6a 10                     push	dword 00000010h
  4013fe:	8d 44 24 0c               lea	eax, [esp+0Ch]
  401402:	52                        push	edx
  401403:	50                        push	eax
  401404:	c6 44 3c 14 00            mov	byte [esp+edi*1+14h], 00h
  401409:	ff 15 38 a1 40 00         call	dword [0040A138h]	; <strtoul>
  40140f:	8b 4c 24 3c               mov	ecx, [esp+3Ch]
  401413:	83 c4 0c                  add	esp, 0Ch
  401416:	89 01                     mov	[ecx], eax
  401418:	5f                        pop	edi
  401419:	b8 6e 00 00 00            mov	eax, 0000006Eh
  40141e:	5e                        pop	esi
  40141f:	83 c4 20                  add	esp, 20h
  401422:	c2 08 00                  ret	0008h
     ...

401430 <no name>:
  401430:	83 ec 44                  sub	esp, 44h
  401433:	a1 54 c0 40 00            mov	eax, [40C054h]
  401438:	56                        push	esi
  401439:	8b f1                     mov	esi, ecx
  40143b:	8b 08                     mov	ecx, [eax]
  40143d:	89 4c 24 04               mov	[esp+04h], ecx
  401441:	8b 50 04                  mov	edx, [eax+04h]
  401444:	8b ce                     mov	ecx, esi
  401446:	89 54 24 08               mov	[esp+08h], edx
  40144a:	e8 41 04 00 00            call	401890
  40144f:	83 f8 6e                  cmp	eax, 6Eh
  401452:	0f 85 8c 00 00 00         jnz	4014e4
  401458:	8d 44 24 0c               lea	eax, [esp+0Ch]
  40145c:	8b ce                     mov	ecx, esi
  40145e:	50                        push	eax
  40145f:	6a 08                     push	dword 00000008h
  401461:	e8 5a ff ff ff            call	4013c0
  401466:	83 f8 6e                  cmp	eax, 6Eh
  401469:	75 79                     jnz	4014e4
  40146b:	8d 4c 24 10               lea	ecx, [esp+10h]
  40146f:	51                        push	ecx
  401470:	6a 08                     push	dword 00000008h
  401472:	8b ce                     mov	ecx, esi
  401474:	e8 47 ff ff ff            call	4013c0
  401479:	83 f8 6e                  cmp	eax, 6Eh
  40147c:	75 66                     jnz	4014e4
  40147e:	8b 54 24 0c               mov	edx, [esp+0Ch]
  401482:	8b 74 24 50               mov	esi, [esp+50h]
  401486:	53                        push	ebx
  401487:	8b 5c 24 14               mov	ebx, [esp+14h]
  40148b:	83 fa ff                  cmp	edx, FFh
  40148e:	57                        push	edi
  40148f:	75 07                     jnz	401498
  401491:	85 db                     test	ebx, ebx
  401493:	75 03                     jnz	401498
  401495:	c6 06 01                  mov	byte [esi], 01h
  401498:	b9 07 00 00 00           >mov	ecx, 00000007h
  40149d:	33 c0                     xor	eax, eax
  40149f:	8d 7c 24 30               lea	edi, [esp+30h]
  4014a3:	c7 44 24 28 00 00 00      mov	dword [esp+28h], 00000000h
		00 
  4014ab:	f3 ab                     rep stosd
  4014ad:	8b 44 24 54               mov	eax, [esp+54h]
  4014b1:	8d 4b 01                  lea	ecx, [ebx+01h]
  4014b4:	5f                        pop	edi
  4014b5:	5b                        pop	ebx
  4014b6:	89 50 04                  mov	[eax+04h], edx
  4014b9:	8b 54 24 20               mov	edx, [esp+20h]
  4014bd:	c7 00 02 00 00 00         mov	dword [eax], 00000002h
  4014c3:	89 48 08                  mov	[eax+08h], ecx
  4014c6:	89 50 0c                  mov	[eax+0Ch], edx
  4014c9:	89 48 10                  mov	[eax+10h], ecx
  4014cc:	c7 40 30 01 00 00 00      mov	dword [eax+30h], 00000001h
  4014d3:	8a 0e                     mov	cl, [esi]
  4014d5:	84 c9                     test	cl, cl
  4014d7:	74 06                     jz	4014df
  4014d9:	c7 00 ff ff ff ff         mov	dword [eax], FFFFFFFFh
  4014df:	b8 6e 00 00 00           >mov	eax, 0000006Eh
  4014e4:	5e                       >pop	esi
  4014e5:	83 c4 44                  add	esp, 44h
  4014e8:	c2 08 00                  ret	0008h
     ...

4014f0 <no name>:
  4014f0:	83 ec 30                  sub	esp, 30h
  4014f3:	56                        push	esi
  4014f4:	8b f1                     mov	esi, ecx
  4014f6:	57                        push	edi
  4014f7:	33 c0                     xor	eax, eax
  4014f9:	b9 07 00 00 00            mov	ecx, 00000007h
  4014fe:	8d 7c 24 1c               lea	edi, [esp+1Ch]
  401502:	c7 44 24 08 01 00 00      mov	dword [esp+08h], 00000001h
		00 
  40150a:	89 44 24 0c               mov	[esp+0Ch], eax
  40150e:	89 44 24 10               mov	[esp+10h], eax
  401512:	89 44 24 14               mov	[esp+14h], eax
  401516:	89 44 24 18               mov	[esp+18h], eax
  40151a:	f3 ab                     rep stosd
  40151c:	8d 44 24 08               lea	eax, [esp+08h]
  401520:	8b ce                     mov	ecx, esi
  401522:	50                        push	eax
  401523:	e8 08 04 00 00            call	401930
  401528:	83 f8 6e                  cmp	eax, 6Eh
  40152b:	0f 85 b2 00 00 00         jnz	4015e3
  401531:	8d 4c 24 0c               lea	ecx, [esp+0Ch]
  401535:	51                        push	ecx
  401536:	8b ce                     mov	ecx, esi
  401538:	e8 f3 03 00 00            call	401930
  40153d:	83 f8 6e                  cmp	eax, 6Eh
  401540:	0f 85 9d 00 00 00         jnz	4015e3
  401546:	8d 54 24 10               lea	edx, [esp+10h]
  40154a:	8b ce                     mov	ecx, esi
  40154c:	52                        push	edx
  40154d:	e8 de 03 00 00            call	401930
  401552:	83 f8 6e                  cmp	eax, 6Eh
  401555:	0f 85 88 00 00 00         jnz	4015e3
  40155b:	8d 44 24 14               lea	eax, [esp+14h]
  40155f:	8b ce                     mov	ecx, esi
  401561:	50                        push	eax
  401562:	e8 c9 03 00 00            call	401930
  401567:	83 f8 6e                  cmp	eax, 6Eh
  40156a:	75 77                     jnz	4015e3
  40156c:	8d 4c 24 18               lea	ecx, [esp+18h]
  401570:	51                        push	ecx
  401571:	8b ce                     mov	ecx, esi
  401573:	e8 b8 03 00 00            call	401930
  401578:	83 f8 6e                  cmp	eax, 6Eh
  40157b:	75 66                     jnz	4015e3
  40157d:	8b 56 04                  mov	edx, [esi+04h]
  401580:	8d 44 24 1c               lea	eax, [esp+1Ch]
  401584:	52                        push	edx
  401585:	6a 1c                     push	dword 0000001Ch
  401587:	6a 01                     push	dword 00000001h
  401589:	50                        push	eax
  40158a:	ff 15 2c a1 40 00         call	dword [0040A12Ch]	; <fread>
  401590:	83 c4 10                  add	esp, 10h
  401593:	83 f8 1c                  cmp	eax, 1Ch
  401596:	74 0d                     jz	4015a5
  401598:	5f                        pop	edi
  401599:	b8 6f 00 00 00            mov	eax, 0000006Fh
  40159e:	5e                        pop	esi
  40159f:	83 c4 30                  add	esp, 30h
  4015a2:	c2 08 00                  ret	0008h
  4015a5:	8b 44 24 3c              >mov	eax, [esp+3Ch]
  4015a9:	8b 54 24 0c               mov	edx, [esp+0Ch]
  4015ad:	8b 4c 24 08               mov	ecx, [esp+08h]
  4015b1:	89 50 04                  mov	[eax+04h], edx
  4015b4:	8b 54 24 10               mov	edx, [esp+10h]
  4015b8:	89 50 08                  mov	[eax+08h], edx
  4015bb:	8b 54 24 14               mov	edx, [esp+14h]
  4015bf:	89 50 0c                  mov	[eax+0Ch], edx
  4015c2:	8b 54 24 18               mov	edx, [esp+18h]
  4015c6:	89 08                     mov	[eax], ecx
  4015c8:	83 f9 ff                  cmp	ecx, FFh
  4015cb:	8b 4c 24 40               mov	ecx, [esp+40h]
  4015cf:	89 50 10                  mov	[eax+10h], edx
  4015d2:	c7 40 30 02 00 00 00      mov	dword [eax+30h], 00000002h
  4015d9:	0f 94 c0                  setz	al
  4015dc:	88 01                     mov	[ecx], al
  4015de:	b8 6e 00 00 00            mov	eax, 0000006Eh
  4015e3:	5f                       >pop	edi
  4015e4:	5e                        pop	esi
  4015e5:	83 c4 30                  add	esp, 30h
  4015e8:	c2 08 00                  ret	0008h
     ...

4015f0 <no name>:
  4015f0:	51                        push	ecx
  4015f1:	53                        push	ebx
  4015f2:	55                        push	ebp
  4015f3:	56                        push	esi
  4015f4:	57                        push	edi
  4015f5:	33 db                     xor	ebx, ebx
  4015f7:	8b e9                     mov	ebp, ecx
  4015f9:	6a 40                     push	dword 00000040h
  4015fb:	89 5c 24 14               mov	[esp+14h], ebx
  4015ff:	e8 7c 71 00 00            call	408780	; <??2@YAPAXI@Z>
  401604:	8b d0                     mov	edx, eax
  401606:	83 c4 04                  add	esp, 04h
  401609:	3b d3                     cmp	edx, ebx
  40160b:	74 30                     jz	40163d
  40160d:	b9 07 00 00 00            mov	ecx, 00000007h
  401612:	33 c0                     xor	eax, eax
  401614:	8d 7a 14                  lea	edi, [edx+14h]
  401617:	c7 02 01 00 00 00         mov	dword [edx], 00000001h
  40161d:	89 5a 04                  mov	[edx+04h], ebx
  401620:	89 5a 08                  mov	[edx+08h], ebx
  401623:	89 5a 0c                  mov	[edx+0Ch], ebx
  401626:	89 5a 10                  mov	[edx+10h], ebx
  401629:	f3 ab                     rep stosd
  40162b:	89 5a 30                  mov	[edx+30h], ebx
  40162e:	89 5a 34                  mov	[edx+34h], ebx
  401631:	89 5a 38                  mov	[edx+38h], ebx
  401634:	c7 42 3c 01 00 00 00      mov	dword [edx+3Ch], 00000001h
  40163b:	eb 02                     jmp	40163f
  40163d:	33 d2                    >xor	edx, edx
  40163f:	8b 44 24 1c              >mov	eax, [esp+1Ch]
  401643:	8b 74 24 18               mov	esi, [esp+18h]
  401647:	8d 4c 24 10               lea	ecx, [esp+10h]
  40164b:	50                        push	eax
  40164c:	51                        push	ecx
  40164d:	52                        push	edx
  40164e:	6a 01                     push	dword 00000001h
  401650:	8b cd                     mov	ecx, ebp
  401652:	89 16                     mov	[esi], edx
  401654:	e8 d7 00 00 00            call	401730
  401659:	8b c8                     mov	ecx, eax
  40165b:	8b 44 24 10               mov	eax, [esp+10h]
  40165f:	3b c3                     cmp	eax, ebx
  401661:	89 4c 24 18               mov	[esp+18h], ecx
  401665:	0f 84 af 00 00 00         jz	40171a
  40166b:	8b 36                     mov	esi, [esi]
  40166d:	8b e8                     mov	ebp, eax
  40166f:	8b 7e 38                  mov	edi, [esi+38h]
  401672:	3b fb                     cmp	edi, ebx
  401674:	74 20                     jz	401696
  401676:	8d 57 10                  lea	edx, [edi+10h]
  401679:	52                        push	edx
  40167a:	e8 91 6c 00 00            call	408310
  40167f:	83 c4 04                  add	esp, 04h
  401682:	85 c0                     test	eax, eax
  401684:	75 0d                     jnz	401693
  401686:	3b fb                     cmp	edi, ebx
  401688:	74 09                     jz	401693
  40168a:	6a 01                     push	dword 00000001h
  40168c:	8b cf                     mov	ecx, edi
  40168e:	e8 0d 03 00 00            call	4019a0
  401693:	89 5e 38                 >mov	[esi+38h], ebx
  401696:	8b 7e 34                 >mov	edi, [esi+34h]
  401699:	3b fb                     cmp	edi, ebx
  40169b:	74 27                     jz	4016c4
  40169d:	8d 47 10                  lea	eax, [edi+10h]
  4016a0:	50                        push	eax
  4016a1:	e8 6a 6c 00 00            call	408310
  4016a6:	83 c4 04                  add	esp, 04h
  4016a9:	85 c0                     test	eax, eax
  4016ab:	75 14                     jnz	4016c1
  4016ad:	3b fb                     cmp	edi, ebx
  4016af:	74 10                     jz	4016c1
  4016b1:	8b cf                     mov	ecx, edi
  4016b3:	e8 08 03 00 00            call	4019c0
  4016b8:	57                        push	edi
  4016b9:	e8 8e 70 00 00            call	40874c
  4016be:	83 c4 04                  add	esp, 04h
  4016c1:	89 5e 34                 >mov	[esi+34h], ebx
  4016c4:	3b eb                    >cmp	ebp, ebx
  4016c6:	89 6e 34                  mov	[esi+34h], ebp
  4016c9:	74 0c                     jz	4016d7
  4016cb:	83 c5 10                  add	ebp, 10h
  4016ce:	55                        push	ebp
  4016cf:	e8 2c 6c 00 00            call	408300
  4016d4:	83 c4 04                  add	esp, 04h
  4016d7:	8b 74 24 10              >mov	esi, [esp+10h]
  4016db:	8d 4e 10                  lea	ecx, [esi+10h]
  4016de:	51                        push	ecx
  4016df:	e8 2c 6c 00 00            call	408310
  4016e4:	83 c4 04                  add	esp, 04h
  4016e7:	85 c0                     test	eax, eax
  4016e9:	75 23                     jnz	40170e
  4016eb:	3b f3                     cmp	esi, ebx
  4016ed:	74 1f                     jz	40170e
  4016ef:	8b 46 04                  mov	eax, [esi+04h]
  4016f2:	50                        push	eax
  4016f3:	89 44 24 20               mov	[esp+20h], eax
  4016f7:	e8 50 70 00 00            call	40874c
  4016fc:	56                        push	esi
  4016fd:	89 5e 04                  mov	[esi+04h], ebx
  401700:	89 5e 08                  mov	[esi+08h], ebx
  401703:	89 5e 0c                  mov	[esi+0Ch], ebx
  401706:	e8 41 70 00 00            call	40874c
  40170b:	83 c4 08                  add	esp, 08h
  40170e:	8b 44 24 18              >mov	eax, [esp+18h]
  401712:	5f                        pop	edi
  401713:	5e                        pop	esi
  401714:	5d                        pop	ebp
  401715:	5b                        pop	ebx
  401716:	59                        pop	ecx
  401717:	c2 08 00                  ret	0008h
  40171a:	5f                       >pop	edi
  40171b:	5e                        pop	esi
  40171c:	5d                        pop	ebp
  40171d:	8b c1                     mov	eax, ecx
  40171f:	5b                        pop	ebx
  401720:	59                        pop	ecx
  401721:	c2 08 00                  ret	0008h
     ...

401730 <no name>:
  401730:	53                        push	ebx
  401731:	55                        push	ebp
  401732:	8b 6c 24 10               mov	ebp, [esp+10h]
  401736:	56                        push	esi
  401737:	8b 74 24 1c               mov	esi, [esp+1Ch]
  40173b:	8b d9                     mov	ebx, ecx
  40173d:	56                        push	esi
  40173e:	55                        push	ebp
  40173f:	c6 06 00                  mov	byte [esi], 00h
  401742:	8b 43 0c                  mov	eax, [ebx+0Ch]
  401745:	83 f8 01                  cmp	eax, 01h
  401748:	75 07                     jnz	401751
  40174a:	e8 e1 fc ff ff            call	401430
  40174f:	eb 05                     jmp	401756
  401751:	e8 9a fd ff ff           >call	4014f0
  401756:	80 3e 00                 >cmp	byte [esi], 00h
  401759:	0f 85 19 01 00 00         jnz	401878
  40175f:	8a 44 24 10               mov	al, [esp+10h]
  401763:	84 c0                     test	al, al
  401765:	0f 84 d5 00 00 00         jz	401840
  40176b:	57                        push	edi
  40176c:	6a 14                     push	dword 00000014h
  40176e:	e8 0d 70 00 00            call	408780	; <??2@YAPAXI@Z>
  401773:	33 ff                     xor	edi, edi
  401775:	83 c4 04                  add	esp, 04h
  401778:	3b c7                     cmp	eax, edi
  40177a:	74 1a                     jz	401796
  40177c:	8a 4c 24 14               mov	cl, [esp+14h]
  401780:	89 78 04                  mov	[eax+04h], edi
  401783:	88 08                     mov	[eax], cl
  401785:	89 78 08                  mov	[eax+08h], edi
  401788:	89 78 0c                  mov	[eax+0Ch], edi
  40178b:	c7 40 10 01 00 00 00      mov	dword [eax+10h], 00000001h
  401792:	8b f0                     mov	esi, eax
  401794:	eb 02                     jmp	401798
  401796:	33 f6                    >xor	esi, esi
  401798:	8b 54 24 1c              >mov	edx, [esp+1Ch]
  40179c:	c6 44 24 14 00            mov	byte [esp+14h], 00h
  4017a1:	89 32                     mov	[edx], esi
  4017a3:	8b 46 04                  mov	eax, [esi+04h]
  4017a6:	8b 55 10                  mov	edx, [ebp+10h]
  4017a9:	3b c7                     cmp	eax, edi
  4017ab:	75 04                     jnz	4017b1
  4017ad:	33 c9                     xor	ecx, ecx
  4017af:	eb 05                     jmp	4017b6
  4017b1:	8b 4e 08                 >mov	ecx, [esi+08h]
  4017b4:	2b c8                     sub	ecx, eax
  4017b6:	3b ca                    >cmp	ecx, edx
  4017b8:	73 22                     jae	4017dc
  4017ba:	3b c7                     cmp	eax, edi
  4017bc:	75 04                     jnz	4017c2
  4017be:	33 c9                     xor	ecx, ecx
  4017c0:	eb 05                     jmp	4017c7
  4017c2:	8b 4e 08                 >mov	ecx, [esi+08h]
  4017c5:	2b c8                     sub	ecx, eax
  4017c7:	8d 44 24 14              >lea	eax, [esp+14h]
  4017cb:	2b d1                     sub	edx, ecx
  4017cd:	8b 4e 08                  mov	ecx, [esi+08h]
  4017d0:	50                        push	eax
  4017d1:	52                        push	edx
  4017d2:	51                        push	ecx
  4017d3:	8b ce                     mov	ecx, esi
  4017d5:	e8 16 02 00 00            call	4019f0
  4017da:	eb 2d                     jmp	401809
  4017dc:	3b c7                    >cmp	eax, edi
  4017de:	74 29                     jz	401809
  4017e0:	8b 4e 08                  mov	ecx, [esi+08h]
  4017e3:	8b f9                     mov	edi, ecx
  4017e5:	2b f8                     sub	edi, eax
  4017e7:	3b d7                     cmp	edx, edi
  4017e9:	73 1e                     jae	401809
  4017eb:	03 c2                     add	eax, edx
  4017ed:	50                        push	eax
  4017ee:	51                        push	ecx
  4017ef:	51                        push	ecx
  4017f0:	e8 cb 03 00 00            call	401bc0
  4017f5:	8b 56 08                  mov	edx, [esi+08h]
  4017f8:	83 c4 0c                  add	esp, 0Ch
  4017fb:	8b f8                     mov	edi, eax
  4017fd:	8b ce                     mov	ecx, esi
  4017ff:	52                        push	edx
  401800:	57                        push	edi
  401801:	e8 5a 60 00 00            call	407860
  401806:	89 7e 08                  mov	[esi+08h], edi
  401809:	8b 4c 24 1c              >mov	ecx, [esp+1Ch]
  40180d:	8b 45 10                  mov	eax, [ebp+10h]
  401810:	8b 11                     mov	edx, [ecx]
  401812:	8b 4a 04                  mov	ecx, [edx+04h]
  401815:	8b 53 04                  mov	edx, [ebx+04h]
  401818:	52                        push	edx
  401819:	50                        push	eax
  40181a:	6a 01                     push	dword 00000001h
  40181c:	51                        push	ecx
  40181d:	ff 15 2c a1 40 00         call	dword [0040A12Ch]	; <fread>
  401823:	8b 4d 10                  mov	ecx, [ebp+10h]
  401826:	83 c4 10                  add	esp, 10h
  401829:	3b c1                     cmp	eax, ecx
  40182b:	5f                        pop	edi
  40182c:	74 25                     jz	401853
  40182e:	8b cb                     mov	ecx, ebx
  401830:	e8 1b fb ff ff            call	401350
  401835:	5e                        pop	esi
  401836:	5d                        pop	ebp
  401837:	b8 74 00 00 00            mov	eax, 00000074h
  40183c:	5b                        pop	ebx
  40183d:	c2 10 00                  ret	0010h
  401840:	8b 45 10                 >mov	eax, [ebp+10h]
  401843:	8b 4b 04                  mov	ecx, [ebx+04h]
  401846:	6a 01                     push	dword 00000001h
  401848:	50                        push	eax
  401849:	51                        push	ecx
  40184a:	ff 15 30 a1 40 00         call	dword [0040A130h]	; <fseek>
  401850:	83 c4 0c                  add	esp, 0Ch
  401853:	83 7b 0c 02              >cmp	dword [ebx+0Ch], 02h
  401857:	75 1f                     jnz	401878
  401859:	8b 6d 10                  mov	ebp, [ebp+10h]
  40185c:	83 e5 03                  and	ebp, 03h
  40185f:	76 17                     jbe	401878
  401861:	8b 43 04                  mov	eax, [ebx+04h]
  401864:	ba 04 00 00 00            mov	edx, 00000004h
  401869:	2b d5                     sub	edx, ebp
  40186b:	6a 01                     push	dword 00000001h
  40186d:	52                        push	edx
  40186e:	50                        push	eax
  40186f:	ff 15 30 a1 40 00         call	dword [0040A130h]	; <fseek>
  401875:	83 c4 0c                  add	esp, 0Ch
  401878:	5e                       >pop	esi
  401879:	5d                        pop	ebp
  40187a:	b8 6e 00 00 00            mov	eax, 0000006Eh
  40187f:	5b                        pop	ebx
  401880:	c2 10 00                  ret	0010h
     ...

401890 <no name>:
  401890:	83 ec 08                  sub	esp, 08h
  401893:	53                        push	ebx
  401894:	8b d9                     mov	ebx, ecx
  401896:	56                        push	esi
  401897:	57                        push	edi
  401898:	8b 43 04                  mov	eax, [ebx+04h]
  40189b:	8d 4c 24 0c               lea	ecx, [esp+0Ch]
  40189f:	50                        push	eax
  4018a0:	6a 08                     push	dword 00000008h
  4018a2:	6a 01                     push	dword 00000001h
  4018a4:	51                        push	ecx
  4018a5:	ff 15 2c a1 40 00         call	dword [0040A12Ch]	; <fread>
  4018ab:	83 c4 10                  add	esp, 10h
  4018ae:	83 f8 08                  cmp	eax, 08h
  4018b1:	74 13                     jz	4018c6
  4018b3:	8b cb                     mov	ecx, ebx
  4018b5:	e8 96 fa ff ff            call	401350
  4018ba:	5f                        pop	edi
  4018bb:	5e                        pop	esi
  4018bc:	b8 75 00 00 00            mov	eax, 00000075h
  4018c1:	5b                        pop	ebx
  4018c2:	83 c4 08                  add	esp, 08h
  4018c5:	c3                        ret
  4018c6:	c7 43 0c 00 00 00 00     >mov	dword [ebx+0Ch], 00000000h
  4018cd:	8b 3d 30 c0 40 00         mov	edi, [0040C030h]
  4018d3:	b9 02 00 00 00            mov	ecx, 00000002h
  4018d8:	8d 74 24 0c               lea	esi, [esp+0Ch]
  4018dc:	33 d2                     xor	edx, edx
  4018de:	f3 a7                     repe cmpsd
  4018e0:	75 13                     jnz	4018f5
  4018e2:	5f                        pop	edi
  4018e3:	c7 43 0c 01 00 00 00      mov	dword [ebx+0Ch], 00000001h
  4018ea:	5e                        pop	esi
  4018eb:	b8 6e 00 00 00            mov	eax, 0000006Eh
  4018f0:	5b                        pop	ebx
  4018f1:	83 c4 08                  add	esp, 08h
  4018f4:	c3                        ret
  4018f5:	8b 3d 34 c0 40 00        >mov	edi, [0040C034h]
  4018fb:	b9 02 00 00 00            mov	ecx, 00000002h
  401900:	8d 74 24 0c               lea	esi, [esp+0Ch]
  401904:	33 c0                     xor	eax, eax
  401906:	f3 a7                     repe cmpsd
  401908:	75 13                     jnz	40191d
  40190a:	5f                        pop	edi
  40190b:	c7 43 0c 02 00 00 00      mov	dword [ebx+0Ch], 00000002h
  401912:	5e                        pop	esi
  401913:	b8 6e 00 00 00            mov	eax, 0000006Eh
  401918:	5b                        pop	ebx
  401919:	83 c4 08                  add	esp, 08h
  40191c:	c3                        ret
  40191d:	5f                       >pop	edi
  40191e:	5e                        pop	esi
  40191f:	b8 76 00 00 00            mov	eax, 00000076h
  401924:	5b                        pop	ebx
  401925:	83 c4 08                  add	esp, 08h
  401928:	c3                        ret
     ...

401930 <no name>:
  401930:	51                        push	ecx
  401931:	56                        push	esi
  401932:	8b f1                     mov	esi, ecx
  401934:	8d 4c 24 04               lea	ecx, [esp+04h]
  401938:	8b 46 04                  mov	eax, [esi+04h]
  40193b:	50                        push	eax
  40193c:	6a 04                     push	dword 00000004h
  40193e:	6a 01                     push	dword 00000001h
  401940:	51                        push	ecx
  401941:	ff 15 2c a1 40 00         call	dword [0040A12Ch]	; <fread>
  401947:	83 c4 10                  add	esp, 10h
  40194a:	83 f8 04                  cmp	eax, 04h
  40194d:	74 11                     jz	401960
  40194f:	8b ce                     mov	ecx, esi
  401951:	e8 fa f9 ff ff            call	401350
  401956:	b8 6f 00 00 00            mov	eax, 0000006Fh
  40195b:	5e                        pop	esi
  40195c:	59                        pop	ecx
  40195d:	c2 04 00                  ret	0004h
  401960:	8b 4c 24 0c              >mov	ecx, [esp+0Ch]
  401964:	57                        push	edi
  401965:	b8 03 00 00 00            mov	eax, 00000003h
  40196a:	c7 01 00 00 00 00         mov	dword [ecx], 00000000h
  401970:	8b 39                     mov	edi, [ecx]
  401972:	33 d2                    >xor	edx, edx
  401974:	8b f7                     mov	esi, edi
  401976:	8a 54 04 08               mov	dl, [esp+eax*1+08h]
  40197a:	c1 e6 08                  shl	esi, 08h
  40197d:	03 d6                     add	edx, esi
  40197f:	48                        dec	eax
  401980:	8b fa                     mov	edi, edx
  401982:	79 ee                     jns	401972
  401984:	89 39                     mov	[ecx], edi
  401986:	5f                        pop	edi
  401987:	b8 6e 00 00 00            mov	eax, 0000006Eh
  40198c:	5e                        pop	esi
  40198d:	59                        pop	ecx
  40198e:	c2 04 00                  ret	0004h
     ...

4019a0 <no name>:
  4019a0:	56                        push	esi
  4019a1:	8b f1                     mov	esi, ecx
  4019a3:	e8 18 00 00 00            call	4019c0
  4019a8:	f6 44 24 08 01            test	byte [esp+08h], 01h
  4019ad:	74 09                     jz	4019b8
  4019af:	56                        push	esi
  4019b0:	e8 97 6d 00 00            call	40874c
  4019b5:	83 c4 04                  add	esp, 04h
  4019b8:	8b c6                    >mov	eax, esi
  4019ba:	5e                        pop	esi
  4019bb:	c2 04 00                  ret	0004h
     ...

4019c0 <no name>:
  4019c0:	51                        push	ecx
  4019c1:	56                        push	esi
  4019c2:	8b f1                     mov	esi, ecx
  4019c4:	8b 46 04                  mov	eax, [esi+04h]
  4019c7:	50                        push	eax
  4019c8:	89 44 24 08               mov	[esp+08h], eax
  4019cc:	e8 7b 6d 00 00            call	40874c
  4019d1:	83 c4 04                  add	esp, 04h
  4019d4:	33 c0                     xor	eax, eax
  4019d6:	89 46 04                  mov	[esi+04h], eax
  4019d9:	89 46 08                  mov	[esi+08h], eax
  4019dc:	89 46 0c                  mov	[esi+0Ch], eax
  4019df:	5e                        pop	esi
  4019e0:	59                        pop	ecx
  4019e1:	c3                        ret
     ...

4019f0 <no name>:
  4019f0:	83 ec 08                  sub	esp, 08h
  4019f3:	53                        push	ebx
  4019f4:	8b d9                     mov	ebx, ecx
  4019f6:	55                        push	ebp
  4019f7:	8b 6c 24 18               mov	ebp, [esp+18h]
  4019fb:	8b 43 08                  mov	eax, [ebx+08h]
  4019fe:	8b 4b 0c                  mov	ecx, [ebx+0Ch]
  401a01:	2b c8                     sub	ecx, eax
  401a03:	56                        push	esi
  401a04:	3b cd                     cmp	ecx, ebp
  401a06:	57                        push	edi
  401a07:	0f 83 e8 00 00 00         jae	401af5
  401a0d:	8b 53 04                  mov	edx, [ebx+04h]
  401a10:	85 d2                     test	edx, edx
  401a12:	74 08                     jz	401a1c
  401a14:	8b c8                     mov	ecx, eax
  401a16:	2b ca                     sub	ecx, edx
  401a18:	3b e9                     cmp	ebp, ecx
  401a1a:	72 02                     jb	401a1e
  401a1c:	8b cd                    >mov	ecx, ebp
  401a1e:	85 d2                    >test	edx, edx
  401a20:	75 04                     jnz	401a26
  401a22:	33 c0                     xor	eax, eax
  401a24:	eb 02                     jmp	401a28
  401a26:	2b c2                    >sub	eax, edx
  401a28:	03 c1                    >add	eax, ecx
  401a2a:	85 c0                     test	eax, eax
  401a2c:	89 44 24 14               mov	[esp+14h], eax
  401a30:	7d 02                     jge	401a34
  401a32:	33 c0                     xor	eax, eax
  401a34:	50                       >push	eax
  401a35:	e8 46 6d 00 00            call	408780	; <??2@YAPAXI@Z>
  401a3a:	8b 7c 24 20               mov	edi, [esp+20h]
  401a3e:	89 44 24 14               mov	[esp+14h], eax
  401a42:	8b c8                     mov	ecx, eax
  401a44:	8b 43 04                  mov	eax, [ebx+04h]
  401a47:	83 c4 04                  add	esp, 04h
  401a4a:	3b c7                     cmp	eax, edi
  401a4c:	74 12                     jz	401a60
  401a4e:	85 c9                    >test	ecx, ecx
  401a50:	74 08                     jz	401a5a
  401a52:	8a 10                     mov	dl, [eax]
  401a54:	8b 6c 24 20               mov	ebp, [esp+20h]
  401a58:	88 11                     mov	[ecx], dl
  401a5a:	41                       >inc	ecx
  401a5b:	40                        inc	eax
  401a5c:	3b c7                     cmp	eax, edi
  401a5e:	75 ee                     jnz	401a4e
  401a60:	85 ed                    >test	ebp, ebp
  401a62:	8b c1                     mov	eax, ecx
  401a64:	76 17                     jbe	401a7d
  401a66:	8b f5                     mov	esi, ebp
  401a68:	8b 6c 24 24               mov	ebp, [esp+24h]
  401a6c:	85 c0                    >test	eax, eax
  401a6e:	74 05                     jz	401a75
  401a70:	8a 55 00                  mov	dl, [ebp+00h]
  401a73:	88 10                     mov	[eax], dl
  401a75:	40                       >inc	eax
  401a76:	4e                        dec	esi
  401a77:	75 f3                     jnz	401a6c
  401a79:	8b 6c 24 20               mov	ebp, [esp+20h]
  401a7d:	8b 73 08                 >mov	esi, [ebx+08h]
  401a80:	8d 14 29                  lea	edx, [ecx+ebp*1]
  401a83:	3b fe                     cmp	edi, esi
  401a85:	74 1a                     jz	401aa1
  401a87:	8b c2                     mov	eax, edx
  401a89:	2b c1                     sub	eax, ecx
  401a8b:	2b c5                     sub	eax, ebp
  401a8d:	03 c7                     add	eax, edi
  401a8f:	85 d2                    >test	edx, edx
  401a91:	74 08                     jz	401a9b
  401a93:	8a 08                     mov	cl, [eax]
  401a95:	8b 6c 24 20               mov	ebp, [esp+20h]
  401a99:	88 0a                     mov	[edx], cl
  401a9b:	42                       >inc	edx
  401a9c:	40                        inc	eax
  401a9d:	3b c6                     cmp	eax, esi
  401a9f:	75 ee                     jnz	401a8f
  401aa1:	8b 43 04                 >mov	eax, [ebx+04h]
  401aa4:	50                        push	eax
  401aa5:	89 44 24 24               mov	[esp+24h], eax
  401aa9:	e8 9e 6c 00 00            call	40874c
  401aae:	8b 54 24 14               mov	edx, [esp+14h]
  401ab2:	8b 44 24 18               mov	eax, [esp+18h]
  401ab6:	83 c4 04                  add	esp, 04h
  401ab9:	8d 0c 02                  lea	ecx, [edx+eax*1]
  401abc:	89 4b 0c                  mov	[ebx+0Ch], ecx
  401abf:	8b 4b 04                  mov	ecx, [ebx+04h]
  401ac2:	85 c9                     test	ecx, ecx
  401ac4:	75 16                     jnz	401adc
  401ac6:	33 c0                     xor	eax, eax
  401ac8:	5f                        pop	edi
  401ac9:	8b c2                     mov	eax, edx
  401acb:	5e                        pop	esi
  401acc:	03 c5                     add	eax, ebp
  401ace:	89 53 04                  mov	[ebx+04h], edx
  401ad1:	89 43 08                  mov	[ebx+08h], eax
  401ad4:	5d                        pop	ebp
  401ad5:	5b                        pop	ebx
  401ad6:	83 c4 08                  add	esp, 08h
  401ad9:	c2 0c 00                  ret	000Ch
  401adc:	8b 43 08                 >mov	eax, [ebx+08h]
  401adf:	5f                        pop	edi
  401ae0:	2b c1                     sub	eax, ecx
  401ae2:	5e                        pop	esi
  401ae3:	03 c2                     add	eax, edx
  401ae5:	89 53 04                  mov	[ebx+04h], edx
  401ae8:	03 c5                     add	eax, ebp
  401aea:	5d                        pop	ebp
  401aeb:	89 43 08                  mov	[ebx+08h], eax
  401aee:	5b                        pop	ebx
  401aef:	83 c4 08                  add	esp, 08h
  401af2:	c2 0c 00                  ret	000Ch
  401af5:	8b 74 24 1c              >mov	esi, [esp+1Ch]
  401af9:	8b d0                     mov	edx, eax
  401afb:	2b d6                     sub	edx, esi
  401afd:	3b d5                     cmp	edx, ebp
  401aff:	73 50                     jae	401b51
  401b01:	3b f0                     cmp	esi, eax
  401b03:	8d 3c 2e                  lea	edi, [esi+ebp*1]
  401b06:	74 16                     jz	401b1e
  401b08:	8b cf                     mov	ecx, edi
  401b0a:	2b cd                     sub	ecx, ebp
  401b0c:	85 ff                    >test	edi, edi
  401b0e:	74 08                     jz	401b18
  401b10:	8a 11                     mov	dl, [ecx]
  401b12:	8b 6c 24 20               mov	ebp, [esp+20h]
  401b16:	88 17                     mov	[edi], dl
  401b18:	47                       >inc	edi
  401b19:	41                        inc	ecx
  401b1a:	3b c8                     cmp	ecx, eax
  401b1c:	75 ee                     jnz	401b0c
  401b1e:	8b 4b 08                 >mov	ecx, [ebx+08h]
  401b21:	8b 7c 24 24               mov	edi, [esp+24h]
  401b25:	8b c6                     mov	eax, esi
  401b27:	2b c1                     sub	eax, ecx
  401b29:	03 c5                     add	eax, ebp
  401b2b:	74 10                     jz	401b3d
  401b2d:	85 c9                    >test	ecx, ecx
  401b2f:	74 08                     jz	401b39
  401b31:	8a 17                     mov	dl, [edi]
  401b33:	8b 6c 24 20               mov	ebp, [esp+20h]
  401b37:	88 11                     mov	[ecx], dl
  401b39:	41                       >inc	ecx
  401b3a:	48                        dec	eax
  401b3b:	75 f0                     jnz	401b2d
  401b3d:	8b 4b 08                 >mov	ecx, [ebx+08h]
  401b40:	8b c6                     mov	eax, esi
  401b42:	3b f1                     cmp	esi, ecx
  401b44:	74 5f                     jz	401ba5
  401b46:	8a 17                    >mov	dl, [edi]
  401b48:	88 10                     mov	[eax], dl
  401b4a:	40                        inc	eax
  401b4b:	3b c1                     cmp	eax, ecx
  401b4d:	75 f7                     jnz	401b46
  401b4f:	eb 50                     jmp	401ba1
  401b51:	85 ed                    >test	ebp, ebp
  401b53:	76 53                     jbe	401ba8
  401b55:	8b c8                     mov	ecx, eax
  401b57:	8b f8                     mov	edi, eax
  401b59:	2b cd                     sub	ecx, ebp
  401b5b:	3b c8                     cmp	ecx, eax
  401b5d:	74 12                     jz	401b71
  401b5f:	85 ff                    >test	edi, edi
  401b61:	74 08                     jz	401b6b
  401b63:	8a 11                     mov	dl, [ecx]
  401b65:	8b 6c 24 20               mov	ebp, [esp+20h]
  401b69:	88 17                     mov	[edi], dl
  401b6b:	47                       >inc	edi
  401b6c:	41                        inc	ecx
  401b6d:	3b c8                     cmp	ecx, eax
  401b6f:	75 ee                     jnz	401b5f
  401b71:	8b 4b 08                 >mov	ecx, [ebx+08h]
  401b74:	8b c1                     mov	eax, ecx
  401b76:	2b c5                     sub	eax, ebp
  401b78:	3b f0                     cmp	esi, eax
  401b7a:	74 0f                     jz	401b8b
  401b7c:	8a 50 ff                 >mov	dl, [eax-01h]
  401b7f:	48                        dec	eax
  401b80:	49                        dec	ecx
  401b81:	3b c6                     cmp	eax, esi
  401b83:	88 11                     mov	[ecx], dl
  401b85:	75 f5                     jnz	401b7c
  401b87:	8b 6c 24 20               mov	ebp, [esp+20h]
  401b8b:	8d 0c 2e                 >lea	ecx, [esi+ebp*1]
  401b8e:	8b c6                     mov	eax, esi
  401b90:	3b f1                     cmp	esi, ecx
  401b92:	74 11                     jz	401ba5
  401b94:	8b 74 24 24               mov	esi, [esp+24h]
  401b98:	8a 16                    >mov	dl, [esi]
  401b9a:	88 10                     mov	[eax], dl
  401b9c:	40                        inc	eax
  401b9d:	3b c1                     cmp	eax, ecx
  401b9f:	75 f7                     jnz	401b98
  401ba1:	8b 6c 24 20              >mov	ebp, [esp+20h]
  401ba5:	01 6b 08                 >add	[ebx+08h], ebp
  401ba8:	5f                       >pop	edi
  401ba9:	5e                        pop	esi
  401baa:	5d                        pop	ebp
  401bab:	5b                        pop	ebx
  401bac:	83 c4 08                  add	esp, 08h
  401baf:	c2 0c 00                  ret	000Ch
     ...

401bc0 <no name>:
  401bc0:	8b 4c 24 04               mov	ecx, [esp+04h]
  401bc4:	8b 44 24 0c               mov	eax, [esp+0Ch]
  401bc8:	56                        push	esi
  401bc9:	8b 74 24 0c               mov	esi, [esp+0Ch]
  401bcd:	3b ce                     cmp	ecx, esi
  401bcf:	74 0a                     jz	401bdb
  401bd1:	8a 11                    >mov	dl, [ecx]
  401bd3:	88 10                     mov	[eax], dl
  401bd5:	40                        inc	eax
  401bd6:	41                        inc	ecx
  401bd7:	3b ce                     cmp	ecx, esi
  401bd9:	75 f6                     jnz	401bd1
  401bdb:	5e                       >pop	esi
  401bdc:	c3                        ret
     ...

401be0 <no name>:
  401be0:	8b 4c 24 08               mov	ecx, [esp+08h]
  401be4:	33 c0                     xor	eax, eax
  401be6:	88 4c 04 08              >mov	[esp+eax*1+08h], cl
  401bea:	c1 e9 08                  shr	ecx, 08h
  401bed:	40                        inc	eax
  401bee:	83 f8 04                  cmp	eax, 04h
  401bf1:	7c f3                     jl	401be6
  401bf3:	8b 4c 24 04               mov	ecx, [esp+04h]
  401bf7:	8d 54 24 08               lea	edx, [esp+08h]
  401bfb:	6a 04                     push	dword 00000004h
  401bfd:	52                        push	edx
  401bfe:	8b 01                     mov	eax, [ecx]
  401c00:	ff 50 10                  call	dword [eax+10h]
  401c03:	c3                        ret
     ...

401c30 <no name>:
  401c30:	8b c1                     mov	eax, ecx
  401c32:	8b 4c 24 04               mov	ecx, [esp+04h]
  401c36:	c7 40 04 00 00 00 00      mov	dword [eax+04h], 00000000h
  401c3d:	89 48 08                  mov	[eax+08h], ecx
  401c40:	c7 00 b8 a1 40 00         mov	dword [eax], 0040A1B8h
  401c46:	c2 04 00                  ret	0004h
     ...

401c70 <no name>:
  401c70:	6a ff                     push	dword FFFFFFFFh
  401c72:	68 88 89 40 00            push	dword 00408988h
  401c77:	64 a1 00 00 00 00         mov	eax, [fs:0000h]
  401c7d:	50                        push	eax
  401c7e:	64 89 25 00 00 00 00      mov	[fs:00000000h], esp
  401c85:	51                        push	ecx
  401c86:	56                        push	esi
  401c87:	8b f1                     mov	esi, ecx
  401c89:	89 74 24 04               mov	[esp+04h], esi
  401c8d:	c7 06 b8 a1 40 00         mov	dword [esi], 0040A1B8h
  401c93:	8b 46 04                  mov	eax, [esi+04h]
  401c96:	c7 44 24 10 00 00 00      mov	dword [esp+10h], 00000000h
		00 
  401c9e:	85 c0                     test	eax, eax
  401ca0:	74 05                     jz	401ca7
  401ca2:	e8 e9 00 00 00            call	401d90
  401ca7:	8b 4c 24 08              >mov	ecx, [esp+08h]
  401cab:	c7 06 a0 a1 40 00         mov	dword [esi], 0040A1A0h
  401cb1:	5e                        pop	esi
  401cb2:	64 89 0d 00 00 00 00      mov	[fs:00000000h], ecx
  401cb9:	83 c4 10                  add	esp, 10h
  401cbc:	c3                        ret
     ...

401d90 <no name>:
  401d90:	56                        push	esi
  401d91:	8b f1                     mov	esi, ecx
  401d93:	8b 46 04                  mov	eax, [esi+04h]
  401d96:	50                        push	eax
  401d97:	ff 15 34 a1 40 00         call	dword [0040A134h]	; <fclose>
  401d9d:	83 c4 04                  add	esp, 04h
  401da0:	c7 46 04 00 00 00 00      mov	dword [esi+04h], 00000000h
  401da7:	b8 6e 00 00 00            mov	eax, 0000006Eh
  401dac:	5e                        pop	esi
  401dad:	c3                        ret
     ...

401db0 <no name>:
  401db0:	51                        push	ecx
  401db1:	8a 54 24 03               mov	dl, [esp+03h]
  401db5:	8b c1                     mov	eax, ecx
  401db7:	33 c9                     xor	ecx, ecx
  401db9:	89 08                     mov	[eax], ecx
  401dbb:	88 50 04                  mov	[eax+04h], dl
  401dbe:	89 48 08                  mov	[eax+08h], ecx
  401dc1:	89 48 0c                  mov	[eax+0Ch], ecx
  401dc4:	89 48 10                  mov	[eax+10h], ecx
  401dc7:	c7 40 14 ff ff ff ff      mov	dword [eax+14h], FFFFFFFFh
  401dce:	88 48 18                  mov	[eax+18h], cl
  401dd1:	88 48 19                  mov	[eax+19h], cl
  401dd4:	59                        pop	ecx
  401dd5:	c3                        ret
     ...

401de0 <no name>:
  401de0:	6a ff                     push	dword FFFFFFFFh
  401de2:	68 ac 89 40 00            push	dword 004089ACh
  401de7:	64 a1 00 00 00 00         mov	eax, [fs:0000h]
  401ded:	50                        push	eax
  401dee:	64 89 25 00 00 00 00      mov	[fs:00000000h], esp
  401df5:	51                        push	ecx
  401df6:	53                        push	ebx
  401df7:	56                        push	esi
  401df8:	8b f1                     mov	esi, ecx
  401dfa:	89 74 24 08               mov	[esp+08h], esi
  401dfe:	33 db                     xor	ebx, ebx
  401e00:	89 5c 24 14               mov	[esp+14h], ebx
  401e04:	e8 d7 01 00 00            call	401fe0
  401e09:	8b 46 08                  mov	eax, [esi+08h]
  401e0c:	3b c3                     cmp	eax, ebx
  401e0e:	74 1d                     jz	401e2d
  401e10:	8d 48 ff                  lea	ecx, [eax-01h]
  401e13:	8a 40 ff                  mov	al, [eax-01h]
  401e16:	3a c3                     cmp	al, bl
  401e18:	74 0a                     jz	401e24
  401e1a:	3c ff                     cmp	al, FFh
  401e1c:	74 06                     jz	401e24
  401e1e:	fe c8                     dec	al
  401e20:	88 01                     mov	[ecx], al
  401e22:	eb 09                     jmp	401e2d
  401e24:	51                       >push	ecx
  401e25:	e8 22 69 00 00            call	40874c
  401e2a:	83 c4 04                  add	esp, 04h
  401e2d:	8b 4c 24 0c              >mov	ecx, [esp+0Ch]
  401e31:	89 5e 08                  mov	[esi+08h], ebx
  401e34:	89 5e 0c                  mov	[esi+0Ch], ebx
  401e37:	89 5e 10                  mov	[esi+10h], ebx
  401e3a:	5e                        pop	esi
  401e3b:	5b                        pop	ebx
  401e3c:	64 89 0d 00 00 00 00      mov	[fs:00000000h], ecx
  401e43:	83 c4 10                  add	esp, 10h
  401e46:	c3                        ret
     ...

401e50 <no name>:
  401e50:	8b 44 24 04               mov	eax, [esp+04h]
  401e54:	c6 41 19 01               mov	byte [ecx+19h], 01h
  401e58:	89 41 14                  mov	[ecx+14h], eax
  401e5b:	c2 04 00                  ret	0004h
     ...

401e60 <no name>:
  401e60:	51                        push	ecx
  401e61:	53                        push	ebx
  401e62:	55                        push	ebp
  401e63:	56                        push	esi
  401e64:	8b f1                     mov	esi, ecx
  401e66:	57                        push	edi
  401e67:	8b 7c 24 18               mov	edi, [esp+18h]
  401e6b:	83 c9 ff                  or	ecx, FFh
  401e6e:	33 c0                     xor	eax, eax
  401e70:	f2 ae                     repne scasb
  401e72:	f7 d1                     not	ecx
  401e74:	49                        dec	ecx
  401e75:	89 74 24 10               mov	[esp+10h], esi
  401e79:	8b d9                     mov	ebx, ecx
  401e7b:	8d 6e 04                  lea	ebp, [esi+04h]
  401e7e:	83 fb fd                  cmp	ebx, FDh
  401e81:	76 06                     jbe	401e89
  401e83:	ff 15 58 a0 40 00         call	dword [0040A058h]	; <?_Xlen@std@@YAXXZ>
  401e89:	8b 4d 04                 >mov	ecx, [ebp+04h]
  401e8c:	33 d2                     xor	edx, edx
  401e8e:	3b ca                     cmp	ecx, edx
  401e90:	74 29                     jz	401ebb
  401e92:	8a 41 ff                  mov	al, [ecx-01h]
  401e95:	84 c0                     test	al, al
  401e97:	74 22                     jz	401ebb
  401e99:	3c ff                     cmp	al, FFh
  401e9b:	74 1e                     jz	401ebb
  401e9d:	3b da                     cmp	ebx, edx
  401e9f:	75 4a                     jnz	401eeb
  401ea1:	fe c8                     dec	al
  401ea3:	5f                        pop	edi
  401ea4:	88 41 ff                  mov	[ecx-01h], al
  401ea7:	89 55 04                  mov	[ebp+04h], edx
  401eaa:	89 55 08                  mov	[ebp+08h], edx
  401ead:	89 55 0c                  mov	[ebp+0Ch], edx
  401eb0:	c6 46 19 01               mov	byte [esi+19h], 01h
  401eb4:	5e                        pop	esi
  401eb5:	5d                        pop	ebp
  401eb6:	5b                        pop	ebx
  401eb7:	59                        pop	ecx
  401eb8:	c2 04 00                  ret	0004h
  401ebb:	3b da                    >cmp	ebx, edx
  401ebd:	75 16                     jnz	401ed5
  401ebf:	6a 01                     push	dword 00000001h
  401ec1:	8b cd                     mov	ecx, ebp
  401ec3:	ff 15 54 a0 40 00         call	dword [0040A054h]	; <?_Tidy@?$basic_string@DU?$char_traits@D@std@@V?$allocator@D@2@@std@@AAEX_N@Z>
  401ec9:	c6 46 19 01               mov	byte [esi+19h], 01h
  401ecd:	5f                        pop	edi
  401ece:	5e                        pop	esi
  401ecf:	5d                        pop	ebp
  401ed0:	5b                        pop	ebx
  401ed1:	59                        pop	ecx
  401ed2:	c2 04 00                  ret	0004h
  401ed5:	8b 45 0c                 >mov	eax, [ebp+0Ch]
  401ed8:	83 f8 1f                  cmp	eax, 1Fh
  401edb:	77 04                     ja	401ee1
  401edd:	3b c3                     cmp	eax, ebx
  401edf:	73 13                     jae	401ef4
  401ee1:	6a 01                    >push	dword 00000001h
  401ee3:	8b cd                     mov	ecx, ebp
  401ee5:	ff 15 54 a0 40 00         call	dword [0040A054h]	; <?_Tidy@?$basic_string@DU?$char_traits@D@std@@V?$allocator@D@2@@std@@AAEX_N@Z>
  401eeb:	53                       >push	ebx
  401eec:	8b cd                     mov	ecx, ebp
  401eee:	ff 15 50 a0 40 00         call	dword [0040A050h]	; <?_Copy@?$basic_string@DU?$char_traits@D@std@@V?$allocator@D@2@@std@@AAEXI@Z>
  401ef4:	8b 74 24 18              >mov	esi, [esp+18h]
  401ef8:	8b 7d 04                  mov	edi, [ebp+04h]
  401efb:	8b cb                     mov	ecx, ebx
  401efd:	8b 54 24 10               mov	edx, [esp+10h]
  401f01:	8b c1                     mov	eax, ecx
  401f03:	c1 e9 02                  shr	ecx, 02h
  401f06:	f3 a5                     rep movsd
  401f08:	8b c8                     mov	ecx, eax
  401f0a:	83 e1 03                  and	ecx, 03h
  401f0d:	f3 a4                     rep movsb
  401f0f:	8b 4d 04                  mov	ecx, [ebp+04h]
  401f12:	5f                        pop	edi
  401f13:	89 5d 08                  mov	[ebp+08h], ebx
  401f16:	5e                        pop	esi
  401f17:	c6 04 19 00               mov	byte [ecx+ebx*1], 00h
  401f1b:	5d                        pop	ebp
  401f1c:	c6 42 19 01               mov	byte [edx+19h], 01h
  401f20:	5b                        pop	ebx
  401f21:	59                        pop	ecx
  401f22:	c2 04 00                  ret	0004h
     ...

401f30 <no name>:
  401f30:	56                        push	esi
  401f31:	8b f1                     mov	esi, ecx
  401f33:	e8 a8 00 00 00            call	401fe0
  401f38:	8b 4c 24 08               mov	ecx, [esp+08h]
  401f3c:	89 0e                     mov	[esi], ecx
  401f3e:	8b 01                     mov	eax, [ecx]
  401f40:	ff 50 04                  call	dword [eax+04h]
  401f43:	5e                        pop	esi
  401f44:	c2 04 00                  ret	0004h
     ...

401f50 <no name>:
  401f50:	8b 44 24 04               mov	eax, [esp+04h]
  401f54:	83 ec 30                  sub	esp, 30h
  401f57:	53                        push	ebx
  401f58:	56                        push	esi
  401f59:	8b d9                     mov	ebx, ecx
  401f5b:	57                        push	edi
  401f5c:	b9 0c 00 00 00            mov	ecx, 0000000Ch
  401f61:	8b f0                     mov	esi, eax
  401f63:	8d 7c 24 0c               lea	edi, [esp+0Ch]
  401f67:	f3 a5                     rep movsd
  401f69:	8b c8                     mov	ecx, eax
  401f6b:	e8 20 00 00 00            call	401f90
  401f70:	8b 4c 24 1c               mov	ecx, [esp+1Ch]
  401f74:	8b 40 04                  mov	eax, [eax+04h]
  401f77:	51                        push	ecx
  401f78:	8d 54 24 10               lea	edx, [esp+10h]
  401f7c:	50                        push	eax
  401f7d:	52                        push	edx
  401f7e:	8b cb                     mov	ecx, ebx
  401f80:	e8 cb 00 00 00            call	402050
  401f85:	5f                        pop	edi
  401f86:	5e                        pop	esi
  401f87:	5b                        pop	ebx
  401f88:	83 c4 30                  add	esp, 30h
  401f8b:	c2 04 00                  ret	0004h
     ...

401f90 <no name>:
  401f90:	51                        push	ecx
  401f91:	56                        push	esi
  401f92:	8b f1                     mov	esi, ecx
  401f94:	8b 46 34                  mov	eax, [esi+34h]
  401f97:	85 c0                     test	eax, eax
  401f99:	75 3b                     jnz	401fd6
  401f9b:	6a 14                     push	dword 00000014h
  401f9d:	e8 de 67 00 00            call	408780	; <??2@YAPAXI@Z>
  401fa2:	83 c4 04                  add	esp, 04h
  401fa5:	85 c0                     test	eax, eax
  401fa7:	74 28                     jz	401fd1
  401fa9:	8a 4c 24 07               mov	cl, [esp+07h]
  401fad:	c7 40 04 00 00 00 00      mov	dword [eax+04h], 00000000h
  401fb4:	88 08                     mov	[eax], cl
  401fb6:	c7 40 08 00 00 00 00      mov	dword [eax+08h], 00000000h
  401fbd:	c7 40 0c 00 00 00 00      mov	dword [eax+0Ch], 00000000h
  401fc4:	c7 40 10 01 00 00 00      mov	dword [eax+10h], 00000001h
  401fcb:	89 46 34                  mov	[esi+34h], eax
  401fce:	5e                        pop	esi
  401fcf:	59                        pop	ecx
  401fd0:	c3                        ret
  401fd1:	33 c0                    >xor	eax, eax
  401fd3:	89 46 34                  mov	[esi+34h], eax
  401fd6:	8b 46 34                 >mov	eax, [esi+34h]
  401fd9:	5e                        pop	esi
  401fda:	59                        pop	ecx
  401fdb:	c3                        ret
     ...

401fe0 <no name>:
  401fe0:	56                        push	esi
  401fe1:	8b f1                     mov	esi, ecx
  401fe3:	83 3e 00                  cmp	dword [esi], 00h
  401fe6:	74 2f                     jz	402017
  401fe8:	e8 e3 01 00 00            call	4021d0
  401fed:	8a 46 19                  mov	al, [esi+19h]
  401ff0:	84 c0                     test	al, al
  401ff2:	74 12                     jz	402006
  401ff4:	8b 0e                     mov	ecx, [esi]
  401ff6:	6a 01                     push	dword 00000001h
  401ff8:	6a 00                     push	dword 00000000h
  401ffa:	8b 01                     mov	eax, [ecx]
  401ffc:	ff 50 08                  call	dword [eax+08h]
  401fff:	8b ce                     mov	ecx, esi
  402001:	e8 1a 00 00 00            call	402020
  402006:	8b 0e                    >mov	ecx, [esi]
  402008:	8b 11                     mov	edx, [ecx]
  40200a:	ff 52 14                  call	dword [edx+14h]
  40200d:	c7 06 00 00 00 00         mov	dword [esi], 00000000h
  402013:	c6 46 18 00               mov	byte [esi+18h], 00h
  402017:	5e                       >pop	esi
  402018:	c3                        ret
     ...

402020 <no name>:
  402020:	56                        push	esi
  402021:	8b f1                     mov	esi, ecx
  402023:	6a 08                     push	dword 00000008h
  402025:	68 90 a1 40 00            push	dword 0040A190h
  40202a:	8b 0e                     mov	ecx, [esi]
  40202c:	8b 01                     mov	eax, [ecx]
  40202e:	ff 50 10                  call	dword [eax+10h]
  402031:	8b ce                     mov	ecx, esi
  402033:	e8 b8 00 00 00            call	4020f0
  402038:	8b ce                     mov	ecx, esi
  40203a:	e8 c1 00 00 00            call	402100
  40203f:	8b ce                     mov	ecx, esi
  402041:	e8 2a 01 00 00            call	402170
  402046:	c6 46 18 01               mov	byte [esi+18h], 01h
  40204a:	c6 46 19 00               mov	byte [esi+19h], 00h
  40204e:	5e                        pop	esi
  40204f:	c3                        ret

402050 <no name>:
  402050:	56                        push	esi
  402051:	8b f1                     mov	esi, ecx
  402053:	57                        push	edi
  402054:	8a 46 18                  mov	al, [esi+18h]
  402057:	84 c0                     test	al, al
  402059:	75 05                     jnz	402060
  40205b:	e8 c0 ff ff ff            call	402020
  402060:	8b 7c 24 0c              >mov	edi, [esp+0Ch]
  402064:	8b 0e                     mov	ecx, [esi]
  402066:	8b 07                     mov	eax, [edi]
  402068:	50                        push	eax
  402069:	51                        push	ecx
  40206a:	e8 71 fb ff ff            call	401be0
  40206f:	8b 57 04                  mov	edx, [edi+04h]
  402072:	8b 06                     mov	eax, [esi]
  402074:	52                        push	edx
  402075:	50                        push	eax
  402076:	e8 65 fb ff ff            call	401be0
  40207b:	8b 4f 08                  mov	ecx, [edi+08h]
  40207e:	8b 16                     mov	edx, [esi]
  402080:	51                        push	ecx
  402081:	52                        push	edx
  402082:	e8 59 fb ff ff            call	401be0
  402087:	8b 47 0c                  mov	eax, [edi+0Ch]
  40208a:	8b 0e                     mov	ecx, [esi]
  40208c:	50                        push	eax
  40208d:	51                        push	ecx
  40208e:	e8 4d fb ff ff            call	401be0
  402093:	8b 57 10                  mov	edx, [edi+10h]
  402096:	8b 06                     mov	eax, [esi]
  402098:	52                        push	edx
  402099:	50                        push	eax
  40209a:	e8 41 fb ff ff            call	401be0
  40209f:	8b 0e                     mov	ecx, [esi]
  4020a1:	83 c4 28                  add	esp, 28h
  4020a4:	83 c7 14                  add	edi, 14h
  4020a7:	8b 11                     mov	edx, [ecx]
  4020a9:	6a 1c                     push	dword 0000001Ch
  4020ab:	57                        push	edi
  4020ac:	ff 52 10                  call	dword [edx+10h]
  4020af:	8b 44 24 10               mov	eax, [esp+10h]
  4020b3:	85 c0                     test	eax, eax
  4020b5:	74 2c                     jz	4020e3
  4020b7:	8b 7c 24 14               mov	edi, [esp+14h]
  4020bb:	85 ff                     test	edi, edi
  4020bd:	74 24                     jz	4020e3
  4020bf:	8b 0e                     mov	ecx, [esi]
  4020c1:	57                        push	edi
  4020c2:	50                        push	eax
  4020c3:	8b 11                     mov	edx, [ecx]
  4020c5:	ff 52 10                  call	dword [edx+10h]
  4020c8:	8b c7                     mov	eax, edi
  4020ca:	83 e0 03                  and	eax, 03h
  4020cd:	76 14                     jbe	4020e3
  4020cf:	8b 0e                     mov	ecx, [esi]
  4020d1:	be 04 00 00 00            mov	esi, 00000004h
  4020d6:	2b f0                     sub	esi, eax
  4020d8:	8b 11                     mov	edx, [ecx]
  4020da:	56                        push	esi
  4020db:	68 9c a1 40 00            push	dword 0040A19Ch
  4020e0:	ff 52 10                  call	dword [edx+10h]
  4020e3:	5f                       >pop	edi
  4020e4:	b8 6e 00 00 00            mov	eax, 0000006Eh
  4020e9:	5e                        pop	esi
  4020ea:	c2 0c 00                  ret	000Ch
     ...

4020f0 <no name>:
  4020f0:	8b 41 14                  mov	eax, [ecx+14h]
  4020f3:	8b 09                     mov	ecx, [ecx]
  4020f5:	50                        push	eax
  4020f6:	51                        push	ecx
  4020f7:	e8 e4 fa ff ff            call	401be0
  4020fc:	83 c4 08                  add	esp, 08h
  4020ff:	c3                        ret

402100 <no name>:
  402100:	81 ec 80 00 00 00         sub	esp, 00000080h
  402106:	8b d1                     mov	edx, ecx
  402108:	b9 20 00 00 00            mov	ecx, 00000020h
  40210d:	33 c0                     xor	eax, eax
  40210f:	53                        push	ebx
  402110:	56                        push	esi
  402111:	57                        push	edi
  402112:	8d 7c 24 0c               lea	edi, [esp+0Ch]
  402116:	f3 ab                     rep stosd
  402118:	8b 7a 08                  mov	edi, [edx+08h]
  40211b:	85 ff                     test	edi, edi
  40211d:	75 06                     jnz	402125
  40211f:	8b 3d 5c a0 40 00         mov	edi, [0040A05Ch]
  402125:	83 c9 ff                 >or	ecx, FFh
  402128:	33 c0                     xor	eax, eax
  40212a:	f2 ae                     repne scasb
  40212c:	f7 d1                     not	ecx
  40212e:	2b f9                     sub	edi, ecx
  402130:	8d 5c 24 0c               lea	ebx, [esp+0Ch]
  402134:	8b c1                     mov	eax, ecx
  402136:	8b f7                     mov	esi, edi
  402138:	8b fb                     mov	edi, ebx
  40213a:	68 80 00 00 00            push	dword 00000080h
  40213f:	c1 e9 02                  shr	ecx, 02h
  402142:	f3 a5                     rep movsd
  402144:	8b c8                     mov	ecx, eax
  402146:	8d 44 24 10               lea	eax, [esp+10h]
  40214a:	83 e1 03                  and	ecx, 03h
  40214d:	50                        push	eax
  40214e:	f3 a4                     rep movsb
  402150:	8b 0a                     mov	ecx, [edx]
  402152:	8b 11                     mov	edx, [ecx]
  402154:	ff 52 10                  call	dword [edx+10h]
  402157:	5f                        pop	edi
  402158:	5e                        pop	esi
  402159:	5b                        pop	ebx
  40215a:	81 c4 80 00 00 00         add	esp, 00000080h
  402160:	c3                        ret
     ...

402170 <no name>:
  402170:	81 ec 80 00 00 00         sub	esp, 00000080h
  402176:	8b d1                     mov	edx, ecx
  402178:	b9 20 00 00 00            mov	ecx, 00000020h
  40217d:	33 c0                     xor	eax, eax
  40217f:	53                        push	ebx
  402180:	56                        push	esi
  402181:	57                        push	edi
  402182:	8d 7c 24 0c               lea	edi, [esp+0Ch]
  402186:	f3 ab                     rep stosd
  402188:	8b 3d 58 c0 40 00         mov	edi, [0040C058h]
  40218e:	83 c9 ff                  or	ecx, FFh
  402191:	f2 ae                     repne scasb
  402193:	f7 d1                     not	ecx
  402195:	2b f9                     sub	edi, ecx
  402197:	8d 5c 24 0c               lea	ebx, [esp+0Ch]
  40219b:	8b c1                     mov	eax, ecx
  40219d:	8b f7                     mov	esi, edi
  40219f:	8b fb                     mov	edi, ebx
  4021a1:	68 80 00 00 00            push	dword 00000080h
  4021a6:	c1 e9 02                  shr	ecx, 02h
  4021a9:	f3 a5                     rep movsd
  4021ab:	8b c8                     mov	ecx, eax
  4021ad:	8d 44 24 10               lea	eax, [esp+10h]
  4021b1:	83 e1 03                  and	ecx, 03h
  4021b4:	50                        push	eax
  4021b5:	f3 a4                     rep movsb
  4021b7:	8b 0a                     mov	ecx, [edx]
  4021b9:	8b 11                     mov	edx, [ecx]
  4021bb:	ff 52 10                  call	dword [edx+10h]
  4021be:	5f                        pop	edi
  4021bf:	5e                        pop	esi
  4021c0:	5b                        pop	ebx
  4021c1:	81 c4 80 00 00 00         add	esp, 00000080h
  4021c7:	c3                        ret
     ...

4021d0 <no name>:
  4021d0:	83 ec 30                  sub	esp, 30h
  4021d3:	56                        push	esi
  4021d4:	8b d1                     mov	edx, ecx
  4021d6:	57                        push	edi
  4021d7:	33 f6                     xor	esi, esi
  4021d9:	b9 07 00 00 00            mov	ecx, 00000007h
  4021de:	33 c0                     xor	eax, eax
  4021e0:	8d 7c 24 1c               lea	edi, [esp+1Ch]
  4021e4:	89 74 24 0c               mov	[esp+0Ch], esi
  4021e8:	89 74 24 10               mov	[esp+10h], esi
  4021ec:	89 74 24 14               mov	[esp+14h], esi
  4021f0:	89 74 24 18               mov	[esp+18h], esi
  4021f4:	56                        push	esi
  4021f5:	f3 ab                     rep stosd
  4021f7:	8d 44 24 0c               lea	eax, [esp+0Ch]
  4021fb:	56                        push	esi
  4021fc:	50                        push	eax
  4021fd:	8b ca                     mov	ecx, edx
  4021ff:	c7 44 24 14 ff ff ff      mov	dword [esp+14h], FFFFFFFFh
		ff 
  402207:	e8 44 fe ff ff            call	402050
  40220c:	5f                        pop	edi
  40220d:	5e                        pop	esi
  40220e:	83 c4 30                  add	esp, 30h
  402211:	c3                        ret
     ...

402220 <no name>:
  402220:	8b 4c 24 04               mov	ecx, [esp+04h]
  402224:	8b 44 24 0c               mov	eax, [esp+0Ch]
  402228:	56                        push	esi
  402229:	8b 74 24 0c               mov	esi, [esp+0Ch]
  40222d:	3b ce                     cmp	ecx, esi
  40222f:	74 0e                     jz	40223f
  402231:	85 c0                    >test	eax, eax
  402233:	74 04                     jz	402239
  402235:	8a 11                     mov	dl, [ecx]
  402237:	88 10                     mov	[eax], dl
  402239:	40                       >inc	eax
  40223a:	41                        inc	ecx
  40223b:	3b ce                     cmp	ecx, esi
  40223d:	75 f2                     jnz	402231
  40223f:	5e                       >pop	esi
  402240:	c2 0c 00                  ret	000Ch
     ...

402250 <no name>:
  402250:	8b 44 24 08               mov	eax, [esp+08h]
  402254:	85 c0                     test	eax, eax
  402256:	76 18                     jbe	402270
  402258:	56                        push	esi
  402259:	8b 74 24 10               mov	esi, [esp+10h]
  40225d:	8b c8                     mov	ecx, eax
  40225f:	8b 44 24 08               mov	eax, [esp+08h]
  402263:	85 c0                    >test	eax, eax
  402265:	74 04                     jz	40226b
  402267:	8a 16                     mov	dl, [esi]
  402269:	88 10                     mov	[eax], dl
  40226b:	40                       >inc	eax
  40226c:	49                        dec	ecx
  40226d:	75 f4                     jnz	402263
  40226f:	5e                        pop	esi
  402270:	c2 0c 00                 >ret	000Ch
     ...

402280 <no name>:
  402280:	8b 44 24 04               mov	eax, [esp+04h]
  402284:	85 c0                     test	eax, eax
  402286:	74 08                     jz	402290
  402288:	8b 4c 24 08               mov	ecx, [esp+08h]
  40228c:	8a 11                     mov	dl, [ecx]
  40228e:	88 10                     mov	[eax], dl
  402290:	c3                       >ret
     ...

4024b0 <no name>:
  4024b0:	8b 4c 24 04               mov	ecx, [esp+04h]
  4024b4:	8d 41 01                  lea	eax, [ecx+01h]
  4024b7:	83 f8 04                  cmp	eax, 04h
  4024ba:	77 27                     ja	4024e3
  4024bc:	ff 24 85 00 25 40 00      jmp	dword [eax*4+00402500h]
     ...
  4024e3:	51                       >push	ecx
  4024e4:	68 ac c0 40 00            push	dword 0040C0ACh
  4024e9:	68 98 c5 40 00            push	dword 0040C598h
  4024ee:	ff 15 44 a1 40 00         call	dword [0040A144h]	; <sprintf>
  4024f4:	83 c4 0c                  add	esp, 0Ch
  4024f7:	b8 98 c5 40 00            mov	eax, 0040C598h
  4024fc:	c2 04 00                  ret	0004h
     ...

402520 <no name>:
  402520:	6a ff                     push	dword FFFFFFFFh
  402522:	64 a1 00 00 00 00         mov	eax, [fs:0000h]
  402528:	68 56 8a 40 00            push	dword 00408A56h
  40252d:	50                        push	eax
  40252e:	b8 90 20 00 00            mov	eax, 00002090h
  402533:	64 89 25 00 00 00 00      mov	[fs:00000000h], esp
  40253a:	e8 91 62 00 00            call	4087d0
  40253f:	a1 84 a0 40 00            mov	eax, [40A084h]
  402544:	53                        push	ebx
  402545:	8b 1d 64 a1 40 00         mov	ebx, [0040A164h]
  40254b:	55                        push	ebp
  40254c:	8b 28                     mov	ebp, [eax]
  40254e:	56                        push	esi
  40254f:	8b b4 24 ac 20 00 00      mov	esi, [esp+000020ACh]
  402556:	8d 4c 24 44               lea	ecx, [esp+44h]
  40255a:	57                        push	edi
  40255b:	51                        push	ecx
  40255c:	8b ce                     mov	ecx, esi
  40255e:	ff d3                     call	ebx
  402560:	8b d0                     mov	edx, eax
  402562:	bf 78 c1 40 00            mov	edi, 0040C178h
  402567:	83 c9 ff                  or	ecx, FFh
  40256a:	33 c0                     xor	eax, eax
  40256c:	c7 84 24 a8 20 00 00      mov	dword [esp+000020A8h], 00000000h
		00 00 00 00 
  402577:	f2 ae                     repne scasb
  402579:	f7 d1                     not	ecx
  40257b:	49                        dec	ecx
  40257c:	51                        push	ecx
  40257d:	55                        push	ebp
  40257e:	68 78 c1 40 00            push	dword 0040C178h
  402583:	8b ca                     mov	ecx, edx
  402585:	ff 15 1c a0 40 00         call	dword [0040A01Ch]	; <?find_last_of@?$basic_string@DU?$char_traits@D@std@@V?$allocator@D@2@@std@@QBEIPBDII@Z>
  40258b:	83 cd ff                  or	ebp, FFh
  40258e:	6a 01                     push	dword 00000001h
  402590:	8d 4c 24 4c               lea	ecx, [esp+4Ch]
  402594:	8b f8                     mov	edi, eax
  402596:	89 ac 24 ac 20 00 00      mov	[esp+000020ACh], ebp
  40259d:	ff 15 54 a0 40 00         call	dword [0040A054h]	; <?_Tidy@?$basic_string@DU?$char_traits@D@std@@V?$allocator@D@2@@std@@AAEX_N@Z>
  4025a3:	8d 94 24 90 00 00 00      lea	edx, [esp+00000090h]
  4025aa:	8b ce                     mov	ecx, esi
  4025ac:	52                        push	edx
  4025ad:	ff d3                     call	ebx
  4025af:	8b 0d 84 a0 40 00         mov	ecx, [0040A084h]
  4025b5:	c7 84 24 a8 20 00 00      mov	dword [esp+000020A8h], 00000001h
		01 00 00 00 
  4025c0:	8b 11                     mov	edx, [ecx]
  4025c2:	8d 4c 24 38               lea	ecx, [esp+38h]
  4025c6:	52                        push	edx
  4025c7:	57                        push	edi
  4025c8:	51                        push	ecx
  4025c9:	8b c8                     mov	ecx, eax
  4025cb:	ff 15 8c a0 40 00         call	dword [0040A08Ch]	; <?substr@?$basic_string@DU?$char_traits@D@std@@V?$allocator@D@2@@std@@QBE?AV12@II@Z>
  4025d1:	6a 01                     push	dword 00000001h
  4025d3:	8d 8c 24 94 00 00 00      lea	ecx, [esp+00000094h]
  4025da:	c6 84 24 ac 20 00 00      mov	byte [esp+000020ACh], 03h
		03 
  4025e2:	ff 15 54 a0 40 00         call	dword [0040A054h]	; <?_Tidy@?$basic_string@DU?$char_traits@D@std@@V?$allocator@D@2@@std@@AAEX_N@Z>
  4025e8:	56                        push	esi
  4025e9:	8d 4c 24 1c               lea	ecx, [esp+1Ch]
  4025ed:	ff 15 68 a1 40 00         call	dword [0040A168h]	; <??0FileLocation@@QAE@ABV0@@Z>
  4025f3:	8a 54 24 13               mov	dl, [esp+13h]
  4025f7:	6a 00                     push	dword 00000000h
  4025f9:	8d 4c 24 4c               lea	ecx, [esp+4Ch]
  4025fd:	c6 84 24 ac 20 00 00      mov	byte [esp+000020ACh], 04h
		04 
  402605:	88 54 24 4c               mov	[esp+4Ch], dl
  402609:	ff 15 54 a0 40 00         call	dword [0040A054h]	; <?_Tidy@?$basic_string@DU?$char_traits@D@std@@V?$allocator@D@2@@std@@AAEX_N@Z>
  40260f:	bf 70 c1 40 00            mov	edi, 0040C170h
  402614:	8b cd                     mov	ecx, ebp
  402616:	33 c0                     xor	eax, eax
  402618:	f2 ae                     repne scasb
  40261a:	f7 d1                     not	ecx
  40261c:	49                        dec	ecx
  40261d:	51                        push	ecx
  40261e:	68 70 c1 40 00            push	dword 0040C170h
  402623:	8d 4c 24 50               lea	ecx, [esp+50h]
  402627:	ff 15 90 a0 40 00         call	dword [0040A090h]	; <?assign@?$basic_string@DU?$char_traits@D@std@@V?$allocator@D@2@@std@@QAEAAV12@PBDI@Z>
  40262d:	c6 84 24 a8 20 00 00      mov	byte [esp+000020A8h], 05h
		05 
  402635:	8d 44 24 48               lea	eax, [esp+48h]
  402639:	8d 4c 24 14               lea	ecx, [esp+14h]
  40263d:	50                        push	eax
  40263e:	51                        push	ecx
  40263f:	8d 4c 24 20               lea	ecx, [esp+20h]
  402643:	ff 15 58 a1 40 00         call	dword [0040A158h]	; <?ExtendFileName@FileLocation@@QBE?AV1@ABV?$basic_string@DU?$char_traits@D@std@@V?$allocator@D@2@@std@@@Z>
  402649:	6a 01                     push	dword 00000001h
  40264b:	8d 4c 24 4c               lea	ecx, [esp+4Ch]
  40264f:	c6 84 24 ac 20 00 00      mov	byte [esp+000020ACh], 07h
		07 
  402657:	ff 15 54 a0 40 00         call	dword [0040A054h]	; <?_Tidy@?$basic_string@DU?$char_traits@D@std@@V?$allocator@D@2@@std@@AAEX_N@Z>
  40265d:	68 50 c0 40 00            push	dword 0040C050h
  402662:	8d 4c 24 1c               lea	ecx, [esp+1Ch]
  402666:	ff 15 74 a1 40 00         call	dword [0040A174h]	; <?Open@FileLocation@@QBEPAU_iobuf@@PBD@Z>
  40266c:	85 c0                     test	eax, eax
  40266e:	89 44 24 34               mov	[esp+34h], eax
  402672:	75 6f                     jnz	4026e3
  402674:	8d 54 24 24               lea	edx, [esp+24h]
  402678:	8b ce                     mov	ecx, esi
  40267a:	52                        push	edx
  40267b:	ff d3                     call	ebx
  40267d:	8b 40 04                  mov	eax, [eax+04h]
  402680:	85 c0                     test	eax, eax
  402682:	75 05                     jnz	402689
  402684:	a1 5c a0 40 00            mov	eax, [40A05Ch]
  402689:	50                       >push	eax
  40268a:	68 48 c1 40 00            push	dword 0040C148h
  40268f:	ff 15 4c a1 40 00         call	dword [0040A14Ch]	; <printf>
  402695:	83 c4 08                  add	esp, 08h
  402698:	8d 4c 24 24               lea	ecx, [esp+24h]
  40269c:	6a 01                     push	dword 00000001h
  40269e:	ff 15 54 a0 40 00         call	dword [0040A054h]	; <?_Tidy@?$basic_string@DU?$char_traits@D@std@@V?$allocator@D@2@@std@@AAEX_N@Z>
  4026a4:	8b 35 6c a1 40 00         mov	esi, [0040A16Ch]
  4026aa:	8d 4c 24 14               lea	ecx, [esp+14h]
  4026ae:	c6 84 24 a8 20 00 00      mov	byte [esp+000020A8h], 04h
		04 
  4026b6:	ff d6                     call	esi
  4026b8:	8d 4c 24 18               lea	ecx, [esp+18h]
  4026bc:	c6 84 24 a8 20 00 00      mov	byte [esp+000020A8h], 03h
		03 
  4026c4:	ff d6                     call	esi
  4026c6:	6a 01                     push	dword 00000001h
  4026c8:	8d 4c 24 3c               lea	ecx, [esp+3Ch]
  4026cc:	89 ac 24 ac 20 00 00      mov	[esp+000020ACh], ebp
  4026d3:	ff 15 54 a0 40 00         call	dword [0040A054h]	; <?_Tidy@?$basic_string@DU?$char_traits@D@std@@V?$allocator@D@2@@std@@AAEX_N@Z>
  4026d9:	b8 fb ff ff ff            mov	eax, FFFFFFFBh
  4026de:	e9 6a 06 00 00            jmp	402d4d
  4026e3:	8d 44 24 14              >lea	eax, [esp+14h]
  4026e7:	8d 4c 24 58               lea	ecx, [esp+58h]
  4026eb:	50                        push	eax
  4026ec:	e8 3f f5 ff ff            call	401c30
  4026f1:	8d 4c 24 64               lea	ecx, [esp+64h]
  4026f5:	c6 84 24 a8 20 00 00      mov	byte [esp+000020A8h], 08h
		08 
  4026fd:	e8 ae f6 ff ff            call	401db0
  402702:	8d 4c 24 58               lea	ecx, [esp+58h]
  402706:	c6 84 24 a8 20 00 00      mov	byte [esp+000020A8h], 09h
		09 
  40270e:	51                        push	ecx
  40270f:	8d 4c 24 68               lea	ecx, [esp+68h]
  402713:	e8 18 f8 ff ff            call	401f30
  402718:	83 f8 6e                  cmp	eax, 6Eh
  40271b:	0f 84 93 00 00 00         jz	4027b4
  402721:	8d 54 24 24               lea	edx, [esp+24h]
  402725:	8d 4c 24 14               lea	ecx, [esp+14h]
  402729:	52                        push	edx
  40272a:	ff d3                     call	ebx
  40272c:	8b 40 04                  mov	eax, [eax+04h]
  40272f:	85 c0                     test	eax, eax
  402731:	75 05                     jnz	402738
  402733:	a1 5c a0 40 00            mov	eax, [40A05Ch]
  402738:	50                       >push	eax
  402739:	68 2c c1 40 00            push	dword 0040C12Ch
  40273e:	ff 15 4c a1 40 00         call	dword [0040A14Ch]	; <printf>
  402744:	83 c4 08                  add	esp, 08h
  402747:	8d 4c 24 24               lea	ecx, [esp+24h]
  40274b:	6a 01                     push	dword 00000001h
  40274d:	ff 15 54 a0 40 00         call	dword [0040A054h]	; <?_Tidy@?$basic_string@DU?$char_traits@D@std@@V?$allocator@D@2@@std@@AAEX_N@Z>
  402753:	8d 4c 24 64               lea	ecx, [esp+64h]
  402757:	c6 84 24 a8 20 00 00      mov	byte [esp+000020A8h], 08h
		08 
  40275f:	e8 7c f6 ff ff            call	401de0
  402764:	8d 4c 24 58               lea	ecx, [esp+58h]
  402768:	c6 84 24 a8 20 00 00      mov	byte [esp+000020A8h], 07h
		07 
  402770:	e8 fb f4 ff ff            call	401c70
  402775:	8b 35 6c a1 40 00         mov	esi, [0040A16Ch]
  40277b:	8d 4c 24 14               lea	ecx, [esp+14h]
  40277f:	c6 84 24 a8 20 00 00      mov	byte [esp+000020A8h], 04h
		04 
  402787:	ff d6                     call	esi
  402789:	8d 4c 24 18               lea	ecx, [esp+18h]
  40278d:	c6 84 24 a8 20 00 00      mov	byte [esp+000020A8h], 03h
		03 
  402795:	ff d6                     call	esi
  402797:	6a 01                     push	dword 00000001h
  402799:	8d 4c 24 3c               lea	ecx, [esp+3Ch]
  40279d:	89 ac 24 ac 20 00 00      mov	[esp+000020ACh], ebp
  4027a4:	ff 15 54 a0 40 00         call	dword [0040A054h]	; <?_Tidy@?$basic_string@DU?$char_traits@D@std@@V?$allocator@D@2@@std@@AAEX_N@Z>
  4027aa:	b8 8a 00 00 00            mov	eax, 0000008Ah
  4027af:	e9 99 05 00 00            jmp	402d4d
  4027b4:	6a 40                    >push	dword 00000040h
  4027b6:	e8 c5 5f 00 00            call	408780	; <??2@YAPAXI@Z>
  4027bb:	8b d8                     mov	ebx, eax
  4027bd:	83 c4 04                  add	esp, 04h
  4027c0:	89 5c 24 24               mov	[esp+24h], ebx
  4027c4:	85 db                     test	ebx, ebx
  4027c6:	c6 84 24 a8 20 00 00      mov	byte [esp+000020A8h], 0Ah
		0a 
  4027ce:	74 10                     jz	4027e0
  4027d0:	8b cb                     mov	ecx, ebx
  4027d2:	e8 c9 05 00 00            call	402da0
  4027d7:	c7 43 3c 01 00 00 00      mov	dword [ebx+3Ch], 00000001h
  4027de:	eb 02                     jmp	4027e2
  4027e0:	33 db                    >xor	ebx, ebx
  4027e2:	6a 14                    >push	dword 00000014h
  4027e4:	c6 84 24 ac 20 00 00      mov	byte [esp+000020ACh], 09h
		09 
  4027ec:	e8 8f 5f 00 00            call	408780	; <??2@YAPAXI@Z>
  4027f1:	8b e8                     mov	ebp, eax
  4027f3:	83 c4 04                  add	esp, 04h
  4027f6:	89 6c 24 24               mov	[esp+24h], ebp
  4027fa:	85 ed                     test	ebp, ebp
  4027fc:	c6 84 24 a8 20 00 00      mov	byte [esp+000020A8h], 0Bh
		0b 
  402804:	74 15                     jz	40281b
  402806:	8d 44 24 13               lea	eax, [esp+13h]
  40280a:	8b cd                     mov	ecx, ebp
  40280c:	50                        push	eax
  40280d:	e8 9e 4c 00 00            call	4074b0
  402812:	c7 45 10 01 00 00 00      mov	dword [ebp+10h], 00000001h
  402819:	eb 02                     jmp	40281d
  40281b:	33 ed                    >xor	ebp, ebp
  40281d:	8b 45 04                 >mov	eax, [ebp+04h]
  402820:	c6 84 24 a8 20 00 00      mov	byte [esp+000020A8h], 09h
		09 
  402828:	85 c0                     test	eax, eax
  40282a:	c6 44 24 13 00            mov	byte [esp+13h], 00h
  40282f:	75 04                     jnz	402835
  402831:	33 d2                     xor	edx, edx
  402833:	eb 05                     jmp	40283a
  402835:	8b 55 08                 >mov	edx, [ebp+08h]
  402838:	2b d0                     sub	edx, eax
  40283a:	8b 4c 24 40              >mov	ecx, [esp+40h]
  40283e:	3b d1                     cmp	edx, ecx
  402840:	73 22                     jae	402864
  402842:	85 c0                     test	eax, eax
  402844:	75 04                     jnz	40284a
  402846:	33 d2                     xor	edx, edx
  402848:	eb 05                     jmp	40284f
  40284a:	8b 55 08                 >mov	edx, [ebp+08h]
  40284d:	2b d0                     sub	edx, eax
  40284f:	8b 45 08                 >mov	eax, [ebp+08h]
  402852:	8d 74 24 13               lea	esi, [esp+13h]
  402856:	2b ca                     sub	ecx, edx
  402858:	56                        push	esi
  402859:	51                        push	ecx
  40285a:	50                        push	eax
  40285b:	8b cd                     mov	ecx, ebp
  40285d:	e8 8e f1 ff ff            call	4019f0
  402862:	eb 1a                     jmp	40287e
  402864:	85 c0                    >test	eax, eax
  402866:	74 1a                     jz	402882
  402868:	8b 55 08                  mov	edx, [ebp+08h]
  40286b:	8b f2                     mov	esi, edx
  40286d:	2b f0                     sub	esi, eax
  40286f:	3b ce                     cmp	ecx, esi
  402871:	73 0f                     jae	402882
  402873:	03 c8                     add	ecx, eax
  402875:	52                        push	edx
  402876:	51                        push	ecx
  402877:	8b cd                     mov	ecx, ebp
  402879:	e8 b2 44 00 00            call	406d30
  40287e:	8b 4c 24 40              >mov	ecx, [esp+40h]
  402882:	8b 74 24 3c              >mov	esi, [esp+3Ch]
  402886:	85 f6                     test	esi, esi
  402888:	75 06                     jnz	402890
  40288a:	8b 35 5c a0 40 00         mov	esi, [0040A05Ch]
  402890:	8b 7d 04                 >mov	edi, [ebp+04h]
  402893:	8b d1                     mov	edx, ecx
  402895:	c1 e9 02                  shr	ecx, 02h
  402898:	f3 a5                     rep movsd
  40289a:	8b ca                     mov	ecx, edx
  40289c:	83 e1 03                  and	ecx, 03h
  40289f:	f3 a4                     rep movsb
  4028a1:	c7 43 04 ef be ef be      mov	dword [ebx+04h], BEEFBEEFh
  4028a8:	8b 44 24 40               mov	eax, [esp+40h]
  4028ac:	89 43 08                  mov	[ebx+08h], eax
  4028af:	8b 4c 24 40               mov	ecx, [esp+40h]
  4028b3:	89 4b 10                  mov	[ebx+10h], ecx
  4028b6:	c7 03 02 00 00 00         mov	dword [ebx], 00000002h
  4028bc:	8b 4b 38                  mov	ecx, [ebx+38h]
  4028bf:	85 c9                     test	ecx, ecx
  4028c1:	74 0c                     jz	4028cf
  4028c3:	e8 38 42 00 00            call	406b00
  4028c8:	33 f6                     xor	esi, esi
  4028ca:	89 73 38                  mov	[ebx+38h], esi
  4028cd:	eb 02                     jmp	4028d1
  4028cf:	33 f6                    >xor	esi, esi
  4028d1:	8d 7b 34                 >lea	edi, [ebx+34h]
  4028d4:	8b cb                     mov	ecx, ebx
  4028d6:	57                        push	edi
  4028d7:	e8 94 05 00 00            call	402e70
  4028dc:	3b ee                     cmp	ebp, esi
  4028de:	89 2f                     mov	[edi], ebp
  4028e0:	74 0c                     jz	4028ee
  4028e2:	8d 55 10                  lea	edx, [ebp+10h]
  4028e5:	52                        push	edx
  4028e6:	e8 15 5a 00 00            call	408300
  4028eb:	83 c4 04                  add	esp, 04h
  4028ee:	53                       >push	ebx
  4028ef:	8d 4c 24 68               lea	ecx, [esp+68h]
  4028f3:	e8 58 f6 ff ff            call	401f50
  4028f8:	8d 45 10                  lea	eax, [ebp+10h]
  4028fb:	50                        push	eax
  4028fc:	e8 0f 5a 00 00            call	408310
  402901:	83 c4 04                  add	esp, 04h
  402904:	3b c6                     cmp	eax, esi
  402906:	75 14                     jnz	40291c
  402908:	3b ee                     cmp	ebp, esi
  40290a:	74 10                     jz	40291c
  40290c:	8b cd                     mov	ecx, ebp
  40290e:	e8 ad f0 ff ff            call	4019c0
  402913:	55                        push	ebp
  402914:	e8 33 5e 00 00            call	40874c
  402919:	83 c4 04                  add	esp, 04h
  40291c:	8d 4b 3c                 >lea	ecx, [ebx+3Ch]
  40291f:	51                        push	ecx
  402920:	e8 eb 59 00 00            call	408310
  402925:	83 c4 04                  add	esp, 04h
  402928:	3b c6                     cmp	eax, esi
  40292a:	75 15                     jnz	402941
  40292c:	3b de                     cmp	ebx, esi
  40292e:	74 11                     jz	402941
  402930:	56                        push	esi
  402931:	8b cb                     mov	ecx, ebx
  402933:	e8 a8 04 00 00            call	402de0
  402938:	53                        push	ebx
  402939:	e8 0e 5e 00 00            call	40874c
  40293e:	83 c4 04                  add	esp, 04h
  402941:	6a 40                    >push	dword 00000040h
  402943:	e8 38 5e 00 00            call	408780	; <??2@YAPAXI@Z>
  402948:	8b f8                     mov	edi, eax
  40294a:	83 c4 04                  add	esp, 04h
  40294d:	89 7c 24 24               mov	[esp+24h], edi
  402951:	3b fe                     cmp	edi, esi
  402953:	c6 84 24 a8 20 00 00      mov	byte [esp+000020A8h], 0Ch
		0c 
  40295b:	74 1d                     jz	40297a
  40295d:	8b cf                     mov	ecx, edi
  40295f:	e8 0c 04 00 00            call	402d70
  402964:	89 77 30                  mov	[edi+30h], esi
  402967:	89 77 34                  mov	[edi+34h], esi
  40296a:	89 77 38                  mov	[edi+38h], esi
  40296d:	c7 47 3c 01 00 00 00      mov	dword [edi+3Ch], 00000001h
  402974:	89 7c 24 1c               mov	[esp+1Ch], edi
  402978:	eb 04                     jmp	40297e
  40297a:	89 74 24 1c              >mov	[esp+1Ch], esi
  40297e:	6a 14                    >push	dword 00000014h
  402980:	c6 84 24 ac 20 00 00      mov	byte [esp+000020ACh], 09h
		09 
  402988:	e8 f3 5d 00 00            call	408780	; <??2@YAPAXI@Z>
  40298d:	83 c4 04                  add	esp, 04h
  402990:	3b c6                     cmp	eax, esi
  402992:	74 18                     jz	4029ac
  402994:	8a 54 24 13               mov	dl, [esp+13h]
  402998:	89 70 04                  mov	[eax+04h], esi
  40299b:	89 70 08                  mov	[eax+08h], esi
  40299e:	89 70 0c                  mov	[eax+0Ch], esi
  4029a1:	88 10                     mov	[eax], dl
  4029a3:	c7 40 10 01 00 00 00      mov	dword [eax+10h], 00000001h
  4029aa:	8b f0                     mov	esi, eax
  4029ac:	8b 44 24 34              >mov	eax, [esp+34h]
  4029b0:	8d 8c 24 a0 00 00 00      lea	ecx, [esp+000000A0h]
  4029b7:	50                        push	eax
  4029b8:	68 00 20 00 00            push	dword 00002000h
  4029bd:	6a 01                     push	dword 00000001h
  4029bf:	51                        push	ecx
  4029c0:	ff 15 2c a1 40 00         call	dword [0040A12Ch]	; <fread>
  4029c6:	8b c8                     mov	ecx, eax
  4029c8:	8b 46 08                  mov	eax, [esi+08h]
  4029cb:	89 4c 24 30               mov	[esp+30h], ecx
  4029cf:	8d 94 24 b0 00 00 00      lea	edx, [esp+000000B0h]
  4029d6:	8d 9c 0c b0 00 00 00      lea	ebx, [esp+ecx*1+000000B0h]
  4029dd:	8b 4e 0c                  mov	ecx, [esi+0Ch]
  4029e0:	8b eb                     mov	ebp, ebx
  4029e2:	2b c8                     sub	ecx, eax
  4029e4:	2b ea                     sub	ebp, edx
  4029e6:	83 c4 10                  add	esp, 10h
  4029e9:	3b cd                     cmp	ecx, ebp
  4029eb:	8b f8                     mov	edi, eax
  4029ed:	0f 83 b9 00 00 00         jae	402aac
  4029f3:	8b 56 04                  mov	edx, [esi+04h]
  4029f6:	85 d2                     test	edx, edx
  4029f8:	74 08                     jz	402a02
  4029fa:	8b c8                     mov	ecx, eax
  4029fc:	2b ca                     sub	ecx, edx
  4029fe:	3b e9                     cmp	ebp, ecx
  402a00:	72 02                     jb	402a04
  402a02:	8b cd                    >mov	ecx, ebp
  402a04:	85 d2                    >test	edx, edx
  402a06:	75 04                     jnz	402a0c
  402a08:	33 c0                     xor	eax, eax
  402a0a:	eb 02                     jmp	402a0e
  402a0c:	2b c2                    >sub	eax, edx
  402a0e:	03 c1                    >add	eax, ecx
  402a10:	85 c0                     test	eax, eax
  402a12:	89 44 24 24               mov	[esp+24h], eax
  402a16:	7d 02                     jge	402a1a
  402a18:	33 c0                     xor	eax, eax
  402a1a:	50                       >push	eax
  402a1b:	e8 60 5d 00 00            call	408780	; <??2@YAPAXI@Z>
  402a20:	8b 56 04                  mov	edx, [esi+04h]
  402a23:	83 c4 04                  add	esp, 04h
  402a26:	8b d8                     mov	ebx, eax
  402a28:	8b ce                     mov	ecx, esi
  402a2a:	53                        push	ebx
  402a2b:	57                        push	edi
  402a2c:	52                        push	edx
  402a2d:	e8 ee f7 ff ff            call	402220
  402a32:	50                        push	eax
  402a33:	8b 44 24 24               mov	eax, [esp+24h]
  402a37:	8d 8c 24 a4 00 00 00      lea	ecx, [esp+000000A4h]
  402a3e:	8d 84 04 a4 00 00 00      lea	eax, [esp+eax*1+000000A4h]
  402a45:	50                        push	eax
  402a46:	51                        push	ecx
  402a47:	8b ce                     mov	ecx, esi
  402a49:	e8 d2 f7 ff ff            call	402220
  402a4e:	8b 56 08                  mov	edx, [esi+08h]
  402a51:	50                        push	eax
  402a52:	52                        push	edx
  402a53:	57                        push	edi
  402a54:	8b ce                     mov	ecx, esi
  402a56:	e8 c5 f7 ff ff            call	402220
  402a5b:	8b 46 08                  mov	eax, [esi+08h]
  402a5e:	8b 4e 04                  mov	ecx, [esi+04h]
  402a61:	50                        push	eax
  402a62:	51                        push	ecx
  402a63:	8b ce                     mov	ecx, esi
  402a65:	e8 f6 4d 00 00            call	407860
  402a6a:	8b 46 04                  mov	eax, [esi+04h]
  402a6d:	50                        push	eax
  402a6e:	e8 d9 5c 00 00            call	40874c
  402a73:	8b 54 24 28               mov	edx, [esp+28h]
  402a77:	83 c4 04                  add	esp, 04h
  402a7a:	8d 04 13                  lea	eax, [ebx+edx*1]
  402a7d:	89 46 0c                  mov	[esi+0Ch], eax
  402a80:	8b 46 04                  mov	eax, [esi+04h]
  402a83:	85 c0                     test	eax, eax
  402a85:	75 11                     jnz	402a98
  402a87:	33 c9                     xor	ecx, ecx
  402a89:	89 5e 04                  mov	[esi+04h], ebx
  402a8c:	8b cb                     mov	ecx, ebx
  402a8e:	03 cd                     add	ecx, ebp
  402a90:	89 4e 08                  mov	[esi+08h], ecx
  402a93:	e9 a2 00 00 00            jmp	402b3a
  402a98:	8b 4e 08                 >mov	ecx, [esi+08h]
  402a9b:	89 5e 04                  mov	[esi+04h], ebx
  402a9e:	2b c8                     sub	ecx, eax
  402aa0:	03 cb                     add	ecx, ebx
  402aa2:	03 cd                     add	ecx, ebp
  402aa4:	89 4e 08                  mov	[esi+08h], ecx
  402aa7:	e9 8e 00 00 00            jmp	402b3a
  402aac:	8b c8                    >mov	ecx, eax
  402aae:	2b cf                     sub	ecx, edi
  402ab0:	3b cd                     cmp	ecx, ebp
  402ab2:	73 3b                     jae	402aef
  402ab4:	8d 14 2f                  lea	edx, [edi+ebp*1]
  402ab7:	8b ce                     mov	ecx, esi
  402ab9:	52                        push	edx
  402aba:	50                        push	eax
  402abb:	57                        push	edi
  402abc:	e8 5f f7 ff ff            call	402220
  402ac1:	8b 46 08                  mov	eax, [esi+08h]
  402ac4:	8b ce                     mov	ecx, esi
  402ac6:	50                        push	eax
  402ac7:	2b c7                     sub	eax, edi
  402ac9:	53                        push	ebx
  402aca:	8d 84 04 a8 00 00 00      lea	eax, [esp+eax*1+000000A8h]
  402ad1:	50                        push	eax
  402ad2:	e8 49 f7 ff ff            call	402220
  402ad7:	8b 4e 08                  mov	ecx, [esi+08h]
  402ada:	57                        push	edi
  402adb:	2b cf                     sub	ecx, edi
  402add:	8d 84 24 a4 00 00 00      lea	eax, [esp+000000A4h]
  402ae4:	8d 94 0c a4 00 00 00      lea	edx, [esp+ecx*1+000000A4h]
  402aeb:	52                        push	edx
  402aec:	50                        push	eax
  402aed:	eb 3b                     jmp	402b2a
  402aef:	85 ed                    >test	ebp, ebp
  402af1:	76 47                     jbe	402b3a
  402af3:	50                        push	eax
  402af4:	50                        push	eax
  402af5:	2b c5                     sub	eax, ebp
  402af7:	8b ce                     mov	ecx, esi
  402af9:	50                        push	eax
  402afa:	e8 21 f7 ff ff            call	402220
  402aff:	8b 4e 08                  mov	ecx, [esi+08h]
  402b02:	8b c1                     mov	eax, ecx
  402b04:	2b c5                     sub	eax, ebp
  402b06:	3b f8                     cmp	edi, eax
  402b08:	74 0b                     jz	402b15
  402b0a:	8a 50 ff                 >mov	dl, [eax-01h]
  402b0d:	48                        dec	eax
  402b0e:	49                        dec	ecx
  402b0f:	3b c7                     cmp	eax, edi
  402b11:	88 11                     mov	[ecx], dl
  402b13:	75 f5                     jnz	402b0a
  402b15:	8b 44 24 20              >mov	eax, [esp+20h]
  402b19:	57                        push	edi
  402b1a:	8d 8c 24 a4 00 00 00      lea	ecx, [esp+000000A4h]
  402b21:	8d 84 04 a4 00 00 00      lea	eax, [esp+eax*1+000000A4h]
  402b28:	50                        push	eax
  402b29:	51                        push	ecx
  402b2a:	e8 91 f0 ff ff           >call	401bc0
  402b2f:	8b 46 08                  mov	eax, [esi+08h]
  402b32:	83 c4 0c                  add	esp, 0Ch
  402b35:	03 c5                     add	eax, ebp
  402b37:	89 46 08                  mov	[esi+08h], eax
  402b3a:	81 7c 24 20 00 20 00     >cmp	dword [esp+20h], 00002000h
		00 
  402b42:	0f 84 64 fe ff ff         jz	4029ac
  402b48:	8b 54 24 34               mov	edx, [esp+34h]
  402b4c:	52                        push	edx
  402b4d:	ff 15 34 a1 40 00         call	dword [0040A134h]	; <fclose>
  402b53:	8b 7c 24 20               mov	edi, [esp+20h]
  402b57:	33 ed                     xor	ebp, ebp
  402b59:	83 c4 04                  add	esp, 04h
  402b5c:	c7 47 04 fe ca fe ca      mov	dword [edi+04h], CAFECAFEh
  402b63:	8b 4e 04                  mov	ecx, [esi+04h]
  402b66:	3b cd                     cmp	ecx, ebp
  402b68:	75 04                     jnz	402b6e
  402b6a:	33 c0                     xor	eax, eax
  402b6c:	eb 05                     jmp	402b73
  402b6e:	8b 46 08                 >mov	eax, [esi+08h]
  402b71:	2b c1                     sub	eax, ecx
  402b73:	89 47 08                 >mov	[edi+08h], eax
  402b76:	c7 07 02 00 00 00         mov	dword [edi], 00000002h
  402b7c:	8b 4f 38                  mov	ecx, [edi+38h]
  402b7f:	3b cd                     cmp	ecx, ebp
  402b81:	74 08                     jz	402b8b
  402b83:	e8 78 3f 00 00            call	406b00
  402b88:	89 6f 38                  mov	[edi+38h], ebp
  402b8b:	8d 5f 34                 >lea	ebx, [edi+34h]
  402b8e:	8b cf                     mov	ecx, edi
  402b90:	53                        push	ebx
  402b91:	e8 da 02 00 00            call	402e70
  402b96:	3b f5                     cmp	esi, ebp
  402b98:	89 33                     mov	[ebx], esi
  402b9a:	74 0c                     jz	402ba8
  402b9c:	8d 46 10                  lea	eax, [esi+10h]
  402b9f:	50                        push	eax
  402ba0:	e8 5b 57 00 00            call	408300
  402ba5:	83 c4 04                  add	esp, 04h
  402ba8:	83 3f 02                 >cmp	dword [edi], 02h
  402bab:	0f 85 a8 00 00 00         jnz	402c59
  402bb1:	8b 5f 08                  mov	ebx, [edi+08h]
  402bb4:	83 fb 20                  cmp	ebx, 20h
  402bb7:	0f 82 9c 00 00 00         jb	402c59
  402bbd:	6a 14                     push	dword 00000014h
  402bbf:	e8 bc 5b 00 00            call	408780	; <??2@YAPAXI@Z>
  402bc4:	83 c4 04                  add	esp, 04h
  402bc7:	89 44 24 24               mov	[esp+24h], eax
  402bcb:	3b c5                     cmp	eax, ebp
  402bcd:	c6 84 24 a8 20 00 00      mov	byte [esp+000020A8h], 0Dh
		0d 
  402bd5:	74 09                     jz	402be0
  402bd7:	8b c8                     mov	ecx, eax
  402bd9:	e8 02 3f 00 00            call	406ae0
  402bde:	8b e8                     mov	ebp, eax
  402be0:	89 5c 24 24              >mov	[esp+24h], ebx
  402be4:	c7 44 24 28 00 00 00      mov	dword [esp+28h], 00000000h
		00 
  402bec:	df 6c 24 24               fild	qword [esp+24h]
  402bf0:	c6 84 24 a8 20 00 00      mov	byte [esp+000020A8h], 09h
		09 
  402bf8:	d8 0d d4 a1 40 00         fmul	dword [0040A1D4h]
  402bfe:	d8 05 d0 a1 40 00         fadd	dword [0040A1D0h]
  402c04:	e8 f7 5b 00 00            call	408800	; <_ftol>
  402c09:	8d 4c 24 13               lea	ecx, [esp+13h]
  402c0d:	89 44 24 1c               mov	[esp+1Ch], eax
  402c11:	51                        push	ecx
  402c12:	50                        push	eax
  402c13:	8b cd                     mov	ecx, ebp
  402c15:	c6 44 24 1b 00            mov	byte [esp+1Bh], 00h
  402c1a:	e8 11 3f 00 00            call	406b30
  402c1f:	8b cf                     mov	ecx, edi
  402c21:	e8 6a f3 ff ff            call	401f90
  402c26:	8b 40 04                  mov	eax, [eax+04h]
  402c29:	8b 4d 04                  mov	ecx, [ebp+04h]
  402c2c:	53                        push	ebx
  402c2d:	8d 54 24 20               lea	edx, [esp+20h]
  402c31:	50                        push	eax
  402c32:	52                        push	edx
  402c33:	51                        push	ecx
  402c34:	e8 07 5b 00 00            call	408740	; <zlib.dll.2
>
  402c39:	8b 44 24 1c               mov	eax, [esp+1Ch]
  402c3d:	3b c3                     cmp	eax, ebx
  402c3f:	73 11                     jae	402c52
  402c41:	55                        push	ebp
  402c42:	8b cf                     mov	ecx, edi
  402c44:	c7 07 03 00 00 00         mov	dword [edi], 00000003h
  402c4a:	89 47 10                  mov	[edi+10h], eax
  402c4d:	e8 8e 01 00 00            call	402de0
  402c52:	8b cd                    >mov	ecx, ebp
  402c54:	e8 a7 3e 00 00            call	406b00
  402c59:	57                       >push	edi
  402c5a:	8d 4c 24 68               lea	ecx, [esp+68h]
  402c5e:	e8 ed f2 ff ff            call	401f50
  402c63:	8d 4c 24 64               lea	ecx, [esp+64h]
  402c67:	e8 74 f3 ff ff            call	401fe0
  402c6c:	8d 47 3c                  lea	eax, [edi+3Ch]
  402c6f:	50                        push	eax
  402c70:	e8 9b 56 00 00            call	408310
  402c75:	83 c4 04                  add	esp, 04h
  402c78:	85 c0                     test	eax, eax
  402c7a:	75 0d                     jnz	402c89
  402c7c:	85 ff                     test	edi, edi
  402c7e:	74 09                     jz	402c89
  402c80:	6a 01                     push	dword 00000001h
  402c82:	8b cf                     mov	ecx, edi
  402c84:	e8 37 47 00 00            call	4073c0
  402c89:	8d 4e 10                 >lea	ecx, [esi+10h]
  402c8c:	51                        push	ecx
  402c8d:	e8 7e 56 00 00            call	408310
  402c92:	83 c4 04                  add	esp, 04h
  402c95:	85 c0                     test	eax, eax
  402c97:	75 0d                     jnz	402ca6
  402c99:	85 f6                     test	esi, esi
  402c9b:	74 09                     jz	402ca6
  402c9d:	6a 01                     push	dword 00000001h
  402c9f:	8b ce                     mov	ecx, esi
  402ca1:	e8 fa ec ff ff            call	4019a0
  402ca6:	8d 94 24 80 00 00 00     >lea	edx, [esp+00000080h]
  402cad:	8d 4c 24 14               lea	ecx, [esp+14h]
  402cb1:	52                        push	edx
  402cb2:	ff 15 64 a1 40 00         call	dword [0040A164h]	; <?FileName@FileLocation@@QBE?AV?$basic_string@DU?$char_traits@D@std@@V?$allocator@D@2@@std@@XZ>
  402cb8:	8b 40 04                  mov	eax, [eax+04h]
  402cbb:	85 c0                     test	eax, eax
  402cbd:	75 05                     jnz	402cc4
  402cbf:	a1 5c a0 40 00            mov	eax, [40A05Ch]
  402cc4:	50                       >push	eax
  402cc5:	68 10 c1 40 00            push	dword 0040C110h
  402cca:	ff 15 4c a1 40 00         call	dword [0040A14Ch]	; <printf>
  402cd0:	83 c4 08                  add	esp, 08h
  402cd3:	8d 8c 24 80 00 00 00      lea	ecx, [esp+00000080h]
  402cda:	6a 01                     push	dword 00000001h
  402cdc:	ff 15 54 a0 40 00         call	dword [0040A054h]	; <?_Tidy@?$basic_string@DU?$char_traits@D@std@@V?$allocator@D@2@@std@@AAEX_N@Z>
  402ce2:	8d 4c 24 64               lea	ecx, [esp+64h]
  402ce6:	c6 84 24 a8 20 00 00      mov	byte [esp+000020A8h], 08h
		08 
  402cee:	e8 ed f0 ff ff            call	401de0
  402cf3:	8d 4c 24 58               lea	ecx, [esp+58h]
  402cf7:	c6 84 24 a8 20 00 00      mov	byte [esp+000020A8h], 07h
		07 
  402cff:	e8 6c ef ff ff            call	401c70
  402d04:	8b 35 6c a1 40 00         mov	esi, [0040A16Ch]
  402d0a:	8d 4c 24 14               lea	ecx, [esp+14h]
  402d0e:	c6 84 24 a8 20 00 00      mov	byte [esp+000020A8h], 04h
		04 
  402d16:	ff d6                     call	esi
  402d18:	8d 4c 24 18               lea	ecx, [esp+18h]
  402d1c:	c6 84 24 a8 20 00 00      mov	byte [esp+000020A8h], 03h
		03 
  402d24:	ff d6                     call	esi
  402d26:	8b 44 24 3c               mov	eax, [esp+3Ch]
  402d2a:	85 c0                     test	eax, eax
  402d2c:	74 1d                     jz	402d4b
  402d2e:	8a 48 ff                  mov	cl, [eax-01h]
  402d31:	84 c9                     test	cl, cl
  402d33:	74 0c                     jz	402d41
  402d35:	80 f9 ff                  cmp	cl, FFh
  402d38:	74 07                     jz	402d41
  402d3a:	fe c9                     dec	cl
  402d3c:	88 48 ff                  mov	[eax-01h], cl
  402d3f:	eb 0a                     jmp	402d4b
  402d41:	48                       >dec	eax
  402d42:	50                        push	eax
  402d43:	e8 04 5a 00 00            call	40874c
  402d48:	83 c4 04                  add	esp, 04h
  402d4b:	33 c0                    >xor	eax, eax
  402d4d:	8b 8c 24 a0 20 00 00     >mov	ecx, [esp+000020A0h]
  402d54:	5f                        pop	edi
  402d55:	5e                        pop	esi
  402d56:	5d                        pop	ebp
  402d57:	5b                        pop	ebx
  402d58:	64 89 0d 00 00 00 00      mov	[fs:00000000h], ecx
  402d5f:	81 c4 9c 20 00 00         add	esp, 0000209Ch
  402d65:	c2 04 00                  ret	0004h
     ...

402d70 <no name>:
  402d70:	8b d1                     mov	edx, ecx
  402d72:	57                        push	edi
  402d73:	33 c0                     xor	eax, eax
  402d75:	b9 07 00 00 00            mov	ecx, 00000007h
  402d7a:	8d 7a 14                  lea	edi, [edx+14h]
  402d7d:	c7 02 01 00 00 00         mov	dword [edx], 00000001h
  402d83:	89 42 04                  mov	[edx+04h], eax
  402d86:	89 42 08                  mov	[edx+08h], eax
  402d89:	89 42 0c                  mov	[edx+0Ch], eax
  402d8c:	89 42 10                  mov	[edx+10h], eax
  402d8f:	f3 ab                     rep stosd
  402d91:	8b c2                     mov	eax, edx
  402d93:	5f                        pop	edi
  402d94:	c3                        ret
     ...

402da0 <no name>:
  402da0:	8b d1                     mov	edx, ecx
  402da2:	56                        push	esi
  402da3:	57                        push	edi
  402da4:	33 f6                     xor	esi, esi
  402da6:	b9 07 00 00 00            mov	ecx, 00000007h
  402dab:	33 c0                     xor	eax, eax
  402dad:	8d 7a 14                  lea	edi, [edx+14h]
  402db0:	c7 02 01 00 00 00         mov	dword [edx], 00000001h
  402db6:	89 72 04                  mov	[edx+04h], esi
  402db9:	89 72 08                  mov	[edx+08h], esi
  402dbc:	89 72 0c                  mov	[edx+0Ch], esi
  402dbf:	89 72 10                  mov	[edx+10h], esi
  402dc2:	f3 ab                     rep stosd
  402dc4:	89 72 30                  mov	[edx+30h], esi
  402dc7:	89 72 34                  mov	[edx+34h], esi
  402dca:	89 72 38                  mov	[edx+38h], esi
  402dcd:	5f                        pop	edi
  402dce:	8b c2                     mov	eax, edx
  402dd0:	5e                        pop	esi
  402dd1:	c3                        ret
     ...

402de0 <no name>:
  402de0:	56                        push	esi
  402de1:	8b f1                     mov	esi, ecx
  402de3:	57                        push	edi
  402de4:	8b 7e 38                  mov	edi, [esi+38h]
  402de7:	85 ff                     test	edi, edi
  402de9:	74 2b                     jz	402e16
  402deb:	8d 47 10                  lea	eax, [edi+10h]
  402dee:	50                        push	eax
  402def:	e8 1c 55 00 00            call	408310
  402df4:	83 c4 04                  add	esp, 04h
  402df7:	85 c0                     test	eax, eax
  402df9:	75 14                     jnz	402e0f
  402dfb:	85 ff                     test	edi, edi
  402dfd:	74 10                     jz	402e0f
  402dff:	8b cf                     mov	ecx, edi
  402e01:	e8 ba eb ff ff            call	4019c0
  402e06:	57                        push	edi
  402e07:	e8 40 59 00 00            call	40874c
  402e0c:	83 c4 04                  add	esp, 04h
  402e0f:	c7 46 38 00 00 00 00     >mov	dword [esi+38h], 00000000h
  402e16:	8b 7e 34                 >mov	edi, [esi+34h]
  402e19:	85 ff                     test	edi, edi
  402e1b:	74 2b                     jz	402e48
  402e1d:	8d 4f 10                  lea	ecx, [edi+10h]
  402e20:	51                        push	ecx
  402e21:	e8 ea 54 00 00            call	408310
  402e26:	83 c4 04                  add	esp, 04h
  402e29:	85 c0                     test	eax, eax
  402e2b:	75 14                     jnz	402e41
  402e2d:	85 ff                     test	edi, edi
  402e2f:	74 10                     jz	402e41
  402e31:	8b cf                     mov	ecx, edi
  402e33:	e8 88 eb ff ff            call	4019c0
  402e38:	57                        push	edi
  402e39:	e8 0e 59 00 00            call	40874c
  402e3e:	83 c4 04                  add	esp, 04h
  402e41:	c7 46 34 00 00 00 00     >mov	dword [esi+34h], 00000000h
  402e48:	8b 44 24 0c              >mov	eax, [esp+0Ch]
  402e4c:	5f                        pop	edi
  402e4d:	89 46 34                  mov	[esi+34h], eax
  402e50:	5e                        pop	esi
  402e51:	85 c0                     test	eax, eax
  402e53:	74 0a                     jz	402e5f
  402e55:	83 c0 10                  add	eax, 10h
  402e58:	50                        push	eax
  402e59:	e8 a2 54 00 00            call	408300
  402e5e:	59                        pop	ecx
  402e5f:	c2 04 00                 >ret	0004h
     ...

402e70 <no name>:
  402e70:	56                        push	esi
  402e71:	57                        push	edi
  402e72:	8b 7c 24 0c               mov	edi, [esp+0Ch]
  402e76:	8b 37                     mov	esi, [edi]
  402e78:	85 f6                     test	esi, esi
  402e7a:	74 2a                     jz	402ea6
  402e7c:	8d 46 10                  lea	eax, [esi+10h]
  402e7f:	50                        push	eax
  402e80:	e8 8b 54 00 00            call	408310
  402e85:	83 c4 04                  add	esp, 04h
  402e88:	85 c0                     test	eax, eax
  402e8a:	75 14                     jnz	402ea0
  402e8c:	85 f6                     test	esi, esi
  402e8e:	74 10                     jz	402ea0
  402e90:	8b ce                     mov	ecx, esi
  402e92:	e8 29 eb ff ff            call	4019c0
  402e97:	56                        push	esi
  402e98:	e8 af 58 00 00            call	40874c
  402e9d:	83 c4 04                  add	esp, 04h
  402ea0:	c7 07 00 00 00 00        >mov	dword [edi], 00000000h
  402ea6:	5f                       >pop	edi
  402ea7:	5e                        pop	esi
  402ea8:	c2 04 00                  ret	0004h
     ...

402eb0 <no name>:
  402eb0:	53                        push	ebx
  402eb1:	56                        push	esi
  402eb2:	8b 74 24 0c               mov	esi, [esp+0Ch]
  402eb6:	83 3e 03                  cmp	dword [esi], 03h
  402eb9:	0f 85 94 00 00 00         jnz	402f53
  402ebf:	55                        push	ebp
  402ec0:	57                        push	edi
  402ec1:	8b ce                     mov	ecx, esi
  402ec3:	e8 98 00 00 00            call	402f60
  402ec8:	8b d8                     mov	ebx, eax
  402eca:	8d 6b 10                  lea	ebp, [ebx+10h]
  402ecd:	55                        push	ebp
  402ece:	e8 2d 54 00 00            call	408300
  402ed3:	8b 46 08                  mov	eax, [esi+08h]
  402ed6:	83 c4 04                  add	esp, 04h
  402ed9:	89 46 10                  mov	[esi+10h], eax
  402edc:	8b 7e 38                  mov	edi, [esi+38h]
  402edf:	85 ff                     test	edi, edi
  402ee1:	74 24                     jz	402f07
  402ee3:	8d 4f 10                  lea	ecx, [edi+10h]
  402ee6:	51                        push	ecx
  402ee7:	e8 24 54 00 00            call	408310
  402eec:	83 c4 04                  add	esp, 04h
  402eef:	85 c0                     test	eax, eax
  402ef1:	75 0d                     jnz	402f00
  402ef3:	85 ff                     test	edi, edi
  402ef5:	74 09                     jz	402f00
  402ef7:	6a 01                     push	dword 00000001h
  402ef9:	8b cf                     mov	ecx, edi
  402efb:	e8 a0 ea ff ff            call	4019a0
  402f00:	c7 46 38 00 00 00 00     >mov	dword [esi+38h], 00000000h
  402f07:	8b 4e 34                 >mov	ecx, [esi+34h]
  402f0a:	85 c9                     test	ecx, ecx
  402f0c:	74 0c                     jz	402f1a
  402f0e:	e8 ed 3b 00 00            call	406b00
  402f13:	c7 46 34 00 00 00 00      mov	dword [esi+34h], 00000000h
  402f1a:	85 db                    >test	ebx, ebx
  402f1c:	89 5e 34                  mov	[esi+34h], ebx
  402f1f:	74 09                     jz	402f2a
  402f21:	55                        push	ebp
  402f22:	e8 d9 53 00 00            call	408300
  402f27:	83 c4 04                  add	esp, 04h
  402f2a:	55                       >push	ebp
  402f2b:	c7 06 02 00 00 00         mov	dword [esi], 00000002h
  402f31:	e8 da 53 00 00            call	408310
  402f36:	83 c4 04                  add	esp, 04h
  402f39:	85 c0                     test	eax, eax
  402f3b:	5f                        pop	edi
  402f3c:	5d                        pop	ebp
  402f3d:	75 14                     jnz	402f53
  402f3f:	85 db                     test	ebx, ebx
  402f41:	74 10                     jz	402f53
  402f43:	8b cb                     mov	ecx, ebx
  402f45:	e8 76 ea ff ff            call	4019c0
  402f4a:	53                        push	ebx
  402f4b:	e8 fc 57 00 00            call	40874c
  402f50:	83 c4 04                  add	esp, 04h
  402f53:	5e                       >pop	esi
  402f54:	5b                        pop	ebx
  402f55:	c2 04 00                  ret	0004h
     ...

402f60 <no name>:
  402f60:	64 a1 00 00 00 00         mov	eax, [fs:0000h]
  402f66:	6a ff                     push	dword FFFFFFFFh
  402f68:	68 6b 8a 40 00            push	dword 00408A6Bh
  402f6d:	50                        push	eax
  402f6e:	64 89 25 00 00 00 00      mov	[fs:00000000h], esp
  402f75:	83 ec 0c                  sub	esp, 0Ch
  402f78:	53                        push	ebx
  402f79:	55                        push	ebp
  402f7a:	8b e9                     mov	ebp, ecx
  402f7c:	33 db                     xor	ebx, ebx
  402f7e:	56                        push	esi
  402f7f:	57                        push	edi
  402f80:	39 5d 38                  cmp	[ebp+38h], ebx
  402f83:	0f 85 20 01 00 00         jnz	4030a9
  402f89:	8b 45 34                  mov	eax, [ebp+34h]
  402f8c:	bf 01 00 00 00            mov	edi, 00000001h
  402f91:	3b c3                     cmp	eax, ebx
  402f93:	75 36                     jnz	402fcb
  402f95:	6a 14                     push	dword 00000014h
  402f97:	e8 e4 57 00 00            call	408780	; <??2@YAPAXI@Z>
  402f9c:	8b f0                     mov	esi, eax
  402f9e:	83 c4 04                  add	esp, 04h
  402fa1:	89 74 24 18               mov	[esp+18h], esi
  402fa5:	3b f3                     cmp	esi, ebx
  402fa7:	89 5c 24 24               mov	[esp+24h], ebx
  402fab:	74 11                     jz	402fbe
  402fad:	8d 44 24 13               lea	eax, [esp+13h]
  402fb1:	8b ce                     mov	ecx, esi
  402fb3:	50                        push	eax
  402fb4:	e8 f7 44 00 00            call	4074b0
  402fb9:	89 7e 10                  mov	[esi+10h], edi
  402fbc:	eb 02                     jmp	402fc0
  402fbe:	33 f6                    >xor	esi, esi
  402fc0:	c7 44 24 24 ff ff ff     >mov	dword [esp+24h], FFFFFFFFh
		ff 
  402fc8:	89 75 34                  mov	[ebp+34h], esi
  402fcb:	8b 4d 00                 >mov	ecx, [ebp+00h]
  402fce:	8b 45 34                  mov	eax, [ebp+34h]
  402fd1:	83 f9 03                  cmp	ecx, 03h
  402fd4:	89 44 24 14               mov	[esp+14h], eax
  402fd8:	74 14                     jz	402fee
  402fda:	89 45 38                  mov	[ebp+38h], eax
  402fdd:	83 c0 10                  add	eax, 10h
  402fe0:	50                        push	eax
  402fe1:	e8 1a 53 00 00            call	408300
  402fe6:	83 c4 04                  add	esp, 04h
  402fe9:	e9 bb 00 00 00            jmp	4030a9
  402fee:	39 5d 38                 >cmp	[ebp+38h], ebx
  402ff1:	75 27                     jnz	40301a
  402ff3:	6a 14                     push	dword 00000014h
  402ff5:	e8 86 57 00 00            call	408780	; <??2@YAPAXI@Z>
  402ffa:	83 c4 04                  add	esp, 04h
  402ffd:	3b c3                     cmp	eax, ebx
  402fff:	74 14                     jz	403015
  403001:	8a 4c 24 13               mov	cl, [esp+13h]
  403005:	89 58 04                  mov	[eax+04h], ebx
  403008:	88 08                     mov	[eax], cl
  40300a:	89 58 08                  mov	[eax+08h], ebx
  40300d:	89 58 0c                  mov	[eax+0Ch], ebx
  403010:	89 78 10                  mov	[eax+10h], edi
  403013:	eb 02                     jmp	403017
  403015:	33 c0                    >xor	eax, eax
  403017:	89 45 38                 >mov	[ebp+38h], eax
  40301a:	8b 75 38                 >mov	esi, [ebp+38h]
  40301d:	8b 55 08                  mov	edx, [ebp+08h]
  403020:	89 54 24 18               mov	[esp+18h], edx
  403024:	88 5c 24 13               mov	[esp+13h], bl
  403028:	8b 46 04                  mov	eax, [esi+04h]
  40302b:	3b c3                     cmp	eax, ebx
  40302d:	75 04                     jnz	403033
  40302f:	33 c9                     xor	ecx, ecx
  403031:	eb 05                     jmp	403038
  403033:	8b 4e 08                 >mov	ecx, [esi+08h]
  403036:	2b c8                     sub	ecx, eax
  403038:	3b ca                    >cmp	ecx, edx
  40303a:	73 22                     jae	40305e
  40303c:	3b c3                     cmp	eax, ebx
  40303e:	75 04                     jnz	403044
  403040:	33 c9                     xor	ecx, ecx
  403042:	eb 05                     jmp	403049
  403044:	8b 4e 08                 >mov	ecx, [esi+08h]
  403047:	2b c8                     sub	ecx, eax
  403049:	8d 44 24 13              >lea	eax, [esp+13h]
  40304d:	2b d1                     sub	edx, ecx
  40304f:	8b 4e 08                  mov	ecx, [esi+08h]
  403052:	50                        push	eax
  403053:	52                        push	edx
  403054:	51                        push	ecx
  403055:	8b ce                     mov	ecx, esi
  403057:	e8 94 e9 ff ff            call	4019f0
  40305c:	eb 31                     jmp	40308f
  40305e:	3b c3                    >cmp	eax, ebx
  403060:	74 2d                     jz	40308f
  403062:	8b 4e 08                  mov	ecx, [esi+08h]
  403065:	8b f9                     mov	edi, ecx
  403067:	2b f8                     sub	edi, eax
  403069:	3b d7                     cmp	edx, edi
  40306b:	73 22                     jae	40308f
  40306d:	8d 3c 10                  lea	edi, [eax+edx*1]
  403070:	8b c1                     mov	eax, ecx
  403072:	3b c1                     cmp	eax, ecx
  403074:	74 0a                     jz	403080
  403076:	8a 10                    >mov	dl, [eax]
  403078:	88 17                     mov	[edi], dl
  40307a:	47                        inc	edi
  40307b:	40                        inc	eax
  40307c:	3b c1                     cmp	eax, ecx
  40307e:	75 f6                     jnz	403076
  403080:	8b 46 08                 >mov	eax, [esi+08h]
  403083:	8b ce                     mov	ecx, esi
  403085:	50                        push	eax
  403086:	57                        push	edi
  403087:	e8 d4 47 00 00            call	407860
  40308c:	89 7e 08                  mov	[esi+08h], edi
  40308f:	8b 54 24 14              >mov	edx, [esp+14h]
  403093:	8b 4d 10                  mov	ecx, [ebp+10h]
  403096:	51                        push	ecx
  403097:	8d 4c 24 1c               lea	ecx, [esp+1Ch]
  40309b:	8b 42 04                  mov	eax, [edx+04h]
  40309e:	8b 56 04                  mov	edx, [esi+04h]
  4030a1:	50                        push	eax
  4030a2:	51                        push	ecx
  4030a3:	52                        push	edx
  4030a4:	e8 9d 56 00 00            call	408746	; <zlib.dll.26
>
  4030a9:	8b 45 38                 >mov	eax, [ebp+38h]
  4030ac:	8b 4c 24 1c               mov	ecx, [esp+1Ch]
  4030b0:	5f                        pop	edi
  4030b1:	5e                        pop	esi
  4030b2:	5d                        pop	ebp
  4030b3:	5b                        pop	ebx
  4030b4:	64 89 0d 00 00 00 00      mov	[fs:00000000h], ecx
  4030bb:	83 c4 18                  add	esp, 18h
  4030be:	c3                        ret
     ...

4030c0 <no name>:
  4030c0:	6a ff                     push	dword FFFFFFFFh
  4030c2:	68 af 8a 40 00            push	dword 00408AAFh
  4030c7:	64 a1 00 00 00 00         mov	eax, [fs:0000h]
  4030cd:	50                        push	eax
  4030ce:	64 89 25 00 00 00 00      mov	[fs:00000000h], esp
  4030d5:	81 ec 88 00 00 00         sub	esp, 00000088h
  4030db:	89 4c 24 24               mov	[esp+24h], ecx
  4030df:	53                        push	ebx
  4030e0:	56                        push	esi
  4030e1:	8d 4c 24 5c               lea	ecx, [esp+5Ch]
  4030e5:	e8 36 df ff ff            call	401020
  4030ea:	8b b4 24 a0 00 00 00      mov	esi, [esp+000000A0h]
  4030f1:	33 db                     xor	ebx, ebx
  4030f3:	56                        push	esi
  4030f4:	8d 4c 24 60               lea	ecx, [esp+60h]
  4030f8:	89 9c 24 9c 00 00 00      mov	[esp+0000009Ch], ebx
  4030ff:	e8 1c e0 ff ff            call	401120
  403104:	83 f8 6e                  cmp	eax, 6Eh
  403107:	74 4c                     jz	403155
  403109:	8d 44 24 1c               lea	eax, [esp+1Ch]
  40310d:	8b ce                     mov	ecx, esi
  40310f:	50                        push	eax
  403110:	ff 15 64 a1 40 00         call	dword [0040A164h]	; <?FileName@FileLocation@@QBE?AV?$basic_string@DU?$char_traits@D@std@@V?$allocator@D@2@@std@@XZ>
  403116:	8b 40 04                  mov	eax, [eax+04h]
  403119:	3b c3                     cmp	eax, ebx
  40311b:	75 05                     jnz	403122
  40311d:	a1 5c a0 40 00            mov	eax, [40A05Ch]
  403122:	50                       >push	eax
  403123:	68 e4 c1 40 00            push	dword 0040C1E4h
  403128:	ff 15 4c a1 40 00         call	dword [0040A14Ch]	; <printf>
  40312e:	8b 44 24 28               mov	eax, [esp+28h]
  403132:	83 c4 08                  add	esp, 08h
  403135:	3b c3                     cmp	eax, ebx
  403137:	74 41                     jz	40317a
  403139:	8d 48 ff                  lea	ecx, [eax-01h]
  40313c:	8a 40 ff                  mov	al, [eax-01h]
  40313f:	3a c3                     cmp	al, bl
  403141:	74 0a                     jz	40314d
  403143:	3c ff                     cmp	al, FFh
  403145:	74 06                     jz	40314d
  403147:	fe c8                     dec	al
  403149:	88 01                     mov	[ecx], al
  40314b:	eb 2d                     jmp	40317a
  40314d:	51                       >push	ecx
  40314e:	e8 f9 55 00 00            call	40874c
  403153:	eb 22                     jmp	403177
  403155:	8d 4c 24 5c              >lea	ecx, [esp+5Ch]
  403159:	e8 22 e2 ff ff            call	401380
  40315e:	83 f8 02                  cmp	eax, 02h
  403161:	74 35                     jz	403198
  403163:	8d 4c 24 5c               lea	ecx, [esp+5Ch]
  403167:	e8 e4 e1 ff ff            call	401350
  40316c:	68 bc c1 40 00            push	dword 0040C1BCh
  403171:	ff 15 4c a1 40 00         call	dword [0040A14Ch]	; <printf>
  403177:	83 c4 04                 >add	esp, 04h
  40317a:	8d 4c 24 5c              >lea	ecx, [esp+5Ch]
  40317e:	c7 84 24 98 00 00 00      mov	dword [esp+00000098h], FFFFFFFFh
		ff ff ff ff 
  403189:	e8 f2 de ff ff            call	401080
  40318e:	b8 8a 00 00 00            mov	eax, 0000008Ah
  403193:	e9 6f 03 00 00            jmp	403507
  403198:	8d 4c 24 10              >lea	ecx, [esp+10h]
  40319c:	53                        push	ebx
  40319d:	51                        push	ecx
  40319e:	ff 15 5c a1 40 00         call	dword [0040A15Ch]	; <?GetTemporaryFileName@FileManager@@SA?AVFileLocation@@PBD@Z>
  4031a4:	83 c4 08                  add	esp, 08h
  4031a7:	8d 54 24 10               lea	edx, [esp+10h]
  4031ab:	8d 4c 24 30               lea	ecx, [esp+30h]
  4031af:	52                        push	edx
  4031b0:	c6 84 24 9c 00 00 00      mov	byte [esp+0000009Ch], 01h
		01 
  4031b8:	e8 73 ea ff ff            call	401c30
  4031bd:	8d 4c 24 3c               lea	ecx, [esp+3Ch]
  4031c1:	c6 84 24 98 00 00 00      mov	byte [esp+00000098h], 02h
		02 
  4031c9:	e8 e2 eb ff ff            call	401db0
  4031ce:	8d 4c 24 5c               lea	ecx, [esp+5Ch]
  4031d2:	c6 84 24 98 00 00 00      mov	byte [esp+00000098h], 03h
		03 
  4031da:	e8 d1 e1 ff ff            call	4013b0
  4031df:	50                        push	eax
  4031e0:	8d 4c 24 40               lea	ecx, [esp+40h]
  4031e4:	e8 67 ec ff ff            call	401e50
  4031e9:	8d 4c 24 5c               lea	ecx, [esp+5Ch]
  4031ed:	e8 9e e1 ff ff            call	401390
  4031f2:	8b 40 04                  mov	eax, [eax+04h]
  4031f5:	3b c3                     cmp	eax, ebx
  4031f7:	75 05                     jnz	4031fe
  4031f9:	a1 5c a0 40 00            mov	eax, [40A05Ch]
  4031fe:	50                       >push	eax
  4031ff:	8d 4c 24 40               lea	ecx, [esp+40h]
  403203:	e8 58 ec ff ff            call	401e60
  403208:	8d 44 24 30               lea	eax, [esp+30h]
  40320c:	8d 4c 24 3c               lea	ecx, [esp+3Ch]
  403210:	50                        push	eax
  403211:	e8 1a ed ff ff            call	401f30
  403216:	83 f8 6e                  cmp	eax, 6Eh
  403219:	74 68                     jz	403283
  40321b:	68 98 c1 40 00            push	dword 0040C198h
  403220:	ff 15 4c a1 40 00         call	dword [0040A14Ch]	; <printf>
  403226:	83 c4 04                  add	esp, 04h
  403229:	8d 4c 24 5c               lea	ecx, [esp+5Ch]
  40322d:	e8 1e e1 ff ff            call	401350
  403232:	8d 4c 24 3c               lea	ecx, [esp+3Ch]
  403236:	c6 84 24 98 00 00 00      mov	byte [esp+00000098h], 02h
		02 
  40323e:	e8 9d eb ff ff            call	401de0
  403243:	8d 4c 24 30               lea	ecx, [esp+30h]
  403247:	c6 84 24 98 00 00 00      mov	byte [esp+00000098h], 01h
		01 
  40324f:	e8 1c ea ff ff            call	401c70
  403254:	8d 4c 24 10               lea	ecx, [esp+10h]
  403258:	88 9c 24 98 00 00 00      mov	[esp+00000098h], bl
  40325f:	ff 15 6c a1 40 00         call	dword [0040A16Ch]	; <??1FileLocation@@QAE@XZ>
  403265:	8d 4c 24 5c               lea	ecx, [esp+5Ch]
  403269:	c7 84 24 98 00 00 00      mov	dword [esp+00000098h], FFFFFFFFh
		ff ff ff ff 
  403274:	e8 07 de ff ff            call	401080
  403279:	b8 8a 00 00 00            mov	eax, 0000008Ah
  40327e:	e9 84 02 00 00            jmp	403507
  403283:	55                       >push	ebp
  403284:	57                        push	edi
  403285:	89 5c 24 14               mov	[esp+14h], ebx
  403289:	8d 4c 24 12              >lea	ecx, [esp+12h]
  40328d:	8d 54 24 14               lea	edx, [esp+14h]
  403291:	51                        push	ecx
  403292:	52                        push	edx
  403293:	8d 4c 24 6c               lea	ecx, [esp+6Ch]
  403297:	e8 54 e3 ff ff            call	4015f0
  40329c:	38 5c 24 12               cmp	[esp+12h], bl
  4032a0:	0f 85 33 01 00 00         jnz	4033d9
  4032a6:	8a 84 24 ac 00 00 00      mov	al, [esp+000000ACh]
  4032ad:	3a c3                     cmp	al, bl
  4032af:	8b 44 24 14               mov	eax, [esp+14h]
  4032b3:	0f 84 08 01 00 00         jz	4033c1
  4032b9:	8b 08                     mov	ecx, [eax]
  4032bb:	8b e8                     mov	ebp, eax
  4032bd:	83 f9 02                  cmp	ecx, 02h
  4032c0:	0f 85 09 01 00 00         jnz	4033cf
  4032c6:	8b 78 08                  mov	edi, [eax+08h]
  4032c9:	83 ff 20                  cmp	edi, 20h
  4032cc:	0f 82 fd 00 00 00         jb	4033cf
  4032d2:	6a 14                     push	dword 00000014h
  4032d4:	e8 a7 54 00 00            call	408780	; <??2@YAPAXI@Z>
  4032d9:	8b f0                     mov	esi, eax
  4032db:	83 c4 04                  add	esp, 04h
  4032de:	89 74 24 60               mov	[esp+60h], esi
  4032e2:	3b f3                     cmp	esi, ebx
  4032e4:	c6 84 24 a0 00 00 00      mov	byte [esp+000000A0h], 04h
		04 
  4032ec:	74 15                     jz	403303
  4032ee:	8d 44 24 1f               lea	eax, [esp+1Fh]
  4032f2:	8b ce                     mov	ecx, esi
  4032f4:	50                        push	eax
  4032f5:	e8 b6 41 00 00            call	4074b0
  4032fa:	c7 46 10 01 00 00 00      mov	dword [esi+10h], 00000001h
  403301:	eb 02                     jmp	403305
  403303:	33 f6                    >xor	esi, esi
  403305:	89 7c 24 24              >mov	[esp+24h], edi
  403309:	89 5c 24 28               mov	[esp+28h], ebx
  40330d:	df 6c 24 24               fild	qword [esp+24h]
  403311:	c6 84 24 a0 00 00 00      mov	byte [esp+000000A0h], 03h
		03 
  403319:	d8 0d d4 a1 40 00         fmul	dword [0040A1D4h]
  40331f:	d8 05 d0 a1 40 00         fadd	dword [0040A1D0h]
  403325:	e8 d6 54 00 00            call	408800	; <_ftol>
  40332a:	89 44 24 20               mov	[esp+20h], eax
  40332e:	8b 4e 04                  mov	ecx, [esi+04h]
  403331:	3b cb                     cmp	ecx, ebx
  403333:	88 5c 24 13               mov	[esp+13h], bl
  403337:	75 04                     jnz	40333d
  403339:	33 d2                     xor	edx, edx
  40333b:	eb 05                     jmp	403342
  40333d:	8b 56 08                 >mov	edx, [esi+08h]
  403340:	2b d1                     sub	edx, ecx
  403342:	3b d0                    >cmp	edx, eax
  403344:	73 22                     jae	403368
  403346:	3b cb                     cmp	ecx, ebx
  403348:	75 04                     jnz	40334e
  40334a:	33 d2                     xor	edx, edx
  40334c:	eb 05                     jmp	403353
  40334e:	8b 56 08                 >mov	edx, [esi+08h]
  403351:	2b d1                     sub	edx, ecx
  403353:	8b 4e 08                 >mov	ecx, [esi+08h]
  403356:	8d 5c 24 13               lea	ebx, [esp+13h]
  40335a:	2b c2                     sub	eax, edx
  40335c:	53                        push	ebx
  40335d:	50                        push	eax
  40335e:	51                        push	ecx
  40335f:	8b ce                     mov	ecx, esi
  403361:	e8 8a e6 ff ff            call	4019f0
  403366:	eb 1a                     jmp	403382
  403368:	3b cb                    >cmp	ecx, ebx
  40336a:	74 18                     jz	403384
  40336c:	8b 56 08                  mov	edx, [esi+08h]
  40336f:	8b da                     mov	ebx, edx
  403371:	2b d9                     sub	ebx, ecx
  403373:	3b c3                     cmp	eax, ebx
  403375:	73 0b                     jae	403382
  403377:	03 c8                     add	ecx, eax
  403379:	52                        push	edx
  40337a:	51                        push	ecx
  40337b:	8b ce                     mov	ecx, esi
  40337d:	e8 ae 39 00 00            call	406d30
  403382:	33 db                    >xor	ebx, ebx
  403384:	8b cd                    >mov	ecx, ebp
  403386:	e8 05 ec ff ff            call	401f90
  40338b:	8b 40 04                  mov	eax, [eax+04h]
  40338e:	8b 4e 04                  mov	ecx, [esi+04h]
  403391:	57                        push	edi
  403392:	8d 54 24 24               lea	edx, [esp+24h]
  403396:	50                        push	eax
  403397:	52                        push	edx
  403398:	51                        push	ecx
  403399:	e8 a2 53 00 00            call	408740	; <zlib.dll.2
>
  40339e:	8b 44 24 20               mov	eax, [esp+20h]
  4033a2:	3b c7                     cmp	eax, edi
  4033a4:	73 12                     jae	4033b8
  4033a6:	56                        push	esi
  4033a7:	8b cd                     mov	ecx, ebp
  4033a9:	c7 45 00 03 00 00 00      mov	dword [ebp+00h], 00000003h
  4033b0:	89 45 10                  mov	[ebp+10h], eax
  4033b3:	e8 28 fa ff ff            call	402de0
  4033b8:	8b ce                    >mov	ecx, esi
  4033ba:	e8 41 37 00 00            call	406b00
  4033bf:	eb 0a                     jmp	4033cb
  4033c1:	8b 4c 24 34              >mov	ecx, [esp+34h]
  4033c5:	50                        push	eax
  4033c6:	e8 e5 fa ff ff            call	402eb0
  4033cb:	8b 44 24 14              >mov	eax, [esp+14h]
  4033cf:	50                       >push	eax
  4033d0:	8d 4c 24 48               lea	ecx, [esp+48h]
  4033d4:	e8 77 eb ff ff            call	401f50
  4033d9:	8b 74 24 14              >mov	esi, [esp+14h]
  4033dd:	8d 4e 3c                  lea	ecx, [esi+3Ch]
  4033e0:	51                        push	ecx
  4033e1:	e8 2a 4f 00 00            call	408310
  4033e6:	83 c4 04                  add	esp, 04h
  4033e9:	3b c3                     cmp	eax, ebx
  4033eb:	75 25                     jnz	403412
  4033ed:	3b f3                     cmp	esi, ebx
  4033ef:	74 21                     jz	403412
  4033f1:	8d 56 38                  lea	edx, [esi+38h]
  4033f4:	8b ce                     mov	ecx, esi
  4033f6:	52                        push	edx
  4033f7:	e8 74 fa ff ff            call	402e70
  4033fc:	8d 7e 34                  lea	edi, [esi+34h]
  4033ff:	8b ce                     mov	ecx, esi
  403401:	57                        push	edi
  403402:	e8 69 fa ff ff            call	402e70
  403407:	56                        push	esi
  403408:	89 1f                     mov	[edi], ebx
  40340a:	e8 3d 53 00 00            call	40874c
  40340f:	83 c4 04                  add	esp, 04h
  403412:	8a 44 24 12              >mov	al, [esp+12h]
  403416:	89 5c 24 14               mov	[esp+14h], ebx
  40341a:	3a c3                     cmp	al, bl
  40341c:	0f 84 67 fe ff ff         jz	403289
  403422:	8d 4c 24 64               lea	ecx, [esp+64h]
  403426:	e8 25 df ff ff            call	401350
  40342b:	8d 4c 24 44               lea	ecx, [esp+44h]
  40342f:	e8 ac eb ff ff            call	401fe0
  403434:	8b bc 24 a8 00 00 00      mov	edi, [esp+000000A8h]
  40343b:	8d 44 24 18               lea	eax, [esp+18h]
  40343f:	57                        push	edi
  403440:	50                        push	eax
  403441:	ff 15 60 a1 40 00         call	dword [0040A160h]	; <?Move@FileManager@@SAXABVFileLocation@@0@Z>
  403447:	8a 84 24 b4 00 00 00      mov	al, [esp+000000B4h]
  40344e:	83 c4 08                  add	esp, 08h
  403451:	3a c3                     cmp	al, bl
  403453:	be c0 c5 40 00            mov	esi, 0040C5C0h
  403458:	75 05                     jnz	40345f
  40345a:	be 94 c1 40 00            mov	esi, 0040C194h
  40345f:	8d 4c 24 24              >lea	ecx, [esp+24h]
  403463:	51                        push	ecx
  403464:	8b cf                     mov	ecx, edi
  403466:	ff 15 64 a1 40 00         call	dword [0040A164h]	; <?FileName@FileLocation@@QBE?AV?$basic_string@DU?$char_traits@D@std@@V?$allocator@D@2@@std@@XZ>
  40346c:	8b 40 04                  mov	eax, [eax+04h]
  40346f:	5f                        pop	edi
  403470:	3b c3                     cmp	eax, ebx
  403472:	5d                        pop	ebp
  403473:	75 05                     jnz	40347a
  403475:	a1 5c a0 40 00            mov	eax, [40A05Ch]
  40347a:	50                       >push	eax
  40347b:	56                        push	esi
  40347c:	68 7c c1 40 00            push	dword 0040C17Ch
  403481:	ff 15 4c a1 40 00         call	dword [0040A14Ch]	; <printf>
  403487:	8b 44 24 2c               mov	eax, [esp+2Ch]
  40348b:	83 c4 0c                  add	esp, 0Ch
  40348e:	3b c3                     cmp	eax, ebx
  403490:	74 1d                     jz	4034af
  403492:	8d 48 ff                  lea	ecx, [eax-01h]
  403495:	8a 40 ff                  mov	al, [eax-01h]
  403498:	3a c3                     cmp	al, bl
  40349a:	74 0a                     jz	4034a6
  40349c:	3c ff                     cmp	al, FFh
  40349e:	74 06                     jz	4034a6
  4034a0:	fe c8                     dec	al
  4034a2:	88 01                     mov	[ecx], al
  4034a4:	eb 09                     jmp	4034af
  4034a6:	51                       >push	ecx
  4034a7:	e8 a0 52 00 00            call	40874c
  4034ac:	83 c4 04                  add	esp, 04h
  4034af:	8d 4c 24 3c              >lea	ecx, [esp+3Ch]
  4034b3:	89 5c 24 20               mov	[esp+20h], ebx
  4034b7:	89 5c 24 24               mov	[esp+24h], ebx
  4034bb:	89 5c 24 28               mov	[esp+28h], ebx
  4034bf:	c6 84 24 98 00 00 00      mov	byte [esp+00000098h], 02h
		02 
  4034c7:	e8 14 e9 ff ff            call	401de0
  4034cc:	8d 4c 24 30               lea	ecx, [esp+30h]
  4034d0:	c6 84 24 98 00 00 00      mov	byte [esp+00000098h], 01h
		01 
  4034d8:	e8 93 e7 ff ff            call	401c70
  4034dd:	8d 4c 24 10               lea	ecx, [esp+10h]
  4034e1:	88 9c 24 98 00 00 00      mov	[esp+00000098h], bl
  4034e8:	ff 15 6c a1 40 00         call	dword [0040A16Ch]	; <??1FileLocation@@QAE@XZ>
  4034ee:	8d 4c 24 5c               lea	ecx, [esp+5Ch]
  4034f2:	c7 84 24 98 00 00 00      mov	dword [esp+00000098h], FFFFFFFFh
		ff ff ff ff 
  4034fd:	e8 7e db ff ff            call	401080
  403502:	b8 6e 00 00 00            mov	eax, 0000006Eh
  403507:	8b 8c 24 90 00 00 00     >mov	ecx, [esp+00000090h]
  40350e:	5e                        pop	esi
  40350f:	5b                        pop	ebx
  403510:	64 89 0d 00 00 00 00      mov	[fs:00000000h], ecx
  403517:	81 c4 94 00 00 00         add	esp, 00000094h
  40351d:	c2 08 00                  ret	0008h

403520 <no name>:
  403520:	8b 44 24 04               mov	eax, [esp+04h]
  403524:	6a 00                     push	dword 00000000h
  403526:	50                        push	eax
  403527:	e8 94 fb ff ff            call	4030c0
  40352c:	c2 04 00                  ret	0004h
     ...

403530 <no name>:
  403530:	8b 44 24 04               mov	eax, [esp+04h]
  403534:	6a 01                     push	dword 00000001h
  403536:	50                        push	eax
  403537:	e8 84 fb ff ff            call	4030c0
  40353c:	c2 04 00                  ret	0004h
     ...

403540 <no name>:
  403540:	6a ff                     push	dword FFFFFFFFh
  403542:	68 f9 8b 40 00            push	dword 00408BF9h
  403547:	64 a1 00 00 00 00         mov	eax, [fs:0000h]
  40354d:	50                        push	eax
  40354e:	64 89 25 00 00 00 00      mov	[fs:00000000h], esp
  403555:	81 ec e0 02 00 00         sub	esp, 000002E0h
  40355b:	53                        push	ebx
  40355c:	55                        push	ebp
  40355d:	8b e9                     mov	ebp, ecx
  40355f:	56                        push	esi
  403560:	6a 00                     push	dword 00000000h
  403562:	8d 8c 24 48 01 00 00      lea	ecx, [esp+00000148h]
  403569:	e8 a2 25 00 00            call	405b10
  40356e:	8d 44 24 23               lea	eax, [esp+23h]
  403572:	8d 8c 24 d4 00 00 00      lea	ecx, [esp+000000D4h]
  403579:	50                        push	eax
  40357a:	68 b8 c2 40 00            push	dword 0040C2B8h
  40357f:	c7 84 24 fc 02 00 00      mov	dword [esp+000002FCh], 00000000h
		00 00 00 00 
  40358a:	ff 15 20 a0 40 00         call	dword [0040A020h]	; <??0?$basic_string@DU?$char_traits@D@std@@V?$allocator@D@2@@std@@QAE@PBDABV?$allocator@D@1@@Z>
  403590:	8d 4c 24 22               lea	ecx, [esp+22h]
  403594:	c6 84 24 f4 02 00 00      mov	byte [esp+000002F4h], 01h
		01 
  40359c:	51                        push	ecx
  40359d:	68 a8 c2 40 00            push	dword 0040C2A8h
  4035a2:	8d 8c 24 2c 01 00 00      lea	ecx, [esp+0000012Ch]
  4035a9:	ff 15 20 a0 40 00         call	dword [0040A020h]	; <??0?$basic_string@DU?$char_traits@D@std@@V?$allocator@D@2@@std@@QAE@PBDABV?$allocator@D@1@@Z>
  4035af:	8d 54 24 21               lea	edx, [esp+21h]
  4035b3:	8d 8c 24 34 01 00 00      lea	ecx, [esp+00000134h]
  4035ba:	52                        push	edx
  4035bb:	68 9c c2 40 00            push	dword 0040C29Ch
  4035c0:	c6 84 24 fc 02 00 00      mov	byte [esp+000002FCh], 02h
		02 
  4035c8:	ff 15 20 a0 40 00         call	dword [0040A020h]	; <??0?$basic_string@DU?$char_traits@D@std@@V?$allocator@D@2@@std@@QAE@PBDABV?$allocator@D@1@@Z>
  4035ce:	8d 84 24 d4 00 00 00      lea	eax, [esp+000000D4h]
  4035d5:	8d 8c 24 24 01 00 00      lea	ecx, [esp+00000124h]
  4035dc:	50                        push	eax
  4035dd:	8d 94 24 38 01 00 00      lea	edx, [esp+00000138h]
  4035e4:	51                        push	ecx
  4035e5:	52                        push	edx
  4035e6:	8d 8c 24 c8 01 00 00      lea	ecx, [esp+000001C8h]
  4035ed:	c6 84 24 00 03 00 00      mov	byte [esp+00000300h], 03h
		03 
  4035f5:	e8 c6 37 00 00            call	406dc0
  4035fa:	6a 01                     push	dword 00000001h
  4035fc:	8d 8c 24 38 01 00 00      lea	ecx, [esp+00000138h]
  403603:	c6 84 24 f8 02 00 00      mov	byte [esp+000002F8h], 07h
		07 
  40360b:	ff 15 54 a0 40 00         call	dword [0040A054h]	; <?_Tidy@?$basic_string@DU?$char_traits@D@std@@V?$allocator@D@2@@std@@AAEX_N@Z>
  403611:	6a 01                     push	dword 00000001h
  403613:	8d 8c 24 28 01 00 00      lea	ecx, [esp+00000128h]
  40361a:	c6 84 24 f8 02 00 00      mov	byte [esp+000002F8h], 06h
		06 
  403622:	ff 15 54 a0 40 00         call	dword [0040A054h]	; <?_Tidy@?$basic_string@DU?$char_traits@D@std@@V?$allocator@D@2@@std@@AAEX_N@Z>
  403628:	6a 01                     push	dword 00000001h
  40362a:	8d 8c 24 d8 00 00 00      lea	ecx, [esp+000000D8h]
  403631:	c6 84 24 f8 02 00 00      mov	byte [esp+000002F8h], 05h
		05 
  403639:	ff 15 54 a0 40 00         call	dword [0040A054h]	; <?_Tidy@?$basic_string@DU?$char_traits@D@std@@V?$allocator@D@2@@std@@AAEX_N@Z>
  40363f:	8d 44 24 1c               lea	eax, [esp+1Ch]
  403643:	8d 8c 24 14 01 00 00      lea	ecx, [esp+00000114h]
  40364a:	50                        push	eax
  40364b:	68 8c c2 40 00            push	dword 0040C28Ch
  403650:	ff 15 20 a0 40 00         call	dword [0040A020h]	; <??0?$basic_string@DU?$char_traits@D@std@@V?$allocator@D@2@@std@@QAE@PBDABV?$allocator@D@1@@Z>
  403656:	8d 4c 24 16               lea	ecx, [esp+16h]
  40365a:	c6 84 24 f4 02 00 00      mov	byte [esp+000002F4h], 08h
		08 
  403662:	51                        push	ecx
  403663:	68 88 c2 40 00            push	dword 0040C288h
  403668:	8d 4c 24 7c               lea	ecx, [esp+7Ch]
  40366c:	ff 15 20 a0 40 00         call	dword [0040A020h]	; <??0?$basic_string@DU?$char_traits@D@std@@V?$allocator@D@2@@std@@QAE@PBDABV?$allocator@D@1@@Z>
  403672:	8d 94 24 14 01 00 00      lea	edx, [esp+00000114h]
  403679:	8d 44 24 74               lea	eax, [esp+74h]
  40367d:	52                        push	edx
  40367e:	50                        push	eax
  40367f:	8d 8c 24 20 02 00 00      lea	ecx, [esp+00000220h]
  403686:	c6 84 24 fc 02 00 00      mov	byte [esp+000002FCh], 09h
		09 
  40368e:	e8 bd 05 00 00            call	403c50
  403693:	6a 01                     push	dword 00000001h
  403695:	8d 4c 24 78               lea	ecx, [esp+78h]
  403699:	c6 84 24 f8 02 00 00      mov	byte [esp+000002F8h], 0Ch
		0c 
  4036a1:	ff 15 54 a0 40 00         call	dword [0040A054h]	; <?_Tidy@?$basic_string@DU?$char_traits@D@std@@V?$allocator@D@2@@std@@AAEX_N@Z>
  4036a7:	6a 01                     push	dword 00000001h
  4036a9:	8d 8c 24 18 01 00 00      lea	ecx, [esp+00000118h]
  4036b0:	c6 84 24 f8 02 00 00      mov	byte [esp+000002F8h], 0Bh
		0b 
  4036b8:	ff 15 54 a0 40 00         call	dword [0040A054h]	; <?_Tidy@?$basic_string@DU?$char_traits@D@std@@V?$allocator@D@2@@std@@AAEX_N@Z>
  4036be:	8d 4c 24 20               lea	ecx, [esp+20h]
  4036c2:	51                        push	ecx
  4036c3:	68 74 c2 40 00            push	dword 0040C274h
  4036c8:	8d 8c 24 fc 00 00 00      lea	ecx, [esp+000000FCh]
  4036cf:	ff 15 20 a0 40 00         call	dword [0040A020h]	; <??0?$basic_string@DU?$char_traits@D@std@@V?$allocator@D@2@@std@@QAE@PBDABV?$allocator@D@1@@Z>
  4036d5:	8d 54 24 18               lea	edx, [esp+18h]
  4036d9:	8d 8c 24 94 00 00 00      lea	ecx, [esp+00000094h]
  4036e0:	52                        push	edx
  4036e1:	68 70 c2 40 00            push	dword 0040C270h
  4036e6:	c6 84 24 fc 02 00 00      mov	byte [esp+000002FCh], 0Dh
		0d 
  4036ee:	ff 15 20 a0 40 00         call	dword [0040A020h]	; <??0?$basic_string@DU?$char_traits@D@std@@V?$allocator@D@2@@std@@QAE@PBDABV?$allocator@D@1@@Z>
  4036f4:	8d 84 24 f4 00 00 00      lea	eax, [esp+000000F4h]
  4036fb:	8d 8c 24 94 00 00 00      lea	ecx, [esp+00000094h]
  403702:	50                        push	eax
  403703:	51                        push	ecx
  403704:	8d 8c 24 48 02 00 00      lea	ecx, [esp+00000248h]
  40370b:	c6 84 24 fc 02 00 00      mov	byte [esp+000002FCh], 0Eh
		0e 
  403713:	e8 38 05 00 00            call	403c50
  403718:	6a 01                     push	dword 00000001h
  40371a:	8d 8c 24 98 00 00 00      lea	ecx, [esp+00000098h]
  403721:	c6 84 24 f8 02 00 00      mov	byte [esp+000002F8h], 11h
		11 
  403729:	ff 15 54 a0 40 00         call	dword [0040A054h]	; <?_Tidy@?$basic_string@DU?$char_traits@D@std@@V?$allocator@D@2@@std@@AAEX_N@Z>
  40372f:	6a 01                     push	dword 00000001h
  403731:	8d 8c 24 f8 00 00 00      lea	ecx, [esp+000000F8h]
  403738:	c6 84 24 f8 02 00 00      mov	byte [esp+000002F8h], 10h
		10 
  403740:	ff 15 54 a0 40 00         call	dword [0040A054h]	; <?_Tidy@?$basic_string@DU?$char_traits@D@std@@V?$allocator@D@2@@std@@AAEX_N@Z>
  403746:	8d 54 24 1e               lea	edx, [esp+1Eh]
  40374a:	8d 4c 24 44               lea	ecx, [esp+44h]
  40374e:	52                        push	edx
  40374f:	68 54 c2 40 00            push	dword 0040C254h
  403754:	ff 15 20 a0 40 00         call	dword [0040A020h]	; <??0?$basic_string@DU?$char_traits@D@std@@V?$allocator@D@2@@std@@QAE@PBDABV?$allocator@D@1@@Z>
  40375a:	8d 44 24 1a               lea	eax, [esp+1Ah]
  40375e:	8d 8c 24 b4 00 00 00      lea	ecx, [esp+000000B4h]
  403765:	50                        push	eax
  403766:	68 50 c2 40 00            push	dword 0040C250h
  40376b:	c6 84 24 fc 02 00 00      mov	byte [esp+000002FCh], 12h
		12 
  403773:	ff 15 20 a0 40 00         call	dword [0040A020h]	; <??0?$basic_string@DU?$char_traits@D@std@@V?$allocator@D@2@@std@@QAE@PBDABV?$allocator@D@1@@Z>
  403779:	8d 4c 24 44               lea	ecx, [esp+44h]
  40377d:	8d 94 24 b4 00 00 00      lea	edx, [esp+000000B4h]
  403784:	51                        push	ecx
  403785:	52                        push	edx
  403786:	8d 8c 24 70 02 00 00      lea	ecx, [esp+00000270h]
  40378d:	c6 84 24 fc 02 00 00      mov	byte [esp+000002FCh], 13h
		13 
  403795:	e8 b6 04 00 00            call	403c50
  40379a:	6a 01                     push	dword 00000001h
  40379c:	8d 8c 24 b8 00 00 00      lea	ecx, [esp+000000B8h]
  4037a3:	c6 84 24 f8 02 00 00      mov	byte [esp+000002F8h], 16h
		16 
  4037ab:	ff 15 54 a0 40 00         call	dword [0040A054h]	; <?_Tidy@?$basic_string@DU?$char_traits@D@std@@V?$allocator@D@2@@std@@AAEX_N@Z>
  4037b1:	6a 01                     push	dword 00000001h
  4037b3:	8d 4c 24 48               lea	ecx, [esp+48h]
  4037b7:	c6 84 24 f8 02 00 00      mov	byte [esp+000002F8h], 15h
		15 
  4037bf:	ff 15 54 a0 40 00         call	dword [0040A054h]	; <?_Tidy@?$basic_string@DU?$char_traits@D@std@@V?$allocator@D@2@@std@@AAEX_N@Z>
  4037c5:	8d 44 24 13               lea	eax, [esp+13h]
  4037c9:	8d 8c 24 84 00 00 00      lea	ecx, [esp+00000084h]
  4037d0:	50                        push	eax
  4037d1:	68 b8 c2 40 00            push	dword 0040C2B8h
  4037d6:	ff 15 20 a0 40 00         call	dword [0040A020h]	; <??0?$basic_string@DU?$char_traits@D@std@@V?$allocator@D@2@@std@@QAE@PBDABV?$allocator@D@1@@Z>
  4037dc:	8d 4c 24 14               lea	ecx, [esp+14h]
  4037e0:	c6 84 24 f4 02 00 00      mov	byte [esp+000002F4h], 17h
		17 
  4037e8:	51                        push	ecx
  4037e9:	68 28 c2 40 00            push	dword 0040C228h
  4037ee:	8d 4c 24 6c               lea	ecx, [esp+6Ch]
  4037f2:	ff 15 20 a0 40 00         call	dword [0040A020h]	; <??0?$basic_string@DU?$char_traits@D@std@@V?$allocator@D@2@@std@@QAE@PBDABV?$allocator@D@1@@Z>
  4037f8:	c6 84 24 f4 02 00 00      mov	byte [esp+000002F4h], 18h
		18 
  403800:	8d 54 24 15               lea	edx, [esp+15h]
  403804:	52                        push	edx
  403805:	68 24 c2 40 00            push	dword 0040C224h
  40380a:	8d 4c 24 5c               lea	ecx, [esp+5Ch]
  40380e:	ff 15 20 a0 40 00         call	dword [0040A020h]	; <??0?$basic_string@DU?$char_traits@D@std@@V?$allocator@D@2@@std@@QAE@PBDABV?$allocator@D@1@@Z>
  403814:	8d 84 24 84 00 00 00      lea	eax, [esp+00000084h]
  40381b:	8d 4c 24 64               lea	ecx, [esp+64h]
  40381f:	50                        push	eax
  403820:	8d 54 24 58               lea	edx, [esp+58h]
  403824:	51                        push	ecx
  403825:	52                        push	edx
  403826:	8d 8c 24 9c 02 00 00      lea	ecx, [esp+0000029Ch]
  40382d:	c6 84 24 00 03 00 00      mov	byte [esp+00000300h], 19h
		19 
  403835:	e8 86 35 00 00            call	406dc0
  40383a:	6a 01                     push	dword 00000001h
  40383c:	8d 4c 24 58               lea	ecx, [esp+58h]
  403840:	c6 84 24 f8 02 00 00      mov	byte [esp+000002F8h], 1Dh
		1d 
  403848:	ff 15 54 a0 40 00         call	dword [0040A054h]	; <?_Tidy@?$basic_string@DU?$char_traits@D@std@@V?$allocator@D@2@@std@@AAEX_N@Z>
  40384e:	6a 01                     push	dword 00000001h
  403850:	8d 4c 24 68               lea	ecx, [esp+68h]
  403854:	c6 84 24 f8 02 00 00      mov	byte [esp+000002F8h], 1Ch
		1c 
  40385c:	ff 15 54 a0 40 00         call	dword [0040A054h]	; <?_Tidy@?$basic_string@DU?$char_traits@D@std@@V?$allocator@D@2@@std@@AAEX_N@Z>
  403862:	b3 1b                     mov	bl, 1Bh
  403864:	6a 01                     push	dword 00000001h
  403866:	8d 8c 24 88 00 00 00      lea	ecx, [esp+00000088h]
  40386d:	88 9c 24 f8 02 00 00      mov	[esp+000002F8h], bl
  403874:	ff 15 54 a0 40 00         call	dword [0040A054h]	; <?_Tidy@?$basic_string@DU?$char_traits@D@std@@V?$allocator@D@2@@std@@AAEX_N@Z>
  40387a:	8d 84 24 bc 01 00 00      lea	eax, [esp+000001BCh]
  403881:	8d 8c 24 44 01 00 00      lea	ecx, [esp+00000144h]
  403888:	50                        push	eax
  403889:	c7 84 24 48 01 00 00      mov	dword [esp+00000148h], 0040A1D8h
		d8 a1 40 00 
  403894:	e8 c7 12 00 00            call	404b60
  403899:	8d 4c 24 17               lea	ecx, [esp+17h]
  40389d:	51                        push	ecx
  40389e:	68 18 c2 40 00            push	dword 0040C218h
  4038a3:	8d 8c 24 ac 00 00 00      lea	ecx, [esp+000000ACh]
  4038aa:	ff 15 20 a0 40 00         call	dword [0040A020h]	; <??0?$basic_string@DU?$char_traits@D@std@@V?$allocator@D@2@@std@@QAE@PBDABV?$allocator@D@1@@Z>
  4038b0:	8b 84 24 28 02 00 00      mov	eax, [esp+00000228h]
  4038b7:	8d 94 24 a4 00 00 00      lea	edx, [esp+000000A4h]
  4038be:	52                        push	edx
  4038bf:	50                        push	eax
  4038c0:	8d 8c 24 28 02 00 00      lea	ecx, [esp+00000228h]
  4038c7:	c6 84 24 fc 02 00 00      mov	byte [esp+000002FCh], 1Eh
		1e 
  4038cf:	e8 fc 3b 00 00            call	4074d0
  4038d4:	6a 01                     push	dword 00000001h
  4038d6:	8d 8c 24 a8 00 00 00      lea	ecx, [esp+000000A8h]
  4038dd:	88 9c 24 f8 02 00 00      mov	[esp+000002F8h], bl
  4038e4:	ff 15 54 a0 40 00         call	dword [0040A054h]	; <?_Tidy@?$basic_string@DU?$char_traits@D@std@@V?$allocator@D@2@@std@@AAEX_N@Z>
  4038ea:	8d 4c 24 19               lea	ecx, [esp+19h]
  4038ee:	51                        push	ecx
  4038ef:	68 0c c2 40 00            push	dword 0040C20Ch
  4038f4:	8d 8c 24 cc 00 00 00      lea	ecx, [esp+000000CCh]
  4038fb:	ff 15 20 a0 40 00         call	dword [0040A020h]	; <??0?$basic_string@DU?$char_traits@D@std@@V?$allocator@D@2@@std@@QAE@PBDABV?$allocator@D@1@@Z>
  403901:	8b 84 24 50 02 00 00      mov	eax, [esp+00000250h]
  403908:	8d 94 24 c4 00 00 00      lea	edx, [esp+000000C4h]
  40390f:	52                        push	edx
  403910:	50                        push	eax
  403911:	8d 8c 24 50 02 00 00      lea	ecx, [esp+00000250h]
  403918:	c6 84 24 fc 02 00 00      mov	byte [esp+000002FCh], 1Fh
		1f 
  403920:	e8 ab 3b 00 00            call	4074d0
  403925:	6a 01                     push	dword 00000001h
  403927:	8d 8c 24 c8 00 00 00      lea	ecx, [esp+000000C8h]
  40392e:	88 9c 24 f8 02 00 00      mov	[esp+000002F8h], bl
  403935:	ff 15 54 a0 40 00         call	dword [0040A054h]	; <?_Tidy@?$basic_string@DU?$char_traits@D@std@@V?$allocator@D@2@@std@@AAEX_N@Z>
  40393b:	8d 4c 24 1b               lea	ecx, [esp+1Bh]
  40393f:	51                        push	ecx
  403940:	68 00 c2 40 00            push	dword 0040C200h
  403945:	8d 8c 24 ec 00 00 00      lea	ecx, [esp+000000ECh]
  40394c:	ff 15 20 a0 40 00         call	dword [0040A020h]	; <??0?$basic_string@DU?$char_traits@D@std@@V?$allocator@D@2@@std@@QAE@PBDABV?$allocator@D@1@@Z>
  403952:	8b 84 24 78 02 00 00      mov	eax, [esp+00000278h]
  403959:	8d 94 24 e4 00 00 00      lea	edx, [esp+000000E4h]
  403960:	52                        push	edx
  403961:	c6 84 24 f8 02 00 00      mov	byte [esp+000002F8h], 20h
		20 
  403969:	50                        push	eax
  40396a:	8d 8c 24 78 02 00 00      lea	ecx, [esp+00000278h]
  403971:	e8 5a 3b 00 00            call	4074d0
  403976:	6a 01                     push	dword 00000001h
  403978:	8d 8c 24 e8 00 00 00      lea	ecx, [esp+000000E8h]
  40397f:	88 9c 24 f8 02 00 00      mov	[esp+000002F8h], bl
  403986:	ff 15 54 a0 40 00         call	dword [0040A054h]	; <?_Tidy@?$basic_string@DU?$char_traits@D@std@@V?$allocator@D@2@@std@@AAEX_N@Z>
  40398c:	8d 8c 24 18 02 00 00      lea	ecx, [esp+00000218h]
  403993:	51                        push	ecx
  403994:	8d 8c 24 48 01 00 00      lea	ecx, [esp+00000148h]
  40399b:	e8 f0 0f 00 00            call	404990
  4039a0:	8d 94 24 40 02 00 00      lea	edx, [esp+00000240h]
  4039a7:	8d 8c 24 44 01 00 00      lea	ecx, [esp+00000144h]
  4039ae:	52                        push	edx
  4039af:	e8 dc 0f 00 00            call	404990
  4039b4:	8d 84 24 68 02 00 00      lea	eax, [esp+00000268h]
  4039bb:	8d 8c 24 44 01 00 00      lea	ecx, [esp+00000144h]
  4039c2:	50                        push	eax
  4039c3:	e8 c8 0f 00 00            call	404990
  4039c8:	8d 4c 24 1d               lea	ecx, [esp+1Dh]
  4039cc:	51                        push	ecx
  4039cd:	68 c0 c5 40 00            push	dword 0040C5C0h
  4039d2:	8d 8c 24 0c 01 00 00      lea	ecx, [esp+0000010Ch]
  4039d9:	ff 15 20 a0 40 00         call	dword [0040A020h]	; <??0?$basic_string@DU?$char_traits@D@std@@V?$allocator@D@2@@std@@QAE@PBDABV?$allocator@D@1@@Z>
  4039df:	8d 94 24 04 01 00 00      lea	edx, [esp+00000104h]
  4039e6:	8d 8c 24 90 02 00 00      lea	ecx, [esp+00000290h]
  4039ed:	52                        push	edx
  4039ee:	c6 84 24 f8 02 00 00      mov	byte [esp+000002F8h], 21h
		21 
  4039f6:	e8 c5 34 00 00            call	406ec0
  4039fb:	6a 01                     push	dword 00000001h
  4039fd:	8d 8c 24 08 01 00 00      lea	ecx, [esp+00000108h]
  403a04:	88 9c 24 f8 02 00 00      mov	[esp+000002F8h], bl
  403a0b:	ff 15 54 a0 40 00         call	dword [0040A054h]	; <?_Tidy@?$basic_string@DU?$char_traits@D@std@@V?$allocator@D@2@@std@@AAEX_N@Z>
  403a11:	8d 84 24 90 02 00 00      lea	eax, [esp+00000290h]
  403a18:	8d 8c 24 44 01 00 00      lea	ecx, [esp+00000144h]
  403a1f:	50                        push	eax
  403a20:	e8 6b 0f 00 00            call	404990
  403a25:	8d 4c 24 1f               lea	ecx, [esp+1Fh]
  403a29:	c7 84 24 f4 02 00 00      mov	dword [esp+000002F4h], 00000022h
		22 00 00 00 
  403a34:	51                        push	ecx
  403a35:	8d 4c 24 28               lea	ecx, [esp+28h]
  403a39:	e8 72 3a 00 00            call	4074b0
  403a3e:	8b 84 24 fc 02 00 00      mov	eax, [esp+000002FCh]
  403a45:	b3 23                     mov	bl, 23h
  403a47:	83 f8 01                  cmp	eax, 01h
  403a4a:	88 9c 24 f4 02 00 00      mov	[esp+000002F4h], bl
  403a51:	7e 55                     jle	403aa8
  403a53:	8b 94 24 00 03 00 00      mov	edx, [esp+00000300h]
  403a5a:	57                        push	edi
  403a5b:	8d 78 ff                  lea	edi, [eax-01h]
  403a5e:	8d 72 04                  lea	esi, [edx+04h]
  403a61:	8b 0e                    >mov	ecx, [esi]
  403a63:	8d 44 24 16               lea	eax, [esp+16h]
  403a67:	50                        push	eax
  403a68:	51                        push	ecx
  403a69:	8d 4c 24 40               lea	ecx, [esp+40h]
  403a6d:	ff 15 20 a0 40 00         call	dword [0040A020h]	; <??0?$basic_string@DU?$char_traits@D@std@@V?$allocator@D@2@@std@@QAE@PBDABV?$allocator@D@1@@Z>
  403a73:	8b 44 24 30               mov	eax, [esp+30h]
  403a77:	8d 54 24 38               lea	edx, [esp+38h]
  403a7b:	52                        push	edx
  403a7c:	50                        push	eax
  403a7d:	8d 4c 24 30               lea	ecx, [esp+30h]
  403a81:	c6 84 24 00 03 00 00      mov	byte [esp+00000300h], 24h
		24 
  403a89:	e8 42 3a 00 00            call	4074d0
  403a8e:	6a 01                     push	dword 00000001h
  403a90:	8d 4c 24 3c               lea	ecx, [esp+3Ch]
  403a94:	88 9c 24 fc 02 00 00      mov	[esp+000002FCh], bl
  403a9b:	ff 15 54 a0 40 00         call	dword [0040A054h]	; <?_Tidy@?$basic_string@DU?$char_traits@D@std@@V?$allocator@D@2@@std@@AAEX_N@Z>
  403aa1:	83 c6 04                  add	esi, 04h
  403aa4:	4f                        dec	edi
  403aa5:	75 ba                     jnz	403a61
  403aa7:	5f                        pop	edi
  403aa8:	8d 4c 24 24              >lea	ecx, [esp+24h]
  403aac:	6a 01                     push	dword 00000001h
  403aae:	51                        push	ecx
  403aaf:	8d 8c 24 4c 01 00 00      lea	ecx, [esp+0000014Ch]
  403ab6:	e8 85 17 00 00            call	405240
  403abb:	8d 4c 24 24               lea	ecx, [esp+24h]
  403abf:	8a d8                     mov	bl, al
  403ac1:	c6 84 24 f4 02 00 00      mov	byte [esp+000002F4h], 22h
		22 
  403ac9:	e8 92 32 00 00            call	406d60
  403ace:	84 db                     test	bl, bl
  403ad0:	0f 85 87 00 00 00         jnz	403b5d
  403ad6:	8d 54 24 12               lea	edx, [esp+12h]
  403ada:	8d 4c 24 34               lea	ecx, [esp+34h]
  403ade:	52                        push	edx
  403adf:	68 c0 c5 40 00            push	dword 0040C5C0h
  403ae4:	ff 15 20 a0 40 00         call	dword [0040A020h]	; <??0?$basic_string@DU?$char_traits@D@std@@V?$allocator@D@2@@std@@QAE@PBDABV?$allocator@D@1@@Z>
  403aea:	8d 44 24 34               lea	eax, [esp+34h]
  403aee:	8d 4c 24 24               lea	ecx, [esp+24h]
  403af2:	50                        push	eax
  403af3:	51                        push	ecx
  403af4:	8d 8c 24 4c 01 00 00      lea	ecx, [esp+0000014Ch]
  403afb:	c6 84 24 fc 02 00 00      mov	byte [esp+000002FCh], 25h
		25 
  403b03:	e8 28 12 00 00            call	404d30
  403b08:	8b 40 04                  mov	eax, [eax+04h]
  403b0b:	85 c0                     test	eax, eax
  403b0d:	75 05                     jnz	403b14
  403b0f:	a1 5c a0 40 00            mov	eax, [40A05Ch]
  403b14:	50                       >push	eax
  403b15:	ff 15 4c a1 40 00         call	dword [0040A14Ch]	; <printf>
  403b1b:	83 c4 04                  add	esp, 04h
  403b1e:	8d 4c 24 24               lea	ecx, [esp+24h]
  403b22:	6a 01                     push	dword 00000001h
  403b24:	ff 15 54 a0 40 00         call	dword [0040A054h]	; <?_Tidy@?$basic_string@DU?$char_traits@D@std@@V?$allocator@D@2@@std@@AAEX_N@Z>
  403b2a:	6a 01                     push	dword 00000001h
  403b2c:	8d 4c 24 38               lea	ecx, [esp+38h]
  403b30:	c6 84 24 f8 02 00 00      mov	byte [esp+000002F8h], 22h
		22 
  403b38:	ff 15 54 a0 40 00         call	dword [0040A054h]	; <?_Tidy@?$basic_string@DU?$char_traits@D@std@@V?$allocator@D@2@@std@@AAEX_N@Z>
  403b3e:	8d 8c 24 44 01 00 00      lea	ecx, [esp+00000144h]
  403b45:	c7 84 24 f4 02 00 00      mov	dword [esp+000002F4h], FFFFFFFFh
		ff ff ff ff 
  403b50:	e8 6b 27 00 00            call	4062c0
  403b55:	83 c8 ff                  or	eax, FFh
  403b58:	e9 d5 00 00 00            jmp	403c32
  403b5d:	8d 94 24 08 02 00 00     >lea	edx, [esp+00000208h]
  403b64:	8d 44 24 0c               lea	eax, [esp+0Ch]
  403b68:	52                        push	edx
  403b69:	50                        push	eax
  403b6a:	ff 15 70 a1 40 00         call	dword [0040A170h]	; <?makeLocation@FileManager@@SA?AVFileLocation@@ABV?$basic_string@DU?$char_traits@D@std@@V?$allocator@D@2@@std@@@Z>
  403b70:	83 c4 08                  add	esp, 08h
  403b73:	8a 84 24 6c 02 00 00      mov	al, [esp+0000026Ch]
  403b7a:	c6 84 24 f4 02 00 00      mov	byte [esp+000002F4h], 26h
		26 
  403b82:	a8 01                     test	al, 01h
  403b84:	74 0e                     jz	403b94
  403b86:	8d 4c 24 0c               lea	ecx, [esp+0Ch]
  403b8a:	51                        push	ecx
  403b8b:	8b cd                     mov	ecx, ebp
  403b8d:	e8 8e e9 ff ff            call	402520
  403b92:	eb 71                     jmp	403c05
  403b94:	f6 84 24 1c 02 00 00     >test	byte [esp+0000021Ch], 01h
		01 
  403b9c:	74 15                     jz	403bb3
  403b9e:	8d 54 24 0c               lea	edx, [esp+0Ch]
  403ba2:	8b cd                     mov	ecx, ebp
  403ba4:	52                        push	edx
  403ba5:	e8 86 f9 ff ff            call	403530
  403baa:	83 f8 6e                  cmp	eax, 6Eh
  403bad:	74 23                     jz	403bd2
  403baf:	f7 d8                     neg	eax
  403bb1:	eb 52                     jmp	403c05
  403bb3:	f6 84 24 44 02 00 00     >test	byte [esp+00000244h], 01h
		01 
  403bbb:	74 15                     jz	403bd2
  403bbd:	8d 44 24 0c               lea	eax, [esp+0Ch]
  403bc1:	8b cd                     mov	ecx, ebp
  403bc3:	50                        push	eax
  403bc4:	e8 57 f9 ff ff            call	403520
  403bc9:	83 f8 6e                  cmp	eax, 6Eh
  403bcc:	74 04                     jz	403bd2
  403bce:	f7 d8                     neg	eax
  403bd0:	eb 33                     jmp	403c05
  403bd2:	f6 84 24 94 02 00 00     >test	byte [esp+00000294h], 01h
		01 
  403bda:	74 1d                     jz	403bf9
  403bdc:	8d 8c 24 dc 02 00 00      lea	ecx, [esp+000002DCh]
  403be3:	8d 54 24 0c               lea	edx, [esp+0Ch]
  403be7:	51                        push	ecx
  403be8:	52                        push	edx
  403be9:	8b cd                     mov	ecx, ebp
  403beb:	e8 f0 28 00 00            call	4064e0
  403bf0:	83 f8 6e                  cmp	eax, 6Eh
  403bf3:	74 04                     jz	403bf9
  403bf5:	f7 d8                     neg	eax
  403bf7:	eb 0c                     jmp	403c05
  403bf9:	8d 44 24 0c              >lea	eax, [esp+0Ch]
  403bfd:	8b cd                     mov	ecx, ebp
  403bff:	50                        push	eax
  403c00:	e8 1b 2c 00 00            call	406820
  403c05:	8d 4c 24 0c              >lea	ecx, [esp+0Ch]
  403c09:	8b f0                     mov	esi, eax
  403c0b:	c6 84 24 f4 02 00 00      mov	byte [esp+000002F4h], 22h
		22 
  403c13:	ff 15 6c a1 40 00         call	dword [0040A16Ch]	; <??1FileLocation@@QAE@XZ>
  403c19:	8d 8c 24 44 01 00 00      lea	ecx, [esp+00000144h]
  403c20:	c7 84 24 f4 02 00 00      mov	dword [esp+000002F4h], FFFFFFFFh
		ff ff ff ff 
  403c2b:	e8 90 26 00 00            call	4062c0
  403c30:	8b c6                     mov	eax, esi
  403c32:	8b 8c 24 ec 02 00 00     >mov	ecx, [esp+000002ECh]
  403c39:	5e                        pop	esi
  403c3a:	5d                        pop	ebp
  403c3b:	5b                        pop	ebx
  403c3c:	64 89 0d 00 00 00 00      mov	[fs:00000000h], ecx
  403c43:	81 c4 ec 02 00 00         add	esp, 000002ECh
  403c49:	c2 08 00                  ret	0008h
     ...

403c50 <no name>:
  403c50:	6a ff                     push	dword FFFFFFFFh
  403c52:	68 27 8c 40 00            push	dword 00408C27h
  403c57:	64 a1 00 00 00 00         mov	eax, [fs:0000h]
  403c5d:	50                        push	eax
  403c5e:	64 89 25 00 00 00 00      mov	[fs:00000000h], esp
  403c65:	83 ec 08                  sub	esp, 08h
  403c68:	53                        push	ebx
  403c69:	55                        push	ebp
  403c6a:	56                        push	esi
  403c6b:	57                        push	edi
  403c6c:	8b f9                     mov	edi, ecx
  403c6e:	89 7c 24 14               mov	[esp+14h], edi
  403c72:	8a 47 04                  mov	al, [edi+04h]
  403c75:	8d 77 08                  lea	esi, [edi+08h]
  403c78:	24 fc                     and	al, FCh
  403c7a:	88 47 04                  mov	[edi+04h], al
  403c7d:	8a 44 24 28               mov	al, [esp+28h]
  403c81:	88 06                     mov	[esi], al
  403c83:	33 c0                     xor	eax, eax
  403c85:	89 46 04                  mov	[esi+04h], eax
  403c88:	89 46 08                  mov	[esi+08h], eax
  403c8b:	89 46 0c                  mov	[esi+0Ch], eax
  403c8e:	8b 6c 24 2c               mov	ebp, [esp+2Ch]
  403c92:	8d 4f 18                  lea	ecx, [edi+18h]
  403c95:	89 44 24 20               mov	[esp+20h], eax
  403c99:	8a 55 00                  mov	dl, [ebp+00h]
  403c9c:	89 41 04                  mov	[ecx+04h], eax
  403c9f:	88 11                     mov	[ecx], dl
  403ca1:	89 41 08                  mov	[ecx+08h], eax
  403ca4:	89 41 0c                  mov	[ecx+0Ch], eax
  403ca7:	8b 15 84 a0 40 00         mov	edx, [0040A084h]
  403cad:	8b 12                     mov	edx, [edx]
  403caf:	52                        push	edx
  403cb0:	50                        push	eax
  403cb1:	55                        push	ebp
  403cb2:	ff 15 88 a0 40 00         call	dword [0040A088h]	; <?assign@?$basic_string@DU?$char_traits@D@std@@V?$allocator@D@2@@std@@QAEAAV12@ABV12@II@Z>
  403cb8:	c7 07 f8 a1 40 00         mov	dword [edi], 0040A1F8h
  403cbe:	8b 5e 08                  mov	ebx, [esi+08h]
  403cc1:	8b 46 0c                  mov	eax, [esi+0Ch]
  403cc4:	c6 44 24 20 01            mov	byte [esp+20h], 01h
  403cc9:	2b c3                     sub	eax, ebx
  403ccb:	c1 f8 04                  sar	eax, 04h
  403cce:	83 f8 01                  cmp	eax, 01h
  403cd1:	0f 83 b6 00 00 00         jae	403d8d
  403cd7:	8b ce                     mov	ecx, esi
  403cd9:	e8 b2 40 00 00            call	407d90
  403cde:	83 f8 01                  cmp	eax, 01h
  403ce1:	76 0d                     jbe	403cf0
  403ce3:	8b ce                     mov	ecx, esi
  403ce5:	e8 a6 40 00 00            call	407d90
  403cea:	89 44 24 2c               mov	[esp+2Ch], eax
  403cee:	eb 08                     jmp	403cf8
  403cf0:	c7 44 24 2c 01 00 00     >mov	dword [esp+2Ch], 00000001h
		00 
  403cf8:	8b ce                    >mov	ecx, esi
  403cfa:	e8 91 40 00 00            call	407d90
  403cff:	8b e8                     mov	ebp, eax
  403d01:	8b 44 24 2c               mov	eax, [esp+2Ch]
  403d05:	03 e8                     add	ebp, eax
  403d07:	8b c5                     mov	eax, ebp
  403d09:	79 02                     jns	403d0d
  403d0b:	33 c0                     xor	eax, eax
  403d0d:	c1 e0 04                 >shl	eax, 04h
  403d10:	50                        push	eax
  403d11:	e8 6a 4a 00 00            call	408780	; <??2@YAPAXI@Z>
  403d16:	8b 4e 04                  mov	ecx, [esi+04h]
  403d19:	83 c4 04                  add	esp, 04h
  403d1c:	89 44 24 10               mov	[esp+10h], eax
  403d20:	50                        push	eax
  403d21:	53                        push	ebx
  403d22:	51                        push	ecx
  403d23:	8b ce                     mov	ecx, esi
  403d25:	e8 86 40 00 00            call	407db0
  403d2a:	8b 54 24 28               mov	edx, [esp+28h]
  403d2e:	8b ce                     mov	ecx, esi
  403d30:	52                        push	edx
  403d31:	6a 01                     push	dword 00000001h
  403d33:	50                        push	eax
  403d34:	89 44 24 38               mov	[esp+38h], eax
  403d38:	e8 b3 40 00 00            call	407df0
  403d3d:	8b 44 24 2c               mov	eax, [esp+2Ch]
  403d41:	8b 4e 08                  mov	ecx, [esi+08h]
  403d44:	83 c0 10                  add	eax, 10h
  403d47:	50                        push	eax
  403d48:	51                        push	ecx
  403d49:	53                        push	ebx
  403d4a:	8b ce                     mov	ecx, esi
  403d4c:	e8 5f 40 00 00            call	407db0
  403d51:	8b 56 08                  mov	edx, [esi+08h]
  403d54:	8b 46 04                  mov	eax, [esi+04h]
  403d57:	52                        push	edx
  403d58:	50                        push	eax
  403d59:	8b ce                     mov	ecx, esi
  403d5b:	e8 00 39 00 00            call	407660
  403d60:	8b 4e 04                  mov	ecx, [esi+04h]
  403d63:	51                        push	ecx
  403d64:	e8 e3 49 00 00            call	40874c
  403d69:	8b 5c 24 14               mov	ebx, [esp+14h]
  403d6d:	83 c4 04                  add	esp, 04h
  403d70:	c1 e5 04                  shl	ebp, 04h
  403d73:	03 eb                     add	ebp, ebx
  403d75:	8b ce                     mov	ecx, esi
  403d77:	89 6e 0c                  mov	[esi+0Ch], ebp
  403d7a:	e8 11 40 00 00            call	407d90
  403d7f:	40                        inc	eax
  403d80:	89 5e 04                  mov	[esi+04h], ebx
  403d83:	c1 e0 04                  shl	eax, 04h
  403d86:	03 c3                     add	eax, ebx
  403d88:	89 46 08                  mov	[esi+08h], eax
  403d8b:	eb 79                     jmp	403e06
  403d8d:	8b d3                    >mov	edx, ebx
  403d8f:	2b d3                     sub	edx, ebx
  403d91:	c1 fa 04                  sar	edx, 04h
  403d94:	83 fa 01                  cmp	edx, 01h
  403d97:	73 3c                     jae	403dd5
  403d99:	8d 43 10                  lea	eax, [ebx+10h]
  403d9c:	8b ce                     mov	ecx, esi
  403d9e:	50                        push	eax
  403d9f:	53                        push	ebx
  403da0:	53                        push	ebx
  403da1:	e8 0a 40 00 00            call	407db0
  403da6:	8b 46 08                  mov	eax, [esi+08h]
  403da9:	8b 6c 24 28               mov	ebp, [esp+28h]
  403dad:	8b c8                     mov	ecx, eax
  403daf:	ba 01 00 00 00            mov	edx, 00000001h
  403db4:	2b cb                     sub	ecx, ebx
  403db6:	55                        push	ebp
  403db7:	c1 f9 04                  sar	ecx, 04h
  403dba:	2b d1                     sub	edx, ecx
  403dbc:	8b ce                     mov	ecx, esi
  403dbe:	52                        push	edx
  403dbf:	50                        push	eax
  403dc0:	e8 2b 40 00 00            call	407df0
  403dc5:	8b 46 08                  mov	eax, [esi+08h]
  403dc8:	55                        push	ebp
  403dc9:	50                        push	eax
  403dca:	53                        push	ebx
  403dcb:	e8 e0 40 00 00            call	407eb0
  403dd0:	83 c4 0c                  add	esp, 0Ch
  403dd3:	eb 2d                     jmp	403e02
  403dd5:	53                       >push	ebx
  403dd6:	8d 4b f0                  lea	ecx, [ebx-10h]
  403dd9:	53                        push	ebx
  403dda:	51                        push	ecx
  403ddb:	8b ce                     mov	ecx, esi
  403ddd:	e8 ce 3f 00 00            call	407db0
  403de2:	8b 46 08                  mov	eax, [esi+08h]
  403de5:	50                        push	eax
  403de6:	83 c0 f0                  add	eax, F0h
  403de9:	50                        push	eax
  403dea:	53                        push	ebx
  403deb:	e8 10 42 00 00            call	408000
  403df0:	8b 54 24 34               mov	edx, [esp+34h]
  403df4:	8d 43 10                  lea	eax, [ebx+10h]
  403df7:	52                        push	edx
  403df8:	50                        push	eax
  403df9:	53                        push	ebx
  403dfa:	e8 b1 40 00 00            call	407eb0
  403dff:	83 c4 18                  add	esp, 18h
  403e02:	83 46 08 10              >add	dword [esi+08h], 10h
  403e06:	8b 4c 24 18              >mov	ecx, [esp+18h]
  403e0a:	c7 07 dc a1 40 00         mov	dword [edi], 0040A1DCh
  403e10:	8b c7                     mov	eax, edi
  403e12:	5f                        pop	edi
  403e13:	5e                        pop	esi
  403e14:	5d                        pop	ebp
  403e15:	5b                        pop	ebx
  403e16:	64 89 0d 00 00 00 00      mov	[fs:00000000h], ecx
  403e1d:	83 c4 14                  add	esp, 14h
  403e20:	c2 08 00                  ret	0008h
     ...

403e50 <no name>:
  403e50:	53                        push	ebx
  403e51:	55                        push	ebp
  403e52:	56                        push	esi
  403e53:	57                        push	edi
  403e54:	8b f9                     mov	edi, ecx
  403e56:	33 db                     xor	ebx, ebx
  403e58:	c7 07 f8 a1 40 00         mov	dword [edi], 0040A1F8h
  403e5e:	8b 47 1c                  mov	eax, [edi+1Ch]
  403e61:	3b c3                     cmp	eax, ebx
  403e63:	74 1d                     jz	403e82
  403e65:	8d 48 ff                  lea	ecx, [eax-01h]
  403e68:	8a 40 ff                  mov	al, [eax-01h]
  403e6b:	3a c3                     cmp	al, bl
  403e6d:	74 0a                     jz	403e79
  403e6f:	3c ff                     cmp	al, FFh
  403e71:	74 06                     jz	403e79
  403e73:	fe c8                     dec	al
  403e75:	88 01                     mov	[ecx], al
  403e77:	eb 09                     jmp	403e82
  403e79:	51                       >push	ecx
  403e7a:	e8 cd 48 00 00            call	40874c
  403e7f:	83 c4 04                  add	esp, 04h
  403e82:	89 5f 1c                 >mov	[edi+1Ch], ebx
  403e85:	89 5f 20                  mov	[edi+20h], ebx
  403e88:	89 5f 24                  mov	[edi+24h], ebx
  403e8b:	8b 6f 10                  mov	ebp, [edi+10h]
  403e8e:	8b 77 0c                  mov	esi, [edi+0Ch]
  403e91:	3b f5                     cmp	esi, ebp
  403e93:	74 34                     jz	403ec9
  403e95:	8b 46 04                 >mov	eax, [esi+04h]
  403e98:	3b c3                     cmp	eax, ebx
  403e9a:	74 1d                     jz	403eb9
  403e9c:	8d 48 ff                  lea	ecx, [eax-01h]
  403e9f:	8a 40 ff                  mov	al, [eax-01h]
  403ea2:	3a c3                     cmp	al, bl
  403ea4:	74 0a                     jz	403eb0
  403ea6:	3c ff                     cmp	al, FFh
  403ea8:	74 06                     jz	403eb0
  403eaa:	fe c8                     dec	al
  403eac:	88 01                     mov	[ecx], al
  403eae:	eb 09                     jmp	403eb9
  403eb0:	51                       >push	ecx
  403eb1:	e8 96 48 00 00            call	40874c
  403eb6:	83 c4 04                  add	esp, 04h
  403eb9:	89 5e 04                 >mov	[esi+04h], ebx
  403ebc:	89 5e 08                  mov	[esi+08h], ebx
  403ebf:	89 5e 0c                  mov	[esi+0Ch], ebx
  403ec2:	83 c6 10                  add	esi, 10h
  403ec5:	3b f5                     cmp	esi, ebp
  403ec7:	75 cc                     jnz	403e95
  403ec9:	8b 47 0c                 >mov	eax, [edi+0Ch]
  403ecc:	50                        push	eax
  403ecd:	e8 7a 48 00 00            call	40874c
  403ed2:	83 c4 04                  add	esp, 04h
  403ed5:	89 5f 0c                  mov	[edi+0Ch], ebx
  403ed8:	89 5f 10                  mov	[edi+10h], ebx
  403edb:	89 5f 14                  mov	[edi+14h], ebx
  403ede:	5f                        pop	edi
  403edf:	5e                        pop	esi
  403ee0:	5d                        pop	ebp
  403ee1:	5b                        pop	ebx
  403ee2:	c3                        ret
     ...

404770 <no name>:
  404770:	51                        push	ecx
  404771:	53                        push	ebx
  404772:	55                        push	ebp
  404773:	8b 6c 24 10               mov	ebp, [esp+10h]
  404777:	56                        push	esi
  404778:	8b 71 0c                  mov	esi, [ecx+0Ch]
  40477b:	57                        push	edi
  40477c:	33 ff                     xor	edi, edi
  40477e:	8a 06                     mov	al, [esi]
  404780:	89 7d 04                  mov	[ebp+04h], edi
  404783:	88 45 00                  mov	[ebp+00h], al
  404786:	89 7d 08                  mov	[ebp+08h], edi
  404789:	89 7d 0c                  mov	[ebp+0Ch], edi
  40478c:	8b 0d 84 a0 40 00         mov	ecx, [0040A084h]
  404792:	89 7c 24 10               mov	[esp+10h], edi
  404796:	8b 01                     mov	eax, [ecx]
  404798:	8b 4e 08                  mov	ecx, [esi+08h]
  40479b:	8b d9                     mov	ebx, ecx
  40479d:	3b c3                     cmp	eax, ebx
  40479f:	73 02                     jae	4047a3
  4047a1:	8b d8                     mov	ebx, eax
  4047a3:	3b ee                    >cmp	ebp, esi
  4047a5:	75 67                     jnz	40480e
  4047a7:	3b df                     cmp	ebx, edi
  4047a9:	8b f0                     mov	esi, eax
  4047ab:	76 06                     jbe	4047b3
  4047ad:	ff 15 80 a0 40 00         call	dword [0040A080h]	; <?_Xran@std@@YAXXZ>
  4047b3:	8b cd                    >mov	ecx, ebp
  4047b5:	ff 15 7c a0 40 00         call	dword [0040A07Ch]	; <?_Split@?$basic_string@DU?$char_traits@D@std@@V?$allocator@D@2@@std@@AAEXXZ>
  4047bb:	8b 45 08                  mov	eax, [ebp+08h]
  4047be:	2b c3                     sub	eax, ebx
  4047c0:	3b c6                     cmp	eax, esi
  4047c2:	73 02                     jae	4047c6
  4047c4:	8b f0                     mov	esi, eax
  4047c6:	3b f7                    >cmp	esi, edi
  4047c8:	76 32                     jbe	4047fc
  4047ca:	8b 55 04                  mov	edx, [ebp+04h]
  4047cd:	2b c6                     sub	eax, esi
  4047cf:	03 da                     add	ebx, edx
  4047d1:	50                        push	eax
  4047d2:	8d 04 33                  lea	eax, [ebx+esi*1]
  4047d5:	50                        push	eax
  4047d6:	53                        push	ebx
  4047d7:	ff 15 48 a1 40 00         call	dword [0040A148h]	; <memmove>
  4047dd:	8b 5d 08                  mov	ebx, [ebp+08h]
  4047e0:	83 c4 0c                  add	esp, 0Ch
  4047e3:	2b de                     sub	ebx, esi
  4047e5:	8b cd                     mov	ecx, ebp
  4047e7:	57                        push	edi
  4047e8:	53                        push	ebx
  4047e9:	ff 15 78 a0 40 00         call	dword [0040A078h]	; <?_Grow@?$basic_string@DU?$char_traits@D@std@@V?$allocator@D@2@@std@@AAE_NI_N@Z>
  4047ef:	84 c0                     test	al, al
  4047f1:	74 09                     jz	4047fc
  4047f3:	53                        push	ebx
  4047f4:	8b cd                     mov	ecx, ebp
  4047f6:	ff 15 74 a0 40 00         call	dword [0040A074h]	; <?_Eos@?$basic_string@DU?$char_traits@D@std@@V?$allocator@D@2@@std@@AAEXI@Z>
  4047fc:	8b cd                    >mov	ecx, ebp
  4047fe:	ff 15 7c a0 40 00         call	dword [0040A07Ch]	; <?_Split@?$basic_string@DU?$char_traits@D@std@@V?$allocator@D@2@@std@@AAEXXZ>
  404804:	5f                        pop	edi
  404805:	8b c5                     mov	eax, ebp
  404807:	5e                        pop	esi
  404808:	5d                        pop	ebp
  404809:	5b                        pop	ebx
  40480a:	59                        pop	ecx
  40480b:	c2 04 00                  ret	0004h
  40480e:	3b df                    >cmp	ebx, edi
  404810:	76 4d                     jbe	40485f
  404812:	3b d9                     cmp	ebx, ecx
  404814:	75 49                     jnz	40485f
  404816:	8b 46 04                  mov	eax, [esi+04h]
  404819:	3b c7                     cmp	eax, edi
  40481b:	75 05                     jnz	404822
  40481d:	a1 5c a0 40 00            mov	eax, [40A05Ch]
  404822:	80 78 ff fe              >cmp	byte [eax-01h], FEh
  404826:	73 37                     jae	40485f
  404828:	6a 01                     push	dword 00000001h
  40482a:	8b cd                     mov	ecx, ebp
  40482c:	ff 15 54 a0 40 00         call	dword [0040A054h]	; <?_Tidy@?$basic_string@DU?$char_traits@D@std@@V?$allocator@D@2@@std@@AAEX_N@Z>
  404832:	8b 46 04                  mov	eax, [esi+04h]
  404835:	3b c7                     cmp	eax, edi
  404837:	75 05                     jnz	40483e
  404839:	a1 5c a0 40 00            mov	eax, [40A05Ch]
  40483e:	89 45 04                 >mov	[ebp+04h], eax
  404841:	8b 4e 08                  mov	ecx, [esi+08h]
  404844:	89 4d 08                  mov	[ebp+08h], ecx
  404847:	8b 56 0c                  mov	edx, [esi+0Ch]
  40484a:	89 55 0c                  mov	[ebp+0Ch], edx
  40484d:	8a 48 ff                  mov	cl, [eax-01h]
  404850:	fe c1                     inc	cl
  404852:	5f                        pop	edi
  404853:	88 48 ff                  mov	[eax-01h], cl
  404856:	8b c5                     mov	eax, ebp
  404858:	5e                        pop	esi
  404859:	5d                        pop	ebp
  40485a:	5b                        pop	ebx
  40485b:	59                        pop	ecx
  40485c:	c2 04 00                  ret	0004h
  40485f:	6a 01                    >push	dword 00000001h
  404861:	53                        push	ebx
  404862:	8b cd                     mov	ecx, ebp
  404864:	ff 15 78 a0 40 00         call	dword [0040A078h]	; <?_Grow@?$basic_string@DU?$char_traits@D@std@@V?$allocator@D@2@@std@@AAE_NI_N@Z>
  40486a:	84 c0                     test	al, al
  40486c:	74 2a                     jz	404898
  40486e:	8b 76 04                  mov	esi, [esi+04h]
  404871:	3b f7                     cmp	esi, edi
  404873:	75 06                     jnz	40487b
  404875:	8b 35 5c a0 40 00         mov	esi, [0040A05Ch]
  40487b:	8b 7d 04                 >mov	edi, [ebp+04h]
  40487e:	8b cb                     mov	ecx, ebx
  404880:	8b c1                     mov	eax, ecx
  404882:	c1 e9 02                  shr	ecx, 02h
  404885:	f3 a5                     rep movsd
  404887:	8b c8                     mov	ecx, eax
  404889:	83 e1 03                  and	ecx, 03h
  40488c:	f3 a4                     rep movsb
  40488e:	8b 4d 04                  mov	ecx, [ebp+04h]
  404891:	89 5d 08                  mov	[ebp+08h], ebx
  404894:	c6 04 19 00               mov	byte [ecx+ebx*1], 00h
  404898:	5f                       >pop	edi
  404899:	8b c5                     mov	eax, ebp
  40489b:	5e                        pop	esi
  40489c:	5d                        pop	ebp
  40489d:	5b                        pop	ebx
  40489e:	59                        pop	ecx
  40489f:	c2 04 00                  ret	0004h
     ...

404990 <no name>:
  404990:	83 ec 0c                  sub	esp, 0Ch
  404993:	8b 44 24 10               mov	eax, [esp+10h]
  404997:	56                        push	esi
  404998:	8d 71 04                  lea	esi, [ecx+04h]
  40499b:	89 44 24 0c               mov	[esp+0Ch], eax
  40499f:	57                        push	edi
  4049a0:	c7 44 24 0c 00 00 00      mov	dword [esp+0Ch], 00000000h
		00 
  4049a8:	8b 46 08                  mov	eax, [esi+08h]
  4049ab:	8b 4e 0c                  mov	ecx, [esi+0Ch]
  4049ae:	2b c8                     sub	ecx, eax
  4049b0:	8b f8                     mov	edi, eax
  4049b2:	c1 f9 03                  sar	ecx, 03h
  4049b5:	83 f9 01                  cmp	ecx, 01h
  4049b8:	0f 83 e3 00 00 00         jae	404aa1
  4049be:	8b 56 04                  mov	edx, [esi+04h]
  4049c1:	85 d2                     test	edx, edx
  4049c3:	74 0c                     jz	4049d1
  4049c5:	8b c8                     mov	ecx, eax
  4049c7:	2b ca                     sub	ecx, edx
  4049c9:	c1 f9 03                  sar	ecx, 03h
  4049cc:	83 f9 01                  cmp	ecx, 01h
  4049cf:	77 05                     ja	4049d6
  4049d1:	b9 01 00 00 00           >mov	ecx, 00000001h
  4049d6:	85 d2                    >test	edx, edx
  4049d8:	75 04                     jnz	4049de
  4049da:	33 c0                     xor	eax, eax
  4049dc:	eb 05                     jmp	4049e3
  4049de:	2b c2                    >sub	eax, edx
  4049e0:	c1 f8 03                  sar	eax, 03h
  4049e3:	03 c1                    >add	eax, ecx
  4049e5:	85 c0                     test	eax, eax
  4049e7:	89 44 24 08               mov	[esp+08h], eax
  4049eb:	7d 02                     jge	4049ef
  4049ed:	33 c0                     xor	eax, eax
  4049ef:	53                       >push	ebx
  4049f0:	8d 14 c5 00 00 00 00      lea	edx, [eax*8+00000000h]
  4049f7:	55                        push	ebp
  4049f8:	52                        push	edx
  4049f9:	e8 82 3d 00 00            call	408780	; <??2@YAPAXI@Z>
  4049fe:	8b 6e 04                  mov	ebp, [esi+04h]
  404a01:	83 c4 04                  add	esp, 04h
  404a04:	3b ef                     cmp	ebp, edi
  404a06:	89 44 24 20               mov	[esp+20h], eax
  404a0a:	8b d8                     mov	ebx, eax
  404a0c:	74 14                     jz	404a22
  404a0e:	55                       >push	ebp
  404a0f:	53                        push	ebx
  404a10:	e8 cb 38 00 00            call	4082e0
  404a15:	83 c5 08                  add	ebp, 08h
  404a18:	83 c4 08                  add	esp, 08h
  404a1b:	83 c3 08                  add	ebx, 08h
  404a1e:	3b ef                     cmp	ebp, edi
  404a20:	75 ec                     jnz	404a0e
  404a22:	8d 44 24 14              >lea	eax, [esp+14h]
  404a26:	8b ce                     mov	ecx, esi
  404a28:	50                        push	eax
  404a29:	6a 01                     push	dword 00000001h
  404a2b:	53                        push	ebx
  404a2c:	e8 4f 34 00 00            call	407e80
  404a31:	8b 4e 08                  mov	ecx, [esi+08h]
  404a34:	83 c3 08                  add	ebx, 08h
  404a37:	53                        push	ebx
  404a38:	51                        push	ecx
  404a39:	57                        push	edi
  404a3a:	8b ce                     mov	ecx, esi
  404a3c:	e8 ff 33 00 00            call	407e40
  404a41:	8b 56 08                  mov	edx, [esi+08h]
  404a44:	8b 46 04                  mov	eax, [esi+04h]
  404a47:	52                        push	edx
  404a48:	50                        push	eax
  404a49:	8b ce                     mov	ecx, esi
  404a4b:	e8 10 2e 00 00            call	407860
  404a50:	8b 4e 04                  mov	ecx, [esi+04h]
  404a53:	51                        push	ecx
  404a54:	e8 f3 3c 00 00            call	40874c
  404a59:	8b 54 24 24               mov	edx, [esp+24h]
  404a5d:	8b 44 24 14               mov	eax, [esp+14h]
  404a61:	83 c4 04                  add	esp, 04h
  404a64:	8d 0c c2                  lea	ecx, [edx+eax*8]
  404a67:	8b 46 04                  mov	eax, [esi+04h]
  404a6a:	5d                        pop	ebp
  404a6b:	89 4e 0c                  mov	[esi+0Ch], ecx
  404a6e:	85 c0                     test	eax, eax
  404a70:	5b                        pop	ebx
  404a71:	75 14                     jnz	404a87
  404a73:	33 c9                     xor	ecx, ecx
  404a75:	89 56 04                  mov	[esi+04h], edx
  404a78:	5f                        pop	edi
  404a79:	8d 44 ca 08               lea	eax, [edx+ecx*8+08h]
  404a7d:	89 46 08                  mov	[esi+08h], eax
  404a80:	5e                        pop	esi
  404a81:	83 c4 0c                  add	esp, 0Ch
  404a84:	c2 04 00                  ret	0004h
  404a87:	8b 4e 08                 >mov	ecx, [esi+08h]
  404a8a:	89 56 04                  mov	[esi+04h], edx
  404a8d:	2b c8                     sub	ecx, eax
  404a8f:	5f                        pop	edi
  404a90:	c1 f9 03                  sar	ecx, 03h
  404a93:	8d 44 ca 08               lea	eax, [edx+ecx*8+08h]
  404a97:	89 46 08                  mov	[esi+08h], eax
  404a9a:	5e                        pop	esi
  404a9b:	83 c4 0c                  add	esp, 0Ch
  404a9e:	c2 04 00                  ret	0004h
  404aa1:	8b c8                    >mov	ecx, eax
  404aa3:	2b cf                     sub	ecx, edi
  404aa5:	c1 f9 03                  sar	ecx, 03h
  404aa8:	83 f9 01                  cmp	ecx, 01h
  404aab:	73 58                     jae	404b05
  404aad:	8d 57 08                  lea	edx, [edi+08h]
  404ab0:	8b ce                     mov	ecx, esi
  404ab2:	52                        push	edx
  404ab3:	50                        push	eax
  404ab4:	57                        push	edi
  404ab5:	e8 86 33 00 00            call	407e40
  404aba:	8b 46 08                  mov	eax, [esi+08h]
  404abd:	8d 4c 24 0c               lea	ecx, [esp+0Ch]
  404ac1:	8b d0                     mov	edx, eax
  404ac3:	51                        push	ecx
  404ac4:	2b d7                     sub	edx, edi
  404ac6:	b9 01 00 00 00            mov	ecx, 00000001h
  404acb:	c1 fa 03                  sar	edx, 03h
  404ace:	2b ca                     sub	ecx, edx
  404ad0:	51                        push	ecx
  404ad1:	50                        push	eax
  404ad2:	8b ce                     mov	ecx, esi
  404ad4:	e8 a7 33 00 00            call	407e80
  404ad9:	8b 46 08                  mov	eax, [esi+08h]
  404adc:	3b f8                     cmp	edi, eax
  404ade:	74 6e                     jz	404b4e
  404ae0:	8b 54 24 0c              >mov	edx, [esp+0Ch]
  404ae4:	89 17                     mov	[edi], edx
  404ae6:	8b 4c 24 10               mov	ecx, [esp+10h]
  404aea:	89 4f 04                  mov	[edi+04h], ecx
  404aed:	83 c7 08                  add	edi, 08h
  404af0:	3b f8                     cmp	edi, eax
  404af2:	75 ec                     jnz	404ae0
  404af4:	8b 46 08                  mov	eax, [esi+08h]
  404af7:	5f                        pop	edi
  404af8:	83 c0 08                  add	eax, 08h
  404afb:	89 46 08                  mov	[esi+08h], eax
  404afe:	5e                        pop	esi
  404aff:	83 c4 0c                  add	esp, 0Ch
  404b02:	c2 04 00                  ret	0004h
  404b05:	50                       >push	eax
  404b06:	50                        push	eax
  404b07:	83 c0 f8                  add	eax, F8h
  404b0a:	8b ce                     mov	ecx, esi
  404b0c:	50                        push	eax
  404b0d:	e8 2e 33 00 00            call	407e40
  404b12:	8b 4e 08                  mov	ecx, [esi+08h]
  404b15:	8d 41 f8                  lea	eax, [ecx-08h]
  404b18:	3b f8                     cmp	edi, eax
  404b1a:	74 15                     jz	404b31
  404b1c:	8b 50 f8                 >mov	edx, [eax-08h]
  404b1f:	83 e8 08                  sub	eax, 08h
  404b22:	83 e9 08                  sub	ecx, 08h
  404b25:	3b c7                     cmp	eax, edi
  404b27:	89 11                     mov	[ecx], edx
  404b29:	8b 50 04                  mov	edx, [eax+04h]
  404b2c:	89 51 04                  mov	[ecx+04h], edx
  404b2f:	75 eb                     jnz	404b1c
  404b31:	8d 4f 08                 >lea	ecx, [edi+08h]
  404b34:	8b c7                     mov	eax, edi
  404b36:	3b f9                     cmp	edi, ecx
  404b38:	74 14                     jz	404b4e
  404b3a:	8b 54 24 0c              >mov	edx, [esp+0Ch]
  404b3e:	89 10                     mov	[eax], edx
  404b40:	8b 54 24 10               mov	edx, [esp+10h]
  404b44:	89 50 04                  mov	[eax+04h], edx
  404b47:	83 c0 08                  add	eax, 08h
  404b4a:	3b c1                     cmp	eax, ecx
  404b4c:	75 ec                     jnz	404b3a
  404b4e:	8b 46 08                 >mov	eax, [esi+08h]
  404b51:	5f                        pop	edi
  404b52:	83 c0 08                  add	eax, 08h
  404b55:	89 46 08                  mov	[esi+08h], eax
  404b58:	5e                        pop	esi
  404b59:	83 c4 0c                  add	esp, 0Ch
  404b5c:	c2 04 00                  ret	0004h
     ...

404b60 <no name>:
  404b60:	83 ec 0c                  sub	esp, 0Ch
  404b63:	8b 44 24 10               mov	eax, [esp+10h]
  404b67:	56                        push	esi
  404b68:	8d 71 04                  lea	esi, [ecx+04h]
  404b6b:	89 44 24 0c               mov	[esp+0Ch], eax
  404b6f:	57                        push	edi
  404b70:	c7 44 24 0c 01 00 00      mov	dword [esp+0Ch], 00000001h
		00 
  404b78:	8b 46 08                  mov	eax, [esi+08h]
  404b7b:	8b 4e 0c                  mov	ecx, [esi+0Ch]
  404b7e:	2b c8                     sub	ecx, eax
  404b80:	8b f8                     mov	edi, eax
  404b82:	c1 f9 03                  sar	ecx, 03h
  404b85:	83 f9 01                  cmp	ecx, 01h
  404b88:	0f 83 e3 00 00 00         jae	404c71
  404b8e:	8b 56 04                  mov	edx, [esi+04h]
  404b91:	85 d2                     test	edx, edx
  404b93:	74 0c                     jz	404ba1
  404b95:	8b c8                     mov	ecx, eax
  404b97:	2b ca                     sub	ecx, edx
  404b99:	c1 f9 03                  sar	ecx, 03h
  404b9c:	83 f9 01                  cmp	ecx, 01h
  404b9f:	77 05                     ja	404ba6
  404ba1:	b9 01 00 00 00           >mov	ecx, 00000001h
  404ba6:	85 d2                    >test	edx, edx
  404ba8:	75 04                     jnz	404bae
  404baa:	33 c0                     xor	eax, eax
  404bac:	eb 05                     jmp	404bb3
  404bae:	2b c2                    >sub	eax, edx
  404bb0:	c1 f8 03                  sar	eax, 03h
  404bb3:	03 c1                    >add	eax, ecx
  404bb5:	85 c0                     test	eax, eax
  404bb7:	89 44 24 08               mov	[esp+08h], eax
  404bbb:	7d 02                     jge	404bbf
  404bbd:	33 c0                     xor	eax, eax
  404bbf:	53                       >push	ebx
  404bc0:	8d 14 c5 00 00 00 00      lea	edx, [eax*8+00000000h]
  404bc7:	55                        push	ebp
  404bc8:	52                        push	edx
  404bc9:	e8 b2 3b 00 00            call	408780	; <??2@YAPAXI@Z>
  404bce:	8b 6e 04                  mov	ebp, [esi+04h]
  404bd1:	83 c4 04                  add	esp, 04h
  404bd4:	3b ef                     cmp	ebp, edi
  404bd6:	89 44 24 20               mov	[esp+20h], eax
  404bda:	8b d8                     mov	ebx, eax
  404bdc:	74 14                     jz	404bf2
  404bde:	55                       >push	ebp
  404bdf:	53                        push	ebx
  404be0:	e8 fb 36 00 00            call	4082e0
  404be5:	83 c5 08                  add	ebp, 08h
  404be8:	83 c4 08                  add	esp, 08h
  404beb:	83 c3 08                  add	ebx, 08h
  404bee:	3b ef                     cmp	ebp, edi
  404bf0:	75 ec                     jnz	404bde
  404bf2:	8d 44 24 14              >lea	eax, [esp+14h]
  404bf6:	8b ce                     mov	ecx, esi
  404bf8:	50                        push	eax
  404bf9:	6a 01                     push	dword 00000001h
  404bfb:	53                        push	ebx
  404bfc:	e8 7f 32 00 00            call	407e80
  404c01:	8b 4e 08                  mov	ecx, [esi+08h]
  404c04:	83 c3 08                  add	ebx, 08h
  404c07:	53                        push	ebx
  404c08:	51                        push	ecx
  404c09:	57                        push	edi
  404c0a:	8b ce                     mov	ecx, esi
  404c0c:	e8 2f 32 00 00            call	407e40
  404c11:	8b 56 08                  mov	edx, [esi+08h]
  404c14:	8b 46 04                  mov	eax, [esi+04h]
  404c17:	52                        push	edx
  404c18:	50                        push	eax
  404c19:	8b ce                     mov	ecx, esi
  404c1b:	e8 40 2c 00 00            call	407860
  404c20:	8b 4e 04                  mov	ecx, [esi+04h]
  404c23:	51                        push	ecx
  404c24:	e8 23 3b 00 00            call	40874c
  404c29:	8b 54 24 24               mov	edx, [esp+24h]
  404c2d:	8b 44 24 14               mov	eax, [esp+14h]
  404c31:	83 c4 04                  add	esp, 04h
  404c34:	8d 0c c2                  lea	ecx, [edx+eax*8]
  404c37:	8b 46 04                  mov	eax, [esi+04h]
  404c3a:	5d                        pop	ebp
  404c3b:	89 4e 0c                  mov	[esi+0Ch], ecx
  404c3e:	85 c0                     test	eax, eax
  404c40:	5b                        pop	ebx
  404c41:	75 14                     jnz	404c57
  404c43:	33 c9                     xor	ecx, ecx
  404c45:	89 56 04                  mov	[esi+04h], edx
  404c48:	5f                        pop	edi
  404c49:	8d 44 ca 08               lea	eax, [edx+ecx*8+08h]
  404c4d:	89 46 08                  mov	[esi+08h], eax
  404c50:	5e                        pop	esi
  404c51:	83 c4 0c                  add	esp, 0Ch
  404c54:	c2 04 00                  ret	0004h
  404c57:	8b 4e 08                 >mov	ecx, [esi+08h]
  404c5a:	89 56 04                  mov	[esi+04h], edx
  404c5d:	2b c8                     sub	ecx, eax
  404c5f:	5f                        pop	edi
  404c60:	c1 f9 03                  sar	ecx, 03h
  404c63:	8d 44 ca 08               lea	eax, [edx+ecx*8+08h]
  404c67:	89 46 08                  mov	[esi+08h], eax
  404c6a:	5e                        pop	esi
  404c6b:	83 c4 0c                  add	esp, 0Ch
  404c6e:	c2 04 00                  ret	0004h
  404c71:	8b c8                    >mov	ecx, eax
  404c73:	2b cf                     sub	ecx, edi
  404c75:	c1 f9 03                  sar	ecx, 03h
  404c78:	83 f9 01                  cmp	ecx, 01h
  404c7b:	73 58                     jae	404cd5
  404c7d:	8d 57 08                  lea	edx, [edi+08h]
  404c80:	8b ce                     mov	ecx, esi
  404c82:	52                        push	edx
  404c83:	50                        push	eax
  404c84:	57                        push	edi
  404c85:	e8 b6 31 00 00            call	407e40
  404c8a:	8b 46 08                  mov	eax, [esi+08h]
  404c8d:	8d 4c 24 0c               lea	ecx, [esp+0Ch]
  404c91:	8b d0                     mov	edx, eax
  404c93:	51                        push	ecx
  404c94:	2b d7                     sub	edx, edi
  404c96:	b9 01 00 00 00            mov	ecx, 00000001h
  404c9b:	c1 fa 03                  sar	edx, 03h
  404c9e:	2b ca                     sub	ecx, edx
  404ca0:	51                        push	ecx
  404ca1:	50                        push	eax
  404ca2:	8b ce                     mov	ecx, esi
  404ca4:	e8 d7 31 00 00            call	407e80
  404ca9:	8b 46 08                  mov	eax, [esi+08h]
  404cac:	3b f8                     cmp	edi, eax
  404cae:	74 6e                     jz	404d1e
  404cb0:	8b 54 24 0c              >mov	edx, [esp+0Ch]
  404cb4:	89 17                     mov	[edi], edx
  404cb6:	8b 4c 24 10               mov	ecx, [esp+10h]
  404cba:	89 4f 04                  mov	[edi+04h], ecx
  404cbd:	83 c7 08                  add	edi, 08h
  404cc0:	3b f8                     cmp	edi, eax
  404cc2:	75 ec                     jnz	404cb0
  404cc4:	8b 46 08                  mov	eax, [esi+08h]
  404cc7:	5f                        pop	edi
  404cc8:	83 c0 08                  add	eax, 08h
  404ccb:	89 46 08                  mov	[esi+08h], eax
  404cce:	5e                        pop	esi
  404ccf:	83 c4 0c                  add	esp, 0Ch
  404cd2:	c2 04 00                  ret	0004h
  404cd5:	50                       >push	eax
  404cd6:	50                        push	eax
  404cd7:	83 c0 f8                  add	eax, F8h
  404cda:	8b ce                     mov	ecx, esi
  404cdc:	50                        push	eax
  404cdd:	e8 5e 31 00 00            call	407e40
  404ce2:	8b 4e 08                  mov	ecx, [esi+08h]
  404ce5:	8d 41 f8                  lea	eax, [ecx-08h]
  404ce8:	3b f8                     cmp	edi, eax
  404cea:	74 15                     jz	404d01
  404cec:	8b 50 f8                 >mov	edx, [eax-08h]
  404cef:	83 e8 08                  sub	eax, 08h
  404cf2:	83 e9 08                  sub	ecx, 08h
  404cf5:	3b c7                     cmp	eax, edi
  404cf7:	89 11                     mov	[ecx], edx
  404cf9:	8b 50 04                  mov	edx, [eax+04h]
  404cfc:	89 51 04                  mov	[ecx+04h], edx
  404cff:	75 eb                     jnz	404cec
  404d01:	8d 4f 08                 >lea	ecx, [edi+08h]
  404d04:	8b c7                     mov	eax, edi
  404d06:	3b f9                     cmp	edi, ecx
  404d08:	74 14                     jz	404d1e
  404d0a:	8b 54 24 0c              >mov	edx, [esp+0Ch]
  404d0e:	89 10                     mov	[eax], edx
  404d10:	8b 54 24 10               mov	edx, [esp+10h]
  404d14:	89 50 04                  mov	[eax+04h], edx
  404d17:	83 c0 08                  add	eax, 08h
  404d1a:	3b c1                     cmp	eax, ecx
  404d1c:	75 ec                     jnz	404d0a
  404d1e:	8b 46 08                 >mov	eax, [esi+08h]
  404d21:	5f                        pop	edi
  404d22:	83 c0 08                  add	eax, 08h
  404d25:	89 46 08                  mov	[esi+08h], eax
  404d28:	5e                        pop	esi
  404d29:	83 c4 0c                  add	esp, 0Ch
  404d2c:	c2 04 00                  ret	0004h
     ...

404d30 <no name>:
  404d30:	6a ff                     push	dword FFFFFFFFh
  404d32:	68 89 8d 40 00            push	dword 00408D89h
  404d37:	64 a1 00 00 00 00         mov	eax, [fs:0000h]
  404d3d:	50                        push	eax
  404d3e:	64 89 25 00 00 00 00      mov	[fs:00000000h], esp
  404d45:	81 ec c4 00 00 00         sub	esp, 000000C4h
  404d4b:	53                        push	ebx
  404d4c:	a1 28 a0 40 00            mov	eax, [40A028h]
  404d51:	55                        push	ebp
  404d52:	56                        push	esi
  404d53:	57                        push	edi
  404d54:	8b f9                     mov	edi, ecx
  404d56:	8b 0d 2c a0 40 00         mov	ecx, [0040A02Ch]
  404d5c:	89 7c 24 1c               mov	[esp+1Ch], edi
  404d60:	89 4c 24 50               mov	[esp+50h], ecx
  404d64:	8d 8c 24 a0 00 00 00      lea	ecx, [esp+000000A0h]
  404d6b:	c7 44 24 24 00 00 00      mov	dword [esp+24h], 00000000h
		00 
  404d73:	89 44 24 48               mov	[esp+48h], eax
  404d77:	ff 15 3c a0 40 00         call	dword [0040A03Ch]	; <??0?$basic_ios@DU?$char_traits@D@std@@@std@@IAE@XZ>
  404d7d:	be 02 00 00 00            mov	esi, 00000002h
  404d82:	89 74 24 24               mov	[esp+24h], esi
  404d86:	8d 54 24 54               lea	edx, [esp+54h]
  404d8a:	6a 00                     push	dword 00000000h
  404d8c:	52                        push	edx
  404d8d:	8d 4c 24 50               lea	ecx, [esp+50h]
  404d91:	c7 84 24 e4 00 00 00      mov	dword [esp+000000E4h], 00000001h
		01 00 00 00 
  404d9c:	ff 15 34 a0 40 00         call	dword [0040A034h]	; <??0?$basic_iostream@DU?$char_traits@D@std@@@std@@QAE@PAV?$basic_streambuf@DU?$char_traits@D@std@@@1@@Z>
  404da2:	6a 03                     push	dword 00000003h
  404da4:	8d 4c 24 58               lea	ecx, [esp+58h]
  404da8:	89 b4 24 e0 00 00 00      mov	[esp+000000E0h], esi
  404daf:	ff 15 38 a0 40 00         call	dword [0040A038h]	; <??0?$basic_stringbuf@DU?$char_traits@D@std@@V?$allocator@D@2@@std@@QAE@H@Z>
  404db5:	8b 44 24 48               mov	eax, [esp+48h]
  404db9:	8b 15 44 a0 40 00         mov	edx, [0040A044h]
  404dbf:	8b 48 04                  mov	ecx, [eax+04h]
  404dc2:	89 54 0c 48               mov	[esp+ecx*1+48h], edx
  404dc6:	8b 07                     mov	eax, [edi]
  404dc8:	8d 4c 24 38               lea	ecx, [esp+38h]
  404dcc:	51                        push	ecx
  404dcd:	8b cf                     mov	ecx, edi
  404dcf:	c7 84 24 e0 00 00 00      mov	dword [esp+000000E0h], 00000003h
		03 00 00 00 
  404dda:	ff 10                     call	dword [eax]
  404ddc:	8b 44 24 40               mov	eax, [esp+40h]
  404de0:	c6 84 24 dc 00 00 00      mov	byte [esp+000000DCh], 04h
		04 
  404de8:	85 c0                     test	eax, eax
  404dea:	74 46                     jz	404e32
  404dec:	8b 07                     mov	eax, [edi]
  404dee:	8d 74 24 48               lea	esi, [esp+48h]
  404df2:	f7 de                     neg	esi
  404df4:	8d 4c 24 28               lea	ecx, [esp+28h]
  404df8:	8d 54 24 50               lea	edx, [esp+50h]
  404dfc:	1b f6                     sbb	esi, esi
  404dfe:	51                        push	ecx
  404dff:	8b cf                     mov	ecx, edi
  404e01:	23 f2                     and	esi, edx
  404e03:	ff 10                     call	dword [eax]
  404e05:	50                        push	eax
  404e06:	56                        push	esi
  404e07:	c6 84 24 e4 00 00 00      mov	byte [esp+000000E4h], 05h
		05 
  404e0f:	e8 56 39 00 00            call	40876a	; <??6std@@YAAAV?$basic_ostream@DU?$char_traits@D@std@@@0@AAV10@ABV?$basic_string@DU?$char_traits@D@std@@V?$allocator@D@2@@0@@Z>
  404e14:	50                        push	eax
  404e15:	ff 15 14 a0 40 00         call	dword [0040A014h]	; <?endl@std@@YAAAV?$basic_ostream@DU?$char_traits@D@std@@@1@AAV21@@Z>
  404e1b:	83 c4 0c                  add	esp, 0Ch
  404e1e:	8d 4c 24 28               lea	ecx, [esp+28h]
  404e22:	c6 84 24 dc 00 00 00      mov	byte [esp+000000DCh], 04h
		04 
  404e2a:	6a 01                     push	dword 00000001h
  404e2c:	ff 15 54 a0 40 00         call	dword [0040A054h]	; <?_Tidy@?$basic_string@DU?$char_traits@D@std@@V?$allocator@D@2@@std@@AAEX_N@Z>
  404e32:	8b 8c 24 e8 00 00 00     >mov	ecx, [esp+000000E8h]
  404e39:	8b 41 08                  mov	eax, [ecx+08h]
  404e3c:	85 c0                     test	eax, eax
  404e3e:	74 11                     jz	404e51
  404e40:	8d 44 24 48               lea	eax, [esp+48h]
  404e44:	8d 54 24 50               lea	edx, [esp+50h]
  404e48:	f7 d8                     neg	eax
  404e4a:	1b c0                     sbb	eax, eax
  404e4c:	51                        push	ecx
  404e4d:	23 c2                     and	eax, edx
  404e4f:	eb 19                     jmp	404e6a
  404e51:	8b 47 1c                 >mov	eax, [edi+1Ch]
  404e54:	85 c0                     test	eax, eax
  404e56:	74 29                     jz	404e81
  404e58:	8d 44 24 48               lea	eax, [esp+48h]
  404e5c:	8d 4c 24 50               lea	ecx, [esp+50h]
  404e60:	f7 d8                     neg	eax
  404e62:	1b c0                     sbb	eax, eax
  404e64:	8d 57 14                  lea	edx, [edi+14h]
  404e67:	23 c1                     and	eax, ecx
  404e69:	52                        push	edx
  404e6a:	50                       >push	eax
  404e6b:	e8 fa 38 00 00            call	40876a	; <??6std@@YAAAV?$basic_ostream@DU?$char_traits@D@std@@@0@AAV10@ABV?$basic_string@DU?$char_traits@D@std@@V?$allocator@D@2@@0@@Z>
  404e70:	50                        push	eax
  404e71:	ff 15 14 a0 40 00         call	dword [0040A014h]	; <?endl@std@@YAAAV?$basic_ostream@DU?$char_traits@D@std@@@1@AAV21@@Z>
  404e77:	50                        push	eax
  404e78:	ff 15 14 a0 40 00         call	dword [0040A014h]	; <?endl@std@@YAAAV?$basic_ostream@DU?$char_traits@D@std@@@1@AAV21@@Z>
  404e7e:	83 c4 10                  add	esp, 10h
  404e81:	8d 44 24 48              >lea	eax, [esp+48h]
  404e85:	8b 1d 10 a0 40 00         mov	ebx, [0040A010h]
  404e8b:	f7 d8                     neg	eax
  404e8d:	1b c0                     sbb	eax, eax
  404e8f:	8d 4c 24 50               lea	ecx, [esp+50h]
  404e93:	23 c1                     and	eax, ecx
  404e95:	68 14 c3 40 00            push	dword 0040C314h
  404e9a:	50                        push	eax
  404e9b:	ff d3                     call	ebx
  404e9d:	8a 47 24                  mov	al, [edi+24h]
  404ea0:	83 c4 08                  add	esp, 08h
  404ea3:	a8 01                     test	al, 01h
  404ea5:	74 24                     jz	404ecb
  404ea7:	8d 44 24 48               lea	eax, [esp+48h]
  404eab:	8d 54 24 50               lea	edx, [esp+50h]
  404eaf:	f7 d8                     neg	eax
  404eb1:	1b c0                     sbb	eax, eax
  404eb3:	68 08 c3 40 00            push	dword 0040C308h
  404eb8:	23 c2                     and	eax, edx
  404eba:	68 04 c3 40 00            push	dword 0040C304h
  404ebf:	50                        push	eax
  404ec0:	ff d3                     call	ebx
  404ec2:	83 c4 08                  add	esp, 08h
  404ec5:	50                        push	eax
  404ec6:	ff d3                     call	ebx
  404ec8:	83 c4 08                  add	esp, 08h
  404ecb:	8b 77 08                 >mov	esi, [edi+08h]
  404ece:	8b 47 0c                  mov	eax, [edi+0Ch]
  404ed1:	3b f0                     cmp	esi, eax
  404ed3:	89 74 24 14               mov	[esp+14h], esi
  404ed7:	0f 84 e6 00 00 00         jz	404fc3
  404edd:	8b 06                    >mov	eax, [esi]
  404edf:	c7 44 24 20 00 c3 40      mov	dword [esp+20h], 0040C300h
		00 
  404ee7:	85 c0                     test	eax, eax
  404ee9:	74 08                     jz	404ef3
  404eeb:	c7 44 24 20 c0 c5 40      mov	dword [esp+20h], 0040C5C0h
		00 
  404ef3:	8d 6c 24 48              >lea	ebp, [esp+48h]
  404ef7:	8a 4c 24 13               mov	cl, [esp+13h]
  404efb:	f7 dd                     neg	ebp
  404efd:	1b ed                     sbb	ebp, ebp
  404eff:	83 ec 10                  sub	esp, 10h
  404f02:	8b dc                     mov	ebx, esp
  404f04:	8d 44 24 60               lea	eax, [esp+60h]
  404f08:	89 64 24 28               mov	[esp+28h], esp
  404f0c:	6a 00                     push	dword 00000000h
  404f0e:	88 0b                     mov	[ebx], cl
  404f10:	8b cb                     mov	ecx, ebx
  404f12:	23 e8                     and	ebp, eax
  404f14:	ff 15 54 a0 40 00         call	dword [0040A054h]	; <?_Tidy@?$basic_string@DU?$char_traits@D@std@@V?$allocator@D@2@@std@@AAEX_N@Z>
  404f1a:	8b 7c 24 30               mov	edi, [esp+30h]
  404f1e:	83 c9 ff                  or	ecx, FFh
  404f21:	33 c0                     xor	eax, eax
  404f23:	6a 01                     push	dword 00000001h
  404f25:	f2 ae                     repne scasb
  404f27:	f7 d1                     not	ecx
  404f29:	49                        dec	ecx
  404f2a:	8b f9                     mov	edi, ecx
  404f2c:	8b cb                     mov	ecx, ebx
  404f2e:	57                        push	edi
  404f2f:	89 7c 24 30               mov	[esp+30h], edi
  404f33:	ff 15 78 a0 40 00         call	dword [0040A078h]	; <?_Grow@?$basic_string@DU?$char_traits@D@std@@V?$allocator@D@2@@std@@AAE_NI_N@Z>
  404f39:	84 c0                     test	al, al
  404f3b:	74 28                     jz	404f65
  404f3d:	8b 43 04                  mov	eax, [ebx+04h]
  404f40:	8b 74 24 30               mov	esi, [esp+30h]
  404f44:	8b cf                     mov	ecx, edi
  404f46:	8b f8                     mov	edi, eax
  404f48:	8b d1                     mov	edx, ecx
  404f4a:	c1 e9 02                  shr	ecx, 02h
  404f4d:	f3 a5                     rep movsd
  404f4f:	8b ca                     mov	ecx, edx
  404f51:	8b c2                     mov	eax, edx
  404f53:	83 e1 03                  and	ecx, 03h
  404f56:	50                        push	eax
  404f57:	f3 a4                     rep movsb
  404f59:	8b cb                     mov	ecx, ebx
  404f5b:	ff 15 74 a0 40 00         call	dword [0040A074h]	; <?_Eos@?$basic_string@DU?$char_traits@D@std@@V?$allocator@D@2@@std@@AAEXI@Z>
  404f61:	8b 74 24 24               mov	esi, [esp+24h]
  404f65:	8b 4e 04                 >mov	ecx, [esi+04h]
  404f68:	8d 44 24 38               lea	eax, [esp+38h]
  404f6c:	50                        push	eax
  404f6d:	8b 11                     mov	edx, [ecx]
  404f6f:	ff 52 14                  call	dword [edx+14h]
  404f72:	50                        push	eax
  404f73:	68 04 c3 40 00            push	dword 0040C304h
  404f78:	55                        push	ebp
  404f79:	c6 84 24 e8 00 00 00      mov	byte [esp+000000E8h], 06h
		06 
  404f81:	ff 15 10 a0 40 00         call	dword [0040A010h]	; <??6std@@YAAAV?$basic_ostream@DU?$char_traits@D@std@@@0@AAV10@PBD@Z>
  404f87:	83 c4 08                  add	esp, 08h
  404f8a:	50                        push	eax
  404f8b:	e8 da 37 00 00            call	40876a	; <??6std@@YAAAV?$basic_ostream@DU?$char_traits@D@std@@@0@AAV10@ABV?$basic_string@DU?$char_traits@D@std@@V?$allocator@D@2@@0@@Z>
  404f90:	83 c4 08                  add	esp, 08h
  404f93:	8d 4c 24 28               lea	ecx, [esp+28h]
  404f97:	c6 84 24 dc 00 00 00      mov	byte [esp+000000DCh], 04h
		04 
  404f9f:	6a 01                     push	dword 00000001h
  404fa1:	ff 15 54 a0 40 00         call	dword [0040A054h]	; <?_Tidy@?$basic_string@DU?$char_traits@D@std@@V?$allocator@D@2@@std@@AAEX_N@Z>
  404fa7:	8b 4c 24 1c               mov	ecx, [esp+1Ch]
  404fab:	83 c6 08                  add	esi, 08h
  404fae:	89 74 24 14               mov	[esp+14h], esi
  404fb2:	3b 71 0c                  cmp	esi, [ecx+0Ch]
  404fb5:	0f 85 22 ff ff ff         jnz	404edd
  404fbb:	8b 1d 10 a0 40 00         mov	ebx, [0040A010h]
  404fc1:	8b f9                     mov	edi, ecx
  404fc3:	8d 54 24 50              >lea	edx, [esp+50h]
  404fc7:	52                        push	edx
  404fc8:	ff 15 14 a0 40 00         call	dword [0040A014h]	; <?endl@std@@YAAAV?$basic_ostream@DU?$char_traits@D@std@@@1@AAV21@@Z>
  404fce:	8d 44 24 54               lea	eax, [esp+54h]
  404fd2:	50                        push	eax
  404fd3:	ff 15 14 a0 40 00         call	dword [0040A014h]	; <?endl@std@@YAAAV?$basic_ostream@DU?$char_traits@D@std@@@1@AAV21@@Z>
  404fd9:	8a 47 24                  mov	al, [edi+24h]
  404fdc:	83 c4 08                  add	esp, 08h
  404fdf:	a8 01                     test	al, 01h
  404fe1:	74 20                     jz	405003
  404fe3:	8d 44 24 48               lea	eax, [esp+48h]
  404fe7:	8d 4c 24 50               lea	ecx, [esp+50h]
  404feb:	f7 d8                     neg	eax
  404fed:	1b c0                     sbb	eax, eax
  404fef:	68 d8 c2 40 00            push	dword 0040C2D8h
  404ff4:	23 c1                     and	eax, ecx
  404ff6:	50                        push	eax
  404ff7:	ff d3                     call	ebx
  404ff9:	50                        push	eax
  404ffa:	ff 15 14 a0 40 00         call	dword [0040A014h]	; <?endl@std@@YAAAV?$basic_ostream@DU?$char_traits@D@std@@@1@AAV21@@Z>
  405000:	83 c4 0c                  add	esp, 0Ch
  405003:	8b 47 08                 >mov	eax, [edi+08h]
  405006:	8b 7f 0c                  mov	edi, [edi+0Ch]
  405009:	3b c7                     cmp	eax, edi
  40500b:	89 44 24 14               mov	[esp+14h], eax
  40500f:	0f 84 00 01 00 00         jz	405115
  405015:	eb 04                     jmp	40501b
  405017:	8b 44 24 14              >mov	eax, [esp+14h]
  40501b:	8b 08                    >mov	ecx, [eax]
  40501d:	be 00 c3 40 00            mov	esi, 0040C300h
  405022:	85 c9                     test	ecx, ecx
  405024:	74 05                     jz	40502b
  405026:	be c0 c5 40 00            mov	esi, 0040C5C0h
  40502b:	8a 54 24 13              >mov	dl, [esp+13h]
  40502f:	83 ec 10                  sub	esp, 10h
  405032:	8b ec                     mov	ebp, esp
  405034:	89 64 24 28               mov	[esp+28h], esp
  405038:	6a 00                     push	dword 00000000h
  40503a:	8b cd                     mov	ecx, ebp
  40503c:	88 55 00                  mov	[ebp+00h], dl
  40503f:	ff 15 54 a0 40 00         call	dword [0040A054h]	; <?_Tidy@?$basic_string@DU?$char_traits@D@std@@V?$allocator@D@2@@std@@AAEX_N@Z>
  405045:	8b fe                     mov	edi, esi
  405047:	83 c9 ff                  or	ecx, FFh
  40504a:	33 c0                     xor	eax, eax
  40504c:	6a 01                     push	dword 00000001h
  40504e:	f2 ae                     repne scasb
  405050:	f7 d1                     not	ecx
  405052:	49                        dec	ecx
  405053:	8b d9                     mov	ebx, ecx
  405055:	8b cd                     mov	ecx, ebp
  405057:	53                        push	ebx
  405058:	ff 15 78 a0 40 00         call	dword [0040A078h]	; <?_Grow@?$basic_string@DU?$char_traits@D@std@@V?$allocator@D@2@@std@@AAE_NI_N@Z>
  40505e:	84 c0                     test	al, al
  405060:	74 1e                     jz	405080
  405062:	8b 7d 04                  mov	edi, [ebp+04h]
  405065:	8b cb                     mov	ecx, ebx
  405067:	8b c1                     mov	eax, ecx
  405069:	c1 e9 02                  shr	ecx, 02h
  40506c:	f3 a5                     rep movsd
  40506e:	8b c8                     mov	ecx, eax
  405070:	83 e1 03                  and	ecx, 03h
  405073:	f3 a4                     rep movsb
  405075:	8b 45 04                  mov	eax, [ebp+04h]
  405078:	89 5d 08                  mov	[ebp+08h], ebx
  40507b:	03 d8                     add	ebx, eax
  40507d:	c6 03 00                  mov	byte [ebx], 00h
  405080:	8b 74 24 24              >mov	esi, [esp+24h]
  405084:	8d 44 24 38               lea	eax, [esp+38h]
  405088:	50                        push	eax
  405089:	8b 4e 04                  mov	ecx, [esi+04h]
  40508c:	8b 11                     mov	edx, [ecx]
  40508e:	ff 52 18                  call	dword [edx+18h]
  405091:	8b 44 24 30               mov	eax, [esp+30h]
  405095:	33 ff                     xor	edi, edi
  405097:	3b c7                     cmp	eax, edi
  405099:	c6 84 24 dc 00 00 00      mov	byte [esp+000000DCh], 07h
		07 
  4050a1:	74 23                     jz	4050c6
  4050a3:	8d 44 24 48               lea	eax, [esp+48h]
  4050a7:	8d 4c 24 50               lea	ecx, [esp+50h]
  4050ab:	f7 d8                     neg	eax
  4050ad:	1b c0                     sbb	eax, eax
  4050af:	8d 54 24 28               lea	edx, [esp+28h]
  4050b3:	23 c1                     and	eax, ecx
  4050b5:	52                        push	edx
  4050b6:	50                        push	eax
  4050b7:	e8 ae 36 00 00            call	40876a	; <??6std@@YAAAV?$basic_ostream@DU?$char_traits@D@std@@@0@AAV10@ABV?$basic_string@DU?$char_traits@D@std@@V?$allocator@D@2@@0@@Z>
  4050bc:	50                        push	eax
  4050bd:	ff 15 14 a0 40 00         call	dword [0040A014h]	; <?endl@std@@YAAAV?$basic_ostream@DU?$char_traits@D@std@@@1@AAV21@@Z>
  4050c3:	83 c4 0c                  add	esp, 0Ch
  4050c6:	8b 44 24 2c              >mov	eax, [esp+2Ch]
  4050ca:	c6 84 24 dc 00 00 00      mov	byte [esp+000000DCh], 04h
		04 
  4050d2:	3b c7                     cmp	eax, edi
  4050d4:	74 1d                     jz	4050f3
  4050d6:	8d 48 ff                  lea	ecx, [eax-01h]
  4050d9:	8a 40 ff                  mov	al, [eax-01h]
  4050dc:	84 c0                     test	al, al
  4050de:	74 0a                     jz	4050ea
  4050e0:	3c ff                     cmp	al, FFh
  4050e2:	74 06                     jz	4050ea
  4050e4:	fe c8                     dec	al
  4050e6:	88 01                     mov	[ecx], al
  4050e8:	eb 09                     jmp	4050f3
  4050ea:	51                       >push	ecx
  4050eb:	e8 5c 36 00 00            call	40874c
  4050f0:	83 c4 04                  add	esp, 04h
  4050f3:	8b 44 24 1c              >mov	eax, [esp+1Ch]
  4050f7:	83 c6 08                  add	esi, 08h
  4050fa:	89 7c 24 2c               mov	[esp+2Ch], edi
  4050fe:	89 7c 24 30               mov	[esp+30h], edi
  405102:	8b 48 0c                  mov	ecx, [eax+0Ch]
  405105:	89 7c 24 34               mov	[esp+34h], edi
  405109:	3b f1                     cmp	esi, ecx
  40510b:	89 74 24 14               mov	[esp+14h], esi
  40510f:	0f 85 02 ff ff ff         jnz	405017
  405115:	8b b4 24 e4 00 00 00     >mov	esi, [esp+000000E4h]
  40511c:	8d 4c 24 48               lea	ecx, [esp+48h]
  405120:	56                        push	esi
  405121:	ff 15 48 a0 40 00         call	dword [0040A048h]	; <?str@?$basic_stringstream@DU?$char_traits@D@std@@V?$allocator@D@2@@std@@QBE?AV?$basic_string@DU?$char_traits@D@std@@V?$allocator@D@2@@2@XZ>
  405127:	c7 44 24 24 03 00 00      mov	dword [esp+24h], 00000003h
		00 
  40512f:	8b 44 24 3c               mov	eax, [esp+3Ch]
  405133:	33 ff                     xor	edi, edi
  405135:	3b c7                     cmp	eax, edi
  405137:	74 1d                     jz	405156
  405139:	8d 48 ff                  lea	ecx, [eax-01h]
  40513c:	8a 40 ff                  mov	al, [eax-01h]
  40513f:	84 c0                     test	al, al
  405141:	74 0a                     jz	40514d
  405143:	3c ff                     cmp	al, FFh
  405145:	74 06                     jz	40514d
  405147:	fe c8                     dec	al
  405149:	88 01                     mov	[ecx], al
  40514b:	eb 09                     jmp	405156
  40514d:	51                       >push	ecx
  40514e:	e8 f9 35 00 00            call	40874c
  405153:	83 c4 04                  add	esp, 04h
  405156:	8b 54 24 48              >mov	edx, [esp+48h]
  40515a:	8d 8c 24 a0 00 00 00      lea	ecx, [esp+000000A0h]
  405161:	89 7c 24 3c               mov	[esp+3Ch], edi
  405165:	89 7c 24 40               mov	[esp+40h], edi
  405169:	89 7c 24 44               mov	[esp+44h], edi
  40516d:	8b 42 04                  mov	eax, [edx+04h]
  405170:	89 4c 24 18               mov	[esp+18h], ecx
  405174:	8b 0d 44 a0 40 00         mov	ecx, [0040A044h]
  40517a:	89 4c 04 48               mov	[esp+eax*1+48h], ecx
  40517e:	a1 94 a0 40 00            mov	eax, [40A094h]
  405183:	8d 54 24 54               lea	edx, [esp+54h]
  405187:	c7 84 24 dc 00 00 00      mov	dword [esp+000000DCh], 00000008h
		08 00 00 00 
  405192:	89 54 24 1c               mov	[esp+1Ch], edx
  405196:	89 44 24 54               mov	[esp+54h], eax
  40519a:	8d 4c 24 54               lea	ecx, [esp+54h]
  40519e:	c6 84 24 dc 00 00 00      mov	byte [esp+000000DCh], 09h
		09 
  4051a6:	ff 15 d4 a0 40 00         call	dword [0040A0D4h]	; <?_Tidy@?$basic_stringbuf@DU?$char_traits@D@std@@V?$allocator@D@2@@std@@IAEXXZ>
  4051ac:	8b 0d d0 a0 40 00         mov	ecx, [0040A0D0h]
  4051b2:	89 4c 24 54               mov	[esp+54h], ecx
  4051b6:	8d 8c 24 88 00 00 00      lea	ecx, [esp+00000088h]
  4051bd:	ff 15 cc a0 40 00         call	dword [0040A0CCh]	; <??1locale@std@@QAE@XZ>
  4051c3:	8b 54 24 48               mov	edx, [esp+48h]
  4051c7:	8b 0d c8 a0 40 00         mov	ecx, [0040A0C8h]
  4051cd:	c6 84 24 dc 00 00 00      mov	byte [esp+000000DCh], 00h
		00 
  4051d5:	8b 42 04                  mov	eax, [edx+04h]
  4051d8:	8d 54 24 50               lea	edx, [esp+50h]
  4051dc:	89 4c 04 48               mov	[esp+eax*1+48h], ecx
  4051e0:	8d 44 24 48               lea	eax, [esp+48h]
  4051e4:	f7 d8                     neg	eax
  4051e6:	1b c0                     sbb	eax, eax
  4051e8:	23 c2                     and	eax, edx
  4051ea:	8b 08                     mov	ecx, [eax]
  4051ec:	8b 51 04                  mov	edx, [ecx+04h]
  4051ef:	8b 0d c4 a0 40 00         mov	ecx, [0040A0C4h]
  4051f5:	89 0c 02                  mov	[edx+eax*1], ecx
  4051f8:	8b 54 24 48               mov	edx, [esp+48h]
  4051fc:	8b 0d c0 a0 40 00         mov	ecx, [0040A0C0h]
  405202:	8b 42 04                  mov	eax, [edx+04h]
  405205:	89 4c 04 48               mov	[esp+eax*1+48h], ecx
  405209:	8b 15 bc a0 40 00         mov	edx, [0040A0BCh]
  40520f:	8d 8c 24 a0 00 00 00      lea	ecx, [esp+000000A0h]
  405216:	89 94 24 a0 00 00 00      mov	[esp+000000A0h], edx
  40521d:	ff 15 18 a0 40 00         call	dword [0040A018h]	; <??1ios_base@std@@UAE@XZ>
  405223:	8b 8c 24 d4 00 00 00      mov	ecx, [esp+000000D4h]
  40522a:	8b c6                     mov	eax, esi
  40522c:	5f                        pop	edi
  40522d:	5e                        pop	esi
  40522e:	5d                        pop	ebp
  40522f:	64 89 0d 00 00 00 00      mov	[fs:00000000h], ecx
  405236:	5b                        pop	ebx
  405237:	81 c4 d0 00 00 00         add	esp, 000000D0h
  40523d:	c2 08 00                  ret	0008h

405240 <no name>:
  405240:	6a ff                     push	dword FFFFFFFFh
  405242:	68 75 8e 40 00            push	dword 00408E75h
  405247:	64 a1 00 00 00 00         mov	eax, [fs:0000h]
  40524d:	50                        push	eax
  40524e:	64 89 25 00 00 00 00      mov	[fs:00000000h], esp
  405255:	81 ec 88 00 00 00         sub	esp, 00000088h
  40525b:	a1 84 a0 40 00            mov	eax, [40A084h]
  405260:	53                        push	ebx
  405261:	8b d9                     mov	ebx, ecx
  405263:	55                        push	ebp
  405264:	8b 08                     mov	ecx, [eax]
  405266:	56                        push	esi
  405267:	57                        push	edi
  405268:	8d 73 14                  lea	esi, [ebx+14h]
  40526b:	33 ed                     xor	ebp, ebp
  40526d:	51                        push	ecx
  40526e:	55                        push	ebp
  40526f:	8b ce                     mov	ecx, esi
  405271:	89 74 24 1c               mov	[esp+1Ch], esi
  405275:	ff 15 30 a0 40 00         call	dword [0040A030h]	; <?erase@?$basic_string@DU?$char_traits@D@std@@V?$allocator@D@2@@std@@QAEAAV12@II@Z>
  40527b:	8b 84 24 a8 00 00 00      mov	eax, [esp+000000A8h]
  405282:	8b 78 04                  mov	edi, [eax+04h]
  405285:	8b 40 08                  mov	eax, [eax+08h]
  405288:	3b f8                     cmp	edi, eax
  40528a:	0f 84 17 05 00 00         jz	4057a7
  405290:	8b 47 08                 >mov	eax, [edi+08h]
  405293:	c6 44 24 13 00            mov	byte [esp+13h], 00h
  405298:	83 f8 01                  cmp	eax, 01h
  40529b:	0f 86 94 00 00 00         jbe	405335
  4052a1:	3b c5                     cmp	eax, ebp
  4052a3:	77 06                     ja	4052ab
  4052a5:	ff 15 80 a0 40 00         call	dword [0040A080h]	; <?_Xran@std@@YAXXZ>
  4052ab:	8b 57 04                 >mov	edx, [edi+04h]
  4052ae:	80 3a 2f                  cmp	byte [edx], 2Fh
  4052b1:	74 13                     jz	4052c6
  4052b3:	39 6f 08                  cmp	[edi+08h], ebp
  4052b6:	77 06                     ja	4052be
  4052b8:	ff 15 80 a0 40 00         call	dword [0040A080h]	; <?_Xran@std@@YAXXZ>
  4052be:	8b 47 04                 >mov	eax, [edi+04h]
  4052c1:	80 38 2d                  cmp	byte [eax], 2Dh
  4052c4:	75 6f                     jnz	405335
  4052c6:	8b 0d 84 a0 40 00        >mov	ecx, [0040A084h]
  4052cc:	8d 44 24 18               lea	eax, [esp+18h]
  4052d0:	8b 11                     mov	edx, [ecx]
  4052d2:	8b cf                     mov	ecx, edi
  4052d4:	52                        push	edx
  4052d5:	6a 01                     push	dword 00000001h
  4052d7:	50                        push	eax
  4052d8:	ff 15 8c a0 40 00         call	dword [0040A08Ch]	; <?substr@?$basic_string@DU?$char_traits@D@std@@V?$allocator@D@2@@std@@QBE?AV12@II@Z>
  4052de:	8b e8                     mov	ebp, eax
  4052e0:	8b 73 08                  mov	esi, [ebx+08h]
  4052e3:	8b 43 0c                  mov	eax, [ebx+0Ch]
  4052e6:	3b f0                     cmp	esi, eax
  4052e8:	c7 84 24 a0 00 00 00      mov	dword [esp+000000A0h], 00000000h
		00 00 00 00 
  4052f3:	74 1c                     jz	405311
  4052f5:	83 3e 00                 >cmp	dword [esi], 00h
  4052f8:	75 0d                     jnz	405307
  4052fa:	8b 4e 04                  mov	ecx, [esi+04h]
  4052fd:	55                        push	ebp
  4052fe:	e8 8d 06 00 00            call	405990
  405303:	84 c0                     test	al, al
  405305:	75 29                     jnz	405330
  405307:	8b 43 0c                 >mov	eax, [ebx+0Ch]
  40530a:	83 c6 08                  add	esi, 08h
  40530d:	3b f0                     cmp	esi, eax
  40530f:	75 e4                     jnz	4052f5
  405311:	33 f6                    >xor	esi, esi
  405313:	83 cd ff                 >or	ebp, FFh
  405316:	6a 01                     push	dword 00000001h
  405318:	8d 4c 24 1c               lea	ecx, [esp+1Ch]
  40531c:	89 ac 24 a4 00 00 00      mov	[esp+000000A4h], ebp
  405323:	ff 15 54 a0 40 00         call	dword [0040A054h]	; <?_Tidy@?$basic_string@DU?$char_traits@D@std@@V?$allocator@D@2@@std@@AAEX_N@Z>
  405329:	c6 44 24 13 01            mov	byte [esp+13h], 01h
  40532e:	eb 49                     jmp	405379
  405330:	8b 76 04                 >mov	esi, [esi+04h]
  405333:	eb de                     jmp	405313
  405335:	8b 6b 08                 >mov	ebp, [ebx+08h]
  405338:	8b 43 0c                  mov	eax, [ebx+0Ch]
  40533b:	3b e8                     cmp	ebp, eax
  40533d:	0f 84 ba 00 00 00         jz	4053fd
  405343:	83 7d 00 01              >cmp	dword [ebp+00h], 01h
  405347:	75 1d                     jnz	405366
  405349:	8b 75 04                  mov	esi, [ebp+04h]
  40534c:	8b ce                     mov	ecx, esi
  40534e:	8b 16                     mov	edx, [esi]
  405350:	ff 52 08                  call	dword [edx+08h]
  405353:	84 c0                     test	al, al
  405355:	74 0b                     jz	405362
  405357:	8b 06                     mov	eax, [esi]
  405359:	8b ce                     mov	ecx, esi
  40535b:	ff 50 0c                  call	dword [eax+0Ch]
  40535e:	84 c0                     test	al, al
  405360:	75 14                     jnz	405376
  405362:	8b 74 24 14              >mov	esi, [esp+14h]
  405366:	8b 43 0c                 >mov	eax, [ebx+0Ch]
  405369:	83 c5 08                  add	ebp, 08h
  40536c:	3b e8                     cmp	ebp, eax
  40536e:	0f 84 89 00 00 00         jz	4053fd
  405374:	eb cd                     jmp	405343
  405376:	83 cd ff                 >or	ebp, FFh
  405379:	85 f6                    >test	esi, esi
  40537b:	74 7a                     jz	4053f7
  40537d:	8b 16                     mov	edx, [esi]
  40537f:	8b ce                     mov	ecx, esi
  405381:	ff 52 08                  call	dword [edx+08h]
  405384:	84 c0                     test	al, al
  405386:	74 3c                     jz	4053c4
  405388:	8a 44 24 13               mov	al, [esp+13h]
  40538c:	84 c0                     test	al, al
  40538e:	74 13                     jz	4053a3
  405390:	8b 84 24 a8 00 00 00      mov	eax, [esp+000000A8h]
  405397:	83 c7 10                  add	edi, 10h
  40539a:	3b 78 08                  cmp	edi, [eax+08h]
  40539d:	0f 84 d5 00 00 00         jz	405478
  4053a3:	8b 16                    >mov	edx, [esi]
  4053a5:	8b ce                     mov	ecx, esi
  4053a7:	ff 52 0c                  call	dword [edx+0Ch]
  4053aa:	84 c0                     test	al, al
  4053ac:	0f 84 68 01 00 00         jz	40551a
  4053b2:	8b 06                     mov	eax, [esi]
  4053b4:	57                        push	edi
  4053b5:	8b ce                     mov	ecx, esi
  4053b7:	ff 50 10                  call	dword [eax+10h]
  4053ba:	84 c0                     test	al, al
  4053bc:	0f 84 4e 02 00 00         jz	405610
  4053c2:	eb 0a                     jmp	4053ce
  4053c4:	f6 46 04 01              >test	byte [esi+04h], 01h
  4053c8:	0f 85 38 03 00 00         jnz	405706
  4053ce:	8a 56 04                 >mov	dl, [esi+04h]
  4053d1:	8b 8c 24 a8 00 00 00      mov	ecx, [esp+000000A8h]
  4053d8:	80 ca 01                  or	dl, 01h
  4053db:	83 c7 10                  add	edi, 10h
  4053de:	88 56 04                  mov	[esi+04h], dl
  4053e1:	8b 41 08                  mov	eax, [ecx+08h]
  4053e4:	8b 74 24 14               mov	esi, [esp+14h]
  4053e8:	3b f8                     cmp	edi, eax
  4053ea:	0f 84 b5 03 00 00         jz	4057a5
  4053f0:	33 ed                     xor	ebp, ebp
  4053f2:	e9 99 fe ff ff            jmp	405290
  4053f7:	8b 74 24 14              >mov	esi, [esp+14h]
  4053fb:	eb 03                     jmp	405400
  4053fd:	83 cd ff                 >or	ebp, FFh
  405400:	57                       >push	edi
  405401:	8d 54 24 3c               lea	edx, [esp+3Ch]
  405405:	68 b4 c3 40 00            push	dword 0040C3B4h
  40540a:	52                        push	edx
  40540b:	e8 4e 33 00 00            call	40875e	; <??Hstd@@YA?AV?$basic_string@DU?$char_traits@D@std@@V?$allocator@D@2@@0@PBDABV10@@Z>
  405410:	68 b0 c3 40 00            push	dword 0040C3B0h
  405415:	50                        push	eax
  405416:	8d 44 24 2c               lea	eax, [esp+2Ch]
  40541a:	c7 84 24 b4 00 00 00      mov	dword [esp+000000B4h], 00000001h
		01 00 00 00 
  405425:	50                        push	eax
  405426:	e8 2d 33 00 00            call	408758	; <??Hstd@@YA?AV?$basic_string@DU?$char_traits@D@std@@V?$allocator@D@2@@0@ABV10@PBD@Z>
  40542b:	83 c4 18                  add	esp, 18h
  40542e:	8b 0d 84 a0 40 00         mov	ecx, [0040A084h]
  405434:	c6 84 24 a0 00 00 00      mov	byte [esp+000000A0h], 02h
		02 
  40543c:	8b 11                     mov	edx, [ecx]
  40543e:	8b ce                     mov	ecx, esi
  405440:	52                        push	edx
  405441:	6a 00                     push	dword 00000000h
  405443:	50                        push	eax
  405444:	ff 15 88 a0 40 00         call	dword [0040A088h]	; <?assign@?$basic_string@DU?$char_traits@D@std@@V?$allocator@D@2@@std@@QAEAAV12@ABV12@II@Z>
  40544a:	6a 01                     push	dword 00000001h
  40544c:	8d 4c 24 1c               lea	ecx, [esp+1Ch]
  405450:	c6 84 24 a4 00 00 00      mov	byte [esp+000000A4h], 01h
		01 
  405458:	ff 15 54 a0 40 00         call	dword [0040A054h]	; <?_Tidy@?$basic_string@DU?$char_traits@D@std@@V?$allocator@D@2@@std@@AAEX_N@Z>
  40545e:	6a 01                     push	dword 00000001h
  405460:	8d 4c 24 3c               lea	ecx, [esp+3Ch]
  405464:	89 ac 24 a4 00 00 00      mov	[esp+000000A4h], ebp
  40546b:	ff 15 54 a0 40 00         call	dword [0040A054h]	; <?_Tidy@?$basic_string@DU?$char_traits@D@std@@V?$allocator@D@2@@std@@AAEX_N@Z>
  405471:	32 c0                     xor	al, al
  405473:	e9 51 03 00 00            jmp	4057c9
  405478:	8d 44 24 28              >lea	eax, [esp+28h]
  40547c:	8b ce                     mov	ecx, esi
  40547e:	50                        push	eax
  40547f:	e8 ec f2 ff ff            call	404770
  405484:	50                        push	eax
  405485:	8d 4c 24 1c               lea	ecx, [esp+1Ch]
  405489:	68 a4 c3 40 00            push	dword 0040C3A4h
  40548e:	51                        push	ecx
  40548f:	c7 84 24 ac 00 00 00      mov	dword [esp+000000ACh], 00000003h
		03 00 00 00 
  40549a:	e8 bf 32 00 00            call	40875e	; <??Hstd@@YA?AV?$basic_string@DU?$char_traits@D@std@@V?$allocator@D@2@@0@PBDABV10@@Z>
  40549f:	68 8c c3 40 00            push	dword 0040C38Ch
  4054a4:	8d 54 24 48               lea	edx, [esp+48h]
  4054a8:	b3 04                     mov	bl, 04h
  4054aa:	50                        push	eax
  4054ab:	52                        push	edx
  4054ac:	88 9c 24 b8 00 00 00      mov	[esp+000000B8h], bl
  4054b3:	e8 a0 32 00 00            call	408758	; <??Hstd@@YA?AV?$basic_string@DU?$char_traits@D@std@@V?$allocator@D@2@@0@ABV10@PBD@Z>
  4054b8:	83 c4 18                  add	esp, 18h
  4054bb:	8b 0d 84 a0 40 00         mov	ecx, [0040A084h]
  4054c1:	c6 84 24 a0 00 00 00      mov	byte [esp+000000A0h], 05h
		05 
  4054c9:	8b 11                     mov	edx, [ecx]
  4054cb:	8b 4c 24 14               mov	ecx, [esp+14h]
  4054cf:	52                        push	edx
  4054d0:	6a 00                     push	dword 00000000h
  4054d2:	50                        push	eax
  4054d3:	ff 15 88 a0 40 00         call	dword [0040A088h]	; <?assign@?$basic_string@DU?$char_traits@D@std@@V?$allocator@D@2@@std@@QAEAAV12@ABV12@II@Z>
  4054d9:	6a 01                     push	dword 00000001h
  4054db:	8d 4c 24 3c               lea	ecx, [esp+3Ch]
  4054df:	88 9c 24 a4 00 00 00      mov	[esp+000000A4h], bl
  4054e6:	ff 15 54 a0 40 00         call	dword [0040A054h]	; <?_Tidy@?$basic_string@DU?$char_traits@D@std@@V?$allocator@D@2@@std@@AAEX_N@Z>
  4054ec:	6a 01                     push	dword 00000001h
  4054ee:	8d 4c 24 1c               lea	ecx, [esp+1Ch]
  4054f2:	c6 84 24 a4 00 00 00      mov	byte [esp+000000A4h], 03h
		03 
  4054fa:	ff 15 54 a0 40 00         call	dword [0040A054h]	; <?_Tidy@?$basic_string@DU?$char_traits@D@std@@V?$allocator@D@2@@std@@AAEX_N@Z>
  405500:	6a 01                     push	dword 00000001h
  405502:	8d 4c 24 2c               lea	ecx, [esp+2Ch]
  405506:	89 ac 24 a4 00 00 00      mov	[esp+000000A4h], ebp
  40550d:	ff 15 54 a0 40 00         call	dword [0040A054h]	; <?_Tidy@?$basic_string@DU?$char_traits@D@std@@V?$allocator@D@2@@std@@AAEX_N@Z>
  405513:	32 c0                     xor	al, al
  405515:	e9 af 02 00 00            jmp	4057c9
  40551a:	8d 44 24 48              >lea	eax, [esp+48h]
  40551e:	8b ce                     mov	ecx, esi
  405520:	50                        push	eax
  405521:	e8 4a f2 ff ff            call	404770
  405526:	50                        push	eax
  405527:	8d 4c 24 5c               lea	ecx, [esp+5Ch]
  40552b:	68 a4 c3 40 00            push	dword 0040C3A4h
  405530:	51                        push	ecx
  405531:	c7 84 24 ac 00 00 00      mov	dword [esp+000000ACh], 00000006h
		06 00 00 00 
  40553c:	e8 1d 32 00 00            call	40875e	; <??Hstd@@YA?AV?$basic_string@DU?$char_traits@D@std@@V?$allocator@D@2@@0@PBDABV10@@Z>
  405541:	68 64 c3 40 00            push	dword 0040C364h
  405546:	8d 54 24 28               lea	edx, [esp+28h]
  40554a:	50                        push	eax
  40554b:	52                        push	edx
  40554c:	c6 84 24 b8 00 00 00      mov	byte [esp+000000B8h], 07h
		07 
  405554:	e8 ff 31 00 00            call	408758	; <??Hstd@@YA?AV?$basic_string@DU?$char_traits@D@std@@V?$allocator@D@2@@0@ABV10@PBD@Z>
  405559:	57                        push	edi
  40555a:	50                        push	eax
  40555b:	8d 44 24 58               lea	eax, [esp+58h]
  40555f:	c6 84 24 c0 00 00 00      mov	byte [esp+000000C0h], 08h
		08 
  405567:	50                        push	eax
  405568:	e8 f7 31 00 00            call	408764	; <??Hstd@@YA?AV?$basic_string@DU?$char_traits@D@std@@V?$allocator@D@2@@0@ABV10@0@Z>
  40556d:	68 b0 c3 40 00            push	dword 0040C3B0h
  405572:	8d 4c 24 50               lea	ecx, [esp+50h]
  405576:	b3 09                     mov	bl, 09h
  405578:	50                        push	eax
  405579:	51                        push	ecx
  40557a:	88 9c 24 d0 00 00 00      mov	[esp+000000D0h], bl
  405581:	e8 d2 31 00 00            call	408758	; <??Hstd@@YA?AV?$basic_string@DU?$char_traits@D@std@@V?$allocator@D@2@@0@ABV10@PBD@Z>
  405586:	83 c4 30                  add	esp, 30h
  405589:	8b 15 84 a0 40 00         mov	edx, [0040A084h]
  40558f:	c6 84 24 a0 00 00 00      mov	byte [esp+000000A0h], 0Ah
		0a 
  405597:	8b 0a                     mov	ecx, [edx]
  405599:	51                        push	ecx
  40559a:	8b 4c 24 18               mov	ecx, [esp+18h]
  40559e:	6a 00                     push	dword 00000000h
  4055a0:	50                        push	eax
  4055a1:	ff 15 88 a0 40 00         call	dword [0040A088h]	; <?assign@?$basic_string@DU?$char_traits@D@std@@V?$allocator@D@2@@std@@QAEAAV12@ABV12@II@Z>
  4055a7:	6a 01                     push	dword 00000001h
  4055a9:	8d 4c 24 2c               lea	ecx, [esp+2Ch]
  4055ad:	88 9c 24 a4 00 00 00      mov	[esp+000000A4h], bl
  4055b4:	ff 15 54 a0 40 00         call	dword [0040A054h]	; <?_Tidy@?$basic_string@DU?$char_traits@D@std@@V?$allocator@D@2@@std@@AAEX_N@Z>
  4055ba:	6a 01                     push	dword 00000001h
  4055bc:	8d 4c 24 3c               lea	ecx, [esp+3Ch]
  4055c0:	c6 84 24 a4 00 00 00      mov	byte [esp+000000A4h], 08h
		08 
  4055c8:	ff 15 54 a0 40 00         call	dword [0040A054h]	; <?_Tidy@?$basic_string@DU?$char_traits@D@std@@V?$allocator@D@2@@std@@AAEX_N@Z>
  4055ce:	6a 01                     push	dword 00000001h
  4055d0:	8d 4c 24 1c               lea	ecx, [esp+1Ch]
  4055d4:	c6 84 24 a4 00 00 00      mov	byte [esp+000000A4h], 07h
		07 
  4055dc:	ff 15 54 a0 40 00         call	dword [0040A054h]	; <?_Tidy@?$basic_string@DU?$char_traits@D@std@@V?$allocator@D@2@@std@@AAEX_N@Z>
  4055e2:	6a 01                     push	dword 00000001h
  4055e4:	8d 4c 24 5c               lea	ecx, [esp+5Ch]
  4055e8:	c6 84 24 a4 00 00 00      mov	byte [esp+000000A4h], 06h
		06 
  4055f0:	ff 15 54 a0 40 00         call	dword [0040A054h]	; <?_Tidy@?$basic_string@DU?$char_traits@D@std@@V?$allocator@D@2@@std@@AAEX_N@Z>
  4055f6:	6a 01                     push	dword 00000001h
  4055f8:	8d 4c 24 4c               lea	ecx, [esp+4Ch]
  4055fc:	89 ac 24 a4 00 00 00      mov	[esp+000000A4h], ebp
  405603:	ff 15 54 a0 40 00         call	dword [0040A054h]	; <?_Tidy@?$basic_string@DU?$char_traits@D@std@@V?$allocator@D@2@@std@@AAEX_N@Z>
  405609:	32 c0                     xor	al, al
  40560b:	e9 b9 01 00 00            jmp	4057c9
  405610:	8d 54 24 18              >lea	edx, [esp+18h]
  405614:	8b ce                     mov	ecx, esi
  405616:	52                        push	edx
  405617:	e8 54 f1 ff ff            call	404770
  40561c:	50                        push	eax
  40561d:	8d 44 24 3c               lea	eax, [esp+3Ch]
  405621:	68 a4 c3 40 00            push	dword 0040C3A4h
  405626:	50                        push	eax
  405627:	c7 84 24 ac 00 00 00      mov	dword [esp+000000ACh], 0000000Bh
		0b 00 00 00 
  405632:	e8 27 31 00 00            call	40875e	; <??Hstd@@YA?AV?$basic_string@DU?$char_traits@D@std@@V?$allocator@D@2@@0@PBDABV10@@Z>
  405637:	68 44 c3 40 00            push	dword 0040C344h
  40563c:	8d 4c 24 38               lea	ecx, [esp+38h]
  405640:	50                        push	eax
  405641:	51                        push	ecx
  405642:	c6 84 24 b8 00 00 00      mov	byte [esp+000000B8h], 0Ch
		0c 
  40564a:	e8 09 31 00 00            call	408758	; <??Hstd@@YA?AV?$basic_string@DU?$char_traits@D@std@@V?$allocator@D@2@@0@ABV10@PBD@Z>
  40564f:	57                        push	edi
  405650:	8d 54 24 74               lea	edx, [esp+74h]
  405654:	50                        push	eax
  405655:	52                        push	edx
  405656:	c6 84 24 c4 00 00 00      mov	byte [esp+000000C4h], 0Dh
		0d 
  40565e:	e8 01 31 00 00            call	408764	; <??Hstd@@YA?AV?$basic_string@DU?$char_traits@D@std@@V?$allocator@D@2@@0@ABV10@0@Z>
  405663:	68 b0 c3 40 00            push	dword 0040C3B0h
  405668:	50                        push	eax
  405669:	8d 44 24 74               lea	eax, [esp+74h]
  40566d:	b3 0e                     mov	bl, 0Eh
  40566f:	50                        push	eax
  405670:	88 9c 24 d0 00 00 00      mov	[esp+000000D0h], bl
  405677:	e8 dc 30 00 00            call	408758	; <??Hstd@@YA?AV?$basic_string@DU?$char_traits@D@std@@V?$allocator@D@2@@0@ABV10@PBD@Z>
  40567c:	83 c4 30                  add	esp, 30h
  40567f:	8b 0d 84 a0 40 00         mov	ecx, [0040A084h]
  405685:	c6 84 24 a0 00 00 00      mov	byte [esp+000000A0h], 0Fh
		0f 
  40568d:	8b 11                     mov	edx, [ecx]
  40568f:	8b 4c 24 14               mov	ecx, [esp+14h]
  405693:	52                        push	edx
  405694:	6a 00                     push	dword 00000000h
  405696:	50                        push	eax
  405697:	ff 15 88 a0 40 00         call	dword [0040A088h]	; <?assign@?$basic_string@DU?$char_traits@D@std@@V?$allocator@D@2@@std@@QAEAAV12@ABV12@II@Z>
  40569d:	6a 01                     push	dword 00000001h
  40569f:	8d 4c 24 4c               lea	ecx, [esp+4Ch]
  4056a3:	88 9c 24 a4 00 00 00      mov	[esp+000000A4h], bl
  4056aa:	ff 15 54 a0 40 00         call	dword [0040A054h]	; <?_Tidy@?$basic_string@DU?$char_traits@D@std@@V?$allocator@D@2@@std@@AAEX_N@Z>
  4056b0:	6a 01                     push	dword 00000001h
  4056b2:	8d 4c 24 5c               lea	ecx, [esp+5Ch]
  4056b6:	c6 84 24 a4 00 00 00      mov	byte [esp+000000A4h], 0Dh
		0d 
  4056be:	ff 15 54 a0 40 00         call	dword [0040A054h]	; <?_Tidy@?$basic_string@DU?$char_traits@D@std@@V?$allocator@D@2@@std@@AAEX_N@Z>
  4056c4:	6a 01                     push	dword 00000001h
  4056c6:	8d 4c 24 2c               lea	ecx, [esp+2Ch]
  4056ca:	c6 84 24 a4 00 00 00      mov	byte [esp+000000A4h], 0Ch
		0c 
  4056d2:	ff 15 54 a0 40 00         call	dword [0040A054h]	; <?_Tidy@?$basic_string@DU?$char_traits@D@std@@V?$allocator@D@2@@std@@AAEX_N@Z>
  4056d8:	6a 01                     push	dword 00000001h
  4056da:	8d 4c 24 3c               lea	ecx, [esp+3Ch]
  4056de:	c6 84 24 a4 00 00 00      mov	byte [esp+000000A4h], 0Bh
		0b 
  4056e6:	ff 15 54 a0 40 00         call	dword [0040A054h]	; <?_Tidy@?$basic_string@DU?$char_traits@D@std@@V?$allocator@D@2@@std@@AAEX_N@Z>
  4056ec:	6a 01                     push	dword 00000001h
  4056ee:	8d 4c 24 1c               lea	ecx, [esp+1Ch]
  4056f2:	89 ac 24 a4 00 00 00      mov	[esp+000000A4h], ebp
  4056f9:	ff 15 54 a0 40 00         call	dword [0040A054h]	; <?_Tidy@?$basic_string@DU?$char_traits@D@std@@V?$allocator@D@2@@std@@AAEX_N@Z>
  4056ff:	32 c0                     xor	al, al
  405701:	e9 c3 00 00 00            jmp	4057c9
  405706:	8d 44 24 28              >lea	eax, [esp+28h]
  40570a:	8b ce                     mov	ecx, esi
  40570c:	50                        push	eax
  40570d:	e8 5e f0 ff ff            call	404770
  405712:	50                        push	eax
  405713:	8d 4c 24 5c               lea	ecx, [esp+5Ch]
  405717:	68 a4 c3 40 00            push	dword 0040C3A4h
  40571c:	51                        push	ecx
  40571d:	c7 84 24 ac 00 00 00      mov	dword [esp+000000ACh], 00000010h
		10 00 00 00 
  405728:	e8 31 30 00 00            call	40875e	; <??Hstd@@YA?AV?$basic_string@DU?$char_traits@D@std@@V?$allocator@D@2@@0@PBDABV10@@Z>
  40572d:	68 30 c3 40 00            push	dword 0040C330h
  405732:	8d 54 24 58               lea	edx, [esp+58h]
  405736:	b3 11                     mov	bl, 11h
  405738:	50                        push	eax
  405739:	52                        push	edx
  40573a:	88 9c 24 b8 00 00 00      mov	[esp+000000B8h], bl
  405741:	e8 12 30 00 00            call	408758	; <??Hstd@@YA?AV?$basic_string@DU?$char_traits@D@std@@V?$allocator@D@2@@0@ABV10@PBD@Z>
  405746:	83 c4 18                  add	esp, 18h
  405749:	8b 0d 84 a0 40 00         mov	ecx, [0040A084h]
  40574f:	c6 84 24 a0 00 00 00      mov	byte [esp+000000A0h], 12h
		12 
  405757:	8b 11                     mov	edx, [ecx]
  405759:	8b 4c 24 14               mov	ecx, [esp+14h]
  40575d:	52                        push	edx
  40575e:	6a 00                     push	dword 00000000h
  405760:	50                        push	eax
  405761:	ff 15 88 a0 40 00         call	dword [0040A088h]	; <?assign@?$basic_string@DU?$char_traits@D@std@@V?$allocator@D@2@@std@@QAEAAV12@ABV12@II@Z>
  405767:	6a 01                     push	dword 00000001h
  405769:	8d 4c 24 4c               lea	ecx, [esp+4Ch]
  40576d:	88 9c 24 a4 00 00 00      mov	[esp+000000A4h], bl
  405774:	ff 15 54 a0 40 00         call	dword [0040A054h]	; <?_Tidy@?$basic_string@DU?$char_traits@D@std@@V?$allocator@D@2@@std@@AAEX_N@Z>
  40577a:	6a 01                     push	dword 00000001h
  40577c:	8d 4c 24 5c               lea	ecx, [esp+5Ch]
  405780:	c6 84 24 a4 00 00 00      mov	byte [esp+000000A4h], 10h
		10 
  405788:	ff 15 54 a0 40 00         call	dword [0040A054h]	; <?_Tidy@?$basic_string@DU?$char_traits@D@std@@V?$allocator@D@2@@std@@AAEX_N@Z>
  40578e:	6a 01                     push	dword 00000001h
  405790:	8d 4c 24 2c               lea	ecx, [esp+2Ch]
  405794:	89 ac 24 a4 00 00 00      mov	[esp+000000A4h], ebp
  40579b:	ff 15 54 a0 40 00         call	dword [0040A054h]	; <?_Tidy@?$basic_string@DU?$char_traits@D@std@@V?$allocator@D@2@@std@@AAEX_N@Z>
  4057a1:	32 c0                     xor	al, al
  4057a3:	eb 24                     jmp	4057c9
  4057a5:	33 ed                    >xor	ebp, ebp
  4057a7:	8b 7b 08                 >mov	edi, [ebx+08h]
  4057aa:	8b 43 0c                  mov	eax, [ebx+0Ch]
  4057ad:	3b f8                     cmp	edi, eax
  4057af:	74 16                     jz	4057c7
  4057b1:	8b 4f 04                 >mov	ecx, [edi+04h]
  4057b4:	8b 01                     mov	eax, [ecx]
  4057b6:	ff 50 04                  call	dword [eax+04h]
  4057b9:	84 c0                     test	al, al
  4057bb:	74 27                     jz	4057e4
  4057bd:	8b 43 0c                  mov	eax, [ebx+0Ch]
  4057c0:	83 c7 08                  add	edi, 08h
  4057c3:	3b f8                     cmp	edi, eax
  4057c5:	75 ea                     jnz	4057b1
  4057c7:	b0 01                    >mov	al, 01h
  4057c9:	8b 8c 24 98 00 00 00     >mov	ecx, [esp+00000098h]
  4057d0:	5f                        pop	edi
  4057d1:	5e                        pop	esi
  4057d2:	5d                        pop	ebp
  4057d3:	5b                        pop	ebx
  4057d4:	64 89 0d 00 00 00 00      mov	[fs:00000000h], ecx
  4057db:	81 c4 94 00 00 00         add	esp, 00000094h
  4057e1:	c2 08 00                  ret	0008h
  4057e4:	8d 8c 24 88 00 00 00     >lea	ecx, [esp+00000088h]
  4057eb:	51                        push	ecx
  4057ec:	8b 4f 04                  mov	ecx, [edi+04h]
  4057ef:	e8 7c ef ff ff            call	404770
  4057f4:	50                        push	eax
  4057f5:	8d 54 24 6c               lea	edx, [esp+6Ch]
  4057f9:	68 1c c3 40 00            push	dword 0040C31Ch
  4057fe:	52                        push	edx
  4057ff:	c7 84 24 ac 00 00 00      mov	dword [esp+000000ACh], 00000013h
		13 00 00 00 
  40580a:	e8 4f 2f 00 00            call	40875e	; <??Hstd@@YA?AV?$basic_string@DU?$char_traits@D@std@@V?$allocator@D@2@@0@PBDABV10@@Z>
  40580f:	68 b0 c3 40 00            push	dword 0040C3B0h
  405814:	50                        push	eax
  405815:	8d 84 24 8c 00 00 00      lea	eax, [esp+0000008Ch]
  40581c:	c6 84 24 b4 00 00 00      mov	byte [esp+000000B4h], 14h
		14 
  405824:	50                        push	eax
  405825:	e8 2e 2f 00 00            call	408758	; <??Hstd@@YA?AV?$basic_string@DU?$char_traits@D@std@@V?$allocator@D@2@@0@ABV10@PBD@Z>
  40582a:	83 c4 18                  add	esp, 18h
  40582d:	8b f8                     mov	edi, eax
  40582f:	8b 0d 84 a0 40 00         mov	ecx, [0040A084h]
  405835:	c6 84 24 a0 00 00 00      mov	byte [esp+000000A0h], 15h
		15 
  40583d:	8b 01                     mov	eax, [ecx]
  40583f:	8b 4f 08                  mov	ecx, [edi+08h]
  405842:	8b d9                     mov	ebx, ecx
  405844:	3b c3                     cmp	eax, ebx
  405846:	73 02                     jae	40584a
  405848:	8b d8                     mov	ebx, eax
  40584a:	3b f7                    >cmp	esi, edi
  40584c:	75 19                     jnz	405867
  40584e:	50                        push	eax
  40584f:	53                        push	ebx
  405850:	8b ce                     mov	ecx, esi
  405852:	ff 15 30 a0 40 00         call	dword [0040A030h]	; <?erase@?$basic_string@DU?$char_traits@D@std@@V?$allocator@D@2@@std@@QAEAAV12@II@Z>
  405858:	55                        push	ebp
  405859:	55                        push	ebp
  40585a:	8b ce                     mov	ecx, esi
  40585c:	ff 15 30 a0 40 00         call	dword [0040A030h]	; <?erase@?$basic_string@DU?$char_traits@D@std@@V?$allocator@D@2@@std@@QAEAAV12@II@Z>
  405862:	e9 89 00 00 00            jmp	4058f0
  405867:	3b dd                    >cmp	ebx, ebp
  405869:	76 45                     jbe	4058b0
  40586b:	3b d9                     cmp	ebx, ecx
  40586d:	75 41                     jnz	4058b0
  40586f:	8b 47 04                  mov	eax, [edi+04h]
  405872:	3b c5                     cmp	eax, ebp
  405874:	75 05                     jnz	40587b
  405876:	a1 5c a0 40 00            mov	eax, [40A05Ch]
  40587b:	80 78 ff fe              >cmp	byte [eax-01h], FEh
  40587f:	73 2f                     jae	4058b0
  405881:	6a 01                     push	dword 00000001h
  405883:	8b ce                     mov	ecx, esi
  405885:	ff 15 54 a0 40 00         call	dword [0040A054h]	; <?_Tidy@?$basic_string@DU?$char_traits@D@std@@V?$allocator@D@2@@std@@AAEX_N@Z>
  40588b:	8b 47 04                  mov	eax, [edi+04h]
  40588e:	3b c5                     cmp	eax, ebp
  405890:	75 05                     jnz	405897
  405892:	a1 5c a0 40 00            mov	eax, [40A05Ch]
  405897:	89 46 04                 >mov	[esi+04h], eax
  40589a:	8b 57 08                  mov	edx, [edi+08h]
  40589d:	89 56 08                  mov	[esi+08h], edx
  4058a0:	8b 4f 0c                  mov	ecx, [edi+0Ch]
  4058a3:	89 4e 0c                  mov	[esi+0Ch], ecx
  4058a6:	8a 48 ff                  mov	cl, [eax-01h]
  4058a9:	fe c1                     inc	cl
  4058ab:	88 48 ff                  mov	[eax-01h], cl
  4058ae:	eb 40                     jmp	4058f0
  4058b0:	6a 01                    >push	dword 00000001h
  4058b2:	53                        push	ebx
  4058b3:	8b ce                     mov	ecx, esi
  4058b5:	ff 15 78 a0 40 00         call	dword [0040A078h]	; <?_Grow@?$basic_string@DU?$char_traits@D@std@@V?$allocator@D@2@@std@@AAE_NI_N@Z>
  4058bb:	84 c0                     test	al, al
  4058bd:	74 31                     jz	4058f0
  4058bf:	8b 7f 04                  mov	edi, [edi+04h]
  4058c2:	8b 35 5c a0 40 00         mov	esi, [0040A05Ch]
  4058c8:	3b fd                     cmp	edi, ebp
  4058ca:	74 02                     jz	4058ce
  4058cc:	8b f7                     mov	esi, edi
  4058ce:	8b 44 24 14              >mov	eax, [esp+14h]
  4058d2:	8b cb                     mov	ecx, ebx
  4058d4:	8b d1                     mov	edx, ecx
  4058d6:	53                        push	ebx
  4058d7:	8b 78 04                  mov	edi, [eax+04h]
  4058da:	c1 e9 02                  shr	ecx, 02h
  4058dd:	f3 a5                     rep movsd
  4058df:	8b ca                     mov	ecx, edx
  4058e1:	83 e1 03                  and	ecx, 03h
  4058e4:	f3 a4                     rep movsb
  4058e6:	8b c8                     mov	ecx, eax
  4058e8:	ff 15 74 a0 40 00         call	dword [0040A074h]	; <?_Eos@?$basic_string@DU?$char_traits@D@std@@V?$allocator@D@2@@std@@AAEXI@Z>
  4058ee:	33 ed                     xor	ebp, ebp
  4058f0:	8b 44 24 7c              >mov	eax, [esp+7Ch]
  4058f4:	3b c5                     cmp	eax, ebp
  4058f6:	74 1d                     jz	405915
  4058f8:	8d 48 ff                  lea	ecx, [eax-01h]
  4058fb:	8a 40 ff                  mov	al, [eax-01h]
  4058fe:	84 c0                     test	al, al
  405900:	74 0a                     jz	40590c
  405902:	3c ff                     cmp	al, FFh
  405904:	74 06                     jz	40590c
  405906:	fe c8                     dec	al
  405908:	88 01                     mov	[ecx], al
  40590a:	eb 09                     jmp	405915
  40590c:	51                       >push	ecx
  40590d:	e8 3a 2e 00 00            call	40874c
  405912:	83 c4 04                  add	esp, 04h
  405915:	8b 44 24 6c              >mov	eax, [esp+6Ch]
  405919:	89 6c 24 7c               mov	[esp+7Ch], ebp
  40591d:	3b c5                     cmp	eax, ebp
  40591f:	89 ac 24 80 00 00 00      mov	[esp+00000080h], ebp
  405926:	89 ac 24 84 00 00 00      mov	[esp+00000084h], ebp
  40592d:	74 1d                     jz	40594c
  40592f:	8d 48 ff                  lea	ecx, [eax-01h]
  405932:	8a 40 ff                  mov	al, [eax-01h]
  405935:	84 c0                     test	al, al
  405937:	74 0a                     jz	405943
  405939:	3c ff                     cmp	al, FFh
  40593b:	74 06                     jz	405943
  40593d:	fe c8                     dec	al
  40593f:	88 01                     mov	[ecx], al
  405941:	eb 09                     jmp	40594c
  405943:	51                       >push	ecx
  405944:	e8 03 2e 00 00            call	40874c
  405949:	83 c4 04                  add	esp, 04h
  40594c:	8b 84 24 8c 00 00 00     >mov	eax, [esp+0000008Ch]
  405953:	89 6c 24 6c               mov	[esp+6Ch], ebp
  405957:	3b c5                     cmp	eax, ebp
  405959:	89 6c 24 70               mov	[esp+70h], ebp
  40595d:	89 6c 24 74               mov	[esp+74h], ebp
  405961:	74 22                     jz	405985
  405963:	8d 48 ff                  lea	ecx, [eax-01h]
  405966:	8a 40 ff                  mov	al, [eax-01h]
  405969:	84 c0                     test	al, al
  40596b:	74 0f                     jz	40597c
  40596d:	3c ff                     cmp	al, FFh
  40596f:	74 0b                     jz	40597c
  405971:	fe c8                     dec	al
  405973:	88 01                     mov	[ecx], al
  405975:	32 c0                     xor	al, al
  405977:	e9 4d fe ff ff            jmp	4057c9
  40597c:	51                       >push	ecx
  40597d:	e8 ca 2d 00 00            call	40874c
  405982:	83 c4 04                  add	esp, 04h
  405985:	32 c0                    >xor	al, al
  405987:	e9 3d fe ff ff            jmp	4057c9
     ...

405990 <no name>:
  405990:	53                        push	ebx
  405991:	55                        push	ebp
  405992:	56                        push	esi
  405993:	57                        push	edi
  405994:	8b f9                     mov	edi, ecx
  405996:	bd 00 5a 40 00            mov	ebp, 00405A00h
  40599b:	f6 47 04 02               test	byte [edi+04h], 02h
  40599f:	75 05                     jnz	4059a6
  4059a1:	bd 20 5a 40 00            mov	ebp, 00405A20h
  4059a6:	8b 77 0c                 >mov	esi, [edi+0Ch]
  4059a9:	8b 47 10                  mov	eax, [edi+10h]
  4059ac:	3b f0                     cmp	esi, eax
  4059ae:	74 31                     jz	4059e1
  4059b0:	8b 5c 24 14               mov	ebx, [esp+14h]
  4059b4:	8b 43 04                 >mov	eax, [ebx+04h]
  4059b7:	8b 15 5c a0 40 00         mov	edx, [0040A05Ch]
  4059bd:	85 c0                     test	eax, eax
  4059bf:	75 02                     jnz	4059c3
  4059c1:	8b c2                     mov	eax, edx
  4059c3:	8b 4e 04                 >mov	ecx, [esi+04h]
  4059c6:	85 c9                     test	ecx, ecx
  4059c8:	75 02                     jnz	4059cc
  4059ca:	8b ca                     mov	ecx, edx
  4059cc:	50                       >push	eax
  4059cd:	51                        push	ecx
  4059ce:	ff d5                     call	ebp
  4059d0:	83 c4 08                  add	esp, 08h
  4059d3:	85 c0                     test	eax, eax
  4059d5:	74 13                     jz	4059ea
  4059d7:	8b 47 10                  mov	eax, [edi+10h]
  4059da:	83 c6 10                  add	esi, 10h
  4059dd:	3b f0                     cmp	esi, eax
  4059df:	75 d3                     jnz	4059b4
  4059e1:	5f                       >pop	edi
  4059e2:	5e                        pop	esi
  4059e3:	5d                        pop	ebp
  4059e4:	32 c0                     xor	al, al
  4059e6:	5b                        pop	ebx
  4059e7:	c2 04 00                  ret	0004h
  4059ea:	5f                       >pop	edi
  4059eb:	5e                        pop	esi
  4059ec:	5d                        pop	ebp
  4059ed:	b0 01                     mov	al, 01h
  4059ef:	5b                        pop	ebx
  4059f0:	c2 04 00                  ret	0004h
     ...

405b10 <no name>:
  405b10:	6a ff                     push	dword FFFFFFFFh
  405b12:	68 e8 8e 40 00            push	dword 00408EE8h
  405b17:	64 a1 00 00 00 00         mov	eax, [fs:0000h]
  405b1d:	50                        push	eax
  405b1e:	64 89 25 00 00 00 00      mov	[fs:00000000h], esp
  405b25:	83 ec 48                  sub	esp, 48h
  405b28:	53                        push	ebx
  405b29:	55                        push	ebp
  405b2a:	56                        push	esi
  405b2b:	8b f1                     mov	esi, ecx
  405b2d:	57                        push	edi
  405b2e:	89 74 24 14               mov	[esp+14h], esi
  405b32:	8d 6e 04                  lea	ebp, [esi+04h]
  405b35:	8b cd                     mov	ecx, ebp
  405b37:	e8 d4 04 00 00            call	406010
  405b3c:	8d 44 24 13               lea	eax, [esp+13h]
  405b40:	8d 4e 14                  lea	ecx, [esi+14h]
  405b43:	50                        push	eax
  405b44:	c7 44 24 64 00 00 00      mov	dword [esp+64h], 00000000h
		00 
  405b4c:	ff 15 24 a0 40 00         call	dword [0040A024h]	; <??0?$basic_string@DU?$char_traits@D@std@@V?$allocator@D@2@@std@@QAE@ABV?$allocator@D@1@@Z>
  405b52:	8a 46 24                  mov	al, [esi+24h]
  405b55:	8a 5c 24 68               mov	bl, [esp+68h]
  405b59:	8a c8                     mov	cl, al
  405b5b:	c7 06 18 a2 40 00         mov	dword [esi], 0040A218h
  405b61:	32 cb                     xor	cl, bl
  405b63:	80 e1 01                  and	cl, 01h
  405b66:	32 c8                     xor	cl, al
  405b68:	88 4e 24                  mov	[esi+24h], cl
  405b6b:	8a 54 24 68               mov	dl, [esp+68h]
  405b6f:	6a 00                     push	dword 00000000h
  405b71:	8d 4c 24 2c               lea	ecx, [esp+2Ch]
  405b75:	c7 44 24 64 01 00 00      mov	dword [esp+64h], 00000001h
		00 
  405b7d:	88 54 24 2c               mov	[esp+2Ch], dl
  405b81:	ff 15 54 a0 40 00         call	dword [0040A054h]	; <?_Tidy@?$basic_string@DU?$char_traits@D@std@@V?$allocator@D@2@@std@@AAEX_N@Z>
  405b87:	bf f8 c3 40 00            mov	edi, 0040C3F8h
  405b8c:	83 c9 ff                  or	ecx, FFh
  405b8f:	33 c0                     xor	eax, eax
  405b91:	f2 ae                     repne scasb
  405b93:	f7 d1                     not	ecx
  405b95:	49                        dec	ecx
  405b96:	51                        push	ecx
  405b97:	68 f8 c3 40 00            push	dword 0040C3F8h
  405b9c:	8d 4c 24 30               lea	ecx, [esp+30h]
  405ba0:	ff 15 90 a0 40 00         call	dword [0040A090h]	; <?assign@?$basic_string@DU?$char_traits@D@std@@V?$allocator@D@2@@std@@QAEAAV12@PBDI@Z>
  405ba6:	8a 44 24 68               mov	al, [esp+68h]
  405baa:	6a 00                     push	dword 00000000h
  405bac:	8d 4c 24 1c               lea	ecx, [esp+1Ch]
  405bb0:	c6 44 24 64 02            mov	byte [esp+64h], 02h
  405bb5:	88 44 24 1c               mov	[esp+1Ch], al
  405bb9:	ff 15 54 a0 40 00         call	dword [0040A054h]	; <?_Tidy@?$basic_string@DU?$char_traits@D@std@@V?$allocator@D@2@@std@@AAEX_N@Z>
  405bbf:	bf f4 c3 40 00            mov	edi, 0040C3F4h
  405bc4:	83 c9 ff                  or	ecx, FFh
  405bc7:	33 c0                     xor	eax, eax
  405bc9:	f2 ae                     repne scasb
  405bcb:	f7 d1                     not	ecx
  405bcd:	49                        dec	ecx
  405bce:	51                        push	ecx
  405bcf:	68 f4 c3 40 00            push	dword 0040C3F4h
  405bd4:	8d 4c 24 20               lea	ecx, [esp+20h]
  405bd8:	ff 15 90 a0 40 00         call	dword [0040A090h]	; <?assign@?$basic_string@DU?$char_traits@D@std@@V?$allocator@D@2@@std@@QAEAAV12@PBDI@Z>
  405bde:	8d 4c 24 28               lea	ecx, [esp+28h]
  405be2:	8d 5e 28                  lea	ebx, [esi+28h]
  405be5:	8d 54 24 18               lea	edx, [esp+18h]
  405be9:	51                        push	ecx
  405bea:	52                        push	edx
  405beb:	8b cb                     mov	ecx, ebx
  405bed:	c6 44 24 68 03            mov	byte [esp+68h], 03h
  405bf2:	e8 49 02 00 00            call	405e40
  405bf7:	c7 03 dc a1 40 00         mov	dword [ebx], 0040A1DCh
  405bfd:	6a 01                     push	dword 00000001h
  405bff:	8d 4c 24 1c               lea	ecx, [esp+1Ch]
  405c03:	c6 44 24 64 06            mov	byte [esp+64h], 06h
  405c08:	ff 15 54 a0 40 00         call	dword [0040A054h]	; <?_Tidy@?$basic_string@DU?$char_traits@D@std@@V?$allocator@D@2@@std@@AAEX_N@Z>
  405c0e:	6a 01                     push	dword 00000001h
  405c10:	8d 4c 24 2c               lea	ecx, [esp+2Ch]
  405c14:	c6 44 24 64 05            mov	byte [esp+64h], 05h
  405c19:	ff 15 54 a0 40 00         call	dword [0040A054h]	; <?_Tidy@?$basic_string@DU?$char_traits@D@std@@V?$allocator@D@2@@std@@AAEX_N@Z>
  405c1f:	8a 44 24 68               mov	al, [esp+68h]
  405c23:	6a 00                     push	dword 00000000h
  405c25:	88 44 24 4c               mov	[esp+4Ch], al
  405c29:	8d 4c 24 4c               lea	ecx, [esp+4Ch]
  405c2d:	ff 15 54 a0 40 00         call	dword [0040A054h]	; <?_Tidy@?$basic_string@DU?$char_traits@D@std@@V?$allocator@D@2@@std@@AAEX_N@Z>
  405c33:	bf e4 c3 40 00            mov	edi, 0040C3E4h
  405c38:	83 c9 ff                  or	ecx, FFh
  405c3b:	33 c0                     xor	eax, eax
  405c3d:	f2 ae                     repne scasb
  405c3f:	f7 d1                     not	ecx
  405c41:	49                        dec	ecx
  405c42:	51                        push	ecx
  405c43:	68 e4 c3 40 00            push	dword 0040C3E4h
  405c48:	8d 4c 24 50               lea	ecx, [esp+50h]
  405c4c:	ff 15 90 a0 40 00         call	dword [0040A090h]	; <?assign@?$basic_string@DU?$char_traits@D@std@@V?$allocator@D@2@@std@@QAEAAV12@PBDI@Z>
  405c52:	8a 4c 24 68               mov	cl, [esp+68h]
  405c56:	6a 00                     push	dword 00000000h
  405c58:	88 4c 24 3c               mov	[esp+3Ch], cl
  405c5c:	8d 4c 24 3c               lea	ecx, [esp+3Ch]
  405c60:	c6 44 24 64 07            mov	byte [esp+64h], 07h
  405c65:	ff 15 54 a0 40 00         call	dword [0040A054h]	; <?_Tidy@?$basic_string@DU?$char_traits@D@std@@V?$allocator@D@2@@std@@AAEX_N@Z>
  405c6b:	bf e0 c3 40 00            mov	edi, 0040C3E0h
  405c70:	83 c9 ff                  or	ecx, FFh
  405c73:	33 c0                     xor	eax, eax
  405c75:	f2 ae                     repne scasb
  405c77:	f7 d1                     not	ecx
  405c79:	49                        dec	ecx
  405c7a:	51                        push	ecx
  405c7b:	68 e0 c3 40 00            push	dword 0040C3E0h
  405c80:	8d 4c 24 40               lea	ecx, [esp+40h]
  405c84:	ff 15 90 a0 40 00         call	dword [0040A090h]	; <?assign@?$basic_string@DU?$char_traits@D@std@@V?$allocator@D@2@@std@@QAEAAV12@PBDI@Z>
  405c8a:	8d 54 24 48               lea	edx, [esp+48h]
  405c8e:	8d 7e 50                  lea	edi, [esi+50h]
  405c91:	8d 44 24 38               lea	eax, [esp+38h]
  405c95:	52                        push	edx
  405c96:	50                        push	eax
  405c97:	8b cf                     mov	ecx, edi
  405c99:	c6 44 24 68 08            mov	byte [esp+68h], 08h
  405c9e:	e8 9d 01 00 00            call	405e40
  405ca3:	c7 07 dc a1 40 00         mov	dword [edi], 0040A1DCh
  405ca9:	6a 01                     push	dword 00000001h
  405cab:	8d 4c 24 3c               lea	ecx, [esp+3Ch]
  405caf:	c6 44 24 64 0b            mov	byte [esp+64h], 0Bh
  405cb4:	ff 15 54 a0 40 00         call	dword [0040A054h]	; <?_Tidy@?$basic_string@DU?$char_traits@D@std@@V?$allocator@D@2@@std@@AAEX_N@Z>
  405cba:	6a 01                     push	dword 00000001h
  405cbc:	8d 4c 24 4c               lea	ecx, [esp+4Ch]
  405cc0:	c6 44 24 64 0a            mov	byte [esp+64h], 0Ah
  405cc5:	ff 15 54 a0 40 00         call	dword [0040A054h]	; <?_Tidy@?$basic_string@DU?$char_traits@D@std@@V?$allocator@D@2@@std@@AAEX_N@Z>
  405ccb:	c7 06 14 a2 40 00         mov	dword [esi], 0040A214h
  405cd1:	8b 45 08                  mov	eax, [ebp+08h]
  405cd4:	8d 4c 24 18               lea	ecx, [esp+18h]
  405cd8:	c7 44 24 18 00 00 00      mov	dword [esp+18h], 00000000h
		00 
  405ce0:	51                        push	ecx
  405ce1:	50                        push	eax
  405ce2:	8b cd                     mov	ecx, ebp
  405ce4:	89 5c 24 24               mov	[esp+24h], ebx
  405ce8:	e8 c3 19 00 00            call	4076b0
  405ced:	8a 54 24 68               mov	dl, [esp+68h]
  405cf1:	6a 00                     push	dword 00000000h
  405cf3:	8d 4c 24 2c               lea	ecx, [esp+2Ch]
  405cf7:	88 54 24 2c               mov	[esp+2Ch], dl
  405cfb:	ff 15 54 a0 40 00         call	dword [0040A054h]	; <?_Tidy@?$basic_string@DU?$char_traits@D@std@@V?$allocator@D@2@@std@@AAEX_N@Z>
  405d01:	bf dc c3 40 00            mov	edi, 0040C3DCh
  405d06:	83 c9 ff                  or	ecx, FFh
  405d09:	33 c0                     xor	eax, eax
  405d0b:	f2 ae                     repne scasb
  405d0d:	f7 d1                     not	ecx
  405d0f:	49                        dec	ecx
  405d10:	51                        push	ecx
  405d11:	68 dc c3 40 00            push	dword 0040C3DCh
  405d16:	8d 4c 24 30               lea	ecx, [esp+30h]
  405d1a:	ff 15 90 a0 40 00         call	dword [0040A090h]	; <?assign@?$basic_string@DU?$char_traits@D@std@@V?$allocator@D@2@@std@@QAEAAV12@PBDI@Z>
  405d20:	8b 46 38                  mov	eax, [esi+38h]
  405d23:	8d 5e 30                  lea	ebx, [esi+30h]
  405d26:	8d 4c 24 28               lea	ecx, [esp+28h]
  405d2a:	c6 44 24 60 0c            mov	byte [esp+60h], 0Ch
  405d2f:	51                        push	ecx
  405d30:	50                        push	eax
  405d31:	8b cb                     mov	ecx, ebx
  405d33:	e8 98 17 00 00            call	4074d0
  405d38:	6a 01                     push	dword 00000001h
  405d3a:	8d 4c 24 2c               lea	ecx, [esp+2Ch]
  405d3e:	c6 44 24 64 0a            mov	byte [esp+64h], 0Ah
  405d43:	ff 15 54 a0 40 00         call	dword [0040A054h]	; <?_Tidy@?$basic_string@DU?$char_traits@D@std@@V?$allocator@D@2@@std@@AAEX_N@Z>
  405d49:	8a 54 24 68               mov	dl, [esp+68h]
  405d4d:	6a 00                     push	dword 00000000h
  405d4f:	8d 4c 24 2c               lea	ecx, [esp+2Ch]
  405d53:	88 54 24 2c               mov	[esp+2Ch], dl
  405d57:	ff 15 54 a0 40 00         call	dword [0040A054h]	; <?_Tidy@?$basic_string@DU?$char_traits@D@std@@V?$allocator@D@2@@std@@AAEX_N@Z>
  405d5d:	bf d4 c3 40 00            mov	edi, 0040C3D4h
  405d62:	83 c9 ff                  or	ecx, FFh
  405d65:	33 c0                     xor	eax, eax
  405d67:	f2 ae                     repne scasb
  405d69:	f7 d1                     not	ecx
  405d6b:	49                        dec	ecx
  405d6c:	51                        push	ecx
  405d6d:	68 d4 c3 40 00            push	dword 0040C3D4h
  405d72:	8d 4c 24 30               lea	ecx, [esp+30h]
  405d76:	ff 15 90 a0 40 00         call	dword [0040A090h]	; <?assign@?$basic_string@DU?$char_traits@D@std@@V?$allocator@D@2@@std@@QAEAAV12@PBDI@Z>
  405d7c:	8b 43 08                  mov	eax, [ebx+08h]
  405d7f:	8d 4c 24 28               lea	ecx, [esp+28h]
  405d83:	51                        push	ecx
  405d84:	50                        push	eax
  405d85:	8b cb                     mov	ecx, ebx
  405d87:	c6 44 24 68 0d            mov	byte [esp+68h], 0Dh
  405d8c:	e8 3f 17 00 00            call	4074d0
  405d91:	6a 01                     push	dword 00000001h
  405d93:	8d 4c 24 2c               lea	ecx, [esp+2Ch]
  405d97:	c6 44 24 64 0a            mov	byte [esp+64h], 0Ah
  405d9c:	ff 15 54 a0 40 00         call	dword [0040A054h]	; <?_Tidy@?$basic_string@DU?$char_traits@D@std@@V?$allocator@D@2@@std@@AAEX_N@Z>
  405da2:	8d 46 50                  lea	eax, [esi+50h]
  405da5:	8d 54 24 18               lea	edx, [esp+18h]
  405da9:	89 44 24 1c               mov	[esp+1Ch], eax
  405dad:	8b 45 08                  mov	eax, [ebp+08h]
  405db0:	52                        push	edx
  405db1:	6a 01                     push	dword 00000001h
  405db3:	50                        push	eax
  405db4:	8b cd                     mov	ecx, ebp
  405db6:	c7 44 24 24 00 00 00      mov	dword [esp+24h], 00000000h
		00 
  405dbe:	e8 7d 1d 00 00            call	407b40
  405dc3:	8a 44 24 68               mov	al, [esp+68h]
  405dc7:	6a 00                     push	dword 00000000h
  405dc9:	8d 4c 24 2c               lea	ecx, [esp+2Ch]
  405dcd:	88 44 24 2c               mov	[esp+2Ch], al
  405dd1:	ff 15 54 a0 40 00         call	dword [0040A054h]	; <?_Tidy@?$basic_string@DU?$char_traits@D@std@@V?$allocator@D@2@@std@@AAEX_N@Z>
  405dd7:	bf cc c3 40 00            mov	edi, 0040C3CCh
  405ddc:	83 c9 ff                  or	ecx, FFh
  405ddf:	33 c0                     xor	eax, eax
  405de1:	f2 ae                     repne scasb
  405de3:	f7 d1                     not	ecx
  405de5:	49                        dec	ecx
  405de6:	51                        push	ecx
  405de7:	68 cc c3 40 00            push	dword 0040C3CCh
  405dec:	8d 4c 24 30               lea	ecx, [esp+30h]
  405df0:	ff 15 90 a0 40 00         call	dword [0040A090h]	; <?assign@?$basic_string@DU?$char_traits@D@std@@V?$allocator@D@2@@std@@QAEAAV12@PBDI@Z>
  405df6:	8b 46 60                  mov	eax, [esi+60h]
  405df9:	8d 4e 58                  lea	ecx, [esi+58h]
  405dfc:	8d 54 24 28               lea	edx, [esp+28h]
  405e00:	c6 44 24 60 0e            mov	byte [esp+60h], 0Eh
  405e05:	52                        push	edx
  405e06:	6a 01                     push	dword 00000001h
  405e08:	50                        push	eax
  405e09:	e8 72 1a 00 00            call	407880
  405e0e:	6a 01                     push	dword 00000001h
  405e10:	8d 4c 24 2c               lea	ecx, [esp+2Ch]
  405e14:	c6 44 24 64 0a            mov	byte [esp+64h], 0Ah
  405e19:	ff 15 54 a0 40 00         call	dword [0040A054h]	; <?_Tidy@?$basic_string@DU?$char_traits@D@std@@V?$allocator@D@2@@std@@AAEX_N@Z>
  405e1f:	8b 4c 24 58               mov	ecx, [esp+58h]
  405e23:	8b c6                     mov	eax, esi
  405e25:	5f                        pop	edi
  405e26:	5e                        pop	esi
  405e27:	5d                        pop	ebp
  405e28:	5b                        pop	ebx
  405e29:	64 89 0d 00 00 00 00      mov	[fs:00000000h], ecx
  405e30:	83 c4 54                  add	esp, 54h
  405e33:	c2 04 00                  ret	0004h
     ...

405e40 <no name>:
  405e40:	6a ff                     push	dword FFFFFFFFh
  405e42:	68 17 8f 40 00            push	dword 00408F17h
  405e47:	64 a1 00 00 00 00         mov	eax, [fs:0000h]
  405e4d:	50                        push	eax
  405e4e:	64 89 25 00 00 00 00      mov	[fs:00000000h], esp
  405e55:	83 ec 08                  sub	esp, 08h
  405e58:	8a 44 24 18               mov	al, [esp+18h]
  405e5c:	53                        push	ebx
  405e5d:	8b d9                     mov	ebx, ecx
  405e5f:	55                        push	ebp
  405e60:	56                        push	esi
  405e61:	33 ed                     xor	ebp, ebp
  405e63:	8a 4b 04                  mov	cl, [ebx+04h]
  405e66:	8d 73 08                  lea	esi, [ebx+08h]
  405e69:	80 e1 fc                  and	cl, FCh
  405e6c:	57                        push	edi
  405e6d:	88 4b 04                  mov	[ebx+04h], cl
  405e70:	89 5c 24 14               mov	[esp+14h], ebx
  405e74:	88 06                     mov	[esi], al
  405e76:	89 6e 04                  mov	[esi+04h], ebp
  405e79:	89 6e 08                  mov	[esi+08h], ebp
  405e7c:	89 6e 0c                  mov	[esi+0Ch], ebp
  405e7f:	8b 7c 24 2c               mov	edi, [esp+2Ch]
  405e83:	8d 4b 18                  lea	ecx, [ebx+18h]
  405e86:	89 6c 24 20               mov	[esp+20h], ebp
  405e8a:	8a 17                     mov	dl, [edi]
  405e8c:	89 69 04                  mov	[ecx+04h], ebp
  405e8f:	88 11                     mov	[ecx], dl
  405e91:	89 69 08                  mov	[ecx+08h], ebp
  405e94:	89 69 0c                  mov	[ecx+0Ch], ebp
  405e97:	a1 84 a0 40 00            mov	eax, [40A084h]
  405e9c:	8b 10                     mov	edx, [eax]
  405e9e:	52                        push	edx
  405e9f:	55                        push	ebp
  405ea0:	57                        push	edi
  405ea1:	ff 15 88 a0 40 00         call	dword [0040A088h]	; <?assign@?$basic_string@DU?$char_traits@D@std@@V?$allocator@D@2@@std@@QAEAAV12@ABV12@II@Z>
  405ea7:	c7 03 f8 a1 40 00         mov	dword [ebx], 0040A1F8h
  405ead:	8b 46 08                  mov	eax, [esi+08h]
  405eb0:	8b 4e 0c                  mov	ecx, [esi+0Ch]
  405eb3:	c6 44 24 20 01            mov	byte [esp+20h], 01h
  405eb8:	2b c8                     sub	ecx, eax
  405eba:	8b f8                     mov	edi, eax
  405ebc:	c1 f9 04                  sar	ecx, 04h
  405ebf:	83 f9 01                  cmp	ecx, 01h
  405ec2:	0f 83 b2 00 00 00         jae	405f7a
  405ec8:	8b 4e 04                  mov	ecx, [esi+04h]
  405ecb:	3b cd                     cmp	ecx, ebp
  405ecd:	74 0e                     jz	405edd
  405ecf:	2b c1                     sub	eax, ecx
  405ed1:	c1 f8 04                  sar	eax, 04h
  405ed4:	83 f8 01                  cmp	eax, 01h
  405ed7:	89 44 24 2c               mov	[esp+2Ch], eax
  405edb:	77 08                     ja	405ee5
  405edd:	c7 44 24 2c 01 00 00     >mov	dword [esp+2Ch], 00000001h
		00 
  405ee5:	8b ce                    >mov	ecx, esi
  405ee7:	e8 a4 1e 00 00            call	407d90
  405eec:	8b e8                     mov	ebp, eax
  405eee:	8b 44 24 2c               mov	eax, [esp+2Ch]
  405ef2:	03 e8                     add	ebp, eax
  405ef4:	8b c5                     mov	eax, ebp
  405ef6:	79 02                     jns	405efa
  405ef8:	33 c0                     xor	eax, eax
  405efa:	c1 e0 04                 >shl	eax, 04h
  405efd:	50                        push	eax
  405efe:	e8 7d 28 00 00            call	408780	; <??2@YAPAXI@Z>
  405f03:	8b 56 04                  mov	edx, [esi+04h]
  405f06:	83 c4 04                  add	esp, 04h
  405f09:	8b ce                     mov	ecx, esi
  405f0b:	89 44 24 10               mov	[esp+10h], eax
  405f0f:	50                        push	eax
  405f10:	57                        push	edi
  405f11:	52                        push	edx
  405f12:	e8 99 1e 00 00            call	407db0
  405f17:	8b 4c 24 28               mov	ecx, [esp+28h]
  405f1b:	89 44 24 2c               mov	[esp+2Ch], eax
  405f1f:	51                        push	ecx
  405f20:	6a 01                     push	dword 00000001h
  405f22:	50                        push	eax
  405f23:	8b ce                     mov	ecx, esi
  405f25:	e8 c6 1e 00 00            call	407df0
  405f2a:	8b 54 24 2c               mov	edx, [esp+2Ch]
  405f2e:	8b 46 08                  mov	eax, [esi+08h]
  405f31:	83 c2 10                  add	edx, 10h
  405f34:	8b ce                     mov	ecx, esi
  405f36:	52                        push	edx
  405f37:	50                        push	eax
  405f38:	57                        push	edi
  405f39:	e8 72 1e 00 00            call	407db0
  405f3e:	8b 4e 08                  mov	ecx, [esi+08h]
  405f41:	8b 56 04                  mov	edx, [esi+04h]
  405f44:	51                        push	ecx
  405f45:	52                        push	edx
  405f46:	8b ce                     mov	ecx, esi
  405f48:	e8 13 17 00 00            call	407660
  405f4d:	8b 46 04                  mov	eax, [esi+04h]
  405f50:	50                        push	eax
  405f51:	e8 f6 27 00 00            call	40874c
  405f56:	8b 7c 24 14               mov	edi, [esp+14h]
  405f5a:	83 c4 04                  add	esp, 04h
  405f5d:	c1 e5 04                  shl	ebp, 04h
  405f60:	03 ef                     add	ebp, edi
  405f62:	8b ce                     mov	ecx, esi
  405f64:	89 6e 0c                  mov	[esi+0Ch], ebp
  405f67:	e8 24 1e 00 00            call	407d90
  405f6c:	40                        inc	eax
  405f6d:	89 7e 04                  mov	[esi+04h], edi
  405f70:	c1 e0 04                  shl	eax, 04h
  405f73:	03 c7                     add	eax, edi
  405f75:	89 46 08                  mov	[esi+08h], eax
  405f78:	eb 79                     jmp	405ff3
  405f7a:	8b c8                    >mov	ecx, eax
  405f7c:	2b cf                     sub	ecx, edi
  405f7e:	c1 f9 04                  sar	ecx, 04h
  405f81:	83 f9 01                  cmp	ecx, 01h
  405f84:	73 3c                     jae	405fc2
  405f86:	8d 57 10                  lea	edx, [edi+10h]
  405f89:	8b ce                     mov	ecx, esi
  405f8b:	52                        push	edx
  405f8c:	50                        push	eax
  405f8d:	57                        push	edi
  405f8e:	e8 1d 1e 00 00            call	407db0
  405f93:	8b 46 08                  mov	eax, [esi+08h]
  405f96:	8b 6c 24 28               mov	ebp, [esp+28h]
  405f9a:	8b c8                     mov	ecx, eax
  405f9c:	ba 01 00 00 00            mov	edx, 00000001h
  405fa1:	2b cf                     sub	ecx, edi
  405fa3:	55                        push	ebp
  405fa4:	c1 f9 04                  sar	ecx, 04h
  405fa7:	2b d1                     sub	edx, ecx
  405fa9:	8b ce                     mov	ecx, esi
  405fab:	52                        push	edx
  405fac:	50                        push	eax
  405fad:	e8 3e 1e 00 00            call	407df0
  405fb2:	8b 46 08                  mov	eax, [esi+08h]
  405fb5:	55                        push	ebp
  405fb6:	50                        push	eax
  405fb7:	57                        push	edi
  405fb8:	e8 f3 1e 00 00            call	407eb0
  405fbd:	83 c4 0c                  add	esp, 0Ch
  405fc0:	eb 2d                     jmp	405fef
  405fc2:	50                       >push	eax
  405fc3:	50                        push	eax
  405fc4:	83 c0 f0                  add	eax, F0h
  405fc7:	8b ce                     mov	ecx, esi
  405fc9:	50                        push	eax
  405fca:	e8 e1 1d 00 00            call	407db0
  405fcf:	8b 46 08                  mov	eax, [esi+08h]
  405fd2:	50                        push	eax
  405fd3:	83 c0 f0                  add	eax, F0h
  405fd6:	50                        push	eax
  405fd7:	57                        push	edi
  405fd8:	e8 23 20 00 00            call	408000
  405fdd:	8b 4c 24 34               mov	ecx, [esp+34h]
  405fe1:	8d 57 10                  lea	edx, [edi+10h]
  405fe4:	51                        push	ecx
  405fe5:	52                        push	edx
  405fe6:	57                        push	edi
  405fe7:	e8 c4 1e 00 00            call	407eb0
  405fec:	83 c4 18                  add	esp, 18h
  405fef:	83 46 08 10              >add	dword [esi+08h], 10h
  405ff3:	8b 4c 24 18              >mov	ecx, [esp+18h]
  405ff7:	5f                        pop	edi
  405ff8:	5e                        pop	esi
  405ff9:	8b c3                     mov	eax, ebx
  405ffb:	5d                        pop	ebp
  405ffc:	5b                        pop	ebx
  405ffd:	64 89 0d 00 00 00 00      mov	[fs:00000000h], ecx
  406004:	83 c4 14                  add	esp, 14h
  406007:	c2 08 00                  ret	0008h
     ...

406010 <no name>:
  406010:	51                        push	ecx
  406011:	8b c1                     mov	eax, ecx
  406013:	8a 4c 24 03               mov	cl, [esp+03h]
  406017:	88 08                     mov	[eax], cl
  406019:	33 c9                     xor	ecx, ecx
  40601b:	89 48 04                  mov	[eax+04h], ecx
  40601e:	89 48 08                  mov	[eax+08h], ecx
  406021:	89 48 0c                  mov	[eax+0Ch], ecx
  406024:	59                        pop	ecx
  406025:	c3                        ret
     ...

4062c0 <no name>:
  4062c0:	6a ff                     push	dword FFFFFFFFh
  4062c2:	68 cd 8f 40 00            push	dword 00408FCDh
  4062c7:	64 a1 00 00 00 00         mov	eax, [fs:0000h]
  4062cd:	50                        push	eax
  4062ce:	64 89 25 00 00 00 00      mov	[fs:00000000h], esp
  4062d5:	83 ec 08                  sub	esp, 08h
  4062d8:	53                        push	ebx
  4062d9:	56                        push	esi
  4062da:	8b f1                     mov	esi, ecx
  4062dc:	57                        push	edi
  4062dd:	89 74 24 0c               mov	[esp+0Ch], esi
  4062e1:	33 db                     xor	ebx, ebx
  4062e3:	89 5c 24 1c               mov	[esp+1Ch], ebx
  4062e7:	8d be 4c 01 00 00         lea	edi, [esi+0000014Ch]
  4062ed:	89 7c 24 10               mov	[esp+10h], edi
  4062f1:	6a 01                     push	dword 00000001h
  4062f3:	8d 4f 4c                  lea	ecx, [edi+4Ch]
  4062f6:	c6 44 24 20 07            mov	byte [esp+20h], 07h
  4062fb:	ff 15 54 a0 40 00         call	dword [0040A054h]	; <?_Tidy@?$basic_string@DU?$char_traits@D@std@@V?$allocator@D@2@@std@@AAEX_N@Z>
  406301:	6a 01                     push	dword 00000001h
  406303:	8d 4f 3c                  lea	ecx, [edi+3Ch]
  406306:	c6 44 24 20 06            mov	byte [esp+20h], 06h
  40630b:	ff 15 54 a0 40 00         call	dword [0040A054h]	; <?_Tidy@?$basic_string@DU?$char_traits@D@std@@V?$allocator@D@2@@std@@AAEX_N@Z>
  406311:	6a 01                     push	dword 00000001h
  406313:	8d 4f 28                  lea	ecx, [edi+28h]
  406316:	c6 44 24 20 05            mov	byte [esp+20h], 05h
  40631b:	ff 15 54 a0 40 00         call	dword [0040A054h]	; <?_Tidy@?$basic_string@DU?$char_traits@D@std@@V?$allocator@D@2@@std@@AAEX_N@Z>
  406321:	6a 01                     push	dword 00000001h
  406323:	8d 4f 18                  lea	ecx, [edi+18h]
  406326:	c6 44 24 20 04            mov	byte [esp+20h], 04h
  40632b:	c7 07 f8 a1 40 00         mov	dword [edi], 0040A1F8h
  406331:	ff 15 54 a0 40 00         call	dword [0040A054h]	; <?_Tidy@?$basic_string@DU?$char_traits@D@std@@V?$allocator@D@2@@std@@AAEX_N@Z>
  406337:	8b 47 10                  mov	eax, [edi+10h]
  40633a:	8b 4f 0c                  mov	ecx, [edi+0Ch]
  40633d:	83 c7 08                  add	edi, 08h
  406340:	50                        push	eax
  406341:	51                        push	ecx
  406342:	8b cf                     mov	ecx, edi
  406344:	e8 17 13 00 00            call	407660
  406349:	8b 47 04                  mov	eax, [edi+04h]
  40634c:	50                        push	eax
  40634d:	e8 fa 23 00 00            call	40874c
  406352:	83 c4 04                  add	esp, 04h
  406355:	89 5f 04                  mov	[edi+04h], ebx
  406358:	89 5f 08                  mov	[edi+08h], ebx
  40635b:	89 5f 0c                  mov	[edi+0Ch], ebx
  40635e:	6a 01                     push	dword 00000001h
  406360:	8d 8e 3c 01 00 00         lea	ecx, [esi+0000013Ch]
  406366:	c6 44 24 20 03            mov	byte [esp+20h], 03h
  40636b:	c7 86 24 01 00 00 f8      mov	dword [esi+00000124h], 0040A1F8h
		a1 40 00 
  406375:	ff 15 54 a0 40 00         call	dword [0040A054h]	; <?_Tidy@?$basic_string@DU?$char_traits@D@std@@V?$allocator@D@2@@std@@AAEX_N@Z>
  40637b:	8b 96 34 01 00 00         mov	edx, [esi+00000134h]
  406381:	8b 86 30 01 00 00         mov	eax, [esi+00000130h]
  406387:	8d be 2c 01 00 00         lea	edi, [esi+0000012Ch]
  40638d:	52                        push	edx
  40638e:	50                        push	eax
  40638f:	8b cf                     mov	ecx, edi
  406391:	e8 ca 12 00 00            call	407660
  406396:	8b 47 04                  mov	eax, [edi+04h]
  406399:	50                        push	eax
  40639a:	e8 ad 23 00 00            call	40874c
  40639f:	83 c4 04                  add	esp, 04h
  4063a2:	89 5f 04                  mov	[edi+04h], ebx
  4063a5:	89 5f 08                  mov	[edi+08h], ebx
  4063a8:	89 5f 0c                  mov	[edi+0Ch], ebx
  4063ab:	6a 01                     push	dword 00000001h
  4063ad:	8d 8e 14 01 00 00         lea	ecx, [esi+00000114h]
  4063b3:	c6 44 24 20 02            mov	byte [esp+20h], 02h
  4063b8:	c7 86 fc 00 00 00 f8      mov	dword [esi+000000FCh], 0040A1F8h
		a1 40 00 
  4063c2:	ff 15 54 a0 40 00         call	dword [0040A054h]	; <?_Tidy@?$basic_string@DU?$char_traits@D@std@@V?$allocator@D@2@@std@@AAEX_N@Z>
  4063c8:	8b 8e 0c 01 00 00         mov	ecx, [esi+0000010Ch]
  4063ce:	8b 96 08 01 00 00         mov	edx, [esi+00000108h]
  4063d4:	8d be 04 01 00 00         lea	edi, [esi+00000104h]
  4063da:	51                        push	ecx
  4063db:	52                        push	edx
  4063dc:	8b cf                     mov	ecx, edi
  4063de:	e8 7d 12 00 00            call	407660
  4063e3:	8b 47 04                  mov	eax, [edi+04h]
  4063e6:	50                        push	eax
  4063e7:	e8 60 23 00 00            call	40874c
  4063ec:	83 c4 04                  add	esp, 04h
  4063ef:	89 5f 04                  mov	[edi+04h], ebx
  4063f2:	89 5f 08                  mov	[edi+08h], ebx
  4063f5:	89 5f 0c                  mov	[edi+0Ch], ebx
  4063f8:	6a 01                     push	dword 00000001h
  4063fa:	8d 8e ec 00 00 00         lea	ecx, [esi+000000ECh]
  406400:	c6 44 24 20 01            mov	byte [esp+20h], 01h
  406405:	c7 86 d4 00 00 00 f8      mov	dword [esi+000000D4h], 0040A1F8h
		a1 40 00 
  40640f:	ff 15 54 a0 40 00         call	dword [0040A054h]	; <?_Tidy@?$basic_string@DU?$char_traits@D@std@@V?$allocator@D@2@@std@@AAEX_N@Z>
  406415:	8b 86 e4 00 00 00         mov	eax, [esi+000000E4h]
  40641b:	8b 8e e0 00 00 00         mov	ecx, [esi+000000E0h]
  406421:	8d be dc 00 00 00         lea	edi, [esi+000000DCh]
  406427:	50                        push	eax
  406428:	51                        push	ecx
  406429:	8b cf                     mov	ecx, edi
  40642b:	e8 30 12 00 00            call	407660
  406430:	8b 47 04                  mov	eax, [edi+04h]
  406433:	50                        push	eax
  406434:	e8 13 23 00 00            call	40874c
  406439:	89 5f 04                  mov	[edi+04h], ebx
  40643c:	89 5f 08                  mov	[edi+08h], ebx
  40643f:	89 5f 0c                  mov	[edi+0Ch], ebx
  406442:	8d 7e 78                  lea	edi, [esi+78h]
  406445:	83 c4 04                  add	esp, 04h
  406448:	89 7c 24 10               mov	[esp+10h], edi
  40644c:	6a 01                     push	dword 00000001h
  40644e:	8d 4f 4c                  lea	ecx, [edi+4Ch]
  406451:	c6 44 24 20 0a            mov	byte [esp+20h], 0Ah
  406456:	ff 15 54 a0 40 00         call	dword [0040A054h]	; <?_Tidy@?$basic_string@DU?$char_traits@D@std@@V?$allocator@D@2@@std@@AAEX_N@Z>
  40645c:	6a 01                     push	dword 00000001h
  40645e:	8d 4f 3c                  lea	ecx, [edi+3Ch]
  406461:	c6 44 24 20 09            mov	byte [esp+20h], 09h
  406466:	ff 15 54 a0 40 00         call	dword [0040A054h]	; <?_Tidy@?$basic_string@DU?$char_traits@D@std@@V?$allocator@D@2@@std@@AAEX_N@Z>
  40646c:	6a 01                     push	dword 00000001h
  40646e:	8d 4f 28                  lea	ecx, [edi+28h]
  406471:	c6 44 24 20 08            mov	byte [esp+20h], 08h
  406476:	ff 15 54 a0 40 00         call	dword [0040A054h]	; <?_Tidy@?$basic_string@DU?$char_traits@D@std@@V?$allocator@D@2@@std@@AAEX_N@Z>
  40647c:	6a 01                     push	dword 00000001h
  40647e:	8d 4f 18                  lea	ecx, [edi+18h]
  406481:	88 5c 24 20               mov	[esp+20h], bl
  406485:	c7 07 f8 a1 40 00         mov	dword [edi], 0040A1F8h
  40648b:	ff 15 54 a0 40 00         call	dword [0040A054h]	; <?_Tidy@?$basic_string@DU?$char_traits@D@std@@V?$allocator@D@2@@std@@AAEX_N@Z>
  406491:	8d 4f 08                  lea	ecx, [edi+08h]
  406494:	e8 c7 08 00 00            call	406d60
  406499:	8d 4e 50                  lea	ecx, [esi+50h]
  40649c:	c7 44 24 1c ff ff ff      mov	dword [esp+1Ch], FFFFFFFFh
		ff 
  4064a4:	e8 a7 d9 ff ff            call	403e50
  4064a9:	8d 4e 28                  lea	ecx, [esi+28h]
  4064ac:	e8 9f d9 ff ff            call	403e50
  4064b1:	6a 01                     push	dword 00000001h
  4064b3:	8d 4e 14                  lea	ecx, [esi+14h]
  4064b6:	ff 15 54 a0 40 00         call	dword [0040A054h]	; <?_Tidy@?$basic_string@DU?$char_traits@D@std@@V?$allocator@D@2@@std@@AAEX_N@Z>
  4064bc:	8d 4e 04                  lea	ecx, [esi+04h]
  4064bf:	e8 fc b4 ff ff            call	4019c0
  4064c4:	8b 4c 24 14               mov	ecx, [esp+14h]
  4064c8:	5f                        pop	edi
  4064c9:	5e                        pop	esi
  4064ca:	5b                        pop	ebx
  4064cb:	64 89 0d 00 00 00 00      mov	[fs:00000000h], ecx
  4064d2:	83 c4 14                  add	esp, 14h
  4064d5:	c3                        ret
     ...

4064e0 <no name>:
  4064e0:	64 a1 00 00 00 00         mov	eax, [fs:0000h]
  4064e6:	6a ff                     push	dword FFFFFFFFh
  4064e8:	68 01 90 40 00            push	dword 00409001h
  4064ed:	50                        push	eax
  4064ee:	64 89 25 00 00 00 00      mov	[fs:00000000h], esp
  4064f5:	83 ec 78                  sub	esp, 78h
  4064f8:	53                        push	ebx
  4064f9:	55                        push	ebp
  4064fa:	56                        push	esi
  4064fb:	8b b4 24 98 00 00 00      mov	esi, [esp+00000098h]
  406502:	83 7e 08 7f               cmp	dword [esi+08h], 7Fh
  406506:	76 18                     jbe	406520
  406508:	68 34 c4 40 00            push	dword 0040C434h
  40650d:	ff 15 4c a1 40 00         call	dword [0040A14Ch]	; <printf>
  406513:	83 c4 04                  add	esp, 04h
  406516:	b8 fb ff ff ff            mov	eax, FFFFFFFBh
  40651b:	e9 e5 02 00 00            jmp	406805
  406520:	8d 4c 24 50              >lea	ecx, [esp+50h]
  406524:	e8 f7 aa ff ff            call	401020
  406529:	8b ac 24 94 00 00 00      mov	ebp, [esp+00000094h]
  406530:	33 db                     xor	ebx, ebx
  406532:	55                        push	ebp
  406533:	8d 4c 24 54               lea	ecx, [esp+54h]
  406537:	89 9c 24 90 00 00 00      mov	[esp+00000090h], ebx
  40653e:	e8 dd ab ff ff            call	401120
  406543:	83 f8 6e                  cmp	eax, 6Eh
  406546:	74 77                     jz	4065bf
  406548:	8d 44 24 24               lea	eax, [esp+24h]
  40654c:	8b cd                     mov	ecx, ebp
  40654e:	50                        push	eax
  40654f:	ff 15 64 a1 40 00         call	dword [0040A164h]	; <?FileName@FileLocation@@QBE?AV?$basic_string@DU?$char_traits@D@std@@V?$allocator@D@2@@std@@XZ>
  406555:	8b 40 04                  mov	eax, [eax+04h]
  406558:	3b c3                     cmp	eax, ebx
  40655a:	75 05                     jnz	406561
  40655c:	a1 5c a0 40 00            mov	eax, [40A05Ch]
  406561:	50                       >push	eax
  406562:	68 e4 c1 40 00            push	dword 0040C1E4h
  406567:	ff 15 4c a1 40 00         call	dword [0040A14Ch]	; <printf>
  40656d:	8b 44 24 30               mov	eax, [esp+30h]
  406571:	83 c4 08                  add	esp, 08h
  406574:	3b c3                     cmp	eax, ebx
  406576:	74 1d                     jz	406595
  406578:	8d 48 ff                  lea	ecx, [eax-01h]
  40657b:	8a 40 ff                  mov	al, [eax-01h]
  40657e:	3a c3                     cmp	al, bl
  406580:	74 0a                     jz	40658c
  406582:	3c ff                     cmp	al, FFh
  406584:	74 06                     jz	40658c
  406586:	fe c8                     dec	al
  406588:	88 01                     mov	[ecx], al
  40658a:	eb 09                     jmp	406595
  40658c:	51                       >push	ecx
  40658d:	e8 ba 21 00 00            call	40874c
  406592:	83 c4 04                  add	esp, 04h
  406595:	8d 4c 24 50              >lea	ecx, [esp+50h]
  406599:	89 5c 24 28               mov	[esp+28h], ebx
  40659d:	89 5c 24 2c               mov	[esp+2Ch], ebx
  4065a1:	89 5c 24 30               mov	[esp+30h], ebx
  4065a5:	c7 84 24 8c 00 00 00      mov	dword [esp+0000008Ch], FFFFFFFFh
		ff ff ff ff 
  4065b0:	e8 cb aa ff ff            call	401080
  4065b5:	b8 fe ff ff ff            mov	eax, FFFFFFFEh
  4065ba:	e9 46 02 00 00            jmp	406805
  4065bf:	8d 4c 24 50              >lea	ecx, [esp+50h]
  4065c3:	e8 b8 ad ff ff            call	401380
  4065c8:	83 f8 02                  cmp	eax, 02h
  4065cb:	74 2c                     jz	4065f9
  4065cd:	68 04 c4 40 00            push	dword 0040C404h
  4065d2:	ff 15 4c a1 40 00         call	dword [0040A14Ch]	; <printf>
  4065d8:	83 c4 04                  add	esp, 04h
  4065db:	8d 4c 24 50               lea	ecx, [esp+50h]
  4065df:	c7 84 24 8c 00 00 00      mov	dword [esp+0000008Ch], FFFFFFFFh
		ff ff ff ff 
  4065ea:	e8 91 aa ff ff            call	401080
  4065ef:	b8 d6 ff ff ff            mov	eax, FFFFFFD6h
  4065f4:	e9 0c 02 00 00            jmp	406805
  4065f9:	8d 4c 24 14              >lea	ecx, [esp+14h]
  4065fd:	53                        push	ebx
  4065fe:	51                        push	ecx
  4065ff:	ff 15 5c a1 40 00         call	dword [0040A15Ch]	; <?GetTemporaryFileName@FileManager@@SA?AVFileLocation@@PBD@Z>
  406605:	83 c4 08                  add	esp, 08h
  406608:	8d 54 24 14               lea	edx, [esp+14h]
  40660c:	8d 4c 24 18               lea	ecx, [esp+18h]
  406610:	52                        push	edx
  406611:	c6 84 24 90 00 00 00      mov	byte [esp+00000090h], 01h
		01 
  406619:	e8 12 b6 ff ff            call	401c30
  40661e:	8d 4c 24 34               lea	ecx, [esp+34h]
  406622:	c6 84 24 8c 00 00 00      mov	byte [esp+0000008Ch], 02h
		02 
  40662a:	e8 81 b7 ff ff            call	401db0
  40662f:	8d 4c 24 50               lea	ecx, [esp+50h]
  406633:	c6 84 24 8c 00 00 00      mov	byte [esp+0000008Ch], 03h
		03 
  40663b:	e8 70 ad ff ff            call	4013b0
  406640:	50                        push	eax
  406641:	8d 4c 24 38               lea	ecx, [esp+38h]
  406645:	e8 06 b8 ff ff            call	401e50
  40664a:	8b 46 04                  mov	eax, [esi+04h]
  40664d:	3b c3                     cmp	eax, ebx
  40664f:	75 05                     jnz	406656
  406651:	a1 5c a0 40 00            mov	eax, [40A05Ch]
  406656:	50                       >push	eax
  406657:	8d 4c 24 38               lea	ecx, [esp+38h]
  40665b:	e8 00 b8 ff ff            call	401e60
  406660:	8d 44 24 18               lea	eax, [esp+18h]
  406664:	8d 4c 24 34               lea	ecx, [esp+34h]
  406668:	50                        push	eax
  406669:	e8 c2 b8 ff ff            call	401f30
  40666e:	83 f8 6e                  cmp	eax, 6Eh
  406671:	74 68                     jz	4066db
  406673:	68 98 c1 40 00            push	dword 0040C198h
  406678:	ff 15 4c a1 40 00         call	dword [0040A14Ch]	; <printf>
  40667e:	83 c4 04                  add	esp, 04h
  406681:	8d 4c 24 50               lea	ecx, [esp+50h]
  406685:	e8 c6 ac ff ff            call	401350
  40668a:	8d 4c 24 34               lea	ecx, [esp+34h]
  40668e:	c6 84 24 8c 00 00 00      mov	byte [esp+0000008Ch], 02h
		02 
  406696:	e8 45 b7 ff ff            call	401de0
  40669b:	8d 4c 24 18               lea	ecx, [esp+18h]
  40669f:	c6 84 24 8c 00 00 00      mov	byte [esp+0000008Ch], 01h
		01 
  4066a7:	e8 c4 b5 ff ff            call	401c70
  4066ac:	8d 4c 24 14               lea	ecx, [esp+14h]
  4066b0:	88 9c 24 8c 00 00 00      mov	[esp+0000008Ch], bl
  4066b7:	ff 15 6c a1 40 00         call	dword [0040A16Ch]	; <??1FileLocation@@QAE@XZ>
  4066bd:	8d 4c 24 50               lea	ecx, [esp+50h]
  4066c1:	c7 84 24 8c 00 00 00      mov	dword [esp+0000008Ch], FFFFFFFFh
		ff ff ff ff 
  4066cc:	e8 af a9 ff ff            call	401080
  4066d1:	b8 8a 00 00 00            mov	eax, 0000008Ah
  4066d6:	e9 2a 01 00 00            jmp	406805
  4066db:	57                       >push	edi
  4066dc:	89 5c 24 14               mov	[esp+14h], ebx
  4066e0:	8d 4c 24 13              >lea	ecx, [esp+13h]
  4066e4:	8d 54 24 14               lea	edx, [esp+14h]
  4066e8:	51                        push	ecx
  4066e9:	52                        push	edx
  4066ea:	8d 4c 24 5c               lea	ecx, [esp+5Ch]
  4066ee:	e8 fd ae ff ff            call	4015f0
  4066f3:	38 5c 24 13               cmp	[esp+13h], bl
  4066f7:	75 0e                     jnz	406707
  4066f9:	8b 44 24 14               mov	eax, [esp+14h]
  4066fd:	8d 4c 24 38               lea	ecx, [esp+38h]
  406701:	50                        push	eax
  406702:	e8 49 b8 ff ff            call	401f50
  406707:	8b 74 24 14              >mov	esi, [esp+14h]
  40670b:	8d 4e 3c                  lea	ecx, [esi+3Ch]
  40670e:	51                        push	ecx
  40670f:	e8 fc 1b 00 00            call	408310
  406714:	83 c4 04                  add	esp, 04h
  406717:	3b c3                     cmp	eax, ebx
  406719:	75 6c                     jnz	406787
  40671b:	3b f3                     cmp	esi, ebx
  40671d:	74 68                     jz	406787
  40671f:	8b 7e 38                  mov	edi, [esi+38h]
  406722:	3b fb                     cmp	edi, ebx
  406724:	74 27                     jz	40674d
  406726:	8d 57 10                  lea	edx, [edi+10h]
  406729:	52                        push	edx
  40672a:	e8 e1 1b 00 00            call	408310
  40672f:	83 c4 04                  add	esp, 04h
  406732:	3b c3                     cmp	eax, ebx
  406734:	75 14                     jnz	40674a
  406736:	3b fb                     cmp	edi, ebx
  406738:	74 10                     jz	40674a
  40673a:	8b cf                     mov	ecx, edi
  40673c:	e8 7f b2 ff ff            call	4019c0
  406741:	57                        push	edi
  406742:	e8 05 20 00 00            call	40874c
  406747:	83 c4 04                  add	esp, 04h
  40674a:	89 5e 38                 >mov	[esi+38h], ebx
  40674d:	8b 7e 34                 >mov	edi, [esi+34h]
  406750:	3b fb                     cmp	edi, ebx
  406752:	74 27                     jz	40677b
  406754:	8d 47 10                  lea	eax, [edi+10h]
  406757:	50                        push	eax
  406758:	e8 b3 1b 00 00            call	408310
  40675d:	83 c4 04                  add	esp, 04h
  406760:	3b c3                     cmp	eax, ebx
  406762:	75 14                     jnz	406778
  406764:	3b fb                     cmp	edi, ebx
  406766:	74 10                     jz	406778
  406768:	8b cf                     mov	ecx, edi
  40676a:	e8 51 b2 ff ff            call	4019c0
  40676f:	57                        push	edi
  406770:	e8 d7 1f 00 00            call	40874c
  406775:	83 c4 04                  add	esp, 04h
  406778:	89 5e 34                 >mov	[esi+34h], ebx
  40677b:	56                       >push	esi
  40677c:	89 5e 34                  mov	[esi+34h], ebx
  40677f:	e8 c8 1f 00 00            call	40874c
  406784:	83 c4 04                  add	esp, 04h
  406787:	8a 44 24 13              >mov	al, [esp+13h]
  40678b:	89 5c 24 14               mov	[esp+14h], ebx
  40678f:	3a c3                     cmp	al, bl
  406791:	0f 84 49 ff ff ff         jz	4066e0
  406797:	8d 4c 24 54               lea	ecx, [esp+54h]
  40679b:	e8 b0 ab ff ff            call	401350
  4067a0:	8d 4c 24 38               lea	ecx, [esp+38h]
  4067a4:	e8 37 b8 ff ff            call	401fe0
  4067a9:	8d 4c 24 18               lea	ecx, [esp+18h]
  4067ad:	55                        push	ebp
  4067ae:	51                        push	ecx
  4067af:	ff 15 60 a1 40 00         call	dword [0040A160h]	; <?Move@FileManager@@SAXABVFileLocation@@0@Z>
  4067b5:	83 c4 08                  add	esp, 08h
  4067b8:	8d 4c 24 38               lea	ecx, [esp+38h]
  4067bc:	c6 84 24 90 00 00 00      mov	byte [esp+00000090h], 02h
		02 
  4067c4:	e8 17 b6 ff ff            call	401de0
  4067c9:	8d 4c 24 1c               lea	ecx, [esp+1Ch]
  4067cd:	c6 84 24 90 00 00 00      mov	byte [esp+00000090h], 01h
		01 
  4067d5:	e8 96 b4 ff ff            call	401c70
  4067da:	8d 4c 24 18               lea	ecx, [esp+18h]
  4067de:	88 9c 24 90 00 00 00      mov	[esp+00000090h], bl
  4067e5:	ff 15 6c a1 40 00         call	dword [0040A16Ch]	; <??1FileLocation@@QAE@XZ>
  4067eb:	8d 4c 24 54               lea	ecx, [esp+54h]
  4067ef:	c7 84 24 90 00 00 00      mov	dword [esp+00000090h], FFFFFFFFh
		ff ff ff ff 
  4067fa:	e8 81 a8 ff ff            call	401080
  4067ff:	b8 6e 00 00 00            mov	eax, 0000006Eh
  406804:	5f                        pop	edi
  406805:	8b 8c 24 84 00 00 00     >mov	ecx, [esp+00000084h]
  40680c:	5e                        pop	esi
  40680d:	5d                        pop	ebp
  40680e:	5b                        pop	ebx
  40680f:	64 89 0d 00 00 00 00      mov	[fs:00000000h], ecx
  406816:	81 c4 84 00 00 00         add	esp, 00000084h
  40681c:	c2 08 00                  ret	0008h
     ...

406820 <no name>:
  406820:	6a ff                     push	dword FFFFFFFFh
  406822:	68 18 90 40 00            push	dword 00409018h
  406827:	64 a1 00 00 00 00         mov	eax, [fs:0000h]
  40682d:	50                        push	eax
  40682e:	64 89 25 00 00 00 00      mov	[fs:00000000h], esp
  406835:	81 ec 90 00 00 00         sub	esp, 00000090h
  40683b:	89 4c 24 10               mov	[esp+10h], ecx
  40683f:	53                        push	ebx
  406840:	56                        push	esi
  406841:	8d 4c 24 54               lea	ecx, [esp+54h]
  406845:	e8 d6 a7 ff ff            call	401020
  40684a:	8b b4 24 a8 00 00 00      mov	esi, [esp+000000A8h]
  406851:	33 db                     xor	ebx, ebx
  406853:	56                        push	esi
  406854:	8d 4c 24 58               lea	ecx, [esp+58h]
  406858:	89 9c 24 a4 00 00 00      mov	[esp+000000A4h], ebx
  40685f:	e8 bc a8 ff ff            call	401120
  406864:	83 f8 6e                  cmp	eax, 6Eh
  406867:	74 58                     jz	4068c1
  406869:	8d 84 24 88 00 00 00      lea	eax, [esp+00000088h]
  406870:	8b ce                     mov	ecx, esi
  406872:	50                        push	eax
  406873:	ff 15 64 a1 40 00         call	dword [0040A164h]	; <?FileName@FileLocation@@QBE?AV?$basic_string@DU?$char_traits@D@std@@V?$allocator@D@2@@std@@XZ>
  406879:	8b 40 04                  mov	eax, [eax+04h]
  40687c:	3b c3                     cmp	eax, ebx
  40687e:	75 05                     jnz	406885
  406880:	a1 5c a0 40 00            mov	eax, [40A05Ch]
  406885:	50                       >push	eax
  406886:	68 e4 c1 40 00            push	dword 0040C1E4h
  40688b:	ff 15 4c a1 40 00         call	dword [0040A14Ch]	; <printf>
  406891:	83 c4 08                  add	esp, 08h
  406894:	8d 8c 24 88 00 00 00      lea	ecx, [esp+00000088h]
  40689b:	6a 01                     push	dword 00000001h
  40689d:	ff 15 54 a0 40 00         call	dword [0040A054h]	; <?_Tidy@?$basic_string@DU?$char_traits@D@std@@V?$allocator@D@2@@std@@AAEX_N@Z>
  4068a3:	8d 4c 24 54               lea	ecx, [esp+54h]
  4068a7:	c7 84 24 a0 00 00 00      mov	dword [esp+000000A0h], FFFFFFFFh
		ff ff ff ff 
  4068b2:	e8 c9 a7 ff ff            call	401080
  4068b7:	b8 fe ff ff ff            mov	eax, FFFFFFFEh
  4068bc:	e9 f9 01 00 00            jmp	406aba
  4068c1:	55                       >push	ebp
  4068c2:	8b 2d 4c a1 40 00         mov	ebp, [0040A14Ch]
  4068c8:	57                        push	edi
  4068c9:	68 68 c5 40 00            push	dword 0040C568h
  4068ce:	ff d5                     call	ebp
  4068d0:	83 c4 04                  add	esp, 04h
  4068d3:	8d 4c 24 5c               lea	ecx, [esp+5Ch]
  4068d7:	e8 a4 aa ff ff            call	401380
  4068dc:	2b c3                     sub	eax, ebx
  4068de:	74 14                     jz	4068f4
  4068e0:	48                        dec	eax
  4068e1:	74 0a                     jz	4068ed
  4068e3:	48                        dec	eax
  4068e4:	75 18                     jnz	4068fe
  4068e6:	68 64 c5 40 00            push	dword 0040C564h
  4068eb:	eb 0c                     jmp	4068f9
  4068ed:	68 60 c5 40 00           >push	dword 0040C560h
  4068f2:	eb 05                     jmp	4068f9
  4068f4:	68 54 c5 40 00           >push	dword 0040C554h
  4068f9:	ff d5                    >call	ebp
  4068fb:	83 c4 04                  add	esp, 04h
  4068fe:	8d 4c 24 5c              >lea	ecx, [esp+5Ch]
  406902:	e8 79 aa ff ff            call	401380
  406907:	83 f8 02                  cmp	eax, 02h
  40690a:	75 54                     jnz	406960
  40690c:	8d 4c 24 5c               lea	ecx, [esp+5Ch]
  406910:	e8 9b aa ff ff            call	4013b0
  406915:	50                        push	eax
  406916:	68 3c c5 40 00            push	dword 0040C53Ch
  40691b:	ff d5                     call	ebp
  40691d:	83 c4 08                  add	esp, 08h
  406920:	8d 4c 24 5c               lea	ecx, [esp+5Ch]
  406924:	e8 67 aa ff ff            call	401390
  406929:	8b 40 04                  mov	eax, [eax+04h]
  40692c:	3b c3                     cmp	eax, ebx
  40692e:	75 05                     jnz	406935
  406930:	a1 5c a0 40 00            mov	eax, [40A05Ch]
  406935:	50                       >push	eax
  406936:	68 28 c5 40 00            push	dword 0040C528h
  40693b:	ff d5                     call	ebp
  40693d:	83 c4 08                  add	esp, 08h
  406940:	8d 4c 24 5c               lea	ecx, [esp+5Ch]
  406944:	e8 57 aa ff ff            call	4013a0
  406949:	8b 40 04                  mov	eax, [eax+04h]
  40694c:	3b c3                     cmp	eax, ebx
  40694e:	75 05                     jnz	406955
  406950:	a1 5c a0 40 00            mov	eax, [40A05Ch]
  406955:	50                       >push	eax
  406956:	68 14 c5 40 00            push	dword 0040C514h
  40695b:	ff d5                     call	ebp
  40695d:	83 c4 08                  add	esp, 08h
  406960:	68 10 c5 40 00           >push	dword 0040C510h
  406965:	ff d5                     call	ebp
  406967:	ba 01 00 00 00            mov	edx, 00000001h
  40696c:	b9 07 00 00 00            mov	ecx, 00000007h
  406971:	33 c0                     xor	eax, eax
  406973:	8d 7c 24 3c               lea	edi, [esp+3Ch]
  406977:	89 54 24 28               mov	[esp+28h], edx
  40697b:	89 5c 24 2c               mov	[esp+2Ch], ebx
  40697f:	89 5c 24 30               mov	[esp+30h], ebx
  406983:	89 5c 24 34               mov	[esp+34h], ebx
  406987:	89 5c 24 38               mov	[esp+38h], ebx
  40698b:	83 c4 04                  add	esp, 04h
  40698e:	f3 ab                     rep stosd
  406990:	89 5c 24 14               mov	[esp+14h], ebx
  406994:	89 5c 24 54               mov	[esp+54h], ebx
  406998:	89 54 24 18               mov	[esp+18h], edx
  40699c:	33 ff                     xor	edi, edi
  40699e:	89 5c 24 1c               mov	[esp+1Ch], ebx
  4069a2:	8d 4c 24 13              >lea	ecx, [esp+13h]
  4069a6:	8d 54 24 14               lea	edx, [esp+14h]
  4069aa:	51                        push	ecx
  4069ab:	8d 44 24 28               lea	eax, [esp+28h]
  4069af:	52                        push	edx
  4069b0:	50                        push	eax
  4069b1:	53                        push	ebx
  4069b2:	8d 4c 24 6c               lea	ecx, [esp+6Ch]
  4069b6:	e8 75 ad ff ff            call	401730
  4069bb:	8a 44 24 13               mov	al, [esp+13h]
  4069bf:	be 08 c5 40 00            mov	esi, 0040C508h
  4069c4:	3a c3                     cmp	al, bl
  4069c6:	75 05                     jnz	4069cd
  4069c8:	be 00 c5 40 00            mov	esi, 0040C500h
  4069cd:	8b 4c 24 34              >mov	ecx, [esp+34h]
  4069d1:	8b 54 24 2c               mov	edx, [esp+2Ch]
  4069d5:	8b 44 24 28               mov	eax, [esp+28h]
  4069d9:	51                        push	ecx
  4069da:	8b 4c 24 28               mov	ecx, [esp+28h]
  4069de:	52                        push	edx
  4069df:	50                        push	eax
  4069e0:	51                        push	ecx
  4069e1:	8b 4c 24 30               mov	ecx, [esp+30h]
  4069e5:	e8 c6 ba ff ff            call	4024b0
  4069ea:	8b 54 24 24               mov	edx, [esp+24h]
  4069ee:	50                        push	eax
  4069ef:	56                        push	esi
  4069f0:	52                        push	edx
  4069f1:	68 c0 c4 40 00            push	dword 0040C4C0h
  4069f6:	ff d5                     call	ebp
  4069f8:	8b 74 24 30               mov	esi, [esp+30h]
  4069fc:	83 c4 1c                  add	esp, 1Ch
  4069ff:	3b f3                     cmp	esi, ebx
  406a01:	74 37                     jz	406a3a
  406a03:	8d 46 10                  lea	eax, [esi+10h]
  406a06:	50                        push	eax
  406a07:	e8 04 19 00 00            call	408310
  406a0c:	83 c4 04                  add	esp, 04h
  406a0f:	3b c3                     cmp	eax, ebx
  406a11:	75 23                     jnz	406a36
  406a13:	3b f3                     cmp	esi, ebx
  406a15:	74 1f                     jz	406a36
  406a17:	8b 46 04                  mov	eax, [esi+04h]
  406a1a:	50                        push	eax
  406a1b:	89 44 24 5c               mov	[esp+5Ch], eax
  406a1f:	e8 28 1d 00 00            call	40874c
  406a24:	56                        push	esi
  406a25:	89 5e 04                  mov	[esi+04h], ebx
  406a28:	89 5e 08                  mov	[esi+08h], ebx
  406a2b:	89 5e 0c                  mov	[esi+0Ch], ebx
  406a2e:	e8 19 1d 00 00            call	40874c
  406a33:	83 c4 08                  add	esp, 08h
  406a36:	89 5c 24 14              >mov	[esp+14h], ebx
  406a3a:	8b 4c 24 2c              >mov	ecx, [esp+2Ch]
  406a3e:	8b 54 24 1c               mov	edx, [esp+1Ch]
  406a42:	8b 74 24 34               mov	esi, [esp+34h]
  406a46:	8a 44 24 13               mov	al, [esp+13h]
  406a4a:	03 d1                     add	edx, ecx
  406a4c:	8b 4c 24 18               mov	ecx, [esp+18h]
  406a50:	03 fe                     add	edi, esi
  406a52:	41                        inc	ecx
  406a53:	3a c3                     cmp	al, bl
  406a55:	89 54 24 1c               mov	[esp+1Ch], edx
  406a59:	89 4c 24 18               mov	[esp+18h], ecx
  406a5d:	0f 84 3f ff ff ff         jz	4069a2
  406a63:	8d 4c 24 5c               lea	ecx, [esp+5Ch]
  406a67:	e8 e4 a8 ff ff            call	401350
  406a6c:	8b 74 24 1c               mov	esi, [esp+1Ch]
  406a70:	57                        push	edi
  406a71:	56                        push	esi
  406a72:	68 90 c4 40 00            push	dword 0040C490h
  406a77:	ff d5                     call	ebp
  406a79:	83 c4 0c                  add	esp, 0Ch
  406a7c:	3b fe                     cmp	edi, esi
  406a7e:	74 18                     jz	406a98
  406a80:	8d 3c bf                  lea	edi, [edi+edi*4]
  406a83:	33 d2                     xor	edx, edx
  406a85:	8d 04 bf                  lea	eax, [edi+edi*4]
  406a88:	c1 e0 02                  shl	eax, 02h
  406a8b:	f7 f6                     div	esi
  406a8d:	50                        push	eax
  406a8e:	68 64 c4 40 00            push	dword 0040C464h
  406a93:	ff d5                     call	ebp
  406a95:	83 c4 08                  add	esp, 08h
  406a98:	68 10 c5 40 00           >push	dword 0040C510h
  406a9d:	ff d5                     call	ebp
  406a9f:	83 c4 04                  add	esp, 04h
  406aa2:	8d 4c 24 5c               lea	ecx, [esp+5Ch]
  406aa6:	c7 84 24 a8 00 00 00      mov	dword [esp+000000A8h], FFFFFFFFh
		ff ff ff ff 
  406ab1:	e8 ca a5 ff ff            call	401080
  406ab6:	5f                        pop	edi
  406ab7:	33 c0                     xor	eax, eax
  406ab9:	5d                        pop	ebp
  406aba:	8b 8c 24 98 00 00 00     >mov	ecx, [esp+00000098h]
  406ac1:	5e                        pop	esi
  406ac2:	5b                        pop	ebx
  406ac3:	64 89 0d 00 00 00 00      mov	[fs:00000000h], ecx
  406aca:	81 c4 9c 00 00 00         add	esp, 0000009Ch
  406ad0:	c2 04 00                  ret	0004h
     ...

406ae0 <no name>:
  406ae0:	51                        push	ecx
  406ae1:	8b c1                     mov	eax, ecx
  406ae3:	8a 4c 24 03               mov	cl, [esp+03h]
  406ae7:	88 08                     mov	[eax], cl
  406ae9:	33 c9                     xor	ecx, ecx
  406aeb:	89 48 04                  mov	[eax+04h], ecx
  406aee:	89 48 08                  mov	[eax+08h], ecx
  406af1:	89 48 0c                  mov	[eax+0Ch], ecx
  406af4:	c7 40 10 01 00 00 00      mov	dword [eax+10h], 00000001h
  406afb:	59                        pop	ecx
  406afc:	c3                        ret
     ...

406b00 <no name>:
  406b00:	56                        push	esi
  406b01:	8b f1                     mov	esi, ecx
  406b03:	8d 46 10                  lea	eax, [esi+10h]
  406b06:	50                        push	eax
  406b07:	e8 04 18 00 00            call	408310
  406b0c:	83 c4 04                  add	esp, 04h
  406b0f:	85 c0                     test	eax, eax
  406b11:	75 14                     jnz	406b27
  406b13:	85 f6                     test	esi, esi
  406b15:	74 10                     jz	406b27
  406b17:	8b ce                     mov	ecx, esi
  406b19:	e8 a2 ae ff ff            call	4019c0
  406b1e:	56                        push	esi
  406b1f:	e8 28 1c 00 00            call	40874c
  406b24:	83 c4 04                  add	esp, 04h
  406b27:	5e                       >pop	esi
  406b28:	c3                        ret
     ...

406b30 <no name>:
  406b30:	83 ec 08                  sub	esp, 08h
  406b33:	53                        push	ebx
  406b34:	55                        push	ebp
  406b35:	56                        push	esi
  406b36:	8b f1                     mov	esi, ecx
  406b38:	57                        push	edi
  406b39:	8b 4e 04                  mov	ecx, [esi+04h]
  406b3c:	85 c9                     test	ecx, ecx
  406b3e:	75 04                     jnz	406b44
  406b40:	33 c0                     xor	eax, eax
  406b42:	eb 05                     jmp	406b49
  406b44:	8b 46 08                 >mov	eax, [esi+08h]
  406b47:	2b c1                     sub	eax, ecx
  406b49:	8b 5c 24 1c              >mov	ebx, [esp+1Ch]
  406b4d:	3b c3                     cmp	eax, ebx
  406b4f:	0f 83 9d 01 00 00         jae	406cf2
  406b55:	85 c9                     test	ecx, ecx
  406b57:	75 04                     jnz	406b5d
  406b59:	33 d2                     xor	edx, edx
  406b5b:	eb 05                     jmp	406b62
  406b5d:	8b 56 08                 >mov	edx, [esi+08h]
  406b60:	2b d1                     sub	edx, ecx
  406b62:	8b 46 08                 >mov	eax, [esi+08h]
  406b65:	2b da                     sub	ebx, edx
  406b67:	8b 56 0c                  mov	edx, [esi+0Ch]
  406b6a:	8b f8                     mov	edi, eax
  406b6c:	2b d0                     sub	edx, eax
  406b6e:	3b d3                     cmp	edx, ebx
  406b70:	0f 83 d8 00 00 00         jae	406c4e
  406b76:	85 c9                     test	ecx, ecx
  406b78:	74 08                     jz	406b82
  406b7a:	8b d0                     mov	edx, eax
  406b7c:	2b d1                     sub	edx, ecx
  406b7e:	3b da                     cmp	ebx, edx
  406b80:	72 02                     jb	406b84
  406b82:	8b d3                    >mov	edx, ebx
  406b84:	85 c9                    >test	ecx, ecx
  406b86:	75 04                     jnz	406b8c
  406b88:	33 c0                     xor	eax, eax
  406b8a:	eb 02                     jmp	406b8e
  406b8c:	2b c1                    >sub	eax, ecx
  406b8e:	03 c2                    >add	eax, edx
  406b90:	85 c0                     test	eax, eax
  406b92:	89 44 24 14               mov	[esp+14h], eax
  406b96:	7d 02                     jge	406b9a
  406b98:	33 c0                     xor	eax, eax
  406b9a:	50                       >push	eax
  406b9b:	e8 e0 1b 00 00            call	408780	; <??2@YAPAXI@Z>
  406ba0:	89 44 24 14               mov	[esp+14h], eax
  406ba4:	8b e8                     mov	ebp, eax
  406ba6:	8b 46 04                  mov	eax, [esi+04h]
  406ba9:	83 c4 04                  add	esp, 04h
  406bac:	3b c7                     cmp	eax, edi
  406bae:	89 44 24 1c               mov	[esp+1Ch], eax
  406bb2:	74 1e                     jz	406bd2
  406bb4:	eb 04                     jmp	406bba
  406bb6:	8b 44 24 1c              >mov	eax, [esp+1Ch]
  406bba:	50                       >push	eax
  406bbb:	55                        push	ebp
  406bbc:	e8 bf b6 ff ff            call	402280
  406bc1:	8b 44 24 24               mov	eax, [esp+24h]
  406bc5:	83 c4 08                  add	esp, 08h
  406bc8:	45                        inc	ebp
  406bc9:	40                        inc	eax
  406bca:	3b c7                     cmp	eax, edi
  406bcc:	89 44 24 1c               mov	[esp+1Ch], eax
  406bd0:	75 e4                     jnz	406bb6
  406bd2:	8b 44 24 20              >mov	eax, [esp+20h]
  406bd6:	8b ce                     mov	ecx, esi
  406bd8:	50                        push	eax
  406bd9:	53                        push	ebx
  406bda:	55                        push	ebp
  406bdb:	e8 70 b6 ff ff            call	402250
  406be0:	8b 4e 08                  mov	ecx, [esi+08h]
  406be3:	03 eb                     add	ebp, ebx
  406be5:	55                        push	ebp
  406be6:	51                        push	ecx
  406be7:	57                        push	edi
  406be8:	8b ce                     mov	ecx, esi
  406bea:	e8 31 b6 ff ff            call	402220
  406bef:	8b 56 08                  mov	edx, [esi+08h]
  406bf2:	8b 46 04                  mov	eax, [esi+04h]
  406bf5:	52                        push	edx
  406bf6:	50                        push	eax
  406bf7:	8b ce                     mov	ecx, esi
  406bf9:	e8 62 0c 00 00            call	407860
  406bfe:	8b 4e 04                  mov	ecx, [esi+04h]
  406c01:	51                        push	ecx
  406c02:	e8 45 1b 00 00            call	40874c
  406c07:	8b 54 24 14               mov	edx, [esp+14h]
  406c0b:	8b 44 24 18               mov	eax, [esp+18h]
  406c0f:	83 c4 04                  add	esp, 04h
  406c12:	8d 0c 02                  lea	ecx, [edx+eax*1]
  406c15:	8b 46 04                  mov	eax, [esi+04h]
  406c18:	85 c0                     test	eax, eax
  406c1a:	89 4e 0c                  mov	[esi+0Ch], ecx
  406c1d:	75 16                     jnz	406c35
  406c1f:	33 c9                     xor	ecx, ecx
  406c21:	89 56 04                  mov	[esi+04h], edx
  406c24:	8b ca                     mov	ecx, edx
  406c26:	5f                        pop	edi
  406c27:	03 cb                     add	ecx, ebx
  406c29:	89 4e 08                  mov	[esi+08h], ecx
  406c2c:	5e                        pop	esi
  406c2d:	5d                        pop	ebp
  406c2e:	5b                        pop	ebx
  406c2f:	83 c4 08                  add	esp, 08h
  406c32:	c2 08 00                  ret	0008h
  406c35:	8b 4e 08                 >mov	ecx, [esi+08h]
  406c38:	89 56 04                  mov	[esi+04h], edx
  406c3b:	2b c8                     sub	ecx, eax
  406c3d:	5f                        pop	edi
  406c3e:	03 ca                     add	ecx, edx
  406c40:	03 cb                     add	ecx, ebx
  406c42:	89 4e 08                  mov	[esi+08h], ecx
  406c45:	5e                        pop	esi
  406c46:	5d                        pop	ebp
  406c47:	5b                        pop	ebx
  406c48:	83 c4 08                  add	esp, 08h
  406c4b:	c2 08 00                  ret	0008h
  406c4e:	8b d0                    >mov	edx, eax
  406c50:	2b d7                     sub	edx, edi
  406c52:	3b d3                     cmp	edx, ebx
  406c54:	73 4d                     jae	406ca3
  406c56:	8d 0c 3b                  lea	ecx, [ebx+edi*1]
  406c59:	51                        push	ecx
  406c5a:	50                        push	eax
  406c5b:	57                        push	edi
  406c5c:	8b ce                     mov	ecx, esi
  406c5e:	e8 bd b5 ff ff            call	402220
  406c63:	8b 46 08                  mov	eax, [esi+08h]
  406c66:	8b 54 24 20               mov	edx, [esp+20h]
  406c6a:	8b cb                     mov	ecx, ebx
  406c6c:	52                        push	edx
  406c6d:	2b c8                     sub	ecx, eax
  406c6f:	03 cf                     add	ecx, edi
  406c71:	51                        push	ecx
  406c72:	50                        push	eax
  406c73:	8b ce                     mov	ecx, esi
  406c75:	e8 d6 b5 ff ff            call	402250
  406c7a:	8b 6e 08                  mov	ebp, [esi+08h]
  406c7d:	8b c7                     mov	eax, edi
  406c7f:	3b fd                     cmp	edi, ebp
  406c81:	74 0e                     jz	406c91
  406c83:	8b 54 24 20              >mov	edx, [esp+20h]
  406c87:	40                        inc	eax
  406c88:	3b c5                     cmp	eax, ebp
  406c8a:	8a 0a                     mov	cl, [edx]
  406c8c:	88 48 ff                  mov	[eax-01h], cl
  406c8f:	75 f2                     jnz	406c83
  406c91:	8b 46 08                 >mov	eax, [esi+08h]
  406c94:	5f                        pop	edi
  406c95:	03 c3                     add	eax, ebx
  406c97:	89 46 08                  mov	[esi+08h], eax
  406c9a:	5e                        pop	esi
  406c9b:	5d                        pop	ebp
  406c9c:	5b                        pop	ebx
  406c9d:	83 c4 08                  add	esp, 08h
  406ca0:	c2 08 00                  ret	0008h
  406ca3:	85 db                    >test	ebx, ebx
  406ca5:	76 77                     jbe	406d1e
  406ca7:	50                        push	eax
  406ca8:	50                        push	eax
  406ca9:	2b c3                     sub	eax, ebx
  406cab:	8b ce                     mov	ecx, esi
  406cad:	50                        push	eax
  406cae:	e8 6d b5 ff ff            call	402220
  406cb3:	8b 6e 08                  mov	ebp, [esi+08h]
  406cb6:	8b c5                     mov	eax, ebp
  406cb8:	2b c3                     sub	eax, ebx
  406cba:	3b f8                     cmp	edi, eax
  406cbc:	74 0c                     jz	406cca
  406cbe:	8a 50 ff                 >mov	dl, [eax-01h]
  406cc1:	48                        dec	eax
  406cc2:	4d                        dec	ebp
  406cc3:	3b c7                     cmp	eax, edi
  406cc5:	88 55 00                  mov	[ebp+00h], dl
  406cc8:	75 f4                     jnz	406cbe
  406cca:	8d 2c 3b                 >lea	ebp, [ebx+edi*1]
  406ccd:	8b c7                     mov	eax, edi
  406ccf:	3b fd                     cmp	edi, ebp
  406cd1:	74 0d                     jz	406ce0
  406cd3:	8b 7c 24 20               mov	edi, [esp+20h]
  406cd7:	8a 0f                    >mov	cl, [edi]
  406cd9:	88 08                     mov	[eax], cl
  406cdb:	40                        inc	eax
  406cdc:	3b c5                     cmp	eax, ebp
  406cde:	75 f7                     jnz	406cd7
  406ce0:	8b 46 08                 >mov	eax, [esi+08h]
  406ce3:	5f                        pop	edi
  406ce4:	03 c3                     add	eax, ebx
  406ce6:	89 46 08                  mov	[esi+08h], eax
  406ce9:	5e                        pop	esi
  406cea:	5d                        pop	ebp
  406ceb:	5b                        pop	ebx
  406cec:	83 c4 08                  add	esp, 08h
  406cef:	c2 08 00                  ret	0008h
  406cf2:	85 c9                    >test	ecx, ecx
  406cf4:	74 28                     jz	406d1e
  406cf6:	8b 56 08                  mov	edx, [esi+08h]
  406cf9:	8b c2                     mov	eax, edx
  406cfb:	2b c1                     sub	eax, ecx
  406cfd:	3b d8                     cmp	ebx, eax
  406cff:	73 1d                     jae	406d1e
  406d01:	8b c2                     mov	eax, edx
  406d03:	8d 3c 19                  lea	edi, [ecx+ebx*1]
  406d06:	3b c2                     cmp	eax, edx
  406d08:	74 0a                     jz	406d14
  406d0a:	8a 08                    >mov	cl, [eax]
  406d0c:	88 0f                     mov	[edi], cl
  406d0e:	47                        inc	edi
  406d0f:	40                        inc	eax
  406d10:	3b c2                     cmp	eax, edx
  406d12:	75 f6                     jnz	406d0a
  406d14:	8b 56 08                 >mov	edx, [esi+08h]
  406d17:	89 7e 08                  mov	[esi+08h], edi
  406d1a:	89 54 24 20               mov	[esp+20h], edx
  406d1e:	5f                       >pop	edi
  406d1f:	5e                        pop	esi
  406d20:	5d                        pop	ebp
  406d21:	5b                        pop	ebx
  406d22:	83 c4 08                  add	esp, 08h
  406d25:	c2 08 00                  ret	0008h
     ...

406d30 <no name>:
  406d30:	8b 54 24 08               mov	edx, [esp+08h]
  406d34:	55                        push	ebp
  406d35:	8b 6c 24 08               mov	ebp, [esp+08h]
  406d39:	56                        push	esi
  406d3a:	57                        push	edi
  406d3b:	8b 79 08                  mov	edi, [ecx+08h]
  406d3e:	3b d7                     cmp	edx, edi
  406d40:	8b f5                     mov	esi, ebp
  406d42:	74 0a                     jz	406d4e
  406d44:	8a 02                    >mov	al, [edx]
  406d46:	88 06                     mov	[esi], al
  406d48:	46                        inc	esi
  406d49:	42                        inc	edx
  406d4a:	3b d7                     cmp	edx, edi
  406d4c:	75 f6                     jnz	406d44
  406d4e:	8b 51 08                 >mov	edx, [ecx+08h]
  406d51:	89 71 08                  mov	[ecx+08h], esi
  406d54:	5f                        pop	edi
  406d55:	8b c5                     mov	eax, ebp
  406d57:	5e                        pop	esi
  406d58:	89 54 24 08               mov	[esp+08h], edx
  406d5c:	5d                        pop	ebp
  406d5d:	c2 08 00                  ret	0008h

406d60 <no name>:
  406d60:	53                        push	ebx
  406d61:	55                        push	ebp
  406d62:	56                        push	esi
  406d63:	57                        push	edi
  406d64:	8b f9                     mov	edi, ecx
  406d66:	33 db                     xor	ebx, ebx
  406d68:	8b 6f 08                  mov	ebp, [edi+08h]
  406d6b:	8b 77 04                  mov	esi, [edi+04h]
  406d6e:	3b f5                     cmp	esi, ebp
  406d70:	74 34                     jz	406da6
  406d72:	8b 46 04                 >mov	eax, [esi+04h]
  406d75:	3b c3                     cmp	eax, ebx
  406d77:	74 1d                     jz	406d96
  406d79:	8d 48 ff                  lea	ecx, [eax-01h]
  406d7c:	8a 40 ff                  mov	al, [eax-01h]
  406d7f:	3a c3                     cmp	al, bl
  406d81:	74 0a                     jz	406d8d
  406d83:	3c ff                     cmp	al, FFh
  406d85:	74 06                     jz	406d8d
  406d87:	fe c8                     dec	al
  406d89:	88 01                     mov	[ecx], al
  406d8b:	eb 09                     jmp	406d96
  406d8d:	51                       >push	ecx
  406d8e:	e8 b9 19 00 00            call	40874c
  406d93:	83 c4 04                  add	esp, 04h
  406d96:	89 5e 04                 >mov	[esi+04h], ebx
  406d99:	89 5e 08                  mov	[esi+08h], ebx
  406d9c:	89 5e 0c                  mov	[esi+0Ch], ebx
  406d9f:	83 c6 10                  add	esi, 10h
  406da2:	3b f5                     cmp	esi, ebp
  406da4:	75 cc                     jnz	406d72
  406da6:	8b 47 04                 >mov	eax, [edi+04h]
  406da9:	50                        push	eax
  406daa:	e8 9d 19 00 00            call	40874c
  406daf:	83 c4 04                  add	esp, 04h
  406db2:	89 5f 04                  mov	[edi+04h], ebx
  406db5:	89 5f 08                  mov	[edi+08h], ebx
  406db8:	89 5f 0c                  mov	[edi+0Ch], ebx
  406dbb:	5f                        pop	edi
  406dbc:	5e                        pop	esi
  406dbd:	5d                        pop	ebp
  406dbe:	5b                        pop	ebx
  406dbf:	c3                        ret

406dc0 <no name>:
  406dc0:	6a ff                     push	dword FFFFFFFFh
  406dc2:	68 4f 90 40 00            push	dword 0040904Fh
  406dc7:	64 a1 00 00 00 00         mov	eax, [fs:0000h]
  406dcd:	50                        push	eax
  406dce:	64 89 25 00 00 00 00      mov	[fs:00000000h], esp
  406dd5:	51                        push	ecx
  406dd6:	53                        push	ebx
  406dd7:	55                        push	ebp
  406dd8:	8a 44 24 20               mov	al, [esp+20h]
  406ddc:	56                        push	esi
  406ddd:	8b f1                     mov	esi, ecx
  406ddf:	57                        push	edi
  406de0:	33 db                     xor	ebx, ebx
  406de2:	89 74 24 10               mov	[esp+10h], esi
  406de6:	8a 4e 04                  mov	cl, [esi+04h]
  406de9:	8d 7e 08                  lea	edi, [esi+08h]
  406dec:	80 e1 fc                  and	cl, FCh
  406def:	88 4e 04                  mov	[esi+04h], cl
  406df2:	88 07                     mov	[edi], al
  406df4:	89 5f 04                  mov	[edi+04h], ebx
  406df7:	89 5f 08                  mov	[edi+08h], ebx
  406dfa:	89 5f 0c                  mov	[edi+0Ch], ebx
  406dfd:	8b 4c 24 28               mov	ecx, [esp+28h]
  406e01:	8d 6e 18                  lea	ebp, [esi+18h]
  406e04:	53                        push	ebx
  406e05:	89 5c 24 20               mov	[esp+20h], ebx
  406e09:	8a 11                     mov	dl, [ecx]
  406e0b:	8b cd                     mov	ecx, ebp
  406e0d:	88 55 00                  mov	[ebp+00h], dl
  406e10:	ff 15 54 a0 40 00         call	dword [0040A054h]	; <?_Tidy@?$basic_string@DU?$char_traits@D@std@@V?$allocator@D@2@@std@@AAEX_N@Z>
  406e16:	a1 84 a0 40 00            mov	eax, [40A084h]
  406e1b:	8b 54 24 28               mov	edx, [esp+28h]
  406e1f:	8b 08                     mov	ecx, [eax]
  406e21:	51                        push	ecx
  406e22:	53                        push	ebx
  406e23:	52                        push	edx
  406e24:	8b cd                     mov	ecx, ebp
  406e26:	ff 15 88 a0 40 00         call	dword [0040A088h]	; <?assign@?$basic_string@DU?$char_traits@D@std@@V?$allocator@D@2@@std@@QAEAAV12@ABV12@II@Z>
  406e2c:	8b 4c 24 24               mov	ecx, [esp+24h]
  406e30:	c7 06 f8 a1 40 00         mov	dword [esi], 0040A1F8h
  406e36:	8b 47 08                  mov	eax, [edi+08h]
  406e39:	51                        push	ecx
  406e3a:	6a 01                     push	dword 00000001h
  406e3c:	50                        push	eax
  406e3d:	8b cf                     mov	ecx, edi
  406e3f:	c6 44 24 28 01            mov	byte [esp+28h], 01h
  406e44:	e8 37 0a 00 00            call	407880
  406e49:	8b 7c 24 2c               mov	edi, [esp+2Ch]
  406e4d:	8d 4e 28                  lea	ecx, [esi+28h]
  406e50:	c7 44 24 1c 02 00 00      mov	dword [esp+1Ch], 00000002h
		00 
  406e58:	8a 17                     mov	dl, [edi]
  406e5a:	89 59 04                  mov	[ecx+04h], ebx
  406e5d:	88 11                     mov	[ecx], dl
  406e5f:	89 59 08                  mov	[ecx+08h], ebx
  406e62:	89 59 0c                  mov	[ecx+0Ch], ebx
  406e65:	a1 84 a0 40 00            mov	eax, [40A084h]
  406e6a:	8b 10                     mov	edx, [eax]
  406e6c:	52                        push	edx
  406e6d:	53                        push	ebx
  406e6e:	57                        push	edi
  406e6f:	ff 15 88 a0 40 00         call	dword [0040A088h]	; <?assign@?$basic_string@DU?$char_traits@D@std@@V?$allocator@D@2@@std@@QAEAAV12@ABV12@II@Z>
  406e75:	8a 44 24 28               mov	al, [esp+28h]
  406e79:	8a 4c 24 28               mov	cl, [esp+28h]
  406e7d:	88 5e 38                  mov	[esi+38h], bl
  406e80:	88 46 3c                  mov	[esi+3Ch], al
  406e83:	89 5e 40                  mov	[esi+40h], ebx
  406e86:	89 5e 44                  mov	[esi+44h], ebx
  406e89:	89 5e 48                  mov	[esi+48h], ebx
  406e8c:	88 4e 4c                  mov	[esi+4Ch], cl
  406e8f:	8b 4c 24 14               mov	ecx, [esp+14h]
  406e93:	89 5e 50                  mov	[esi+50h], ebx
  406e96:	89 5e 54                  mov	[esi+54h], ebx
  406e99:	89 5e 58                  mov	[esi+58h], ebx
  406e9c:	c7 06 1c a2 40 00         mov	dword [esi], 0040A21Ch
  406ea2:	8b c6                     mov	eax, esi
  406ea4:	5f                        pop	edi
  406ea5:	5e                        pop	esi
  406ea6:	5d                        pop	ebp
  406ea7:	5b                        pop	ebx
  406ea8:	64 89 0d 00 00 00 00      mov	[fs:00000000h], ecx
  406eaf:	83 c4 10                  add	esp, 10h
  406eb2:	c2 0c 00                  ret	000Ch
     ...

406ec0 <no name>:
  406ec0:	51                        push	ecx
  406ec1:	a1 84 a0 40 00            mov	eax, [40A084h]
  406ec6:	53                        push	ebx
  406ec7:	55                        push	ebp
  406ec8:	56                        push	esi
  406ec9:	8b 30                     mov	esi, [eax]
  406ecb:	57                        push	edi
  406ecc:	8b 7c 24 18               mov	edi, [esp+18h]
  406ed0:	89 4c 24 10               mov	[esp+10h], ecx
  406ed4:	8d 69 4c                  lea	ebp, [ecx+4Ch]
  406ed7:	8b 47 08                  mov	eax, [edi+08h]
  406eda:	8b d8                     mov	ebx, eax
  406edc:	3b f3                     cmp	esi, ebx
  406ede:	73 02                     jae	406ee2
  406ee0:	8b de                     mov	ebx, esi
  406ee2:	3b ef                    >cmp	ebp, edi
  406ee4:	75 66                     jnz	406f4c
  406ee6:	39 5d 08                  cmp	[ebp+08h], ebx
  406ee9:	73 06                     jae	406ef1
  406eeb:	ff 15 80 a0 40 00         call	dword [0040A080h]	; <?_Xran@std@@YAXXZ>
  406ef1:	8b cd                    >mov	ecx, ebp
  406ef3:	ff 15 7c a0 40 00         call	dword [0040A07Ch]	; <?_Split@?$basic_string@DU?$char_traits@D@std@@V?$allocator@D@2@@std@@AAEXXZ>
  406ef9:	8b 45 08                  mov	eax, [ebp+08h]
  406efc:	2b c3                     sub	eax, ebx
  406efe:	3b c6                     cmp	eax, esi
  406f00:	73 02                     jae	406f04
  406f02:	8b f0                     mov	esi, eax
  406f04:	85 f6                    >test	esi, esi
  406f06:	76 33                     jbe	406f3b
  406f08:	8b 4d 04                  mov	ecx, [ebp+04h]
  406f0b:	2b c6                     sub	eax, esi
  406f0d:	03 cb                     add	ecx, ebx
  406f0f:	50                        push	eax
  406f10:	8d 14 31                  lea	edx, [ecx+esi*1]
  406f13:	52                        push	edx
  406f14:	51                        push	ecx
  406f15:	ff 15 48 a1 40 00         call	dword [0040A148h]	; <memmove>
  406f1b:	8b 5d 08                  mov	ebx, [ebp+08h]
  406f1e:	83 c4 0c                  add	esp, 0Ch
  406f21:	2b de                     sub	ebx, esi
  406f23:	8b cd                     mov	ecx, ebp
  406f25:	6a 00                     push	dword 00000000h
  406f27:	53                        push	ebx
  406f28:	ff 15 78 a0 40 00         call	dword [0040A078h]	; <?_Grow@?$basic_string@DU?$char_traits@D@std@@V?$allocator@D@2@@std@@AAE_NI_N@Z>
  406f2e:	84 c0                     test	al, al
  406f30:	74 09                     jz	406f3b
  406f32:	53                        push	ebx
  406f33:	8b cd                     mov	ecx, ebp
  406f35:	ff 15 74 a0 40 00         call	dword [0040A074h]	; <?_Eos@?$basic_string@DU?$char_traits@D@std@@V?$allocator@D@2@@std@@AAEXI@Z>
  406f3b:	6a 00                    >push	dword 00000000h
  406f3d:	6a 00                     push	dword 00000000h
  406f3f:	8b cd                     mov	ecx, ebp
  406f41:	ff 15 30 a0 40 00         call	dword [0040A030h]	; <?erase@?$basic_string@DU?$char_traits@D@std@@V?$allocator@D@2@@std@@QAEAAV12@II@Z>
  406f47:	e9 87 00 00 00            jmp	406fd3
  406f4c:	85 db                    >test	ebx, ebx
  406f4e:	76 45                     jbe	406f95
  406f50:	3b d8                     cmp	ebx, eax
  406f52:	75 41                     jnz	406f95
  406f54:	8b 47 04                  mov	eax, [edi+04h]
  406f57:	85 c0                     test	eax, eax
  406f59:	75 05                     jnz	406f60
  406f5b:	a1 5c a0 40 00            mov	eax, [40A05Ch]
  406f60:	80 78 ff fe              >cmp	byte [eax-01h], FEh
  406f64:	73 2f                     jae	406f95
  406f66:	6a 01                     push	dword 00000001h
  406f68:	8b cd                     mov	ecx, ebp
  406f6a:	ff 15 54 a0 40 00         call	dword [0040A054h]	; <?_Tidy@?$basic_string@DU?$char_traits@D@std@@V?$allocator@D@2@@std@@AAEX_N@Z>
  406f70:	8b 47 04                  mov	eax, [edi+04h]
  406f73:	85 c0                     test	eax, eax
  406f75:	75 05                     jnz	406f7c
  406f77:	a1 5c a0 40 00            mov	eax, [40A05Ch]
  406f7c:	89 45 04                 >mov	[ebp+04h], eax
  406f7f:	8b 4f 08                  mov	ecx, [edi+08h]
  406f82:	89 4d 08                  mov	[ebp+08h], ecx
  406f85:	8b 57 0c                  mov	edx, [edi+0Ch]
  406f88:	89 55 0c                  mov	[ebp+0Ch], edx
  406f8b:	8a 48 ff                  mov	cl, [eax-01h]
  406f8e:	fe c1                     inc	cl
  406f90:	88 48 ff                  mov	[eax-01h], cl
  406f93:	eb 3e                     jmp	406fd3
  406f95:	6a 01                    >push	dword 00000001h
  406f97:	53                        push	ebx
  406f98:	8b cd                     mov	ecx, ebp
  406f9a:	ff 15 78 a0 40 00         call	dword [0040A078h]	; <?_Grow@?$basic_string@DU?$char_traits@D@std@@V?$allocator@D@2@@std@@AAE_NI_N@Z>
  406fa0:	84 c0                     test	al, al
  406fa2:	74 2f                     jz	406fd3
  406fa4:	8b 7f 04                  mov	edi, [edi+04h]
  406fa7:	8b 35 5c a0 40 00         mov	esi, [0040A05Ch]
  406fad:	85 ff                     test	edi, edi
  406faf:	74 02                     jz	406fb3
  406fb1:	8b f7                     mov	esi, edi
  406fb3:	8b 7d 04                 >mov	edi, [ebp+04h]
  406fb6:	8b cb                     mov	ecx, ebx
  406fb8:	8b c1                     mov	eax, ecx
  406fba:	53                        push	ebx
  406fbb:	c1 e9 02                  shr	ecx, 02h
  406fbe:	f3 a5                     rep movsd
  406fc0:	8b c8                     mov	ecx, eax
  406fc2:	83 e1 03                  and	ecx, 03h
  406fc5:	f3 a4                     rep movsb
  406fc7:	8b cd                     mov	ecx, ebp
  406fc9:	ff 15 74 a0 40 00         call	dword [0040A074h]	; <?_Eos@?$basic_string@DU?$char_traits@D@std@@V?$allocator@D@2@@std@@AAEXI@Z>
  406fcf:	8b 7c 24 18               mov	edi, [esp+18h]
  406fd3:	8b 15 84 a0 40 00        >mov	edx, [0040A084h]
  406fd9:	8b 47 08                  mov	eax, [edi+08h]
  406fdc:	8b 4c 24 10               mov	ecx, [esp+10h]
  406fe0:	8b d8                     mov	ebx, eax
  406fe2:	8b 32                     mov	esi, [edx]
  406fe4:	3b f3                     cmp	esi, ebx
  406fe6:	8d 69 3c                  lea	ebp, [ecx+3Ch]
  406fe9:	73 02                     jae	406fed
  406feb:	8b de                     mov	ebx, esi
  406fed:	3b ef                    >cmp	ebp, edi
  406fef:	75 71                     jnz	407062
  406ff1:	39 5d 08                  cmp	[ebp+08h], ebx
  406ff4:	73 06                     jae	406ffc
  406ff6:	ff 15 80 a0 40 00         call	dword [0040A080h]	; <?_Xran@std@@YAXXZ>
  406ffc:	8b cd                    >mov	ecx, ebp
  406ffe:	ff 15 7c a0 40 00         call	dword [0040A07Ch]	; <?_Split@?$basic_string@DU?$char_traits@D@std@@V?$allocator@D@2@@std@@AAEXXZ>
  407004:	8b 45 08                  mov	eax, [ebp+08h]
  407007:	2b c3                     sub	eax, ebx
  407009:	3b c6                     cmp	eax, esi
  40700b:	73 02                     jae	40700f
  40700d:	8b f0                     mov	esi, eax
  40700f:	85 f6                    >test	esi, esi
  407011:	76 33                     jbe	407046
  407013:	8b 4d 04                  mov	ecx, [ebp+04h]
  407016:	2b c6                     sub	eax, esi
  407018:	03 d9                     add	ebx, ecx
  40701a:	50                        push	eax
  40701b:	8d 14 33                  lea	edx, [ebx+esi*1]
  40701e:	52                        push	edx
  40701f:	53                        push	ebx
  407020:	ff 15 48 a1 40 00         call	dword [0040A148h]	; <memmove>
  407026:	8b 5d 08                  mov	ebx, [ebp+08h]
  407029:	83 c4 0c                  add	esp, 0Ch
  40702c:	2b de                     sub	ebx, esi
  40702e:	8b cd                     mov	ecx, ebp
  407030:	6a 00                     push	dword 00000000h
  407032:	53                        push	ebx
  407033:	ff 15 78 a0 40 00         call	dword [0040A078h]	; <?_Grow@?$basic_string@DU?$char_traits@D@std@@V?$allocator@D@2@@std@@AAE_NI_N@Z>
  407039:	84 c0                     test	al, al
  40703b:	74 09                     jz	407046
  40703d:	53                        push	ebx
  40703e:	8b cd                     mov	ecx, ebp
  407040:	ff 15 74 a0 40 00         call	dword [0040A074h]	; <?_Eos@?$basic_string@DU?$char_traits@D@std@@V?$allocator@D@2@@std@@AAEXI@Z>
  407046:	6a 00                    >push	dword 00000000h
  407048:	6a 00                     push	dword 00000000h
  40704a:	8b cd                     mov	ecx, ebp
  40704c:	ff 15 30 a0 40 00         call	dword [0040A030h]	; <?erase@?$basic_string@DU?$char_traits@D@std@@V?$allocator@D@2@@std@@QAEAAV12@II@Z>
  407052:	8b 44 24 10               mov	eax, [esp+10h]
  407056:	5f                        pop	edi
  407057:	5e                        pop	esi
  407058:	5d                        pop	ebp
  407059:	c6 40 38 01               mov	byte [eax+38h], 01h
  40705d:	5b                        pop	ebx
  40705e:	59                        pop	ecx
  40705f:	c2 04 00                  ret	0004h
  407062:	85 db                    >test	ebx, ebx
  407064:	76 53                     jbe	4070b9
  407066:	3b d8                     cmp	ebx, eax
  407068:	75 4f                     jnz	4070b9
  40706a:	8b 47 04                  mov	eax, [edi+04h]
  40706d:	85 c0                     test	eax, eax
  40706f:	75 05                     jnz	407076
  407071:	a1 5c a0 40 00            mov	eax, [40A05Ch]
  407076:	80 78 ff fe              >cmp	byte [eax-01h], FEh
  40707a:	73 3d                     jae	4070b9
  40707c:	6a 01                     push	dword 00000001h
  40707e:	8b cd                     mov	ecx, ebp
  407080:	ff 15 54 a0 40 00         call	dword [0040A054h]	; <?_Tidy@?$basic_string@DU?$char_traits@D@std@@V?$allocator@D@2@@std@@AAEX_N@Z>
  407086:	8b 47 04                  mov	eax, [edi+04h]
  407089:	85 c0                     test	eax, eax
  40708b:	75 05                     jnz	407092
  40708d:	a1 5c a0 40 00            mov	eax, [40A05Ch]
  407092:	89 45 04                 >mov	[ebp+04h], eax
  407095:	8b 4f 08                  mov	ecx, [edi+08h]
  407098:	89 4d 08                  mov	[ebp+08h], ecx
  40709b:	8b 57 0c                  mov	edx, [edi+0Ch]
  40709e:	89 55 0c                  mov	[ebp+0Ch], edx
  4070a1:	8a 48 ff                  mov	cl, [eax-01h]
  4070a4:	fe c1                     inc	cl
  4070a6:	5f                        pop	edi
  4070a7:	88 48 ff                  mov	[eax-01h], cl
  4070aa:	8b 44 24 0c               mov	eax, [esp+0Ch]
  4070ae:	5e                        pop	esi
  4070af:	5d                        pop	ebp
  4070b0:	c6 40 38 01               mov	byte [eax+38h], 01h
  4070b4:	5b                        pop	ebx
  4070b5:	59                        pop	ecx
  4070b6:	c2 04 00                  ret	0004h
  4070b9:	6a 01                    >push	dword 00000001h
  4070bb:	53                        push	ebx
  4070bc:	8b cd                     mov	ecx, ebp
  4070be:	ff 15 78 a0 40 00         call	dword [0040A078h]	; <?_Grow@?$basic_string@DU?$char_traits@D@std@@V?$allocator@D@2@@std@@AAE_NI_N@Z>
  4070c4:	84 c0                     test	al, al
  4070c6:	74 3b                     jz	407103
  4070c8:	8b 7f 04                  mov	edi, [edi+04h]
  4070cb:	8b 35 5c a0 40 00         mov	esi, [0040A05Ch]
  4070d1:	85 ff                     test	edi, edi
  4070d3:	74 02                     jz	4070d7
  4070d5:	8b f7                     mov	esi, edi
  4070d7:	8b 7d 04                 >mov	edi, [ebp+04h]
  4070da:	8b cb                     mov	ecx, ebx
  4070dc:	8b d1                     mov	edx, ecx
  4070de:	53                        push	ebx
  4070df:	c1 e9 02                  shr	ecx, 02h
  4070e2:	f3 a5                     rep movsd
  4070e4:	8b ca                     mov	ecx, edx
  4070e6:	83 e1 03                  and	ecx, 03h
  4070e9:	f3 a4                     rep movsb
  4070eb:	8b cd                     mov	ecx, ebp
  4070ed:	ff 15 74 a0 40 00         call	dword [0040A074h]	; <?_Eos@?$basic_string@DU?$char_traits@D@std@@V?$allocator@D@2@@std@@AAEXI@Z>
  4070f3:	8b 44 24 10               mov	eax, [esp+10h]
  4070f7:	5f                        pop	edi
  4070f8:	5e                        pop	esi
  4070f9:	5d                        pop	ebp
  4070fa:	c6 40 38 01               mov	byte [eax+38h], 01h
  4070fe:	5b                        pop	ebx
  4070ff:	59                        pop	ecx
  407100:	c2 04 00                  ret	0004h
  407103:	8b 4c 24 10              >mov	ecx, [esp+10h]
  407107:	5f                        pop	edi
  407108:	5e                        pop	esi
  407109:	5d                        pop	ebp
  40710a:	c6 41 38 01               mov	byte [ecx+38h], 01h
  40710e:	5b                        pop	ebx
  40710f:	59                        pop	ecx
  407110:	c2 04 00                  ret	0004h
     ...

4073c0 <no name>:
  4073c0:	56                        push	esi
  4073c1:	8b f1                     mov	esi, ecx
  4073c3:	e8 18 00 00 00            call	4073e0
  4073c8:	f6 44 24 08 01            test	byte [esp+08h], 01h
  4073cd:	74 09                     jz	4073d8
  4073cf:	56                        push	esi
  4073d0:	e8 77 13 00 00            call	40874c
  4073d5:	83 c4 04                  add	esp, 04h
  4073d8:	8b c6                    >mov	eax, esi
  4073da:	5e                        pop	esi
  4073db:	c2 04 00                  ret	0004h
     ...

4073e0 <no name>:
  4073e0:	53                        push	ebx
  4073e1:	55                        push	ebp
  4073e2:	8b e9                     mov	ebp, ecx
  4073e4:	56                        push	esi
  4073e5:	57                        push	edi
  4073e6:	33 ff                     xor	edi, edi
  4073e8:	8b 75 38                  mov	esi, [ebp+38h]
  4073eb:	3b f7                     cmp	esi, edi
  4073ed:	74 4d                     jz	40743c
  4073ef:	8d 46 10                  lea	eax, [esi+10h]
  4073f2:	50                        push	eax
  4073f3:	e8 18 0f 00 00            call	408310
  4073f8:	83 c4 04                  add	esp, 04h
  4073fb:	85 c0                     test	eax, eax
  4073fd:	75 3a                     jnz	407439
  4073ff:	3b f7                     cmp	esi, edi
  407401:	74 36                     jz	407439
  407403:	8b 5e 08                  mov	ebx, [esi+08h]
  407406:	8b 7e 04                  mov	edi, [esi+04h]
  407409:	3b fb                     cmp	edi, ebx
  40740b:	74 0d                     jz	40741a
  40740d:	57                       >push	edi
  40740e:	8b ce                     mov	ecx, esi
  407410:	e8 5b 04 00 00            call	407870
  407415:	47                        inc	edi
  407416:	3b fb                     cmp	edi, ebx
  407418:	75 f3                     jnz	40740d
  40741a:	8b 4e 04                 >mov	ecx, [esi+04h]
  40741d:	51                        push	ecx
  40741e:	e8 29 13 00 00            call	40874c
  407423:	33 c0                     xor	eax, eax
  407425:	56                        push	esi
  407426:	89 46 04                  mov	[esi+04h], eax
  407429:	89 46 08                  mov	[esi+08h], eax
  40742c:	89 46 0c                  mov	[esi+0Ch], eax
  40742f:	e8 18 13 00 00            call	40874c
  407434:	83 c4 08                  add	esp, 08h
  407437:	33 ff                     xor	edi, edi
  407439:	89 7d 38                 >mov	[ebp+38h], edi
  40743c:	8b 75 34                 >mov	esi, [ebp+34h]
  40743f:	3b f7                     cmp	esi, edi
  407441:	74 4d                     jz	407490
  407443:	8d 56 10                  lea	edx, [esi+10h]
  407446:	52                        push	edx
  407447:	e8 c4 0e 00 00            call	408310
  40744c:	83 c4 04                  add	esp, 04h
  40744f:	85 c0                     test	eax, eax
  407451:	75 3a                     jnz	40748d
  407453:	3b f7                     cmp	esi, edi
  407455:	74 36                     jz	40748d
  407457:	8b 5e 08                  mov	ebx, [esi+08h]
  40745a:	8b 7e 04                  mov	edi, [esi+04h]
  40745d:	3b fb                     cmp	edi, ebx
  40745f:	74 0d                     jz	40746e
  407461:	57                       >push	edi
  407462:	8b ce                     mov	ecx, esi
  407464:	e8 07 04 00 00            call	407870
  407469:	47                        inc	edi
  40746a:	3b fb                     cmp	edi, ebx
  40746c:	75 f3                     jnz	407461
  40746e:	8b 46 04                 >mov	eax, [esi+04h]
  407471:	50                        push	eax
  407472:	e8 d5 12 00 00            call	40874c
  407477:	33 c0                     xor	eax, eax
  407479:	56                        push	esi
  40747a:	89 46 04                  mov	[esi+04h], eax
  40747d:	89 46 08                  mov	[esi+08h], eax
  407480:	89 46 0c                  mov	[esi+0Ch], eax
  407483:	e8 c4 12 00 00            call	40874c
  407488:	83 c4 08                  add	esp, 08h
  40748b:	33 ff                     xor	edi, edi
  40748d:	89 7d 34                 >mov	[ebp+34h], edi
  407490:	89 7d 34                 >mov	[ebp+34h], edi
  407493:	5f                        pop	edi
  407494:	5e                        pop	esi
  407495:	5d                        pop	ebp
  407496:	5b                        pop	ebx
  407497:	c3                        ret
     ...

4074b0 <no name>:
  4074b0:	8b c1                     mov	eax, ecx
  4074b2:	8b 4c 24 04               mov	ecx, [esp+04h]
  4074b6:	8a 11                     mov	dl, [ecx]
  4074b8:	33 c9                     xor	ecx, ecx
  4074ba:	88 10                     mov	[eax], dl
  4074bc:	89 48 04                  mov	[eax+04h], ecx
  4074bf:	89 48 08                  mov	[eax+08h], ecx
  4074c2:	89 48 0c                  mov	[eax+0Ch], ecx
  4074c5:	c2 04 00                  ret	0004h
     ...

4074d0 <no name>:
  4074d0:	83 ec 08                  sub	esp, 08h
  4074d3:	53                        push	ebx
  4074d4:	55                        push	ebp
  4074d5:	56                        push	esi
  4074d6:	8b f1                     mov	esi, ecx
  4074d8:	57                        push	edi
  4074d9:	8b 7c 24 1c               mov	edi, [esp+1Ch]
  4074dd:	8b 46 08                  mov	eax, [esi+08h]
  4074e0:	8b 4e 0c                  mov	ecx, [esi+0Ch]
  4074e3:	8b 56 04                  mov	edx, [esi+04h]
  4074e6:	8b df                     mov	ebx, edi
  4074e8:	2b c8                     sub	ecx, eax
  4074ea:	2b da                     sub	ebx, edx
  4074ec:	c1 f9 04                  sar	ecx, 04h
  4074ef:	c1 fb 04                  sar	ebx, 04h
  4074f2:	83 f9 01                  cmp	ecx, 01h
  4074f5:	89 5c 24 14               mov	[esp+14h], ebx
  4074f9:	0f 83 ce 00 00 00         jae	4075cd
  4074ff:	85 d2                     test	edx, edx
  407501:	74 0c                     jz	40750f
  407503:	8b c8                     mov	ecx, eax
  407505:	2b ca                     sub	ecx, edx
  407507:	c1 f9 04                  sar	ecx, 04h
  40750a:	83 f9 01                  cmp	ecx, 01h
  40750d:	77 05                     ja	407514
  40750f:	b9 01 00 00 00           >mov	ecx, 00000001h
  407514:	85 d2                    >test	edx, edx
  407516:	75 04                     jnz	40751c
  407518:	33 c0                     xor	eax, eax
  40751a:	eb 05                     jmp	407521
  40751c:	2b c2                    >sub	eax, edx
  40751e:	c1 f8 04                  sar	eax, 04h
  407521:	03 c1                    >add	eax, ecx
  407523:	85 c0                     test	eax, eax
  407525:	89 44 24 1c               mov	[esp+1Ch], eax
  407529:	7d 02                     jge	40752d
  40752b:	33 c0                     xor	eax, eax
  40752d:	c1 e0 04                 >shl	eax, 04h
  407530:	50                        push	eax
  407531:	e8 4a 12 00 00            call	408780	; <??2@YAPAXI@Z>
  407536:	8b 5e 04                  mov	ebx, [esi+04h]
  407539:	83 c4 04                  add	esp, 04h
  40753c:	3b df                     cmp	ebx, edi
  40753e:	89 44 24 10               mov	[esp+10h], eax
  407542:	8b e8                     mov	ebp, eax
  407544:	74 14                     jz	40755a
  407546:	53                       >push	ebx
  407547:	55                        push	ebp
  407548:	e8 13 0c 00 00            call	408160
  40754d:	83 c3 10                  add	ebx, 10h
  407550:	83 c4 08                  add	esp, 08h
  407553:	83 c5 10                  add	ebp, 10h
  407556:	3b df                     cmp	ebx, edi
  407558:	75 ec                     jnz	407546
  40755a:	8b 54 24 20              >mov	edx, [esp+20h]
  40755e:	52                        push	edx
  40755f:	55                        push	ebp
  407560:	e8 fb 0b 00 00            call	408160
  407565:	8b 46 08                  mov	eax, [esi+08h]
  407568:	83 c4 08                  add	esp, 08h
  40756b:	83 c5 10                  add	ebp, 10h
  40756e:	8b ce                     mov	ecx, esi
  407570:	55                        push	ebp
  407571:	50                        push	eax
  407572:	57                        push	edi
  407573:	e8 38 08 00 00            call	407db0
  407578:	8b 4e 08                  mov	ecx, [esi+08h]
  40757b:	8b 56 04                  mov	edx, [esi+04h]
  40757e:	51                        push	ecx
  40757f:	52                        push	edx
  407580:	8b ce                     mov	ecx, esi
  407582:	e8 d9 00 00 00            call	407660
  407587:	8b 46 04                  mov	eax, [esi+04h]
  40758a:	50                        push	eax
  40758b:	e8 bc 11 00 00            call	40874c
  407590:	8b 44 24 20               mov	eax, [esp+20h]
  407594:	8b 7c 24 14               mov	edi, [esp+14h]
  407598:	c1 e0 04                  shl	eax, 04h
  40759b:	03 c7                     add	eax, edi
  40759d:	83 c4 04                  add	esp, 04h
  4075a0:	8b ce                     mov	ecx, esi
  4075a2:	89 46 0c                  mov	[esi+0Ch], eax
  4075a5:	e8 e6 07 00 00            call	407d90
  4075aa:	8b 5c 24 14               mov	ebx, [esp+14h]
  4075ae:	40                        inc	eax
  4075af:	c1 e0 04                  shl	eax, 04h
  4075b2:	03 c7                     add	eax, edi
  4075b4:	89 7e 04                  mov	[esi+04h], edi
  4075b7:	89 46 08                  mov	[esi+08h], eax
  4075ba:	8b c3                     mov	eax, ebx
  4075bc:	8b cf                     mov	ecx, edi
  4075be:	5f                        pop	edi
  4075bf:	c1 e0 04                  shl	eax, 04h
  4075c2:	5e                        pop	esi
  4075c3:	5d                        pop	ebp
  4075c4:	03 c1                     add	eax, ecx
  4075c6:	5b                        pop	ebx
  4075c7:	83 c4 08                  add	esp, 08h
  4075ca:	c2 08 00                  ret	0008h
  4075cd:	8b c8                    >mov	ecx, eax
  4075cf:	2b cf                     sub	ecx, edi
  4075d1:	c1 f9 04                  sar	ecx, 04h
  4075d4:	83 f9 01                  cmp	ecx, 01h
  4075d7:	73 3c                     jae	407615
  4075d9:	8d 57 10                  lea	edx, [edi+10h]
  4075dc:	8b ce                     mov	ecx, esi
  4075de:	52                        push	edx
  4075df:	50                        push	eax
  4075e0:	57                        push	edi
  4075e1:	e8 ca 07 00 00            call	407db0
  4075e6:	8b 46 08                  mov	eax, [esi+08h]
  4075e9:	8b 6c 24 20               mov	ebp, [esp+20h]
  4075ed:	8b c8                     mov	ecx, eax
  4075ef:	ba 01 00 00 00            mov	edx, 00000001h
  4075f4:	2b cf                     sub	ecx, edi
  4075f6:	55                        push	ebp
  4075f7:	c1 f9 04                  sar	ecx, 04h
  4075fa:	2b d1                     sub	edx, ecx
  4075fc:	8b ce                     mov	ecx, esi
  4075fe:	52                        push	edx
  4075ff:	50                        push	eax
  407600:	e8 eb 07 00 00            call	407df0
  407605:	8b 46 08                  mov	eax, [esi+08h]
  407608:	55                        push	ebp
  407609:	50                        push	eax
  40760a:	57                        push	edi
  40760b:	e8 a0 08 00 00            call	407eb0
  407610:	83 c4 0c                  add	esp, 0Ch
  407613:	eb 2d                     jmp	407642
  407615:	50                       >push	eax
  407616:	50                        push	eax
  407617:	83 c0 f0                  add	eax, F0h
  40761a:	8b ce                     mov	ecx, esi
  40761c:	50                        push	eax
  40761d:	e8 8e 07 00 00            call	407db0
  407622:	8b 46 08                  mov	eax, [esi+08h]
  407625:	50                        push	eax
  407626:	83 c0 f0                  add	eax, F0h
  407629:	50                        push	eax
  40762a:	57                        push	edi
  40762b:	e8 d0 09 00 00            call	408000
  407630:	8b 4c 24 2c               mov	ecx, [esp+2Ch]
  407634:	8d 57 10                  lea	edx, [edi+10h]
  407637:	51                        push	ecx
  407638:	52                        push	edx
  407639:	57                        push	edi
  40763a:	e8 71 08 00 00            call	407eb0
  40763f:	83 c4 18                  add	esp, 18h
  407642:	8b 46 08                 >mov	eax, [esi+08h]
  407645:	8b 4e 04                  mov	ecx, [esi+04h]
  407648:	83 c0 10                  add	eax, 10h
  40764b:	5f                        pop	edi
  40764c:	89 46 08                  mov	[esi+08h], eax
  40764f:	8b c3                     mov	eax, ebx
  407651:	c1 e0 04                  shl	eax, 04h
  407654:	5e                        pop	esi
  407655:	5d                        pop	ebp
  407656:	03 c1                     add	eax, ecx
  407658:	5b                        pop	ebx
  407659:	83 c4 08                  add	esp, 08h
  40765c:	c2 08 00                  ret	0008h
     ...

407660 <no name>:
  407660:	56                        push	esi
  407661:	8b 74 24 08               mov	esi, [esp+08h]
  407665:	57                        push	edi
  407666:	8b 7c 24 10               mov	edi, [esp+10h]
  40766a:	3b f7                     cmp	esi, edi
  40766c:	74 38                     jz	4076a6
  40766e:	53                        push	ebx
  40766f:	33 db                     xor	ebx, ebx
  407671:	8b 46 04                 >mov	eax, [esi+04h]
  407674:	3b c3                     cmp	eax, ebx
  407676:	74 1d                     jz	407695
  407678:	8d 48 ff                  lea	ecx, [eax-01h]
  40767b:	8a 40 ff                  mov	al, [eax-01h]
  40767e:	3a c3                     cmp	al, bl
  407680:	74 0a                     jz	40768c
  407682:	3c ff                     cmp	al, FFh
  407684:	74 06                     jz	40768c
  407686:	fe c8                     dec	al
  407688:	88 01                     mov	[ecx], al
  40768a:	eb 09                     jmp	407695
  40768c:	51                       >push	ecx
  40768d:	e8 ba 10 00 00            call	40874c
  407692:	83 c4 04                  add	esp, 04h
  407695:	89 5e 04                 >mov	[esi+04h], ebx
  407698:	89 5e 08                  mov	[esi+08h], ebx
  40769b:	89 5e 0c                  mov	[esi+0Ch], ebx
  40769e:	83 c6 10                  add	esi, 10h
  4076a1:	3b f7                     cmp	esi, edi
  4076a3:	75 cc                     jnz	407671
  4076a5:	5b                        pop	ebx
  4076a6:	5f                       >pop	edi
  4076a7:	5e                        pop	esi
  4076a8:	c2 08 00                  ret	0008h
     ...

4076b0 <no name>:
  4076b0:	83 ec 08                  sub	esp, 08h
  4076b3:	53                        push	ebx
  4076b4:	55                        push	ebp
  4076b5:	56                        push	esi
  4076b6:	8b f1                     mov	esi, ecx
  4076b8:	57                        push	edi
  4076b9:	8b 7c 24 1c               mov	edi, [esp+1Ch]
  4076bd:	8b 46 08                  mov	eax, [esi+08h]
  4076c0:	8b 4e 0c                  mov	ecx, [esi+0Ch]
  4076c3:	8b 56 04                  mov	edx, [esi+04h]
  4076c6:	8b ef                     mov	ebp, edi
  4076c8:	2b c8                     sub	ecx, eax
  4076ca:	2b ea                     sub	ebp, edx
  4076cc:	c1 f9 03                  sar	ecx, 03h
  4076cf:	c1 fd 03                  sar	ebp, 03h
  4076d2:	83 f9 01                  cmp	ecx, 01h
  4076d5:	89 6c 24 14               mov	[esp+14h], ebp
  4076d9:	0f 83 ca 00 00 00         jae	4077a9
  4076df:	85 d2                     test	edx, edx
  4076e1:	74 0c                     jz	4076ef
  4076e3:	8b c8                     mov	ecx, eax
  4076e5:	2b ca                     sub	ecx, edx
  4076e7:	c1 f9 03                  sar	ecx, 03h
  4076ea:	83 f9 01                  cmp	ecx, 01h
  4076ed:	77 05                     ja	4076f4
  4076ef:	b9 01 00 00 00           >mov	ecx, 00000001h
  4076f4:	85 d2                    >test	edx, edx
  4076f6:	75 04                     jnz	4076fc
  4076f8:	33 c0                     xor	eax, eax
  4076fa:	eb 05                     jmp	407701
  4076fc:	2b c2                    >sub	eax, edx
  4076fe:	c1 f8 03                  sar	eax, 03h
  407701:	03 c1                    >add	eax, ecx
  407703:	85 c0                     test	eax, eax
  407705:	89 44 24 10               mov	[esp+10h], eax
  407709:	7d 02                     jge	40770d
  40770b:	33 c0                     xor	eax, eax
  40770d:	8d 14 c5 00 00 00 00     >lea	edx, [eax*8+00000000h]
  407714:	52                        push	edx
  407715:	e8 66 10 00 00            call	408780	; <??2@YAPAXI@Z>
  40771a:	8b 5e 04                  mov	ebx, [esi+04h]
  40771d:	83 c4 04                  add	esp, 04h
  407720:	3b df                     cmp	ebx, edi
  407722:	89 44 24 1c               mov	[esp+1Ch], eax
  407726:	8b e8                     mov	ebp, eax
  407728:	74 14                     jz	40773e
  40772a:	53                       >push	ebx
  40772b:	55                        push	ebp
  40772c:	e8 af 0b 00 00            call	4082e0
  407731:	83 c3 08                  add	ebx, 08h
  407734:	83 c4 08                  add	esp, 08h
  407737:	83 c5 08                  add	ebp, 08h
  40773a:	3b df                     cmp	ebx, edi
  40773c:	75 ec                     jnz	40772a
  40773e:	8b 44 24 20              >mov	eax, [esp+20h]
  407742:	50                        push	eax
  407743:	55                        push	ebp
  407744:	e8 97 0b 00 00            call	4082e0
  407749:	8b 4e 08                  mov	ecx, [esi+08h]
  40774c:	83 c4 08                  add	esp, 08h
  40774f:	83 c5 08                  add	ebp, 08h
  407752:	55                        push	ebp
  407753:	51                        push	ecx
  407754:	57                        push	edi
  407755:	8b ce                     mov	ecx, esi
  407757:	e8 e4 06 00 00            call	407e40
  40775c:	8b 56 08                  mov	edx, [esi+08h]
  40775f:	8b 46 04                  mov	eax, [esi+04h]
  407762:	52                        push	edx
  407763:	50                        push	eax
  407764:	8b ce                     mov	ecx, esi
  407766:	e8 f5 00 00 00            call	407860
  40776b:	8b 4e 04                  mov	ecx, [esi+04h]
  40776e:	51                        push	ecx
  40776f:	e8 d8 0f 00 00            call	40874c
  407774:	8b 7c 24 20               mov	edi, [esp+20h]
  407778:	8b 54 24 14               mov	edx, [esp+14h]
  40777c:	83 c4 04                  add	esp, 04h
  40777f:	8b ce                     mov	ecx, esi
  407781:	8d 04 d7                  lea	eax, [edi+edx*8]
  407784:	89 46 0c                  mov	[esi+0Ch], eax
  407787:	e8 94 06 00 00            call	407e20
  40778c:	8b 6c 24 14               mov	ebp, [esp+14h]
  407790:	8d 4c c7 08               lea	ecx, [edi+eax*8+08h]
  407794:	8b c7                     mov	eax, edi
  407796:	89 7e 04                  mov	[esi+04h], edi
  407799:	89 4e 08                  mov	[esi+08h], ecx
  40779c:	5f                        pop	edi
  40779d:	8d 04 e8                  lea	eax, [eax+ebp*8]
  4077a0:	5e                        pop	esi
  4077a1:	5d                        pop	ebp
  4077a2:	5b                        pop	ebx
  4077a3:	83 c4 08                  add	esp, 08h
  4077a6:	c2 08 00                  ret	0008h
  4077a9:	8b d0                    >mov	edx, eax
  4077ab:	2b d7                     sub	edx, edi
  4077ad:	c1 fa 03                  sar	edx, 03h
  4077b0:	83 fa 01                  cmp	edx, 01h
  4077b3:	73 48                     jae	4077fd
  4077b5:	8d 4f 08                  lea	ecx, [edi+08h]
  4077b8:	51                        push	ecx
  4077b9:	50                        push	eax
  4077ba:	57                        push	edi
  4077bb:	8b ce                     mov	ecx, esi
  4077bd:	e8 7e 06 00 00            call	407e40
  4077c2:	8b 46 08                  mov	eax, [esi+08h]
  4077c5:	8b 5c 24 20               mov	ebx, [esp+20h]
  4077c9:	8b d0                     mov	edx, eax
  4077cb:	b9 01 00 00 00            mov	ecx, 00000001h
  4077d0:	2b d7                     sub	edx, edi
  4077d2:	53                        push	ebx
  4077d3:	c1 fa 03                  sar	edx, 03h
  4077d6:	2b ca                     sub	ecx, edx
  4077d8:	51                        push	ecx
  4077d9:	50                        push	eax
  4077da:	8b ce                     mov	ecx, esi
  4077dc:	e8 9f 06 00 00            call	407e80
  4077e1:	8b 4e 08                  mov	ecx, [esi+08h]
  4077e4:	8b c7                     mov	eax, edi
  4077e6:	3b f9                     cmp	edi, ecx
  4077e8:	74 5d                     jz	407847
  4077ea:	8b 13                    >mov	edx, [ebx]
  4077ec:	89 10                     mov	[eax], edx
  4077ee:	8b 53 04                  mov	edx, [ebx+04h]
  4077f1:	89 50 04                  mov	[eax+04h], edx
  4077f4:	83 c0 08                  add	eax, 08h
  4077f7:	3b c1                     cmp	eax, ecx
  4077f9:	75 ef                     jnz	4077ea
  4077fb:	eb 4a                     jmp	407847
  4077fd:	50                       >push	eax
  4077fe:	50                        push	eax
  4077ff:	83 c0 f8                  add	eax, F8h
  407802:	8b ce                     mov	ecx, esi
  407804:	50                        push	eax
  407805:	e8 36 06 00 00            call	407e40
  40780a:	8b 4e 08                  mov	ecx, [esi+08h]
  40780d:	8d 41 f8                  lea	eax, [ecx-08h]
  407810:	3b f8                     cmp	edi, eax
  407812:	74 15                     jz	407829
  407814:	8b 50 f8                 >mov	edx, [eax-08h]
  407817:	83 e8 08                  sub	eax, 08h
  40781a:	83 e9 08                  sub	ecx, 08h
  40781d:	3b c7                     cmp	eax, edi
  40781f:	89 11                     mov	[ecx], edx
  407821:	8b 50 04                  mov	edx, [eax+04h]
  407824:	89 51 04                  mov	[ecx+04h], edx
  407827:	75 eb                     jnz	407814
  407829:	8d 57 08                 >lea	edx, [edi+08h]
  40782c:	8b c7                     mov	eax, edi
  40782e:	3b fa                     cmp	edi, edx
  407830:	74 15                     jz	407847
  407832:	8b 4c 24 20               mov	ecx, [esp+20h]
  407836:	8b 39                    >mov	edi, [ecx]
  407838:	89 38                     mov	[eax], edi
  40783a:	8b 79 04                  mov	edi, [ecx+04h]
  40783d:	89 78 04                  mov	[eax+04h], edi
  407840:	83 c0 08                  add	eax, 08h
  407843:	3b c2                     cmp	eax, edx
  407845:	75 ef                     jnz	407836
  407847:	8b 46 08                 >mov	eax, [esi+08h]
  40784a:	5f                        pop	edi
  40784b:	83 c0 08                  add	eax, 08h
  40784e:	89 46 08                  mov	[esi+08h], eax
  407851:	8b 46 04                  mov	eax, [esi+04h]
  407854:	5e                        pop	esi
  407855:	8d 04 e8                  lea	eax, [eax+ebp*8]
  407858:	5d                        pop	ebp
  407859:	5b                        pop	ebx
  40785a:	83 c4 08                  add	esp, 08h
  40785d:	c2 08 00                  ret	0008h

407860 <no name>:
  407860:	c2 08 00                  ret	0008h
     ...

407870 <no name>:
  407870:	c2 04 00                  ret	0004h
     ...

407880 <no name>:
  407880:	83 ec 0c                  sub	esp, 0Ch
  407883:	8b 41 0c                  mov	eax, [ecx+0Ch]
  407886:	53                        push	ebx
  407887:	55                        push	ebp
  407888:	56                        push	esi
  407889:	8b 71 08                  mov	esi, [ecx+08h]
  40788c:	57                        push	edi
  40788d:	8b 7c 24 24               mov	edi, [esp+24h]
  407891:	2b c6                     sub	eax, esi
  407893:	c1 f8 04                  sar	eax, 04h
  407896:	3b c7                     cmp	eax, edi
  407898:	89 4c 24 10               mov	[esp+10h], ecx
  40789c:	0f 83 39 01 00 00         jae	4079db
  4078a2:	8b 49 04                  mov	ecx, [ecx+04h]
  4078a5:	85 c9                     test	ecx, ecx
  4078a7:	74 0b                     jz	4078b4
  4078a9:	8b c6                     mov	eax, esi
  4078ab:	2b c1                     sub	eax, ecx
  4078ad:	c1 f8 04                  sar	eax, 04h
  4078b0:	3b f8                     cmp	edi, eax
  4078b2:	72 02                     jb	4078b6
  4078b4:	8b c7                    >mov	eax, edi
  4078b6:	85 c9                    >test	ecx, ecx
  4078b8:	75 04                     jnz	4078be
  4078ba:	33 f6                     xor	esi, esi
  4078bc:	eb 05                     jmp	4078c3
  4078be:	2b f1                    >sub	esi, ecx
  4078c0:	c1 fe 04                  sar	esi, 04h
  4078c3:	03 c6                    >add	eax, esi
  4078c5:	85 c0                     test	eax, eax
  4078c7:	89 44 24 14               mov	[esp+14h], eax
  4078cb:	7d 02                     jge	4078cf
  4078cd:	33 c0                     xor	eax, eax
  4078cf:	c1 e0 04                 >shl	eax, 04h
  4078d2:	50                        push	eax
  4078d3:	e8 a8 0e 00 00            call	408780	; <??2@YAPAXI@Z>
  4078d8:	8b 6c 24 14               mov	ebp, [esp+14h]
  4078dc:	89 44 24 1c               mov	[esp+1Ch], eax
  4078e0:	8b d8                     mov	ebx, eax
  4078e2:	8b 44 24 24               mov	eax, [esp+24h]
  4078e6:	8b 75 04                  mov	esi, [ebp+04h]
  4078e9:	83 c4 04                  add	esp, 04h
  4078ec:	3b f0                     cmp	esi, eax
  4078ee:	74 18                     jz	407908
  4078f0:	56                       >push	esi
  4078f1:	53                        push	ebx
  4078f2:	e8 69 08 00 00            call	408160
  4078f7:	8b 44 24 28               mov	eax, [esp+28h]
  4078fb:	83 c6 10                  add	esi, 10h
  4078fe:	83 c4 08                  add	esp, 08h
  407901:	83 c3 10                  add	ebx, 10h
  407904:	3b f0                     cmp	esi, eax
  407906:	75 e8                     jnz	4078f0
  407908:	85 ff                    >test	edi, edi
  40790a:	8b f3                     mov	esi, ebx
  40790c:	76 20                     jbe	40792e
  40790e:	89 7c 24 24               mov	[esp+24h], edi
  407912:	8b 4c 24 28              >mov	ecx, [esp+28h]
  407916:	51                        push	ecx
  407917:	56                        push	esi
  407918:	e8 43 08 00 00            call	408160
  40791d:	8b 44 24 2c               mov	eax, [esp+2Ch]
  407921:	83 c4 08                  add	esp, 08h
  407924:	83 c6 10                  add	esi, 10h
  407927:	48                        dec	eax
  407928:	89 44 24 24               mov	[esp+24h], eax
  40792c:	75 e4                     jnz	407912
  40792e:	8b 74 24 20              >mov	esi, [esp+20h]
  407932:	8b d7                     mov	edx, edi
  407934:	c1 e2 04                  shl	edx, 04h
  407937:	8d 04 1a                  lea	eax, [edx+ebx*1]
  40793a:	8b 5d 08                  mov	ebx, [ebp+08h]
  40793d:	3b f3                     cmp	esi, ebx
  40793f:	74 24                     jz	407965
  407941:	89 44 24 20               mov	[esp+20h], eax
  407945:	8b 44 24 20              >mov	eax, [esp+20h]
  407949:	56                        push	esi
  40794a:	50                        push	eax
  40794b:	e8 10 08 00 00            call	408160
  407950:	8b 4c 24 28               mov	ecx, [esp+28h]
  407954:	83 c6 10                  add	esi, 10h
  407957:	83 c4 08                  add	esp, 08h
  40795a:	83 c1 10                  add	ecx, 10h
  40795d:	3b f3                     cmp	esi, ebx
  40795f:	89 4c 24 20               mov	[esp+20h], ecx
  407963:	75 e0                     jnz	407945
  407965:	8b 5d 08                 >mov	ebx, [ebp+08h]
  407968:	8b 75 04                  mov	esi, [ebp+04h]
  40796b:	3b f3                     cmp	esi, ebx
  40796d:	74 11                     jz	407980
  40796f:	6a 01                    >push	dword 00000001h
  407971:	8b ce                     mov	ecx, esi
  407973:	ff 15 54 a0 40 00         call	dword [0040A054h]	; <?_Tidy@?$basic_string@DU?$char_traits@D@std@@V?$allocator@D@2@@std@@AAEX_N@Z>
  407979:	83 c6 10                  add	esi, 10h
  40797c:	3b f3                     cmp	esi, ebx
  40797e:	75 ef                     jnz	40796f
  407980:	8b 4d 04                 >mov	ecx, [ebp+04h]
  407983:	51                        push	ecx
  407984:	e8 c3 0d 00 00            call	40874c
  407989:	8b 44 24 18               mov	eax, [esp+18h]
  40798d:	8b 54 24 1c               mov	edx, [esp+1Ch]
  407991:	8b 4d 04                  mov	ecx, [ebp+04h]
  407994:	83 c4 04                  add	esp, 04h
  407997:	c1 e0 04                  shl	eax, 04h
  40799a:	03 c2                     add	eax, edx
  40799c:	85 c9                     test	ecx, ecx
  40799e:	89 45 0c                  mov	[ebp+0Ch], eax
  4079a1:	75 19                     jnz	4079bc
  4079a3:	33 c0                     xor	eax, eax
  4079a5:	89 55 04                  mov	[ebp+04h], edx
  4079a8:	8b c7                     mov	eax, edi
  4079aa:	5f                        pop	edi
  4079ab:	c1 e0 04                  shl	eax, 04h
  4079ae:	03 c2                     add	eax, edx
  4079b0:	5e                        pop	esi
  4079b1:	89 45 08                  mov	[ebp+08h], eax
  4079b4:	5d                        pop	ebp
  4079b5:	5b                        pop	ebx
  4079b6:	83 c4 0c                  add	esp, 0Ch
  4079b9:	c2 0c 00                  ret	000Ch
  4079bc:	8b 45 08                 >mov	eax, [ebp+08h]
  4079bf:	89 55 04                  mov	[ebp+04h], edx
  4079c2:	2b c1                     sub	eax, ecx
  4079c4:	c1 f8 04                  sar	eax, 04h
  4079c7:	03 c7                     add	eax, edi
  4079c9:	5f                        pop	edi
  4079ca:	c1 e0 04                  shl	eax, 04h
  4079cd:	03 c2                     add	eax, edx
  4079cf:	5e                        pop	esi
  4079d0:	89 45 08                  mov	[ebp+08h], eax
  4079d3:	5d                        pop	ebp
  4079d4:	5b                        pop	ebx
  4079d5:	83 c4 0c                  add	esp, 0Ch
  4079d8:	c2 0c 00                  ret	000Ch
  4079db:	8b 5c 24 20              >mov	ebx, [esp+20h]
  4079df:	8b d6                     mov	edx, esi
  4079e1:	2b d3                     sub	edx, ebx
  4079e3:	c1 fa 04                  sar	edx, 04h
  4079e6:	3b d7                     cmp	edx, edi
  4079e8:	0f 83 a9 00 00 00         jae	407a97
  4079ee:	8b c7                     mov	eax, edi
  4079f0:	8b eb                     mov	ebp, ebx
  4079f2:	c1 e0 04                  shl	eax, 04h
  4079f5:	3b de                     cmp	ebx, esi
  4079f7:	89 44 24 20               mov	[esp+20h], eax
  4079fb:	8d 14 18                  lea	edx, [eax+ebx*1]
  4079fe:	74 2c                     jz	407a2c
  407a00:	89 54 24 24               mov	[esp+24h], edx
  407a04:	8b 44 24 24              >mov	eax, [esp+24h]
  407a08:	55                        push	ebp
  407a09:	50                        push	eax
  407a0a:	e8 51 07 00 00            call	408160
  407a0f:	8b 4c 24 2c               mov	ecx, [esp+2Ch]
  407a13:	83 c5 10                  add	ebp, 10h
  407a16:	83 c4 08                  add	esp, 08h
  407a19:	83 c1 10                  add	ecx, 10h
  407a1c:	3b ee                     cmp	ebp, esi
  407a1e:	89 4c 24 24               mov	[esp+24h], ecx
  407a22:	75 e0                     jnz	407a04
  407a24:	8b 44 24 20               mov	eax, [esp+20h]
  407a28:	8b 4c 24 10               mov	ecx, [esp+10h]
  407a2c:	8b 71 08                 >mov	esi, [ecx+08h]
  407a2f:	8b 6c 24 28               mov	ebp, [esp+28h]
  407a33:	8b d6                     mov	edx, esi
  407a35:	2b d3                     sub	edx, ebx
  407a37:	c1 fa 04                  sar	edx, 04h
  407a3a:	2b fa                     sub	edi, edx
  407a3c:	74 18                     jz	407a56
  407a3e:	55                       >push	ebp
  407a3f:	56                        push	esi
  407a40:	e8 1b 07 00 00            call	408160
  407a45:	83 c4 08                  add	esp, 08h
  407a48:	83 c6 10                  add	esi, 10h
  407a4b:	4f                        dec	edi
  407a4c:	75 f0                     jnz	407a3e
  407a4e:	8b 44 24 20               mov	eax, [esp+20h]
  407a52:	8b 4c 24 10               mov	ecx, [esp+10h]
  407a56:	8b 79 08                 >mov	edi, [ecx+08h]
  407a59:	8b f3                     mov	esi, ebx
  407a5b:	3b df                     cmp	ebx, edi
  407a5d:	0f 84 cc 00 00 00         jz	407b2f
  407a63:	a1 84 a0 40 00           >mov	eax, [40A084h]
  407a68:	8b 08                     mov	ecx, [eax]
  407a6a:	51                        push	ecx
  407a6b:	6a 00                     push	dword 00000000h
  407a6d:	55                        push	ebp
  407a6e:	8b ce                     mov	ecx, esi
  407a70:	ff 15 88 a0 40 00         call	dword [0040A088h]	; <?assign@?$basic_string@DU?$char_traits@D@std@@V?$allocator@D@2@@std@@QAEAAV12@ABV12@II@Z>
  407a76:	83 c6 10                  add	esi, 10h
  407a79:	3b f7                     cmp	esi, edi
  407a7b:	75 e6                     jnz	407a63
  407a7d:	8b 4c 24 10               mov	ecx, [esp+10h]
  407a81:	8b 44 24 20               mov	eax, [esp+20h]
  407a85:	5f                        pop	edi
  407a86:	5e                        pop	esi
  407a87:	8b 51 08                  mov	edx, [ecx+08h]
  407a8a:	5d                        pop	ebp
  407a8b:	03 d0                     add	edx, eax
  407a8d:	5b                        pop	ebx
  407a8e:	89 51 08                  mov	[ecx+08h], edx
  407a91:	83 c4 0c                  add	esp, 0Ch
  407a94:	c2 0c 00                  ret	000Ch
  407a97:	85 ff                    >test	edi, edi
  407a99:	0f 86 93 00 00 00         jbe	407b32
  407a9f:	c1 e7 04                  shl	edi, 04h
  407aa2:	8b c7                     mov	eax, edi
  407aa4:	8b fe                     mov	edi, esi
  407aa6:	2b f8                     sub	edi, eax
  407aa8:	8b ee                     mov	ebp, esi
  407aaa:	3b fe                     cmp	edi, esi
  407aac:	89 44 24 20               mov	[esp+20h], eax
  407ab0:	74 1c                     jz	407ace
  407ab2:	57                       >push	edi
  407ab3:	55                        push	ebp
  407ab4:	e8 a7 06 00 00            call	408160
  407ab9:	83 c7 10                  add	edi, 10h
  407abc:	83 c4 08                  add	esp, 08h
  407abf:	83 c5 10                  add	ebp, 10h
  407ac2:	3b fe                     cmp	edi, esi
  407ac4:	75 ec                     jnz	407ab2
  407ac6:	8b 4c 24 10               mov	ecx, [esp+10h]
  407aca:	8b 44 24 20               mov	eax, [esp+20h]
  407ace:	8b 79 08                 >mov	edi, [ecx+08h]
  407ad1:	8b f7                     mov	esi, edi
  407ad3:	2b f0                     sub	esi, eax
  407ad5:	3b de                     cmp	ebx, esi
  407ad7:	74 26                     jz	407aff
  407ad9:	8b 15 84 a0 40 00        >mov	edx, [0040A084h]
  407adf:	83 ee 10                  sub	esi, 10h
  407ae2:	83 ef 10                  sub	edi, 10h
  407ae5:	8b 02                     mov	eax, [edx]
  407ae7:	8b cf                     mov	ecx, edi
  407ae9:	50                        push	eax
  407aea:	6a 00                     push	dword 00000000h
  407aec:	56                        push	esi
  407aed:	ff 15 88 a0 40 00         call	dword [0040A088h]	; <?assign@?$basic_string@DU?$char_traits@D@std@@V?$allocator@D@2@@std@@QAEAAV12@ABV12@II@Z>
  407af3:	3b f3                     cmp	esi, ebx
  407af5:	75 e2                     jnz	407ad9
  407af7:	8b 4c 24 10               mov	ecx, [esp+10h]
  407afb:	8b 44 24 20               mov	eax, [esp+20h]
  407aff:	8d 3c 18                 >lea	edi, [eax+ebx*1]
  407b02:	8b f3                     mov	esi, ebx
  407b04:	3b df                     cmp	ebx, edi
  407b06:	74 27                     jz	407b2f
  407b08:	8b 5c 24 28               mov	ebx, [esp+28h]
  407b0c:	8b 0d 84 a0 40 00        >mov	ecx, [0040A084h]
  407b12:	8b 11                     mov	edx, [ecx]
  407b14:	8b ce                     mov	ecx, esi
  407b16:	52                        push	edx
  407b17:	6a 00                     push	dword 00000000h
  407b19:	53                        push	ebx
  407b1a:	ff 15 88 a0 40 00         call	dword [0040A088h]	; <?assign@?$basic_string@DU?$char_traits@D@std@@V?$allocator@D@2@@std@@QAEAAV12@ABV12@II@Z>
  407b20:	83 c6 10                  add	esi, 10h
  407b23:	3b f7                     cmp	esi, edi
  407b25:	75 e5                     jnz	407b0c
  407b27:	8b 4c 24 10               mov	ecx, [esp+10h]
  407b2b:	8b 44 24 20               mov	eax, [esp+20h]
  407b2f:	01 41 08                 >add	[ecx+08h], eax
  407b32:	5f                       >pop	edi
  407b33:	5e                        pop	esi
  407b34:	5d                        pop	ebp
  407b35:	5b                        pop	ebx
  407b36:	83 c4 0c                  add	esp, 0Ch
  407b39:	c2 0c 00                  ret	000Ch
     ...

407b40 <no name>:
  407b40:	83 ec 08                  sub	esp, 08h
  407b43:	53                        push	ebx
  407b44:	55                        push	ebp
  407b45:	56                        push	esi
  407b46:	57                        push	edi
  407b47:	8b 6c 24 20               mov	ebp, [esp+20h]
  407b4b:	8b f9                     mov	edi, ecx
  407b4d:	89 7c 24 10               mov	[esp+10h], edi
  407b51:	8b 47 08                  mov	eax, [edi+08h]
  407b54:	8b 4f 0c                  mov	ecx, [edi+0Ch]
  407b57:	2b c8                     sub	ecx, eax
  407b59:	c1 f9 03                  sar	ecx, 03h
  407b5c:	3b cd                     cmp	ecx, ebp
  407b5e:	0f 83 18 01 00 00         jae	407c7c
  407b64:	8b 57 04                  mov	edx, [edi+04h]
  407b67:	85 d2                     test	edx, edx
  407b69:	74 0b                     jz	407b76
  407b6b:	8b c8                     mov	ecx, eax
  407b6d:	2b ca                     sub	ecx, edx
  407b6f:	c1 f9 03                  sar	ecx, 03h
  407b72:	3b e9                     cmp	ebp, ecx
  407b74:	72 02                     jb	407b78
  407b76:	8b cd                    >mov	ecx, ebp
  407b78:	85 d2                    >test	edx, edx
  407b7a:	75 04                     jnz	407b80
  407b7c:	33 c0                     xor	eax, eax
  407b7e:	eb 05                     jmp	407b85
  407b80:	2b c2                    >sub	eax, edx
  407b82:	c1 f8 03                  sar	eax, 03h
  407b85:	03 c1                    >add	eax, ecx
  407b87:	85 c0                     test	eax, eax
  407b89:	89 44 24 14               mov	[esp+14h], eax
  407b8d:	7d 02                     jge	407b91
  407b8f:	33 c0                     xor	eax, eax
  407b91:	8d 14 c5 00 00 00 00     >lea	edx, [eax*8+00000000h]
  407b98:	52                        push	edx
  407b99:	e8 e2 0b 00 00            call	408780	; <??2@YAPAXI@Z>
  407b9e:	8b 5c 24 20               mov	ebx, [esp+20h]
  407ba2:	89 44 24 24               mov	[esp+24h], eax
  407ba6:	8b c8                     mov	ecx, eax
  407ba8:	8b 47 04                  mov	eax, [edi+04h]
  407bab:	83 c4 04                  add	esp, 04h
  407bae:	3b c3                     cmp	eax, ebx
  407bb0:	74 18                     jz	407bca
  407bb2:	85 c9                    >test	ecx, ecx
  407bb4:	74 0a                     jz	407bc0
  407bb6:	8b 10                     mov	edx, [eax]
  407bb8:	89 11                     mov	[ecx], edx
  407bba:	8b 50 04                  mov	edx, [eax+04h]
  407bbd:	89 51 04                  mov	[ecx+04h], edx
  407bc0:	83 c0 08                 >add	eax, 08h
  407bc3:	83 c1 08                  add	ecx, 08h
  407bc6:	3b c3                     cmp	eax, ebx
  407bc8:	75 e8                     jnz	407bb2
  407bca:	85 ed                    >test	ebp, ebp
  407bcc:	8b c1                     mov	eax, ecx
  407bce:	76 1e                     jbe	407bee
  407bd0:	8b 74 24 24               mov	esi, [esp+24h]
  407bd4:	8b d5                     mov	edx, ebp
  407bd6:	85 c0                    >test	eax, eax
  407bd8:	74 0e                     jz	407be8
  407bda:	8b 3e                     mov	edi, [esi]
  407bdc:	89 38                     mov	[eax], edi
  407bde:	8b 7e 04                  mov	edi, [esi+04h]
  407be1:	89 78 04                  mov	[eax+04h], edi
  407be4:	8b 7c 24 10               mov	edi, [esp+10h]
  407be8:	83 c0 08                 >add	eax, 08h
  407beb:	4a                        dec	edx
  407bec:	75 e8                     jnz	407bd6
  407bee:	8b 7f 08                 >mov	edi, [edi+08h]
  407bf1:	8d 34 ed 00 00 00 00      lea	esi, [ebp*8+00000000h]
  407bf8:	3b df                     cmp	ebx, edi
  407bfa:	8d 14 0e                  lea	edx, [esi+ecx*1]
  407bfd:	74 20                     jz	407c1f
  407bff:	8b c2                     mov	eax, edx
  407c01:	2b c6                     sub	eax, esi
  407c03:	2b c1                     sub	eax, ecx
  407c05:	03 c3                     add	eax, ebx
  407c07:	85 d2                    >test	edx, edx
  407c09:	74 0a                     jz	407c15
  407c0b:	8b 08                     mov	ecx, [eax]
  407c0d:	89 0a                     mov	[edx], ecx
  407c0f:	8b 48 04                  mov	ecx, [eax+04h]
  407c12:	89 4a 04                  mov	[edx+04h], ecx
  407c15:	83 c0 08                 >add	eax, 08h
  407c18:	83 c2 08                  add	edx, 08h
  407c1b:	3b c7                     cmp	eax, edi
  407c1d:	75 e8                     jnz	407c07
  407c1f:	8b 74 24 10              >mov	esi, [esp+10h]
  407c23:	8b 46 04                  mov	eax, [esi+04h]
  407c26:	50                        push	eax
  407c27:	89 44 24 28               mov	[esp+28h], eax
  407c2b:	e8 1c 0b 00 00            call	40874c
  407c30:	8b 54 24 24               mov	edx, [esp+24h]
  407c34:	8b 44 24 18               mov	eax, [esp+18h]
  407c38:	83 c4 04                  add	esp, 04h
  407c3b:	8d 0c c2                  lea	ecx, [edx+eax*8]
  407c3e:	89 4e 0c                  mov	[esi+0Ch], ecx
  407c41:	8b 4e 04                  mov	ecx, [esi+04h]
  407c44:	85 c9                     test	ecx, ecx
  407c46:	75 17                     jnz	407c5f
  407c48:	33 c0                     xor	eax, eax
  407c4a:	89 56 04                  mov	[esi+04h], edx
  407c4d:	8b c5                     mov	eax, ebp
  407c4f:	5f                        pop	edi
  407c50:	8d 04 c2                  lea	eax, [edx+eax*8]
  407c53:	89 46 08                  mov	[esi+08h], eax
  407c56:	5e                        pop	esi
  407c57:	5d                        pop	ebp
  407c58:	5b                        pop	ebx
  407c59:	83 c4 08                  add	esp, 08h
  407c5c:	c2 0c 00                  ret	000Ch
  407c5f:	8b 46 08                 >mov	eax, [esi+08h]
  407c62:	89 56 04                  mov	[esi+04h], edx
  407c65:	2b c1                     sub	eax, ecx
  407c67:	5f                        pop	edi
  407c68:	c1 f8 03                  sar	eax, 03h
  407c6b:	03 c5                     add	eax, ebp
  407c6d:	8d 04 c2                  lea	eax, [edx+eax*8]
  407c70:	89 46 08                  mov	[esi+08h], eax
  407c73:	5e                        pop	esi
  407c74:	5d                        pop	ebp
  407c75:	5b                        pop	ebx
  407c76:	83 c4 08                  add	esp, 08h
  407c79:	c2 0c 00                  ret	000Ch
  407c7c:	8b 74 24 1c              >mov	esi, [esp+1Ch]
  407c80:	8b c8                     mov	ecx, eax
  407c82:	2b ce                     sub	ecx, esi
  407c84:	c1 f9 03                  sar	ecx, 03h
  407c87:	3b cd                     cmp	ecx, ebp
  407c89:	0f 83 80 00 00 00         jae	407d0f
  407c8f:	8d 1c ed 00 00 00 00      lea	ebx, [ebp*8+00000000h]
  407c96:	3b f0                     cmp	esi, eax
  407c98:	8d 14 33                  lea	edx, [ebx+esi*1]
  407c9b:	74 20                     jz	407cbd
  407c9d:	8b ca                     mov	ecx, edx
  407c9f:	2b cb                     sub	ecx, ebx
  407ca1:	85 d2                    >test	edx, edx
  407ca3:	74 0e                     jz	407cb3
  407ca5:	8b 39                     mov	edi, [ecx]
  407ca7:	89 3a                     mov	[edx], edi
  407ca9:	8b 79 04                  mov	edi, [ecx+04h]
  407cac:	89 7a 04                  mov	[edx+04h], edi
  407caf:	8b 7c 24 10               mov	edi, [esp+10h]
  407cb3:	83 c1 08                 >add	ecx, 08h
  407cb6:	83 c2 08                  add	edx, 08h
  407cb9:	3b c8                     cmp	ecx, eax
  407cbb:	75 e4                     jnz	407ca1
  407cbd:	8b 47 08                 >mov	eax, [edi+08h]
  407cc0:	8b d0                     mov	edx, eax
  407cc2:	2b d6                     sub	edx, esi
  407cc4:	c1 fa 03                  sar	edx, 03h
  407cc7:	2b ea                     sub	ebp, edx
  407cc9:	8b 54 24 24               mov	edx, [esp+24h]
  407ccd:	74 14                     jz	407ce3
  407ccf:	85 c0                    >test	eax, eax
  407cd1:	74 0a                     jz	407cdd
  407cd3:	8b 0a                     mov	ecx, [edx]
  407cd5:	89 08                     mov	[eax], ecx
  407cd7:	8b 4a 04                  mov	ecx, [edx+04h]
  407cda:	89 48 04                  mov	[eax+04h], ecx
  407cdd:	83 c0 08                 >add	eax, 08h
  407ce0:	4d                        dec	ebp
  407ce1:	75 ec                     jnz	407ccf
  407ce3:	8b 4f 08                 >mov	ecx, [edi+08h]
  407ce6:	8b c6                     mov	eax, esi
  407ce8:	3b f1                     cmp	esi, ecx
  407cea:	74 11                     jz	407cfd
  407cec:	8b 32                    >mov	esi, [edx]
  407cee:	89 30                     mov	[eax], esi
  407cf0:	8b 72 04                  mov	esi, [edx+04h]
  407cf3:	89 70 04                  mov	[eax+04h], esi
  407cf6:	83 c0 08                  add	eax, 08h
  407cf9:	3b c1                     cmp	eax, ecx
  407cfb:	75 ef                     jnz	407cec
  407cfd:	8b 47 08                 >mov	eax, [edi+08h]
  407d00:	03 c3                     add	eax, ebx
  407d02:	89 47 08                  mov	[edi+08h], eax
  407d05:	5f                        pop	edi
  407d06:	5e                        pop	esi
  407d07:	5d                        pop	ebp
  407d08:	5b                        pop	ebx
  407d09:	83 c4 08                  add	esp, 08h
  407d0c:	c2 0c 00                  ret	000Ch
  407d0f:	85 ed                    >test	ebp, ebp
  407d11:	76 66                     jbe	407d79
  407d13:	c1 e5 03                  shl	ebp, 03h
  407d16:	8b c8                     mov	ecx, eax
  407d18:	8b d0                     mov	edx, eax
  407d1a:	2b cd                     sub	ecx, ebp
  407d1c:	3b c8                     cmp	ecx, eax
  407d1e:	74 18                     jz	407d38
  407d20:	85 d2                    >test	edx, edx
  407d22:	74 0a                     jz	407d2e
  407d24:	8b 19                     mov	ebx, [ecx]
  407d26:	89 1a                     mov	[edx], ebx
  407d28:	8b 59 04                  mov	ebx, [ecx+04h]
  407d2b:	89 5a 04                  mov	[edx+04h], ebx
  407d2e:	83 c1 08                 >add	ecx, 08h
  407d31:	83 c2 08                  add	edx, 08h
  407d34:	3b c8                     cmp	ecx, eax
  407d36:	75 e8                     jnz	407d20
  407d38:	8b 4f 08                 >mov	ecx, [edi+08h]
  407d3b:	8b c1                     mov	eax, ecx
  407d3d:	2b c5                     sub	eax, ebp
  407d3f:	3b f0                     cmp	esi, eax
  407d41:	74 15                     jz	407d58
  407d43:	8b 50 f8                 >mov	edx, [eax-08h]
  407d46:	83 e8 08                  sub	eax, 08h
  407d49:	83 e9 08                  sub	ecx, 08h
  407d4c:	3b c6                     cmp	eax, esi
  407d4e:	89 11                     mov	[ecx], edx
  407d50:	8b 50 04                  mov	edx, [eax+04h]
  407d53:	89 51 04                  mov	[ecx+04h], edx
  407d56:	75 eb                     jnz	407d43
  407d58:	8d 14 2e                 >lea	edx, [esi+ebp*1]
  407d5b:	8b c6                     mov	eax, esi
  407d5d:	3b f2                     cmp	esi, edx
  407d5f:	74 15                     jz	407d76
  407d61:	8b 4c 24 24               mov	ecx, [esp+24h]
  407d65:	8b 31                    >mov	esi, [ecx]
  407d67:	89 30                     mov	[eax], esi
  407d69:	8b 71 04                  mov	esi, [ecx+04h]
  407d6c:	89 70 04                  mov	[eax+04h], esi
  407d6f:	83 c0 08                  add	eax, 08h
  407d72:	3b c2                     cmp	eax, edx
  407d74:	75 ef                     jnz	407d65
  407d76:	01 6f 08                 >add	[edi+08h], ebp
  407d79:	5f                       >pop	edi
  407d7a:	5e                        pop	esi
  407d7b:	5d                        pop	ebp
  407d7c:	5b                        pop	ebx
  407d7d:	83 c4 08                  add	esp, 08h
  407d80:	c2 0c 00                  ret	000Ch
     ...

407d90 <no name>:
  407d90:	8b 51 04                  mov	edx, [ecx+04h]
  407d93:	85 d2                     test	edx, edx
  407d95:	75 03                     jnz	407d9a
  407d97:	33 c0                     xor	eax, eax
  407d99:	c3                        ret
  407d9a:	8b 41 08                 >mov	eax, [ecx+08h]
  407d9d:	2b c2                     sub	eax, edx
  407d9f:	c1 f8 04                  sar	eax, 04h
  407da2:	c3                        ret
     ...

407db0 <no name>:
  407db0:	53                        push	ebx
  407db1:	8b 5c 24 0c               mov	ebx, [esp+0Ch]
  407db5:	56                        push	esi
  407db6:	8b 74 24 0c               mov	esi, [esp+0Ch]
  407dba:	3b f3                     cmp	esi, ebx
  407dbc:	74 21                     jz	407ddf
  407dbe:	57                        push	edi
  407dbf:	8b 7c 24 18               mov	edi, [esp+18h]
  407dc3:	56                       >push	esi
  407dc4:	57                        push	edi
  407dc5:	e8 96 03 00 00            call	408160
  407dca:	83 c6 10                  add	esi, 10h
  407dcd:	83 c4 08                  add	esp, 08h
  407dd0:	83 c7 10                  add	edi, 10h
  407dd3:	3b f3                     cmp	esi, ebx
  407dd5:	75 ec                     jnz	407dc3
  407dd7:	8b c7                     mov	eax, edi
  407dd9:	5f                        pop	edi
  407dda:	5e                        pop	esi
  407ddb:	5b                        pop	ebx
  407ddc:	c2 0c 00                  ret	000Ch
  407ddf:	8b 44 24 14              >mov	eax, [esp+14h]
  407de3:	5e                        pop	esi
  407de4:	5b                        pop	ebx
  407de5:	c2 0c 00                  ret	000Ch
     ...

407df0 <no name>:
  407df0:	57                        push	edi
  407df1:	8b 7c 24 0c               mov	edi, [esp+0Ch]
  407df5:	85 ff                     test	edi, edi
  407df7:	76 1c                     jbe	407e15
  407df9:	53                        push	ebx
  407dfa:	8b 5c 24 14               mov	ebx, [esp+14h]
  407dfe:	56                        push	esi
  407dff:	8b 74 24 10               mov	esi, [esp+10h]
  407e03:	53                       >push	ebx
  407e04:	56                        push	esi
  407e05:	e8 56 03 00 00            call	408160
  407e0a:	83 c4 08                  add	esp, 08h
  407e0d:	83 c6 10                  add	esi, 10h
  407e10:	4f                        dec	edi
  407e11:	75 f0                     jnz	407e03
  407e13:	5e                        pop	esi
  407e14:	5b                        pop	ebx
  407e15:	5f                       >pop	edi
  407e16:	c2 0c 00                  ret	000Ch
     ...

407e20 <no name>:
  407e20:	8b 51 04                  mov	edx, [ecx+04h]
  407e23:	85 d2                     test	edx, edx
  407e25:	75 03                     jnz	407e2a
  407e27:	33 c0                     xor	eax, eax
  407e29:	c3                        ret
  407e2a:	8b 41 08                 >mov	eax, [ecx+08h]
  407e2d:	2b c2                     sub	eax, edx
  407e2f:	c1 f8 03                  sar	eax, 03h
  407e32:	c3                        ret
     ...

407e40 <no name>:
  407e40:	8b 4c 24 04               mov	ecx, [esp+04h]
  407e44:	8b 54 24 08               mov	edx, [esp+08h]
  407e48:	3b ca                     cmp	ecx, edx
  407e4a:	74 21                     jz	407e6d
  407e4c:	8b 44 24 0c               mov	eax, [esp+0Ch]
  407e50:	56                        push	esi
  407e51:	85 c0                    >test	eax, eax
  407e53:	74 0a                     jz	407e5f
  407e55:	8b 31                     mov	esi, [ecx]
  407e57:	89 30                     mov	[eax], esi
  407e59:	8b 71 04                  mov	esi, [ecx+04h]
  407e5c:	89 70 04                  mov	[eax+04h], esi
  407e5f:	83 c1 08                 >add	ecx, 08h
  407e62:	83 c0 08                  add	eax, 08h
  407e65:	3b ca                     cmp	ecx, edx
  407e67:	75 e8                     jnz	407e51
  407e69:	5e                        pop	esi
  407e6a:	c2 0c 00                  ret	000Ch
  407e6d:	8b 44 24 0c              >mov	eax, [esp+0Ch]
  407e71:	c2 0c 00                  ret	000Ch
     ...

407e80 <no name>:
  407e80:	8b 44 24 08               mov	eax, [esp+08h]
  407e84:	85 c0                     test	eax, eax
  407e86:	76 20                     jbe	407ea8
  407e88:	8b 4c 24 0c               mov	ecx, [esp+0Ch]
  407e8c:	8b d0                     mov	edx, eax
  407e8e:	8b 44 24 04               mov	eax, [esp+04h]
  407e92:	56                        push	esi
  407e93:	85 c0                    >test	eax, eax
  407e95:	74 0a                     jz	407ea1
  407e97:	8b 31                     mov	esi, [ecx]
  407e99:	89 30                     mov	[eax], esi
  407e9b:	8b 71 04                  mov	esi, [ecx+04h]
  407e9e:	89 70 04                  mov	[eax+04h], esi
  407ea1:	83 c0 08                 >add	eax, 08h
  407ea4:	4a                        dec	edx
  407ea5:	75 ec                     jnz	407e93
  407ea7:	5e                        pop	esi
  407ea8:	c2 0c 00                 >ret	000Ch
     ...

407eb0 <no name>:
  407eb0:	8b 44 24 08               mov	eax, [esp+08h]
  407eb4:	55                        push	ebp
  407eb5:	8b 6c 24 08               mov	ebp, [esp+08h]
  407eb9:	3b e8                     cmp	ebp, eax
  407ebb:	0f 84 38 01 00 00         jz	407ff9
  407ec1:	53                        push	ebx
  407ec2:	56                        push	esi
  407ec3:	57                        push	edi
  407ec4:	a1 84 a0 40 00           >mov	eax, [40A084h]
  407ec9:	8b 7c 24 1c               mov	edi, [esp+1Ch]
  407ecd:	8b 30                     mov	esi, [eax]
  407ecf:	8b 47 08                  mov	eax, [edi+08h]
  407ed2:	8b d8                     mov	ebx, eax
  407ed4:	3b f3                     cmp	esi, ebx
  407ed6:	73 02                     jae	407eda
  407ed8:	8b de                     mov	ebx, esi
  407eda:	3b ef                    >cmp	ebp, edi
  407edc:	75 62                     jnz	407f40
  407ede:	39 5d 08                  cmp	[ebp+08h], ebx
  407ee1:	73 06                     jae	407ee9
  407ee3:	ff 15 80 a0 40 00         call	dword [0040A080h]	; <?_Xran@std@@YAXXZ>
  407ee9:	8b cd                    >mov	ecx, ebp
  407eeb:	ff 15 7c a0 40 00         call	dword [0040A07Ch]	; <?_Split@?$basic_string@DU?$char_traits@D@std@@V?$allocator@D@2@@std@@AAEXXZ>
  407ef1:	8b 45 08                  mov	eax, [ebp+08h]
  407ef4:	2b c3                     sub	eax, ebx
  407ef6:	3b c6                     cmp	eax, esi
  407ef8:	73 02                     jae	407efc
  407efa:	8b f0                     mov	esi, eax
  407efc:	85 f6                    >test	esi, esi
  407efe:	76 33                     jbe	407f33
  407f00:	8b 4d 04                  mov	ecx, [ebp+04h]
  407f03:	2b c6                     sub	eax, esi
  407f05:	03 d9                     add	ebx, ecx
  407f07:	50                        push	eax
  407f08:	8d 14 33                  lea	edx, [ebx+esi*1]
  407f0b:	52                        push	edx
  407f0c:	53                        push	ebx
  407f0d:	ff 15 48 a1 40 00         call	dword [0040A148h]	; <memmove>
  407f13:	8b 7d 08                  mov	edi, [ebp+08h]
  407f16:	83 c4 0c                  add	esp, 0Ch
  407f19:	2b fe                     sub	edi, esi
  407f1b:	8b cd                     mov	ecx, ebp
  407f1d:	6a 00                     push	dword 00000000h
  407f1f:	57                        push	edi
  407f20:	ff 15 78 a0 40 00         call	dword [0040A078h]	; <?_Grow@?$basic_string@DU?$char_traits@D@std@@V?$allocator@D@2@@std@@AAE_NI_N@Z>
  407f26:	84 c0                     test	al, al
  407f28:	74 09                     jz	407f33
  407f2a:	57                        push	edi
  407f2b:	8b cd                     mov	ecx, ebp
  407f2d:	ff 15 74 a0 40 00         call	dword [0040A074h]	; <?_Eos@?$basic_string@DU?$char_traits@D@std@@V?$allocator@D@2@@std@@AAEXI@Z>
  407f33:	8b cd                    >mov	ecx, ebp
  407f35:	ff 15 7c a0 40 00         call	dword [0040A07Ch]	; <?_Split@?$basic_string@DU?$char_traits@D@std@@V?$allocator@D@2@@std@@AAEXXZ>
  407f3b:	e9 a7 00 00 00            jmp	407fe7
  407f40:	33 f6                    >xor	esi, esi
  407f42:	3b de                     cmp	ebx, esi
  407f44:	76 68                     jbe	407fae
  407f46:	3b d8                     cmp	ebx, eax
  407f48:	75 64                     jnz	407fae
  407f4a:	8b 47 04                  mov	eax, [edi+04h]
  407f4d:	3b c6                     cmp	eax, esi
  407f4f:	75 05                     jnz	407f56
  407f51:	a1 5c a0 40 00            mov	eax, [40A05Ch]
  407f56:	80 78 ff fe              >cmp	byte [eax-01h], FEh
  407f5a:	73 52                     jae	407fae
  407f5c:	8b 45 04                  mov	eax, [ebp+04h]
  407f5f:	3b c6                     cmp	eax, esi
  407f61:	74 1d                     jz	407f80
  407f63:	8d 48 ff                  lea	ecx, [eax-01h]
  407f66:	8a 40 ff                  mov	al, [eax-01h]
  407f69:	84 c0                     test	al, al
  407f6b:	74 0a                     jz	407f77
  407f6d:	3c ff                     cmp	al, FFh
  407f6f:	74 06                     jz	407f77
  407f71:	fe c8                     dec	al
  407f73:	88 01                     mov	[ecx], al
  407f75:	eb 09                     jmp	407f80
  407f77:	51                       >push	ecx
  407f78:	e8 cf 07 00 00            call	40874c
  407f7d:	83 c4 04                  add	esp, 04h
  407f80:	89 75 04                 >mov	[ebp+04h], esi
  407f83:	89 75 08                  mov	[ebp+08h], esi
  407f86:	89 75 0c                  mov	[ebp+0Ch], esi
  407f89:	8b 47 04                  mov	eax, [edi+04h]
  407f8c:	3b c6                     cmp	eax, esi
  407f8e:	75 05                     jnz	407f95
  407f90:	a1 5c a0 40 00            mov	eax, [40A05Ch]
  407f95:	89 45 04                 >mov	[ebp+04h], eax
  407f98:	8b 4f 08                  mov	ecx, [edi+08h]
  407f9b:	89 4d 08                  mov	[ebp+08h], ecx
  407f9e:	8b 57 0c                  mov	edx, [edi+0Ch]
  407fa1:	89 55 0c                  mov	[ebp+0Ch], edx
  407fa4:	8a 48 ff                  mov	cl, [eax-01h]
  407fa7:	fe c1                     inc	cl
  407fa9:	88 48 ff                  mov	[eax-01h], cl
  407fac:	eb 39                     jmp	407fe7
  407fae:	6a 01                    >push	dword 00000001h
  407fb0:	53                        push	ebx
  407fb1:	8b cd                     mov	ecx, ebp
  407fb3:	ff 15 78 a0 40 00         call	dword [0040A078h]	; <?_Grow@?$basic_string@DU?$char_traits@D@std@@V?$allocator@D@2@@std@@AAE_NI_N@Z>
  407fb9:	84 c0                     test	al, al
  407fbb:	74 2a                     jz	407fe7
  407fbd:	8b 77 04                  mov	esi, [edi+04h]
  407fc0:	85 f6                     test	esi, esi
  407fc2:	75 06                     jnz	407fca
  407fc4:	8b 35 5c a0 40 00         mov	esi, [0040A05Ch]
  407fca:	8b 7d 04                 >mov	edi, [ebp+04h]
  407fcd:	8b cb                     mov	ecx, ebx
  407fcf:	8b c1                     mov	eax, ecx
  407fd1:	c1 e9 02                  shr	ecx, 02h
  407fd4:	f3 a5                     rep movsd
  407fd6:	8b c8                     mov	ecx, eax
  407fd8:	83 e1 03                  and	ecx, 03h
  407fdb:	f3 a4                     rep movsb
  407fdd:	8b 4d 04                  mov	ecx, [ebp+04h]
  407fe0:	89 5d 08                  mov	[ebp+08h], ebx
  407fe3:	c6 04 19 00               mov	byte [ecx+ebx*1], 00h
  407fe7:	8b 44 24 18              >mov	eax, [esp+18h]
  407feb:	83 c5 10                  add	ebp, 10h
  407fee:	3b e8                     cmp	ebp, eax
  407ff0:	0f 85 ce fe ff ff         jnz	407ec4
  407ff6:	5f                        pop	edi
  407ff7:	5e                        pop	esi
  407ff8:	5b                        pop	ebx
  407ff9:	5d                       >pop	ebp
  407ffa:	c3                        ret
     ...

408000 <no name>:
  408000:	8b 44 24 04               mov	eax, [esp+04h]
  408004:	57                        push	edi
  408005:	8b 7c 24 0c               mov	edi, [esp+0Ch]
  408009:	3b c7                     cmp	eax, edi
  40800b:	0f 84 45 01 00 00         jz	408156
  408011:	53                        push	ebx
  408012:	55                        push	ebp
  408013:	8b 6c 24 18               mov	ebp, [esp+18h]
  408017:	56                        push	esi
  408018:	a1 84 a0 40 00           >mov	eax, [40A084h]
  40801d:	83 ef 10                  sub	edi, 10h
  408020:	83 ed 10                  sub	ebp, 10h
  408023:	89 7c 24 18               mov	[esp+18h], edi
  408027:	8b 30                     mov	esi, [eax]
  408029:	8b 47 08                  mov	eax, [edi+08h]
  40802c:	8b d8                     mov	ebx, eax
  40802e:	3b f3                     cmp	esi, ebx
  408030:	73 02                     jae	408034
  408032:	8b de                     mov	ebx, esi
  408034:	3b ef                    >cmp	ebp, edi
  408036:	75 62                     jnz	40809a
  408038:	39 5d 08                  cmp	[ebp+08h], ebx
  40803b:	73 06                     jae	408043
  40803d:	ff 15 80 a0 40 00         call	dword [0040A080h]	; <?_Xran@std@@YAXXZ>
  408043:	8b cd                    >mov	ecx, ebp
  408045:	ff 15 7c a0 40 00         call	dword [0040A07Ch]	; <?_Split@?$basic_string@DU?$char_traits@D@std@@V?$allocator@D@2@@std@@AAEXXZ>
  40804b:	8b 45 08                  mov	eax, [ebp+08h]
  40804e:	2b c3                     sub	eax, ebx
  408050:	3b c6                     cmp	eax, esi
  408052:	73 02                     jae	408056
  408054:	8b f0                     mov	esi, eax
  408056:	85 f6                    >test	esi, esi
  408058:	76 33                     jbe	40808d
  40805a:	8b 4d 04                  mov	ecx, [ebp+04h]
  40805d:	2b c6                     sub	eax, esi
  40805f:	03 d9                     add	ebx, ecx
  408061:	50                        push	eax
  408062:	8d 14 33                  lea	edx, [ebx+esi*1]
  408065:	52                        push	edx
  408066:	53                        push	ebx
  408067:	ff 15 48 a1 40 00         call	dword [0040A148h]	; <memmove>
  40806d:	8b 5d 08                  mov	ebx, [ebp+08h]
  408070:	83 c4 0c                  add	esp, 0Ch
  408073:	2b de                     sub	ebx, esi
  408075:	8b cd                     mov	ecx, ebp
  408077:	6a 00                     push	dword 00000000h
  408079:	53                        push	ebx
  40807a:	ff 15 78 a0 40 00         call	dword [0040A078h]	; <?_Grow@?$basic_string@DU?$char_traits@D@std@@V?$allocator@D@2@@std@@AAE_NI_N@Z>
  408080:	84 c0                     test	al, al
  408082:	74 09                     jz	40808d
  408084:	53                        push	ebx
  408085:	8b cd                     mov	ecx, ebp
  408087:	ff 15 74 a0 40 00         call	dword [0040A074h]	; <?_Eos@?$basic_string@DU?$char_traits@D@std@@V?$allocator@D@2@@std@@AAEXI@Z>
  40808d:	8b cd                    >mov	ecx, ebp
  40808f:	ff 15 7c a0 40 00         call	dword [0040A07Ch]	; <?_Split@?$basic_string@DU?$char_traits@D@std@@V?$allocator@D@2@@std@@AAEXXZ>
  408095:	e9 ab 00 00 00            jmp	408145
  40809a:	33 f6                    >xor	esi, esi
  40809c:	3b de                     cmp	ebx, esi
  40809e:	76 68                     jbe	408108
  4080a0:	3b d8                     cmp	ebx, eax
  4080a2:	75 64                     jnz	408108
  4080a4:	8b 47 04                  mov	eax, [edi+04h]
  4080a7:	3b c6                     cmp	eax, esi
  4080a9:	75 05                     jnz	4080b0
  4080ab:	a1 5c a0 40 00            mov	eax, [40A05Ch]
  4080b0:	80 78 ff fe              >cmp	byte [eax-01h], FEh
  4080b4:	73 52                     jae	408108
  4080b6:	8b 45 04                  mov	eax, [ebp+04h]
  4080b9:	3b c6                     cmp	eax, esi
  4080bb:	74 1d                     jz	4080da
  4080bd:	8d 48 ff                  lea	ecx, [eax-01h]
  4080c0:	8a 40 ff                  mov	al, [eax-01h]
  4080c3:	84 c0                     test	al, al
  4080c5:	74 0a                     jz	4080d1
  4080c7:	3c ff                     cmp	al, FFh
  4080c9:	74 06                     jz	4080d1
  4080cb:	fe c8                     dec	al
  4080cd:	88 01                     mov	[ecx], al
  4080cf:	eb 09                     jmp	4080da
  4080d1:	51                       >push	ecx
  4080d2:	e8 75 06 00 00            call	40874c
  4080d7:	83 c4 04                  add	esp, 04h
  4080da:	89 75 04                 >mov	[ebp+04h], esi
  4080dd:	89 75 08                  mov	[ebp+08h], esi
  4080e0:	89 75 0c                  mov	[ebp+0Ch], esi
  4080e3:	8b 47 04                  mov	eax, [edi+04h]
  4080e6:	3b c6                     cmp	eax, esi
  4080e8:	75 05                     jnz	4080ef
  4080ea:	a1 5c a0 40 00            mov	eax, [40A05Ch]
  4080ef:	89 45 04                 >mov	[ebp+04h], eax
  4080f2:	8b 4f 08                  mov	ecx, [edi+08h]
  4080f5:	89 4d 08                  mov	[ebp+08h], ecx
  4080f8:	8b 57 0c                  mov	edx, [edi+0Ch]
  4080fb:	89 55 0c                  mov	[ebp+0Ch], edx
  4080fe:	8a 48 ff                  mov	cl, [eax-01h]
  408101:	fe c1                     inc	cl
  408103:	88 48 ff                  mov	[eax-01h], cl
  408106:	eb 3d                     jmp	408145
  408108:	6a 01                    >push	dword 00000001h
  40810a:	53                        push	ebx
  40810b:	8b cd                     mov	ecx, ebp
  40810d:	ff 15 78 a0 40 00         call	dword [0040A078h]	; <?_Grow@?$basic_string@DU?$char_traits@D@std@@V?$allocator@D@2@@std@@AAE_NI_N@Z>
  408113:	84 c0                     test	al, al
  408115:	74 2e                     jz	408145
  408117:	8b 77 04                  mov	esi, [edi+04h]
  40811a:	85 f6                     test	esi, esi
  40811c:	75 06                     jnz	408124
  40811e:	8b 35 5c a0 40 00         mov	esi, [0040A05Ch]
  408124:	8b 7d 04                 >mov	edi, [ebp+04h]
  408127:	8b cb                     mov	ecx, ebx
  408129:	8b c1                     mov	eax, ecx
  40812b:	c1 e9 02                  shr	ecx, 02h
  40812e:	f3 a5                     rep movsd
  408130:	8b c8                     mov	ecx, eax
  408132:	83 e1 03                  and	ecx, 03h
  408135:	f3 a4                     rep movsb
  408137:	8b 4d 04                  mov	ecx, [ebp+04h]
  40813a:	8b 7c 24 18               mov	edi, [esp+18h]
  40813e:	89 5d 08                  mov	[ebp+08h], ebx
  408141:	c6 04 19 00               mov	byte [ecx+ebx*1], 00h
  408145:	3b 7c 24 14              >cmp	edi, [esp+14h]
  408149:	0f 85 c9 fe ff ff         jnz	408018
  40814f:	8b c5                     mov	eax, ebp
  408151:	5e                        pop	esi
  408152:	5d                        pop	ebp
  408153:	5b                        pop	ebx
  408154:	5f                        pop	edi
  408155:	c3                        ret
  408156:	8b 44 24 10              >mov	eax, [esp+10h]
  40815a:	5f                        pop	edi
  40815b:	c3                        ret
     ...

408160 <no name>:
  408160:	6a ff                     push	dword FFFFFFFFh
  408162:	68 c1 90 40 00            push	dword 004090C1h
  408167:	64 a1 00 00 00 00         mov	eax, [fs:0000h]
  40816d:	50                        push	eax
  40816e:	64 89 25 00 00 00 00      mov	[fs:00000000h], esp
  408175:	51                        push	ecx
  408176:	53                        push	ebx
  408177:	55                        push	ebp
  408178:	8b 6c 24 1c               mov	ebp, [esp+1Ch]
  40817c:	56                        push	esi
  40817d:	57                        push	edi
  40817e:	89 6c 24 10               mov	[esp+10h], ebp
  408182:	33 ff                     xor	edi, edi
  408184:	3b ef                     cmp	ebp, edi
  408186:	89 7c 24 1c               mov	[esp+1Ch], edi
  40818a:	0f 84 2c 01 00 00         jz	4082bc
  408190:	8b 74 24 28               mov	esi, [esp+28h]
  408194:	8a 06                     mov	al, [esi]
  408196:	89 7d 04                  mov	[ebp+04h], edi
  408199:	88 45 00                  mov	[ebp+00h], al
  40819c:	89 7d 08                  mov	[ebp+08h], edi
  40819f:	89 7d 0c                  mov	[ebp+0Ch], edi
  4081a2:	8b 0d 84 a0 40 00         mov	ecx, [0040A084h]
  4081a8:	8b 01                     mov	eax, [ecx]
  4081aa:	8b 4e 08                  mov	ecx, [esi+08h]
  4081ad:	8b d9                     mov	ebx, ecx
  4081af:	3b c3                     cmp	eax, ebx
  4081b1:	73 02                     jae	4081b5
  4081b3:	8b d8                     mov	ebx, eax
  4081b5:	3b ee                    >cmp	ebp, esi
  4081b7:	75 70                     jnz	408229
  4081b9:	3b df                     cmp	ebx, edi
  4081bb:	8b f0                     mov	esi, eax
  4081bd:	76 06                     jbe	4081c5
  4081bf:	ff 15 80 a0 40 00         call	dword [0040A080h]	; <?_Xran@std@@YAXXZ>
  4081c5:	8b cd                    >mov	ecx, ebp
  4081c7:	ff 15 7c a0 40 00         call	dword [0040A07Ch]	; <?_Split@?$basic_string@DU?$char_traits@D@std@@V?$allocator@D@2@@std@@AAEXXZ>
  4081cd:	8b 45 08                  mov	eax, [ebp+08h]
  4081d0:	2b c3                     sub	eax, ebx
  4081d2:	3b c6                     cmp	eax, esi
  4081d4:	73 02                     jae	4081d8
  4081d6:	8b f0                     mov	esi, eax
  4081d8:	3b f7                    >cmp	esi, edi
  4081da:	76 32                     jbe	40820e
  4081dc:	8b 55 04                  mov	edx, [ebp+04h]
  4081df:	2b c6                     sub	eax, esi
  4081e1:	03 da                     add	ebx, edx
  4081e3:	50                        push	eax
  4081e4:	8d 04 33                  lea	eax, [ebx+esi*1]
  4081e7:	50                        push	eax
  4081e8:	53                        push	ebx
  4081e9:	ff 15 48 a1 40 00         call	dword [0040A148h]	; <memmove>
  4081ef:	8b 5d 08                  mov	ebx, [ebp+08h]
  4081f2:	83 c4 0c                  add	esp, 0Ch
  4081f5:	2b de                     sub	ebx, esi
  4081f7:	8b cd                     mov	ecx, ebp
  4081f9:	57                        push	edi
  4081fa:	53                        push	ebx
  4081fb:	ff 15 78 a0 40 00         call	dword [0040A078h]	; <?_Grow@?$basic_string@DU?$char_traits@D@std@@V?$allocator@D@2@@std@@AAE_NI_N@Z>
  408201:	84 c0                     test	al, al
  408203:	74 09                     jz	40820e
  408205:	53                        push	ebx
  408206:	8b cd                     mov	ecx, ebp
  408208:	ff 15 74 a0 40 00         call	dword [0040A074h]	; <?_Eos@?$basic_string@DU?$char_traits@D@std@@V?$allocator@D@2@@std@@AAEXI@Z>
  40820e:	8b cd                    >mov	ecx, ebp
  408210:	ff 15 7c a0 40 00         call	dword [0040A07Ch]	; <?_Split@?$basic_string@DU?$char_traits@D@std@@V?$allocator@D@2@@std@@AAEXXZ>
  408216:	5f                        pop	edi
  408217:	5e                        pop	esi
  408218:	5d                        pop	ebp
  408219:	5b                        pop	ebx
  40821a:	8b 4c 24 04               mov	ecx, [esp+04h]
  40821e:	64 89 0d 00 00 00 00      mov	[fs:00000000h], ecx
  408225:	83 c4 10                  add	esp, 10h
  408228:	c3                        ret
  408229:	3b df                    >cmp	ebx, edi
  40822b:	76 56                     jbe	408283
  40822d:	3b d9                     cmp	ebx, ecx
  40822f:	75 52                     jnz	408283
  408231:	8b 46 04                  mov	eax, [esi+04h]
  408234:	3b c7                     cmp	eax, edi
  408236:	75 05                     jnz	40823d
  408238:	a1 5c a0 40 00            mov	eax, [40A05Ch]
  40823d:	80 78 ff fe              >cmp	byte [eax-01h], FEh
  408241:	73 40                     jae	408283
  408243:	6a 01                     push	dword 00000001h
  408245:	8b cd                     mov	ecx, ebp
  408247:	ff 15 54 a0 40 00         call	dword [0040A054h]	; <?_Tidy@?$basic_string@DU?$char_traits@D@std@@V?$allocator@D@2@@std@@AAEX_N@Z>
  40824d:	8b 46 04                  mov	eax, [esi+04h]
  408250:	3b c7                     cmp	eax, edi
  408252:	75 05                     jnz	408259
  408254:	a1 5c a0 40 00            mov	eax, [40A05Ch]
  408259:	89 45 04                 >mov	[ebp+04h], eax
  40825c:	8b 4e 08                  mov	ecx, [esi+08h]
  40825f:	89 4d 08                  mov	[ebp+08h], ecx
  408262:	8b 56 0c                  mov	edx, [esi+0Ch]
  408265:	89 55 0c                  mov	[ebp+0Ch], edx
  408268:	8a 48 ff                  mov	cl, [eax-01h]
  40826b:	5f                        pop	edi
  40826c:	fe c1                     inc	cl
  40826e:	5e                        pop	esi
  40826f:	5d                        pop	ebp
  408270:	88 48 ff                  mov	[eax-01h], cl
  408273:	5b                        pop	ebx
  408274:	8b 4c 24 04               mov	ecx, [esp+04h]
  408278:	64 89 0d 00 00 00 00      mov	[fs:00000000h], ecx
  40827f:	83 c4 10                  add	esp, 10h
  408282:	c3                        ret
  408283:	6a 01                    >push	dword 00000001h
  408285:	53                        push	ebx
  408286:	8b cd                     mov	ecx, ebp
  408288:	ff 15 78 a0 40 00         call	dword [0040A078h]	; <?_Grow@?$basic_string@DU?$char_traits@D@std@@V?$allocator@D@2@@std@@AAE_NI_N@Z>
  40828e:	84 c0                     test	al, al
  408290:	74 2a                     jz	4082bc
  408292:	8b 76 04                  mov	esi, [esi+04h]
  408295:	3b f7                     cmp	esi, edi
  408297:	75 06                     jnz	40829f
  408299:	8b 35 5c a0 40 00         mov	esi, [0040A05Ch]
  40829f:	8b 7d 04                 >mov	edi, [ebp+04h]
  4082a2:	8b cb                     mov	ecx, ebx
  4082a4:	8b c1                     mov	eax, ecx
  4082a6:	c1 e9 02                  shr	ecx, 02h
  4082a9:	f3 a5                     rep movsd
  4082ab:	8b c8                     mov	ecx, eax
  4082ad:	83 e1 03                  and	ecx, 03h
  4082b0:	f3 a4                     rep movsb
  4082b2:	8b 4d 04                  mov	ecx, [ebp+04h]
  4082b5:	89 5d 08                  mov	[ebp+08h], ebx
  4082b8:	c6 04 19 00               mov	byte [ecx+ebx*1], 00h
  4082bc:	8b 4c 24 14              >mov	ecx, [esp+14h]
  4082c0:	5f                        pop	edi
  4082c1:	5e                        pop	esi
  4082c2:	5d                        pop	ebp
  4082c3:	5b                        pop	ebx
  4082c4:	64 89 0d 00 00 00 00      mov	[fs:00000000h], ecx
  4082cb:	83 c4 10                  add	esp, 10h
  4082ce:	c3                        ret
     ...

4082e0 <no name>:
  4082e0:	8b 44 24 04               mov	eax, [esp+04h]
  4082e4:	85 c0                     test	eax, eax
  4082e6:	74 0e                     jz	4082f6
  4082e8:	8b 4c 24 08               mov	ecx, [esp+08h]
  4082ec:	8b 11                     mov	edx, [ecx]
  4082ee:	89 10                     mov	[eax], edx
  4082f0:	8b 49 04                  mov	ecx, [ecx+04h]
  4082f3:	89 48 04                  mov	[eax+04h], ecx
  4082f6:	c3                       >ret
     ...

408300 <no name>:
  408300:	8b 44 24 04               mov	eax, [esp+04h]
  408304:	50                        push	eax
  408305:	ff 15 00 a0 40 00         call	dword [0040A000h]	; <InterlockedIncrement>
  40830b:	c3                        ret
     ...

408310 <no name>:
  408310:	8b 44 24 04               mov	eax, [esp+04h]
  408314:	50                        push	eax
  408315:	ff 15 04 a0 40 00         call	dword [0040A004h]	; <InterlockedDecrement>
  40831b:	c3                        ret
     ...

408740 <no name>:
  408740:	ff 25 80 a1 40 00         jmp	dword [0040A180h]	; <zlib.dll.2
>

408746 <no name>:
  408746:	ff 25 7c a1 40 00         jmp	dword [0040A17Ch]	; <zlib.dll.26
>

40874c <no name>:
  40874c:	ff 74 24 04               push	dword [esp+04h]
  408750:	e8 c1 01 00 00            call	408916	; <free>
  408755:	59                        pop	ecx
  408756:	c3                        ret
     ...

408758 <no name>:
  408758:	ff 25 98 a0 40 00         jmp	dword [0040A098h]	; <??Hstd@@YA?AV?$basic_string@DU?$char_traits@D@std@@V?$allocator@D@2@@0@ABV10@PBD@Z>

40875e <no name>:
  40875e:	ff 25 9c a0 40 00         jmp	dword [0040A09Ch]	; <??Hstd@@YA?AV?$basic_string@DU?$char_traits@D@std@@V?$allocator@D@2@@0@PBDABV10@@Z>

408764 <no name>:
  408764:	ff 25 a0 a0 40 00         jmp	dword [0040A0A0h]	; <??Hstd@@YA?AV?$basic_string@DU?$char_traits@D@std@@V?$allocator@D@2@@0@ABV10@0@Z>

40876a <no name>:
  40876a:	ff 25 40 a0 40 00         jmp	dword [0040A040h]	; <??6std@@YAAAV?$basic_ostream@DU?$char_traits@D@std@@@0@AAV10@ABV?$basic_string@DU?$char_traits@D@std@@V?$allocator@D@2@@0@@Z>
     ...

408780 <no name>:
  408780:	ff 25 3c a1 40 00         jmp	dword [0040A13Ch]	; <??2@YAPAXI@Z>
     ...

4087d0 <no name>:
  4087d0:	51                        push	ecx
  4087d1:	3d 00 10 00 00            cmp	eax, 00001000h
  4087d6:	8d 4c 24 08               lea	ecx, [esp+08h]
  4087da:	72 14                     jb	4087f0
  4087dc:	81 e9 00 10 00 00        >sub	ecx, 00001000h
  4087e2:	2d 00 10 00 00            sub	eax, 00001000h
  4087e7:	85 01                     test	[ecx], eax
  4087e9:	3d 00 10 00 00            cmp	eax, 00001000h
  4087ee:	73 ec                     jae	4087dc
  4087f0:	2b c8                    >sub	ecx, eax
  4087f2:	8b c4                     mov	eax, esp
  4087f4:	85 01                     test	[ecx], eax
  4087f6:	8b e1                     mov	esp, ecx
  4087f8:	8b 08                     mov	ecx, [eax]
  4087fa:	8b 40 04                  mov	eax, [eax+04h]
  4087fd:	50                        push	eax
  4087fe:	c3                        ret
     ...

408800 <no name>:
  408800:	ff 25 50 a1 40 00         jmp	dword [0040A150h]	; <_ftol>

408806 <no name>:
  408806:	55                        push	ebp
  408807:	8b ec                     mov	ebp, esp
  408809:	6a ff                     push	dword FFFFFFFFh
  40880b:	68 38 a2 40 00            push	dword 0040A238h
  408810:	68 44 89 40 00            push	dword 00408944h
  408815:	64 a1 00 00 00 00         mov	eax, [fs:0000h]
  40881b:	50                        push	eax
  40881c:	64 89 25 00 00 00 00      mov	[fs:00000000h], esp
  408823:	83 ec 20                  sub	esp, 20h
  408826:	53                        push	ebx
  408827:	56                        push	esi
  408828:	57                        push	edi
  408829:	89 65 e8                  mov	[ebp-18h], esp
  40882c:	83 65 fc 00               and	dword [ebp-04h], 00h
  408830:	6a 01                     push	dword 00000001h
  408832:	ff 15 00 a1 40 00         call	dword [0040A100h]	; <__set_app_type>
  408838:	59                        pop	ecx
  408839:	83 0d 10 c6 40 00 ff      or	dword [0040C610h], FFh
  408840:	83 0d 14 c6 40 00 ff      or	dword [0040C614h], FFh
  408847:	ff 15 08 a1 40 00         call	dword [0040A108h]	; <__p__fmode>
  40884d:	8b 0d 08 c6 40 00         mov	ecx, [0040C608h]
  408853:	89 08                     mov	[eax], ecx
  408855:	ff 15 04 a1 40 00         call	dword [0040A104h]	; <__p__commode>
  40885b:	8b 0d 04 c6 40 00         mov	ecx, [0040C604h]
  408861:	89 08                     mov	[eax], ecx
  408863:	a1 f4 a0 40 00            mov	eax, [40A0F4h]
  408868:	8b 00                     mov	eax, [eax]
  40886a:	a3 0c c6 40 00            mov	[40C60Ch], eax
  40886f:	e8 cf 00 00 00            call	408943
  408874:	83 3d 90 c5 40 00 00      cmp	dword [0040C590h], 00h
  40887b:	75 0c                     jnz	408889
  40887d:	68 40 89 40 00            push	dword 00408940h
  408882:	ff 15 fc a0 40 00         call	dword [0040A0FCh]	; <__setusermatherr>
  408888:	59                        pop	ecx
  408889:	e8 a0 00 00 00           >call	40892e
  40888e:	68 24 c0 40 00            push	dword 0040C024h
  408893:	68 20 c0 40 00            push	dword 0040C020h
  408898:	e8 8b 00 00 00            call	408928	; <_initterm>
  40889d:	a1 00 c6 40 00            mov	eax, [40C600h]
  4088a2:	89 45 d8                  mov	[ebp-28h], eax
  4088a5:	8d 45 d8                  lea	eax, [ebp-28h]
  4088a8:	50                        push	eax
  4088a9:	ff 35 fc c5 40 00         push	dword [0040C5FCh]
  4088af:	8d 45 e0                  lea	eax, [ebp-20h]
  4088b2:	50                        push	eax
  4088b3:	8d 45 d4                  lea	eax, [ebp-2Ch]
  4088b6:	50                        push	eax
  4088b7:	8d 45 e4                  lea	eax, [ebp-1Ch]
  4088ba:	50                        push	eax
  4088bb:	ff 15 e8 a0 40 00         call	dword [0040A0E8h]	; <__getmainargs>
  4088c1:	68 1c c0 40 00            push	dword 0040C01Ch
  4088c6:	68 00 c0 40 00            push	dword 0040C000h
  4088cb:	e8 58 00 00 00            call	408928	; <_initterm>
  4088d0:	ff 15 f0 a0 40 00         call	dword [0040A0F0h]	; <__p___initenv>
  4088d6:	8b 4d e0                  mov	ecx, [ebp-20h]
  4088d9:	89 08                     mov	[eax], ecx
  4088db:	ff 75 e0                  push	dword [ebp-20h]
  4088de:	ff 75 d4                  push	dword [ebp-2Ch]
  4088e1:	ff 75 e4                  push	dword [ebp-1Ch]
  4088e4:	e8 17 87 ff ff            call	401000
  4088e9:	83 c4 30                  add	esp, 30h
  4088ec:	89 45 dc                  mov	[ebp-24h], eax
  4088ef:	50                        push	eax
  4088f0:	ff 15 ec a0 40 00         call	dword [0040A0ECh]	; <exit>
  4088f6:	8b 45 ec                  mov	eax, [ebp-14h]
  4088f9:	8b 08                     mov	ecx, [eax]
  4088fb:	8b 09                     mov	ecx, [ecx]
  4088fd:	89 4d d0                  mov	[ebp-30h], ecx
  408900:	50                        push	eax
  408901:	51                        push	ecx
  408902:	e8 1b 00 00 00            call	408922	; <_XcptFilter>
  408907:	59                        pop	ecx
  408908:	59                        pop	ecx
  408909:	c3                        ret
     ...

408916 <no name>:
  408916:	ff 25 20 a1 40 00         jmp	dword [0040A120h]	; <free>
     ...

408922 <no name>:
  408922:	ff 25 dc a0 40 00         jmp	dword [0040A0DCh]	; <_XcptFilter>

408928 <no name>:
  408928:	ff 25 f8 a0 40 00         jmp	dword [0040A0F8h]	; <_initterm>

40892e <no name>:
  40892e:	68 00 00 03 00            push	dword 00030000h
  408933:	68 00 00 01 00            push	dword 00010000h
  408938:	e8 0d 00 00 00            call	40894a	; <_controlfp>
  40893d:	59                        pop	ecx
  40893e:	59                        pop	ecx
  40893f:	c3                        ret
     ...

408943 <no name>:
  408943:	c3                        ret
     ...

40894a <no name>:
  40894a:	ff 25 0c a1 40 00         jmp	dword [0040A10Ch]	; <_controlfp>
     ...

Section .rdata (start = 0xa000, length = 0x2000, minimum allocation = 0x1e9e):
    Address: a000
    Flags: 0x40000040 (data, readable)
    Alignment: 1 (2**0)
  40a000 08 ac 00 00 20 ac 00 00 00 00 00 00 72 b6 00 00  .... .......r...
  40a010 18 b9 00 00 5e b9 00 00 a8 b6 00 00 ea b2 00 00  ....^...........
  40a020 44 b3 00 00 a4 bc 00 00 d8 bb 00 00 60 bb 00 00  D...........`...
  40a030 50 bc 00 00 c0 ba 00 00 72 ba 00 00 2a bb 00 00  P.......r...*...
  40a040 a4 b9 00 00 24 ba 00 00 8a b8 00 00 90 ae 00 00  ....$...........
  40a050 da ae 00 00 28 af 00 00 78 af 00 00 8c af 00 00  ....(...x.......
  40a060 e8 af 00 00 08 b0 00 00 28 b0 00 00 40 b0 00 00  ........(...@...
  40a070 58 b0 00 00 94 b0 00 00 e2 b0 00 00 34 b1 00 00  X...........4...
  40a080 82 b1 00 00 96 b1 00 00 e0 b1 00 00 3c b2 00 00  ............<...
  40a090 92 b2 00 00 40 b8 00 00 a4 b3 00 00 fa b3 00 00  ....@...........
  40a0a0 50 b4 00 00 a4 b4 00 00 00 b5 00 00 58 b5 00 00  P...........X...
  40a0b0 ac b5 00 00 e8 b5 00 00 38 b6 00 00 c2 b6 00 00  ........8.......
  40a0c0 f6 b6 00 00 2e b7 00 00 66 b7 00 00 9e b7 00 00  ........f.......
  40a0d0 b6 b7 00 00 f0 b7 00 00 00 00 00 00 da bd 00 00  ................
  40a0e0 c8 bd 00 00 d2 bd 00 00 00 be 00 00 e8 bd 00 00  ................
  40a0f0 f0 bd 00 00 30 be 00 00 10 be 00 00 1c be 00 00  ....0...........
  40a100 5e be 00 00 40 be 00 00 50 be 00 00 84 be 00 00  ^...@...P.......
  40a110 70 be 00 00 ba bd 00 00 54 bd 00 00 60 bd 00 00  p.......T...`...
  40a120 a6 bd 00 00 9a bd 00 00 0c bd 00 00 20 bd 00 00  ............ ...
  40a130 28 bd 00 00 30 bd 00 00 3a bd 00 00 44 bd 00 00  (...0...:...D...
  40a140 90 bd 00 00 6a bd 00 00 74 bd 00 00 7e bd 00 00  ....j...t...~...
  40a150 88 bd 00 00 00 00 00 00 2e ad 00 00 48 ae 00 00  ............H...
  40a160 1a ae 00 00 ba ad 00 00 9a ad 00 00 14 ad 00 00  ................
  40a170 a0 ac 00 00 76 ac 00 00 00 00 00 00 1a 00 00 80  ....v...........
  40a180 02 00 00 80 00 00 00 00 a0 22 40 00 60 10 40 00  ........."@.`.@.
  40a190 4c 42 4b 32 30 30 30 30 00 00 00 00 00 00 00 00  LBK20000........
  40a1a0 10 1c 40 00 86 87 40 00 86 87 40 00 86 87 40 00  ..@...@...@...@.
  40a1b0 86 87 40 00 86 87 40 00 50 1c 40 00 d0 1c 40 00  ..@...@.P.@...@.
  40a1c0 00 1d 40 00 60 1d 40 00 30 1d 40 00 90 1d 40 00  ..@.`.@.0.@...@.
  40a1d0 00 00 40 41 c5 20 80 3f 40 5a 40 00 b0 48 40 00  ..@A. .?@Z@..H@.
  40a1e0 40 71 40 00 f0 3e 40 00 f0 3e 40 00 00 3f 40 00  @q@..>@..>@..?@.
  40a1f0 10 3f 40 00 a0 43 40 00 30 3e 40 00 86 87 40 00  .?@..C@.0>@...@.
  40a200 86 87 40 00 86 87 40 00 86 87 40 00 86 87 40 00  ..@...@...@...@.
  40a210 86 87 40 00 40 5a 40 00 40 5a 40 00 a0 73 40 00  ..@.@Z@.@Z@..s@.
  40a220 20 71 40 00 40 71 40 00 50 71 40 00 60 71 40 00   q@.@q@.Pq@.`q@.
  40a230 80 71 40 00 b0 72 40 00 ff ff ff ff f6 88 40 00  .q@..r@.......@.
  40a240 0a 89 40 00 00 00 00 00 20 05 93 19 02 00 00 00  ..@..... .......
  40a250 68 a2 40 00 00 00 00 00 00 00 00 00 00 00 00 00  h.@.............
  40a260 00 00 00 00 00 00 00 00 ff ff ff ff 50 89 40 00  ............P.@.
  40a270 00 00 00 00 5c 89 40 00 20 05 93 19 01 00 00 00  ....\.@. .......
  40a280 98 a2 40 00 00 00 00 00 00 00 00 00 00 00 00 00  ..@.............
  40a290 00 00 00 00 00 00 00 00 ff ff ff ff 80 89 40 00  ..............@.
  40a2a0 20 05 93 19 01 00 00 00 c0 a2 40 00 00 00 00 00   .........@.....
  40a2b0 00 00 00 00 00 00 00 00 00 00 00 00 00 00 00 00  ................
  40a2c0 ff ff ff ff a0 89 40 00 20 05 93 19 0e 00 00 00  ......@. .......
  40a2d0 e8 a2 40 00 00 00 00 00 00 00 00 00 00 00 00 00  ..@.............
  40a2e0 00 00 00 00 00 00 00 00 ff ff ff ff c0 89 40 00  ..............@.
  40a2f0 ff ff ff ff cc 89 40 00 01 00 00 00 d8 89 40 00  ......@.......@.
  40a300 ff ff ff ff d8 89 40 00 03 00 00 00 e4 89 40 00  ......@.......@.
  40a310 04 00 00 00 f0 89 40 00 05 00 00 00 fc 89 40 00  ......@.......@.
  40a320 04 00 00 00 fc 89 40 00 07 00 00 00 08 8a 40 00  ......@.......@.
  40a330 08 00 00 00 13 8a 40 00 09 00 00 00 1e 8a 40 00  ......@.......@.
  40a340 09 00 00 00 2c 8a 40 00 09 00 00 00 3a 8a 40 00  ....,.@.....:.@.
  40a350 09 00 00 00 48 8a 40 00 20 05 93 19 01 00 00 00  ....H.@. .......
  40a360 78 a3 40 00 00 00 00 00 00 00 00 00 00 00 00 00  x.@.............
  40a370 00 00 00 00 00 00 00 00 ff ff ff ff 60 8a 40 00  ............`.@.
  40a380 20 05 93 19 05 00 00 00 a0 a3 40 00 00 00 00 00   .........@.....
  40a390 00 00 00 00 00 00 00 00 00 00 00 00 00 00 00 00  ................
  40a3a0 ff ff ff ff 80 8a 40 00 00 00 00 00 88 8a 40 00  ......@.......@.
  40a3b0 01 00 00 00 94 8a 40 00 02 00 00 00 9c 8a 40 00  ......@.......@.
  40a3c0 03 00 00 00 a4 8a 40 00 20 05 93 19 27 00 00 00  ......@. ...'...
  40a3d0 e8 a3 40 00 00 00 00 00 00 00 00 00 00 00 00 00  ..@.............
  40a3e0 00 00 00 00 00 00 00 00 ff ff ff ff c0 8a 40 00  ..............@.
  40a3f0 00 00 00 00 cb 8a 40 00 01 00 00 00 d7 8a 40 00  ......@.......@.
  40a400 02 00 00 00 e3 8a 40 00 03 00 00 00 ef 8a 40 00  ......@.......@.
  40a410 00 00 00 00 ef 8a 40 00 05 00 00 00 e3 8a 40 00  ......@.......@.
  40a420 06 00 00 00 d7 8a 40 00 05 00 00 00 fa 8a 40 00  ......@.......@.
  40a430 08 00 00 00 06 8b 40 00 09 00 00 00 12 8b 40 00  ......@.......@.
  40a440 05 00 00 00 12 8b 40 00 0b 00 00 00 06 8b 40 00  ......@.......@.
  40a450 0b 00 00 00 1d 8b 40 00 0d 00 00 00 29 8b 40 00  ......@.....).@.
  40a460 0e 00 00 00 35 8b 40 00 0b 00 00 00 35 8b 40 00  ....5.@.....5.@.
  40a470 10 00 00 00 29 8b 40 00 10 00 00 00 40 8b 40 00  ....).@.....@.@.
  40a480 12 00 00 00 4c 8b 40 00 13 00 00 00 58 8b 40 00  ....L.@.....X.@.
  40a490 10 00 00 00 58 8b 40 00 15 00 00 00 4c 8b 40 00  ....X.@.....L.@.
  40a4a0 15 00 00 00 63 8b 40 00 17 00 00 00 6f 8b 40 00  ....c.@.....o.@.
  40a4b0 18 00 00 00 7b 8b 40 00 19 00 00 00 87 8b 40 00  ....{.@.......@.
  40a4c0 15 00 00 00 87 8b 40 00 1b 00 00 00 7b 8b 40 00  ......@.....{.@.
  40a4d0 1c 00 00 00 6f 8b 40 00 1b 00 00 00 8f 8b 40 00  ....o.@.......@.
  40a4e0 1b 00 00 00 9b 8b 40 00 1b 00 00 00 a7 8b 40 00  ......@.......@.
  40a4f0 1b 00 00 00 b3 8b 40 00 ff ff ff ff bf 8b 40 00  ......@.......@.
  40a500 22 00 00 00 ca 8b 40 00 23 00 00 00 d5 8b 40 00  ".....@.#.....@.
  40a510 22 00 00 00 e1 8b 40 00 22 00 00 00 ed 8b 40 00  ".....@.".....@.
  40a520 20 05 93 19 02 00 00 00 40 a5 40 00 00 00 00 00   .......@.@.....
  40a530 00 00 00 00 00 00 00 00 00 00 00 00 00 00 00 00  ................
  40a540 ff ff ff ff 10 8c 40 00 00 00 00 00 1b 8c 40 00  ......@.......@.
  40a550 20 05 93 19 02 00 00 00 70 a5 40 00 00 00 00 00   .......p.@.....
  40a560 00 00 00 00 00 00 00 00 00 00 00 00 00 00 00 00  ................
  40a570 ff ff ff ff 40 8c 40 00 00 00 00 00 49 8c 40 00  ....@.@.....I.@.
  40a580 20 05 93 19 05 00 00 00 a0 a5 40 00 00 00 00 00   .........@.....
  40a590 00 00 00 00 00 00 00 00 00 00 00 00 00 00 00 00  ................
  40a5a0 ff ff ff ff 60 8c 40 00 00 00 00 00 69 8c 40 00  ....`.@.....i.@.
  40a5b0 01 00 00 00 72 8c 40 00 01 00 00 00 7b 8c 40 00  ....r.@.....{.@.
  40a5c0 03 00 00 00 84 8c 40 00 20 05 93 19 02 00 00 00  ......@. .......
  40a5d0 e8 a5 40 00 00 00 00 00 00 00 00 00 00 00 00 00  ..@.............
  40a5e0 00 00 00 00 00 00 00 00 ff ff ff ff a0 8c 40 00  ..............@.
  40a5f0 00 00 00 00 a9 8c 40 00 20 05 93 19 04 00 00 00  ......@. .......
  40a600 18 a6 40 00 00 00 00 00 00 00 00 00 00 00 00 00  ..@.............
  40a610 00 00 00 00 00 00 00 00 ff ff ff ff c0 8c 40 00  ..............@.
  40a620 00 00 00 00 c9 8c 40 00 00 00 00 00 d2 8c 40 00  ......@.......@.
  40a630 02 00 00 00 db 8c 40 00 20 05 93 19 0a 00 00 00  ......@. .......
  40a640 58 a6 40 00 00 00 00 00 00 00 00 00 00 00 00 00  X.@.............
  40a650 00 00 00 00 00 00 00 00 ff ff ff ff 53 8d 40 00  ............S.@.
  40a660 00 00 00 00 f0 8c 40 00 01 00 00 00 0b 8d 40 00  ......@.......@.
  40a670 00 00 00 00 17 8d 40 00 03 00 00 00 23 8d 40 00  ......@.....#.@.
  40a680 04 00 00 00 2f 8d 40 00 04 00 00 00 3b 8d 40 00  ..../.@.....;.@.
  40a690 04 00 00 00 47 8d 40 00 00 00 00 00 6e 8d 40 00  ....G.@.....n.@.
  40a6a0 08 00 00 00 7d 8d 40 00 20 05 93 19 16 00 00 00  ....}.@. .......
  40a6b0 c8 a6 40 00 00 00 00 00 00 00 00 00 00 00 00 00  ..@.............
  40a6c0 00 00 00 00 00 00 00 00 ff ff ff ff a0 8d 40 00  ..............@.
  40a6d0 ff ff ff ff ac 8d 40 00 01 00 00 00 b5 8d 40 00  ......@.......@.
  40a6e0 ff ff ff ff c1 8d 40 00 03 00 00 00 ca 8d 40 00  ......@.......@.
  40a6f0 04 00 00 00 d6 8d 40 00 ff ff ff ff df 8d 40 00  ......@.......@.
  40a700 06 00 00 00 e8 8d 40 00 07 00 00 00 f1 8d 40 00  ......@.......@.
  40a710 08 00 00 00 fd 8d 40 00 09 00 00 00 06 8e 40 00  ......@.......@.
  40a720 ff ff ff ff 0f 8e 40 00 0b 00 00 00 1b 8e 40 00  ......@.......@.
  40a730 0c 00 00 00 24 8e 40 00 0d 00 00 00 2d 8e 40 00  ....$.@.....-.@.
  40a740 0e 00 00 00 36 8e 40 00 ff ff ff ff 3f 8e 40 00  ....6.@.....?.@.
  40a750 10 00 00 00 48 8e 40 00 11 00 00 00 51 8e 40 00  ....H.@.....Q.@.
  40a760 ff ff ff ff 5a 8e 40 00 13 00 00 00 63 8e 40 00  ....Z.@.....c.@.
  40a770 14 00 00 00 6c 8e 40 00 20 05 93 19 0f 00 00 00  ....l.@. .......
  40a780 98 a7 40 00 00 00 00 00 00 00 00 00 00 00 00 00  ..@.............
  40a790 00 00 00 00 00 00 00 00 ff ff ff ff 80 8e 40 00  ..............@.
  40a7a0 ff ff ff ff 8b 8e 40 00 01 00 00 00 93 8e 40 00  ......@.......@.
  40a7b0 02 00 00 00 9c 8e 40 00 03 00 00 00 a5 8e 40 00  ......@.......@.
  40a7c0 01 00 00 00 a5 8e 40 00 05 00 00 00 9c 8e 40 00  ......@.......@.
  40a7d0 05 00 00 00 b0 8e 40 00 07 00 00 00 b9 8e 40 00  ......@.......@.
  40a7e0 08 00 00 00 c2 8e 40 00 05 00 00 00 c2 8e 40 00  ......@.......@.
  40a7f0 0a 00 00 00 b9 8e 40 00 0a 00 00 00 cd 8e 40 00  ......@.......@.
  40a800 0a 00 00 00 d6 8e 40 00 0a 00 00 00 df 8e 40 00  ......@.......@.
  40a810 20 05 93 19 02 00 00 00 30 a8 40 00 00 00 00 00   .......0.@.....
  40a820 00 00 00 00 00 00 00 00 00 00 00 00 00 00 00 00  ................
  40a830 ff ff ff ff 00 8f 40 00 00 00 00 00 0b 8f 40 00  ......@.......@.
  40a840 20 05 93 19 02 00 00 00 60 a8 40 00 00 00 00 00   .......`.@.....
  40a850 00 00 00 00 00 00 00 00 00 00 00 00 00 00 00 00  ................
  40a860 ff ff ff ff 30 8f 40 00 00 00 00 00 38 8f 40 00  ....0.@.....8.@.
  40a870 20 05 93 19 0b 00 00 00 90 a8 40 00 00 00 00 00   .........@.....
  40a880 00 00 00 00 00 00 00 00 00 00 00 00 00 00 00 00  ................
  40a890 ff ff ff ff 50 8f 40 00 00 00 00 00 58 8f 40 00  ....P.@.....X.@.
  40a8a0 01 00 00 00 63 8f 40 00 02 00 00 00 71 8f 40 00  ....c.@.....q.@.
  40a8b0 03 00 00 00 7f 8f 40 00 04 00 00 00 8d 8f 40 00  ......@.......@.
  40a8c0 05 00 00 00 95 8f 40 00 06 00 00 00 a1 8f 40 00  ......@.......@.
  40a8d0 00 00 00 00 ad 8f 40 00 08 00 00 00 b5 8f 40 00  ......@.......@.
  40a8e0 09 00 00 00 c1 8f 40 00 20 05 93 19 04 00 00 00  ......@. .......
  40a8f0 08 a9 40 00 00 00 00 00 00 00 00 00 00 00 00 00  ..@.............
  40a900 00 00 00 00 00 00 00 00 ff ff ff ff e0 8f 40 00  ..............@.
  40a910 00 00 00 00 e8 8f 40 00 01 00 00 00 f1 8f 40 00  ......@.......@.
  40a920 02 00 00 00 f9 8f 40 00 20 05 93 19 01 00 00 00  ......@. .......
  40a930 48 a9 40 00 00 00 00 00 00 00 00 00 00 00 00 00  H.@.............
  40a940 00 00 00 00 00 00 00 00 ff ff ff ff 10 90 40 00  ..............@.
  40a950 20 05 93 19 03 00 00 00 70 a9 40 00 00 00 00 00   .......p.@.....
  40a960 00 00 00 00 00 00 00 00 00 00 00 00 00 00 00 00  ................
  40a970 ff ff ff ff 30 90 40 00 00 00 00 00 3b 90 40 00  ....0.@.....;.@.
  40a980 ff ff ff ff 47 90 40 00 20 05 93 19 02 00 00 00  ....G.@. .......
  40a990 a8 a9 40 00 00 00 00 00 00 00 00 00 00 00 00 00  ..@.............
  40a9a0 00 00 00 00 00 00 00 00 ff ff ff ff 60 90 40 00  ............`.@.
  40a9b0 00 00 00 00 69 90 40 00 20 05 93 19 01 00 00 00  ....i.@. .......
  40a9c0 d8 a9 40 00 00 00 00 00 00 00 00 00 00 00 00 00  ..@.............
  40a9d0 00 00 00 00 00 00 00 00 ff ff ff ff 90 90 40 00  ..............@.
  40a9e0 20 05 93 19 01 00 00 00 00 aa 40 00 00 00 00 00   .........@.....
  40a9f0 00 00 00 00 00 00 00 00 00 00 00 00 00 00 00 00  ................
  40aa00 ff ff ff ff b0 90 40 00 80 aa 00 00 00 00 00 00  ......@.........
  40aa10 00 00 00 00 38 ac 00 00 00 a0 00 00 fc ab 00 00  ....8...........
  40aa20 00 00 00 00 00 00 00 00 6c ac 00 00 7c a1 00 00  ........l...|...
  40aa30 d8 ab 00 00 00 00 00 00 00 00 00 00 86 ae 00 00  ................
  40aa40 58 a1 00 00 8c aa 00 00 00 00 00 00 00 00 00 00  X...............
  40aa50 00 bd 00 00 0c a0 00 00 5c ab 00 00 00 00 00 00  ........\.......
  40aa60 00 00 00 00 ae bd 00 00 dc a0 00 00 00 00 00 00  ................
  40aa70 00 00 00 00 00 00 00 00 00 00 00 00 00 00 00 00  ................
  40aa80 08 ac 00 00 20 ac 00 00 00 00 00 00 72 b6 00 00  .... .......r...
  40aa90 18 b9 00 00 5e b9 00 00 a8 b6 00 00 ea b2 00 00  ....^...........
  40aaa0 44 b3 00 00 a4 bc 00 00 d8 bb 00 00 60 bb 00 00  D...........`...
  40aab0 50 bc 00 00 c0 ba 00 00 72 ba 00 00 2a bb 00 00  P.......r...*...
  40aac0 a4 b9 00 00 24 ba 00 00 8a b8 00 00 90 ae 00 00  ....$...........
  40aad0 da ae 00 00 28 af 00 00 78 af 00 00 8c af 00 00  ....(...x.......
  40aae0 e8 af 00 00 08 b0 00 00 28 b0 00 00 40 b0 00 00  ........(...@...
  40aaf0 58 b0 00 00 94 b0 00 00 e2 b0 00 00 34 b1 00 00  X...........4...
  40ab00 82 b1 00 00 96 b1 00 00 e0 b1 00 00 3c b2 00 00  ............<...
  40ab10 92 b2 00 00 40 b8 00 00 a4 b3 00 00 fa b3 00 00  ....@...........
  40ab20 50 b4 00 00 a4 b4 00 00 00 b5 00 00 58 b5 00 00  P...........X...
  40ab30 ac b5 00 00 e8 b5 00 00 38 b6 00 00 c2 b6 00 00  ........8.......
  40ab40 f6 b6 00 00 2e b7 00 00 66 b7 00 00 9e b7 00 00  ........f.......
  40ab50 b6 b7 00 00 f0 b7 00 00 00 00 00 00 da bd 00 00  ................
  40ab60 c8 bd 00 00 d2 bd 00 00 00 be 00 00 e8 bd 00 00  ................
  40ab70 f0 bd 00 00 30 be 00 00 10 be 00 00 1c be 00 00  ....0...........
  40ab80 5e be 00 00 40 be 00 00 50 be 00 00 84 be 00 00  ^...@...P.......
  40ab90 70 be 00 00 ba bd 00 00 54 bd 00 00 60 bd 00 00  p.......T...`...
  40aba0 a6 bd 00 00 9a bd 00 00 0c bd 00 00 20 bd 00 00  ............ ...
  40abb0 28 bd 00 00 30 bd 00 00 3a bd 00 00 44 bd 00 00  (...0...:...D...
  40abc0 90 bd 00 00 6a bd 00 00 74 bd 00 00 7e bd 00 00  ....j...t...~...
  40abd0 88 bd 00 00 00 00 00 00 2e ad 00 00 48 ae 00 00  ............H...
  40abe0 1a ae 00 00 ba ad 00 00 9a ad 00 00 14 ad 00 00  ................
  40abf0 a0 ac 00 00 76 ac 00 00 00 00 00 00 1a 00 00 80  ....v...........
  40ac00 02 00 00 80 00 00 00 00 22 02 49 6e 74 65 72 6c  ........".Interl
  40ac10 6f 63 6b 65 64 49 6e 63 72 65 6d 65 6e 74 00 00  ockedIncrement..
  40ac20 1e 02 49 6e 74 65 72 6c 6f 63 6b 65 64 44 65 63  ..InterlockedDec
  40ac30 72 65 6d 65 6e 74 00 00 4b 45 52 4e 45 4c 33 32  rement..KERNEL32
  40ac40 2e 64 6c 6c 00 00 55 53 45 52 33 32 2e 64 6c 6c  .dll..USER32.dll
  40ac50 00 00 41 44 56 41 50 49 33 32 2e 64 6c 6c 00 00  ..ADVAPI32.dll..
  40ac60 53 48 45 4c 4c 33 32 2e 64 6c 6c 00 7a 6c 69 62  SHELL32.dll.zlib
  40ac70 2e 64 6c 6c 00 00 62 00 3f 4f 70 65 6e 40 46 69  .dll..b.?Open@Fi
  40ac80 6c 65 4c 6f 63 61 74 69 6f 6e 40 40 51 42 45 50  leLocation@@QBEP
  40ac90 41 55 5f 69 6f 62 75 66 40 40 50 42 44 40 5a 00  AU_iobuf@@PBD@Z.
  40aca0 96 00 3f 6d 61 6b 65 4c 6f 63 61 74 69 6f 6e 40  ..?makeLocation@
  40acb0 46 69 6c 65 4d 61 6e 61 67 65 72 40 40 53 41 3f  FileManager@@SA?
  40acc0 41 56 46 69 6c 65 4c 6f 63 61 74 69 6f 6e 40 40  AVFileLocation@@
  40acd0 41 42 56 3f 24 62 61 73 69 63 5f 73 74 72 69 6e  ABV?$basic_strin
  40ace0 67 40 44 55 3f 24 63 68 61 72 5f 74 72 61 69 74  g@DU?$char_trait
  40acf0 73 40 44 40 73 74 64 40 40 56 3f 24 61 6c 6c 6f  s@D@std@@V?$allo
  40ad00 63 61 74 6f 72 40 44 40 32 40 40 73 74 64 40 40  cator@D@2@@std@@
  40ad10 40 5a 00 00 1a 00 3f 3f 31 46 69 6c 65 4c 6f 63  @Z....??1FileLoc
  40ad20 61 74 69 6f 6e 40 40 51 41 45 40 58 5a 00 4e 00  ation@@QAE@XZ.N.
  40ad30 3f 45 78 74 65 6e 64 46 69 6c 65 4e 61 6d 65 40  ?ExtendFileName@
  40ad40 46 69 6c 65 4c 6f 63 61 74 69 6f 6e 40 40 51 42  FileLocation@@QB
  40ad50 45 3f 41 56 31 40 41 42 56 3f 24 62 61 73 69 63  E?AV1@ABV?$basic
  40ad60 5f 73 74 72 69 6e 67 40 44 55 3f 24 63 68 61 72  _string@DU?$char
  40ad70 5f 74 72 61 69 74 73 40 44 40 73 74 64 40 40 56  _traits@D@std@@V
  40ad80 3f 24 61 6c 6c 6f 63 61 74 6f 72 40 44 40 32 40  ?$allocator@D@2@
  40ad90 40 73 74 64 40 40 40 5a 00 00 07 00 3f 3f 30 46  @std@@@Z....??0F
  40ada0 69 6c 65 4c 6f 63 61 74 69 6f 6e 40 40 51 41 45  ileLocation@@QAE
  40adb0 40 41 42 56 30 40 40 5a 00 00 4f 00 3f 46 69 6c  @ABV0@@Z..O.?Fil
  40adc0 65 4e 61 6d 65 40 46 69 6c 65 4c 6f 63 61 74 69  eName@FileLocati
  40add0 6f 6e 40 40 51 42 45 3f 41 56 3f 24 62 61 73 69  on@@QBE?AV?$basi
  40ade0 63 5f 73 74 72 69 6e 67 40 44 55 3f 24 63 68 61  c_string@DU?$cha
  40adf0 72 5f 74 72 61 69 74 73 40 44 40 73 74 64 40 40  r_traits@D@std@@
  40ae00 56 3f 24 61 6c 6c 6f 63 61 74 6f 72 40 44 40 32  V?$allocator@D@2
  40ae10 40 40 73 74 64 40 40 58 5a 00 61 00 3f 4d 6f 76  @@std@@XZ.a.?Mov
  40ae20 65 40 46 69 6c 65 4d 61 6e 61 67 65 72 40 40 53  e@FileManager@@S
  40ae30 41 58 41 42 56 46 69 6c 65 4c 6f 63 61 74 69 6f  AXABVFileLocatio
  40ae40 6e 40 40 30 40 5a 00 00 53 00 3f 47 65 74 54 65  n@@0@Z..S.?GetTe
  40ae50 6d 70 6f 72 61 72 79 46 69 6c 65 4e 61 6d 65 40  mporaryFileName@
  40ae60 46 69 6c 65 4d 61 6e 61 67 65 72 40 40 53 41 3f  FileManager@@SA?
  40ae70 41 56 46 69 6c 65 4c 6f 63 61 74 69 6f 6e 40 40  AVFileLocation@@
  40ae80 50 42 44 40 5a 00 55 74 69 6c 73 2e 64 6c 6c 00  PBD@Z.Utils.dll.
  40ae90 e9 00 3f 3f 31 3f 24 62 61 73 69 63 5f 73 74 72  ..??1?$basic_str
  40aea0 69 6e 67 40 44 55 3f 24 63 68 61 72 5f 74 72 61  ing@DU?$char_tra
  40aeb0 69 74 73 40 44 40 73 74 64 40 40 56 3f 24 61 6c  its@D@std@@V?$al
  40aec0 6c 6f 63 61 74 6f 72 40 44 40 32 40 40 73 74 64  locator@D@2@@std
  40aed0 40 40 51 41 45 40 58 5a 00 00 38 03 3f 5f 43 6f  @@QAE@XZ..8.?_Co
  40aee0 70 79 40 3f 24 62 61 73 69 63 5f 73 74 72 69 6e  py@?$basic_strin
  40aef0 67 40 44 55 3f 24 63 68 61 72 5f 74 72 61 69 74  g@DU?$char_trait
  40af00 73 40 44 40 73 74 64 40 40 56 3f 24 61 6c 6c 6f  s@D@std@@V?$allo
  40af10 63 61 74 6f 72 40 44 40 32 40 40 73 74 64 40 40  cator@D@2@@std@@
  40af20 41 41 45 58 49 40 5a 00 f8 03 3f 5f 54 69 64 79  AAEXI@Z...?_Tidy
  40af30 40 3f 24 62 61 73 69 63 5f 73 74 72 69 6e 67 40  @?$basic_string@
  40af40 44 55 3f 24 63 68 61 72 5f 74 72 61 69 74 73 40  DU?$char_traits@
  40af50 44 40 73 74 64 40 40 56 3f 24 61 6c 6c 6f 63 61  D@std@@V?$alloca
  40af60 74 6f 72 40 44 40 32 40 40 73 74 64 40 40 41 41  tor@D@2@@std@@AA
  40af70 45 58 5f 4e 40 5a 00 00 05 04 3f 5f 58 6c 65 6e  EX_N@Z....?_Xlen
  40af80 40 73 74 64 40 40 59 41 58 58 5a 00 2d 03 3f 5f  @std@@YAXXZ.-.?_
  40af90 43 40 3f 31 3f 3f 5f 4e 75 6c 6c 73 74 72 40 3f  C@?1??_Nullstr@?
  40afa0 24 62 61 73 69 63 5f 73 74 72 69 6e 67 40 44 55  $basic_string@DU
  40afb0 3f 24 63 68 61 72 5f 74 72 61 69 74 73 40 44 40  ?$char_traits@D@
  40afc0 73 74 64 40 40 56 3f 24 61 6c 6c 6f 63 61 74 6f  std@@V?$allocato
  40afd0 72 40 44 40 32 40 40 73 74 64 40 40 43 41 50 42  r@D@2@@std@@CAPB
  40afe0 44 58 5a 40 34 44 42 00 9e 00 3f 3f 30 49 6e 69  DXZ@4DB...??0Ini
  40aff0 74 40 69 6f 73 5f 62 61 73 65 40 73 74 64 40 40  t@ios_base@std@@
  40b000 51 41 45 40 58 5a 00 00 09 01 3f 3f 31 49 6e 69  QAE@XZ....??1Ini
  40b010 74 40 69 6f 73 5f 62 61 73 65 40 73 74 64 40 40  t@ios_base@std@@
  40b020 51 41 45 40 58 5a 00 00 a5 00 3f 3f 30 5f 57 69  QAE@XZ....??0_Wi
  40b030 6e 69 74 40 73 74 64 40 40 51 41 45 40 58 5a 00  nit@std@@QAE@XZ.
  40b040 0d 01 3f 3f 31 5f 57 69 6e 69 74 40 73 74 64 40  ..??1_Winit@std@
  40b050 40 51 41 45 40 58 5a 00 73 04 3f 63 6f 75 74 40  @QAE@XZ.s.?cout@
  40b060 73 74 64 40 40 33 56 3f 24 62 61 73 69 63 5f 6f  std@@3V?$basic_o
  40b070 73 74 72 65 61 6d 40 44 55 3f 24 63 68 61 72 5f  stream@DU?$char_
  40b080 74 72 61 69 74 73 40 44 40 73 74 64 40 40 40 31  traits@D@std@@@1
  40b090 40 41 00 00 4a 03 3f 5f 45 6f 73 40 3f 24 62 61  @A..J.?_Eos@?$ba
  40b0a0 73 69 63 5f 73 74 72 69 6e 67 40 44 55 3f 24 63  sic_string@DU?$c
  40b0b0 68 61 72 5f 74 72 61 69 74 73 40 44 40 73 74 64  har_traits@D@std
  40b0c0 40 40 56 3f 24 61 6c 6c 6f 63 61 74 6f 72 40 44  @@V?$allocator@D
  40b0d0 40 32 40 40 73 74 64 40 40 41 41 45 58 49 40 5a  @2@@std@@AAEXI@Z
  40b0e0 00 00 92 03 3f 5f 47 72 6f 77 40 3f 24 62 61 73  ....?_Grow@?$bas
  40b0f0 69 63 5f 73 74 72 69 6e 67 40 44 55 3f 24 63 68  ic_string@DU?$ch
  40b100 61 72 5f 74 72 61 69 74 73 40 44 40 73 74 64 40  ar_traits@D@std@
  40b110 40 56 3f 24 61 6c 6c 6f 63 61 74 6f 72 40 44 40  @V?$allocator@D@
  40b120 32 40 40 73 74 64 40 40 41 41 45 5f 4e 49 5f 4e  2@@std@@AAE_NI_N
  40b130 40 5a 00 00 f2 03 3f 5f 53 70 6c 69 74 40 3f 24  @Z....?_Split@?$
  40b140 62 61 73 69 63 5f 73 74 72 69 6e 67 40 44 55 3f  basic_string@DU?
  40b150 24 63 68 61 72 5f 74 72 61 69 74 73 40 44 40 73  $char_traits@D@s
  40b160 74 64 40 40 56 3f 24 61 6c 6c 6f 63 61 74 6f 72  td@@V?$allocator
  40b170 40 44 40 32 40 40 73 74 64 40 40 41 41 45 58 58  @D@2@@std@@AAEXX
  40b180 5a 00 06 04 3f 5f 58 72 61 6e 40 73 74 64 40 40  Z...?_Xran@std@@
  40b190 59 41 58 58 5a 00 61 06 3f 6e 70 6f 73 40 3f 24  YAXXZ.a.?npos@?$
  40b1a0 62 61 73 69 63 5f 73 74 72 69 6e 67 40 44 55 3f  basic_string@DU?
  40b1b0 24 63 68 61 72 5f 74 72 61 69 74 73 40 44 40 73  $char_traits@D@s
  40b1c0 74 64 40 40 56 3f 24 61 6c 6c 6f 63 61 74 6f 72  td@@V?$allocator
  40b1d0 40 44 40 32 40 40 73 74 64 40 40 32 49 42 00 00  @D@2@@std@@2IB..
  40b1e0 1c 04 3f 61 73 73 69 67 6e 40 3f 24 62 61 73 69  ..?assign@?$basi
  40b1f0 63 5f 73 74 72 69 6e 67 40 44 55 3f 24 63 68 61  c_string@DU?$cha
  40b200 72 5f 74 72 61 69 74 73 40 44 40 73 74 64 40 40  r_traits@D@std@@
  40b210 56 3f 24 61 6c 6c 6f 63 61 74 6f 72 40 44 40 32  V?$allocator@D@2
  40b220 40 40 73 74 64 40 40 51 41 45 41 41 56 31 32 40  @@std@@QAEAAV12@
  40b230 41 42 56 31 32 40 49 49 40 5a 00 00 a7 07 3f 73  ABV12@II@Z....?s
  40b240 75 62 73 74 72 40 3f 24 62 61 73 69 63 5f 73 74  ubstr@?$basic_st
  40b250 72 69 6e 67 40 44 55 3f 24 63 68 61 72 5f 74 72  ring@DU?$char_tr
  40b260 61 69 74 73 40 44 40 73 74 64 40 40 56 3f 24 61  aits@D@std@@V?$a
  40b270 6c 6c 6f 63 61 74 6f 72 40 44 40 32 40 40 73 74  llocator@D@2@@st
  40b280 64 40 40 51 42 45 3f 41 56 31 32 40 49 49 40 5a  d@@QBE?AV12@II@Z
  40b290 00 00 20 04 3f 61 73 73 69 67 6e 40 3f 24 62 61  .. .?assign@?$ba
  40b2a0 73 69 63 5f 73 74 72 69 6e 67 40 44 55 3f 24 63  sic_string@DU?$c
  40b2b0 68 61 72 5f 74 72 61 69 74 73 40 44 40 73 74 64  har_traits@D@std
  40b2c0 40 40 56 3f 24 61 6c 6c 6f 63 61 74 6f 72 40 44  @@V?$allocator@D
  40b2d0 40 32 40 40 73 74 64 40 40 51 41 45 41 41 56 31  @2@@std@@QAEAAV1
  40b2e0 32 40 50 42 44 49 40 5a 00 00 64 05 3f 66 69 6e  2@PBDI@Z..d.?fin
  40b2f0 64 5f 6c 61 73 74 5f 6f 66 40 3f 24 62 61 73 69  d_last_of@?$basi
  40b300 63 5f 73 74 72 69 6e 67 40 44 55 3f 24 63 68 61  c_string@DU?$cha
  40b310 72 5f 74 72 61 69 74 73 40 44 40 73 74 64 40 40  r_traits@D@std@@
  40b320 56 3f 24 61 6c 6c 6f 63 61 74 6f 72 40 44 40 32  V?$allocator@D@2
  40b330 40 40 73 74 64 40 40 51 42 45 49 50 42 44 49 49  @@std@@QBEIPBDII
  40b340 40 5a 00 00 4c 00 3f 3f 30 3f 24 62 61 73 69 63  @Z..L.??0?$basic
  40b350 5f 73 74 72 69 6e 67 40 44 55 3f 24 63 68 61 72  _string@DU?$char
  40b360 5f 74 72 61 69 74 73 40 44 40 73 74 64 40 40 56  _traits@D@std@@V
  40b370 3f 24 61 6c 6c 6f 63 61 74 6f 72 40 44 40 32 40  ?$allocator@D@2@
  40b380 40 73 74 64 40 40 51 41 45 40 50 42 44 41 42 56  @std@@QAE@PBDABV
  40b390 3f 24 61 6c 6c 6f 63 61 74 6f 72 40 44 40 31 40  ?$allocator@D@1@
  40b3a0 40 5a 00 00 17 02 3f 3f 48 73 74 64 40 40 59 41  @Z....??Hstd@@YA
  40b3b0 3f 41 56 3f 24 62 61 73 69 63 5f 73 74 72 69 6e  ?AV?$basic_strin
  40b3c0 67 40 44 55 3f 24 63 68 61 72 5f 74 72 61 69 74  g@DU?$char_trait
  40b3d0 73 40 44 40 73 74 64 40 40 56 3f 24 61 6c 6c 6f  s@D@std@@V?$allo
  40b3e0 63 61 74 6f 72 40 44 40 32 40 40 30 40 41 42 56  cator@D@2@@0@ABV
  40b3f0 31 30 40 50 42 44 40 5a 00 00 19 02 3f 3f 48 73  10@PBD@Z....??Hs
  40b400 74 64 40 40 59 41 3f 41 56 3f 24 62 61 73 69 63  td@@YA?AV?$basic
  40b410 5f 73 74 72 69 6e 67 40 44 55 3f 24 63 68 61 72  _string@DU?$char
  40b420 5f 74 72 61 69 74 73 40 44 40 73 74 64 40 40 56  _traits@D@std@@V
  40b430 3f 24 61 6c 6c 6f 63 61 74 6f 72 40 44 40 32 40  ?$allocator@D@2@
  40b440 40 30 40 50 42 44 41 42 56 31 30 40 40 5a 00 00  @0@PBDABV10@@Z..
  40b450 15 02 3f 3f 48 73 74 64 40 40 59 41 3f 41 56 3f  ..??Hstd@@YA?AV?
  40b460 24 62 61 73 69 63 5f 73 74 72 69 6e 67 40 44 55  $basic_string@DU
  40b470 3f 24 63 68 61 72 5f 74 72 61 69 74 73 40 44 40  ?$char_traits@D@
  40b480 73 74 64 40 40 56 3f 24 61 6c 6c 6f 63 61 74 6f  std@@V?$allocato
  40b490 72 40 44 40 32 40 40 30 40 41 42 56 31 30 40 30  r@D@2@@0@ABV10@0
  40b4a0 40 5a 00 00 0d 04 3f 61 70 70 65 6e 64 40 3f 24  @Z....?append@?$
  40b4b0 62 61 73 69 63 5f 73 74 72 69 6e 67 40 44 55 3f  basic_string@DU?
  40b4c0 24 63 68 61 72 5f 74 72 61 69 74 73 40 44 40 73  $char_traits@D@s
  40b4d0 74 64 40 40 56 3f 24 61 6c 6c 6f 63 61 74 6f 72  td@@V?$allocator
  40b4e0 40 44 40 32 40 40 73 74 64 40 40 51 41 45 41 41  @D@2@@std@@QAEAA
  40b4f0 56 31 32 40 41 42 56 31 32 40 49 49 40 5a 00 00  V12@ABV12@II@Z..
  40b500 11 04 3f 61 70 70 65 6e 64 40 3f 24 62 61 73 69  ..?append@?$basi
  40b510 63 5f 73 74 72 69 6e 67 40 44 55 3f 24 63 68 61  c_string@DU?$cha
  40b520 72 5f 74 72 61 69 74 73 40 44 40 73 74 64 40 40  r_traits@D@std@@
  40b530 56 3f 24 61 6c 6c 6f 63 61 74 6f 72 40 44 40 32  V?$allocator@D@2
  40b540 40 40 73 74 64 40 40 51 41 45 41 41 56 31 32 40  @@std@@QAEAAV12@
  40b550 50 42 44 49 40 5a 00 00 e9 03 3f 5f 52 65 66 63  PBDI@Z....?_Refc
  40b560 6e 74 40 3f 24 62 61 73 69 63 5f 73 74 72 69 6e  nt@?$basic_strin
  40b570 67 40 44 55 3f 24 63 68 61 72 5f 74 72 61 69 74  g@DU?$char_trait
  40b580 73 40 44 40 73 74 64 40 40 56 3f 24 61 6c 6c 6f  s@D@std@@V?$allo
  40b590 63 61 74 6f 72 40 44 40 32 40 40 73 74 64 40 40  cator@D@2@@std@@
  40b5a0 41 41 45 41 41 45 50 42 44 40 5a 00 e7 00 3f 3f  AAEAAEPBD@Z...??
  40b5b0 31 3f 24 62 61 73 69 63 5f 73 74 72 65 61 6d 62  1?$basic_streamb
  40b5c0 75 66 40 44 55 3f 24 63 68 61 72 5f 74 72 61 69  uf@DU?$char_trai
  40b5d0 74 73 40 44 40 73 74 64 40 40 40 73 74 64 40 40  ts@D@std@@@std@@
  40b5e0 55 41 45 40 58 5a 00 00 f3 02 3f 3f 5f 44 3f 24  UAE@XZ....??_D?$
  40b5f0 62 61 73 69 63 5f 73 74 72 69 6e 67 73 74 72 65  basic_stringstre
  40b600 61 6d 40 44 55 3f 24 63 68 61 72 5f 74 72 61 69  am@DU?$char_trai
  40b610 74 73 40 44 40 73 74 64 40 40 56 3f 24 61 6c 6c  ts@D@std@@V?$all
  40b620 6f 63 61 74 6f 72 40 44 40 32 40 40 73 74 64 40  ocator@D@2@@std@
  40b630 40 51 41 45 58 58 5a 00 db 00 3f 3f 31 3f 24 62  @QAEXXZ...??1?$b
  40b640 61 73 69 63 5f 69 6f 73 74 72 65 61 6d 40 44 55  asic_iostream@DU
  40b650 3f 24 63 68 61 72 5f 74 72 61 69 74 73 40 44 40  ?$char_traits@D@
  40b660 73 74 64 40 40 40 73 74 64 40 40 55 41 45 40 58  std@@@std@@UAE@X
  40b670 5a 00 d9 00 3f 3f 31 3f 24 62 61 73 69 63 5f 69  Z...??1?$basic_i
  40b680 6f 73 40 44 55 3f 24 63 68 61 72 5f 74 72 61 69  os@DU?$char_trai
  40b690 74 73 40 44 40 73 74 64 40 40 40 73 74 64 40 40  ts@D@std@@@std@@
  40b6a0 55 41 45 40 58 5a 00 00 17 01 3f 3f 31 69 6f 73  UAE@XZ....??1ios
  40b6b0 5f 62 61 73 65 40 73 74 64 40 40 55 41 45 40 58  _base@std@@UAE@X
  40b6c0 5a 00 73 02 3f 3f 5f 37 3f 24 62 61 73 69 63 5f  Z.s.??_7?$basic_
  40b6d0 69 6f 73 40 44 55 3f 24 63 68 61 72 5f 74 72 61  ios@DU?$char_tra
  40b6e0 69 74 73 40 44 40 73 74 64 40 40 40 73 74 64 40  its@D@std@@@std@
  40b6f0 40 36 42 40 00 00 77 02 3f 3f 5f 37 3f 24 62 61  @6B@..w.??_7?$ba
  40b700 73 69 63 5f 69 73 74 72 65 61 6d 40 44 55 3f 24  sic_istream@DU?$
  40b710 63 68 61 72 5f 74 72 61 69 74 73 40 44 40 73 74  char_traits@D@st
  40b720 64 40 40 40 73 74 64 40 40 36 42 40 00 00 7d 02  d@@@std@@6B@..}.
  40b730 3f 3f 5f 37 3f 24 62 61 73 69 63 5f 6f 73 74 72  ??_7?$basic_ostr
  40b740 65 61 6d 40 44 55 3f 24 63 68 61 72 5f 74 72 61  eam@DU?$char_tra
  40b750 69 74 73 40 44 40 73 74 64 40 40 40 73 74 64 40  its@D@std@@@std@
  40b760 40 36 42 40 00 00 75 02 3f 3f 5f 37 3f 24 62 61  @6B@..u.??_7?$ba
  40b770 73 69 63 5f 69 6f 73 74 72 65 61 6d 40 44 55 3f  sic_iostream@DU?
  40b780 24 63 68 61 72 5f 74 72 61 69 74 73 40 44 40 73  $char_traits@D@s
  40b790 74 64 40 40 40 73 74 64 40 40 36 42 40 00 1a 01  td@@@std@@6B@...
  40b7a0 3f 3f 31 6c 6f 63 61 6c 65 40 73 74 64 40 40 51  ??1locale@std@@Q
  40b7b0 41 45 40 58 5a 00 81 02 3f 3f 5f 37 3f 24 62 61  AE@XZ...??_7?$ba
  40b7c0 73 69 63 5f 73 74 72 65 61 6d 62 75 66 40 44 55  sic_streambuf@DU
  40b7d0 3f 24 63 68 61 72 5f 74 72 61 69 74 73 40 44 40  ?$char_traits@D@
  40b7e0 73 74 64 40 40 40 73 74 64 40 40 36 42 40 00 00  std@@@std@@6B@..
  40b7f0 fa 03 3f 5f 54 69 64 79 40 3f 24 62 61 73 69 63  ..?_Tidy@?$basic
  40b800 5f 73 74 72 69 6e 67 62 75 66 40 44 55 3f 24 63  _stringbuf@DU?$c
  40b810 68 61 72 5f 74 72 61 69 74 73 40 44 40 73 74 64  har_traits@D@std
  40b820 40 40 56 3f 24 61 6c 6c 6f 63 61 74 6f 72 40 44  @@V?$allocator@D
  40b830 40 32 40 40 73 74 64 40 40 49 41 45 58 58 5a 00  @2@@std@@IAEXXZ.
  40b840 83 02 3f 3f 5f 37 3f 24 62 61 73 69 63 5f 73 74  ..??_7?$basic_st
  40b850 72 69 6e 67 62 75 66 40 44 55 3f 24 63 68 61 72  ringbuf@DU?$char
  40b860 5f 74 72 61 69 74 73 40 44 40 73 74 64 40 40 56  _traits@D@std@@V
  40b870 3f 24 61 6c 6c 6f 63 61 74 6f 72 40 44 40 32 40  ?$allocator@D@2@
  40b880 40 73 74 64 40 40 36 42 40 00 a4 07 3f 73 74 72  @std@@6B@...?str
  40b890 40 3f 24 62 61 73 69 63 5f 73 74 72 69 6e 67 73  @?$basic_strings
  40b8a0 74 72 65 61 6d 40 44 55 3f 24 63 68 61 72 5f 74  tream@DU?$char_t
  40b8b0 72 61 69 74 73 40 44 40 73 74 64 40 40 56 3f 24  raits@D@std@@V?$
  40b8c0 61 6c 6c 6f 63 61 74 6f 72 40 44 40 32 40 40 73  allocator@D@2@@s
  40b8d0 74 64 40 40 51 42 45 3f 41 56 3f 24 62 61 73 69  td@@QBE?AV?$basi
  40b8e0 63 5f 73 74 72 69 6e 67 40 44 55 3f 24 63 68 61  c_string@DU?$cha
  40b8f0 72 5f 74 72 61 69 74 73 40 44 40 73 74 64 40 40  r_traits@D@std@@
  40b900 56 3f 24 61 6c 6c 6f 63 61 74 6f 72 40 44 40 32  V?$allocator@D@2
  40b910 40 40 32 40 58 5a 00 00 d0 01 3f 3f 36 73 74 64  @@2@XZ....??6std
  40b920 40 40 59 41 41 41 56 3f 24 62 61 73 69 63 5f 6f  @@YAAAV?$basic_o
  40b930 73 74 72 65 61 6d 40 44 55 3f 24 63 68 61 72 5f  stream@DU?$char_
  40b940 74 72 61 69 74 73 40 44 40 73 74 64 40 40 40 30  traits@D@std@@@0
  40b950 40 41 41 56 31 30 40 50 42 44 40 5a 00 00 0f 05  @AAV10@PBD@Z....
  40b960 3f 65 6e 64 6c 40 73 74 64 40 40 59 41 41 41 56  ?endl@std@@YAAAV
  40b970 3f 24 62 61 73 69 63 5f 6f 73 74 72 65 61 6d 40  ?$basic_ostream@
  40b980 44 55 3f 24 63 68 61 72 5f 74 72 61 69 74 73 40  DU?$char_traits@
  40b990 44 40 73 74 64 40 40 40 31 40 41 41 56 32 31 40  D@std@@@1@AAV21@
  40b9a0 40 5a 00 00 c8 01 3f 3f 36 73 74 64 40 40 59 41  @Z....??6std@@YA
  40b9b0 41 41 56 3f 24 62 61 73 69 63 5f 6f 73 74 72 65  AAV?$basic_ostre
  40b9c0 61 6d 40 44 55 3f 24 63 68 61 72 5f 74 72 61 69  am@DU?$char_trai
  40b9d0 74 73 40 44 40 73 74 64 40 40 40 30 40 41 41 56  ts@D@std@@@0@AAV
  40b9e0 31 30 40 41 42 56 3f 24 62 61 73 69 63 5f 73 74  10@ABV?$basic_st
  40b9f0 72 69 6e 67 40 44 55 3f 24 63 68 61 72 5f 74 72  ring@DU?$char_tr
  40ba00 61 69 74 73 40 44 40 73 74 64 40 40 56 3f 24 61  aits@D@std@@V?$a
  40ba10 6c 6c 6f 63 61 74 6f 72 40 44 40 32 40 40 30 40  llocator@D@2@@0@
  40ba20 40 5a 00 00 85 02 3f 3f 5f 37 3f 24 62 61 73 69  @Z....??_7?$basi
  40ba30 63 5f 73 74 72 69 6e 67 73 74 72 65 61 6d 40 44  c_stringstream@D
  40ba40 55 3f 24 63 68 61 72 5f 74 72 61 69 74 73 40 44  U?$char_traits@D
  40ba50 40 73 74 64 40 40 56 3f 24 61 6c 6c 6f 63 61 74  @std@@V?$allocat
  40ba60 6f 72 40 44 40 32 40 40 73 74 64 40 40 36 42 40  or@D@2@@std@@6B@
  40ba70 00 00 57 00 3f 3f 30 3f 24 62 61 73 69 63 5f 73  ..W.??0?$basic_s
  40ba80 74 72 69 6e 67 62 75 66 40 44 55 3f 24 63 68 61  tringbuf@DU?$cha
  40ba90 72 5f 74 72 61 69 74 73 40 44 40 73 74 64 40 40  r_traits@D@std@@
  40baa0 56 3f 24 61 6c 6c 6f 63 61 74 6f 72 40 44 40 32  V?$allocator@D@2
  40bab0 40 40 73 74 64 40 40 51 41 45 40 48 40 5a 00 00  @@std@@QAE@H@Z..
  40bac0 20 00 3f 3f 30 3f 24 62 61 73 69 63 5f 69 6f 73   .??0?$basic_ios
  40bad0 74 72 65 61 6d 40 44 55 3f 24 63 68 61 72 5f 74  tream@DU?$char_t
  40bae0 72 61 69 74 73 40 44 40 73 74 64 40 40 40 73 74  raits@D@std@@@st
  40baf0 64 40 40 51 41 45 40 50 41 56 3f 24 62 61 73 69  d@@QAE@PAV?$basi
  40bb00 63 5f 73 74 72 65 61 6d 62 75 66 40 44 55 3f 24  c_streambuf@DU?$
  40bb10 63 68 61 72 5f 74 72 61 69 74 73 40 44 40 73 74  char_traits@D@st
  40bb20 64 40 40 40 31 40 40 5a 00 00 19 00 3f 3f 30 3f  d@@@1@@Z....??0?
  40bb30 24 62 61 73 69 63 5f 69 6f 73 40 44 55 3f 24 63  $basic_ios@DU?$c
  40bb40 68 61 72 5f 74 72 61 69 74 73 40 44 40 73 74 64  har_traits@D@std
  40bb50 40 40 40 73 74 64 40 40 49 41 45 40 58 5a 00 00  @@@std@@IAE@XZ..
  40bb60 ca 02 3f 3f 5f 38 3f 24 62 61 73 69 63 5f 73 74  ..??_8?$basic_st
  40bb70 72 69 6e 67 73 74 72 65 61 6d 40 44 55 3f 24 63  ringstream@DU?$c
  40bb80 68 61 72 5f 74 72 61 69 74 73 40 44 40 73 74 64  har_traits@D@std
  40bb90 40 40 56 3f 24 61 6c 6c 6f 63 61 74 6f 72 40 44  @@V?$allocator@D
  40bba0 40 32 40 40 73 74 64 40 40 37 42 3f 24 62 61 73  @2@@std@@7B?$bas
  40bbb0 69 63 5f 6f 73 74 72 65 61 6d 40 44 55 3f 24 63  ic_ostream@DU?$c
  40bbc0 68 61 72 5f 74 72 61 69 74 73 40 44 40 73 74 64  har_traits@D@std
  40bbd0 40 40 40 31 40 40 00 00 c9 02 3f 3f 5f 38 3f 24  @@@1@@....??_8?$
  40bbe0 62 61 73 69 63 5f 73 74 72 69 6e 67 73 74 72 65  basic_stringstre
  40bbf0 61 6d 40 44 55 3f 24 63 68 61 72 5f 74 72 61 69  am@DU?$char_trai
  40bc00 74 73 40 44 40 73 74 64 40 40 56 3f 24 61 6c 6c  ts@D@std@@V?$all
  40bc10 6f 63 61 74 6f 72 40 44 40 32 40 40 73 74 64 40  ocator@D@2@@std@
  40bc20 40 37 42 3f 24 62 61 73 69 63 5f 69 73 74 72 65  @7B?$basic_istre
  40bc30 61 6d 40 44 55 3f 24 63 68 61 72 5f 74 72 61 69  am@DU?$char_trai
  40bc40 74 73 40 44 40 73 74 64 40 40 40 31 40 40 00 00  ts@D@std@@@1@@..
  40bc50 29 05 3f 65 72 61 73 65 40 3f 24 62 61 73 69 63  ).?erase@?$basic
  40bc60 5f 73 74 72 69 6e 67 40 44 55 3f 24 63 68 61 72  _string@DU?$char
  40bc70 5f 74 72 61 69 74 73 40 44 40 73 74 64 40 40 56  _traits@D@std@@V
  40bc80 3f 24 61 6c 6c 6f 63 61 74 6f 72 40 44 40 32 40  ?$allocator@D@2@
  40bc90 40 73 74 64 40 40 51 41 45 41 41 56 31 32 40 49  @std@@QAEAAV12@I
  40bca0 49 40 5a 00 49 00 3f 3f 30 3f 24 62 61 73 69 63  I@Z.I.??0?$basic
  40bcb0 5f 73 74 72 69 6e 67 40 44 55 3f 24 63 68 61 72  _string@DU?$char
  40bcc0 5f 74 72 61 69 74 73 40 44 40 73 74 64 40 40 56  _traits@D@std@@V
  40bcd0 3f 24 61 6c 6c 6f 63 61 74 6f 72 40 44 40 32 40  ?$allocator@D@2@
  40bce0 40 73 74 64 40 40 51 41 45 40 41 42 56 3f 24 61  @std@@QAE@ABV?$a
  40bcf0 6c 6c 6f 63 61 74 6f 72 40 44 40 31 40 40 5a 00  llocator@D@1@@Z.
  40bd00 4d 53 56 43 50 36 30 2e 64 6c 6c 00 49 00 5f 5f  MSVCP60.dll.I.__
  40bd10 43 78 78 46 72 61 6d 65 48 61 6e 64 6c 65 72 00  CxxFrameHandler.
  40bd20 5d 02 66 72 65 61 64 00 62 02 66 73 65 65 6b 00  ].fread.b.fseek.
  40bd30 4c 02 66 63 6c 6f 73 65 00 00 c9 02 73 74 72 74  L.fclose....strt
  40bd40 6f 75 6c 00 0f 00 3f 3f 32 40 59 41 50 41 58 49  oul...??2@YAPAXI
  40bd50 40 5a 00 00 92 01 5f 70 75 72 65 63 61 6c 6c 00  @Z...._purecall.
  40bd60 66 02 66 77 72 69 74 65 00 00 b2 02 73 70 72 69  f.fwrite....spri
  40bd70 6e 74 66 00 98 02 6d 65 6d 6d 6f 76 65 00 9e 02  ntf...memmove...
  40bd80 70 72 69 6e 74 66 00 00 f1 00 5f 66 74 6f 6c 00  printf...._ftol.
  40bd90 59 01 5f 6d 62 73 63 6d 70 00 5f 01 5f 6d 62 73  Y._mbscmp._._mbs
  40bda0 69 63 6d 70 00 00 5e 02 66 72 65 65 00 00 4d 53  icmp..^.free..MS
  40bdb0 56 43 52 54 2e 64 6c 6c 00 00 55 00 5f 5f 64 6c  VCRT.dll..U.__dl
  40bdc0 6c 6f 6e 65 78 69 74 00 86 01 5f 6f 6e 65 78 69  lonexit..._onexi
  40bdd0 74 00 d3 00 5f 65 78 69 74 00 48 00 5f 58 63 70  t..._exit.H._Xcp
  40bde0 74 46 69 6c 74 65 72 00 49 02 65 78 69 74 00 00  tFilter.I.exit..
  40bdf0 64 00 5f 5f 70 5f 5f 5f 69 6e 69 74 65 6e 76 00  d.__p___initenv.
  40be00 58 00 5f 5f 67 65 74 6d 61 69 6e 61 72 67 73 00  X.__getmainargs.
  40be10 0f 01 5f 69 6e 69 74 74 65 72 6d 00 83 00 5f 5f  .._initterm...__
  40be20 73 65 74 75 73 65 72 6d 61 74 68 65 72 72 00 00  setusermatherr..
  40be30 9d 00 5f 61 64 6a 75 73 74 5f 66 64 69 76 00 00  .._adjust_fdiv..
  40be40 6a 00 5f 5f 70 5f 5f 63 6f 6d 6d 6f 64 65 00 00  j.__p__commode..
  40be50 6f 00 5f 5f 70 5f 5f 66 6d 6f 64 65 00 00 81 00  o.__p__fmode....
  40be60 5f 5f 73 65 74 5f 61 70 70 5f 74 79 70 65 00 00  __set_app_type..
  40be70 ca 00 5f 65 78 63 65 70 74 5f 68 61 6e 64 6c 65  .._except_handle
  40be80 72 33 00 00 b7 00 5f 63 6f 6e 74 72 6f 6c 66 70  r3...._controlfp
  40be90 00 00 56 45 52 53 49 4f 4e 2e 64 6c 6c 00        ..VERSION.dll.

Section .data (start = 0xc000, length = 0x1000, minimum allocation = 0x618):
    Address: c000
    Flags: 0xc0000040 (data, readable, writable)
    Alignment: 1 (2**0)
  40c000 00 00 00 00 d0 22 40 00 10 23 40 00 50 23 40 00  ....."@..#@.P#@.
  40c010 20 83 40 00 80 84 40 00 e0 85 40 00 00 00 00 00   .@...@...@.....
  40c020 00 00 00 00 00 00 00 00 00 00 00 00 00 00 00 00  ................
  40c030 44 c0 40 00 38 c0 40 00 4c 42 4b 32 30 30 30 30  D.@.8.@.LBK20000
  40c040 00 00 00 00 4c 42 4b 30 30 30 30 30 00 00 00 00  ....LBK00000....
  40c050 72 62 00 00 44 c0 40 00 5c c0 40 00 43 6f 70 79  rb..D.@.\.@.Copy
  40c060 72 69 67 68 74 20 28 43 29 20 31 39 39 36 20 2d  right (C) 1996 -
  40c070 20 32 30 30 32 20 4c 65 61 70 46 72 6f 67 20 45   2002 LeapFrog E
  40c080 6e 74 65 72 70 72 69 73 65 73 2c 20 49 6e 63 2e  nterprises, Inc.
  40c090 20 41 6c 6c 20 72 69 67 68 74 73 20 72 65 73 65   All rights rese
  40c0a0 72 76 65 64 2e 00 00 00 77 62 00 00 55 6e 6b 6e  rved....wb..Unkn
  40c0b0 6f 77 6e 20 74 79 70 65 20 25 30 34 58 00 00 00  own type %04X...
  40c0c0 54 72 61 69 6c 65 72 20 20 20 20 20 20 20 20 20  Trailer         
  40c0d0 20 00 00 00 5a 4c 69 62 20 63 6f 6d 70 72 65 73   ...ZLib compres
  40c0e0 73 65 64 20 20 00 00 00 55 6e 63 6f 6d 70 72 65  sed  ...Uncompre
  40c0f0 73 73 65 64 20 44 61 74 61 00 00 00 4e 6f 20 44  ssed Data...No D
  40c100 61 74 61 20 20 20 20 20 20 20 20 20 20 00 00 00  ata          ...
  40c110 43 72 65 61 74 65 64 20 65 6d 62 65 64 65 64 20  Created embeded 
  40c120 66 69 6c 65 20 27 25 73 27 0a 00 00 55 6e 61 62  file '%s'...Unab
  40c130 6c 65 20 74 6f 20 63 72 65 61 74 65 20 66 69 6c  le to create fil
  40c140 65 20 27 25 73 27 0a 00 55 6e 61 62 6c 65 20 74  e '%s'..Unable t
  40c150 6f 20 6f 70 65 6e 20 73 6f 75 72 63 65 20 64 6f  o open source do
  40c160 63 75 6d 65 6e 74 20 27 25 73 27 0a 00 00 00 00  cument '%s'.....
  40c170 2e 6c 62 6b 00 00 00 00 2e 00 00 00 25 73 63 6f  .lbk........%sco
  40c180 6d 70 72 65 73 73 65 64 20 66 69 6c 65 20 25 73  mpressed file %s
  40c190 0a 00 00 00 75 6e 00 00 75 6e 61 62 6c 65 20 74  ....un..unable t
  40c1a0 6f 20 63 72 65 61 74 65 20 64 65 73 74 69 6e 61  o create destina
  40c1b0 74 69 6f 6e 20 66 69 6c 65 0a 00 00 43 61 6e 20  tion file...Can 
  40c1c0 6f 6e 6c 79 20 63 6f 6d 70 72 65 73 73 20 4c 42  only compress LB
  40c1d0 4b 32 20 66 6f 72 6d 61 74 74 65 64 20 66 69 6c  K2 formatted fil
  40c1e0 65 73 0a 00 55 6e 61 62 6c 65 20 74 6f 20 6f 70  es..Unable to op
  40c1f0 65 6e 20 66 69 6c 65 20 27 25 73 27 0a 00 00 00  en file '%s'....
  40c200 6d 61 6b 65 48 65 6c 70 00 00 00 00 75 6e 63 6f  makeHelp....unco
  40c210 6d 70 72 65 73 73 00 00 63 6f 6d 70 72 65 73 73  mpress..compress
  40c220 00 00 00 00 74 00 00 00 53 65 74 73 20 74 68 65  ....t...Sets the
  40c230 20 74 69 74 6c 65 20 66 69 65 6c 64 20 69 6e 20   title field in 
  40c240 74 68 65 20 4c 42 4b 32 20 66 69 6c 65 00 00 00  the LBK2 file...
  40c250 6d 00 00 00 45 6e 63 6f 64 65 20 64 65 76 20 68  m...Encode dev h
  40c260 65 6c 70 20 64 6f 63 75 6d 65 6e 74 00 00 00 00  elp document....
  40c270 75 00 00 00 55 6e 63 6f 6d 70 72 65 73 73 20 62  u...Uncompress b
  40c280 6c 6f 63 6b 73 00 00 00 63 00 00 00 43 6f 6d 70  locks...c...Comp
  40c290 72 65 73 73 20 62 6c 6f 63 6b 73 00 66 69 6c 65  ress blocks.file
  40c2a0 2e 6c 62 6b 00 00 00 00 4c 42 4b 20 46 69 6c 65  .lbk....LBK File
  40c2b0 6e 61 6d 65 00 00 00 00 76 61 6c 75 65 00 00 00  name....value...
  40c2c0 5d 00 00 00 3e 00 00 00 20 3c 00 00 7c 00 00 00  ]...>... <..|...
  40c2d0 3c 00 00 00 5b 00 00 00 40 61 72 67 66 69 6c 65  <...[...@argfile
  40c2e0 09 52 65 61 64 20 61 72 67 75 6d 65 6e 74 73 20  .Read arguments 
  40c2f0 66 72 6f 6d 20 61 20 66 69 6c 65 2e 00 00 00 00  from a file.....
  40c300 2f 00 00 00 20 00 00 00 5b 40 61 72 67 66 69 6c  /... ...[@argfil
  40c310 65 5d 00 00 55 73 61 67 65 3a 20 00 45 78 70 65  e]..Usage: .Expe
  40c320 63 74 65 64 20 61 72 67 75 6d 65 6e 74 20 27 00  cted argument '.
  40c330 27 20 61 6c 72 65 61 64 79 20 70 72 65 73 65 6e  ' already presen
  40c340 74 2e 00 00 27 20 63 61 6e 6e 6f 74 20 61 63 63  t...' cannot acc
  40c350 65 70 74 20 70 61 72 61 6d 65 74 65 72 3a 20 27  ept parameter: '
  40c360 00 00 00 00 27 20 63 61 6e 6e 6f 74 20 61 63 63  ....' cannot acc
  40c370 65 70 74 20 61 6e 6f 74 68 65 72 20 70 61 72 61  ept another para
  40c380 6d 65 74 65 72 3a 20 27 00 00 00 00 27 20 65 78  meter: '....' ex
  40c390 70 65 63 74 73 20 61 20 70 61 72 61 6d 65 74 65  pects a paramete
  40c3a0 72 2e 00 00 41 72 67 75 6d 65 6e 74 20 27 00 00  r...Argument '..
  40c3b0 27 2e 00 00 55 6e 72 65 63 6f 67 6e 69 7a 65 64  '...Unrecognized
  40c3c0 20 61 72 67 75 6d 65 6e 74 20 27 00 76 65 72 73   argument '.vers
  40c3d0 69 6f 6e 00 68 65 6c 70 00 00 00 00 68 00 00 00  ion.help....h...
  40c3e0 76 00 00 00 53 68 6f 77 20 76 65 72 73 69 6f 6e  v...Show version
  40c3f0 2e 00 00 00 3f 00 00 00 53 68 6f 77 20 75 73 61  ....?...Show usa
  40c400 67 65 2e 00 4e 6f 74 20 61 6e 20 4c 42 4b 32 20  ge..Not an LBK2 
  40c410 66 6f 72 6d 61 74 20 66 69 6c 65 2c 20 63 61 6e  format file, can
  40c420 27 74 20 73 65 74 20 74 68 65 20 74 69 74 6c 65  't set the title
  40c430 0a 00 00 00 74 69 74 6c 65 20 6d 75 73 74 20 62  ....title must b
  40c440 65 20 6c 65 73 73 20 74 68 61 6e 20 31 32 38 20  e less than 128 
  40c450 63 68 61 72 61 63 74 65 72 73 20 6c 6f 6e 67 0a  characters long.
  40c460 00 00 00 00 09 09 09 09 09 09 09 09 63 6f 6d 70  ............comp
  40c470 72 65 73 73 65 64 20 74 6f 20 25 64 25 25 20 6f  ressed to %d%% o
  40c480 72 69 67 69 6e 61 6c 20 73 69 7a 65 0a 00 00 00  riginal size....
  40c490 0a 54 6f 74 61 6c 73 09 09 09 09 09 09 09 09 73  .Totals........s
  40c4a0 69 7a 65 3d 30 78 25 30 38 58 09 73 74 6f 72 65  ize=0x%08X.store
  40c4b0 64 20 73 69 7a 65 3d 30 78 25 30 38 58 0a 00 00  d size=0x%08X...
  40c4c0 25 33 64 20 25 73 20 54 79 70 65 20 25 73 09 73  %3d %s Type %s.s
  40c4d0 74 61 72 74 41 64 64 72 20 30 78 25 30 38 58 09  tartAddr 0x%08X.
  40c4e0 73 69 7a 65 20 30 78 25 30 38 58 09 73 74 6f 72  size 0x%08X.stor
  40c4f0 65 64 20 73 69 7a 65 20 30 78 25 30 38 58 0a 00  ed size 0x%08X..
  40c500 20 20 20 20 20 20 00 00 5b 4c 41 53 54 5d 00 00        ..[LAST]..
  40c510 0a 00 00 00 09 43 6f 70 79 72 69 67 68 74 20 3a  .....Copyright :
  40c520 20 25 73 0a 00 00 00 00 09 54 69 74 6c 65 20 20   %s......Title  
  40c530 20 20 20 3a 20 25 73 0a 00 00 00 00 09 50 61 63     : %s......Pac
  40c540 6b 61 67 65 49 64 20 3a 20 30 78 25 30 38 58 0a  kageId : 0x%08X.
  40c550 00 00 00 00 55 6e 6b 6e 6f 77 6e 0a 00 00 00 00  ....Unknown.....
  40c560 31 0a 00 00 32 0a 00 00 0a 4c 42 4b 20 56 65 72  1...2....LBK Ver
  40c570 73 69 6f 6e 20 3d 20 00 57 69 6e 00 4d 61 63 39  sion = .Win.Mac9
  40c580 00 00 00 00 4d 61 63 58 00 00 00 00 00 00 00 00  ....MacX........
  40c590 01 00 00 00 00 00 00 00 00 00 00 00 00 00 00 00  ................
  40c5a0 00 00 00 00 00 00 00 00 00 00 00 00 00 00 00 00  ................
  40c5b0 00 00 00 00 00 00 00 00 00 00 00 00 00 00 00 00  ................
  40c5c0 00 00 00 00 00 00 00 00 00 00 00 00 00 00 00 00  ................
  40c5d0 00 00 00 00 00 00 00 00 00 00 00 00 00 00 00 00  ................
  40c5e0 00 00 00 00 00 00 00 00 00 00 00 00 00 00 00 00  ................
  40c5f0 00 00 00 00 00 00 00 00 00 00 00 00 00 00 00 00  ................
  40c600 00 00 00 00 00 00 00 00 00 00 00 00 00 00 00 00  ................
  40c610 00 00 00 00 00 00 00 00                          ........

Section .rsrc (start = 0xd000, length = 0x1000, minimum allocation = 0x500):
    Address: d000
    Flags: 0x40000040 (data, readable)
    Alignment: 1 (2**0)
