File: Mindstation/LeapFrog/LbkUtils.exe
Module type: PE (Portable Executable)

Flags: 0x010f (relocations stripped, executable, line numbers stripped, local symbols stripped, 32-bit)
Image type: 32-bit
File version: 0.0
Linker version: 6.0
Program entry point: 0x408806
Base of code section: 0x1000
Base of data section: 0xa000
Preferred base address: 0x400000
Required OS version: 4.0
Subsystem: CUI
Subsystem version: 4.0
DLL flags: 0x0000 ()
Stack size (reserve): 1048576 bytes
Stack size (commit): 4096 bytes
Heap size (reserve): 1048576 bytes
Heap size (commit): 4096 bytes

No export table

Imported modules:
	KERNEL32.dll
	zlib.dll
	Utils.dll
	MSVCP60.dll
	MSVCRT.dll

Imported functions:
	KERNEL32.dll:
		InterlockedIncrement
		InterlockedDecrement
	zlib.dll:
		<ordinal 26>
		<ordinal 2>
	Utils.dll:
		?ExtendFileName@FileLocation@@QBE?AV1@ABV?$basic_string@DU?$char_traits@D@std@@V?$allocator@D@2@@std@@@Z
		?GetTemporaryFileName@FileManager@@SA?AVFileLocation@@PBD@Z
		?Move@FileManager@@SAXABVFileLocation@@0@Z
		?FileName@FileLocation@@QBE?AV?$basic_string@DU?$char_traits@D@std@@V?$allocator@D@2@@std@@XZ
		??0FileLocation@@QAE@ABV0@@Z
		??1FileLocation@@QAE@XZ
		?makeLocation@FileManager@@SA?AVFileLocation@@ABV?$basic_string@DU?$char_traits@D@std@@V?$allocator@D@2@@std@@@Z
		?Open@FileLocation@@QBEPAU_iobuf@@PBD@Z
	MSVCP60.dll:
		??1?$basic_ios@DU?$char_traits@D@std@@@std@@UAE@XZ
		??6std@@YAAAV?$basic_ostream@DU?$char_traits@D@std@@@0@AAV10@PBD@Z
		?endl@std@@YAAAV?$basic_ostream@DU?$char_traits@D@std@@@1@AAV21@@Z
		??1ios_base@std@@UAE@XZ
		?find_last_of@?$basic_string@DU?$char_traits@D@std@@V?$allocator@D@2@@std@@QBEIPBDII@Z
		??0?$basic_string@DU?$char_traits@D@std@@V?$allocator@D@2@@std@@QAE@PBDABV?$allocator@D@1@@Z
		??0?$basic_string@DU?$char_traits@D@std@@V?$allocator@D@2@@std@@QAE@ABV?$allocator@D@1@@Z
		??_8?$basic_stringstream@DU?$char_traits@D@std@@V?$allocator@D@2@@std@@7B?$basic_istream@DU?$char_traits@D@std@@@1@@
		??_8?$basic_stringstream@DU?$char_traits@D@std@@V?$allocator@D@2@@std@@7B?$basic_ostream@DU?$char_traits@D@std@@@1@@
		?erase@?$basic_string@DU?$char_traits@D@std@@V?$allocator@D@2@@std@@QAEAAV12@II@Z
		??0?$basic_iostream@DU?$char_traits@D@std@@@std@@QAE@PAV?$basic_streambuf@DU?$char_traits@D@std@@@1@@Z
		??0?$basic_stringbuf@DU?$char_traits@D@std@@V?$allocator@D@2@@std@@QAE@H@Z
		??0?$basic_ios@DU?$char_traits@D@std@@@std@@IAE@XZ
		??6std@@YAAAV?$basic_ostream@DU?$char_traits@D@std@@@0@AAV10@ABV?$basic_string@DU?$char_traits@D@std@@V?$allocator@D@2@@0@@Z
		??_7?$basic_stringstream@DU?$char_traits@D@std@@V?$allocator@D@2@@std@@6B@
		?str@?$basic_stringstream@DU?$char_traits@D@std@@V?$allocator@D@2@@std@@QBE?AV?$basic_string@DU?$char_traits@D@std@@V?$allocator@D@2@@2@XZ
		??1?$basic_string@DU?$char_traits@D@std@@V?$allocator@D@2@@std@@QAE@XZ
		?_Copy@?$basic_string@DU?$char_traits@D@std@@V?$allocator@D@2@@std@@AAEXI@Z
		?_Tidy@?$basic_string@DU?$char_traits@D@std@@V?$allocator@D@2@@std@@AAEX_N@Z
		?_Xlen@std@@YAXXZ
		?_C@?1??_Nullstr@?$basic_string@DU?$char_traits@D@std@@V?$allocator@D@2@@std@@CAPBDXZ@4DB
		??0Init@ios_base@std@@QAE@XZ
		??1Init@ios_base@std@@QAE@XZ
		??0_Winit@std@@QAE@XZ
		??1_Winit@std@@QAE@XZ
		?cout@std@@3V?$basic_ostream@DU?$char_traits@D@std@@@1@A
		?_Eos@?$basic_string@DU?$char_traits@D@std@@V?$allocator@D@2@@std@@AAEXI@Z
		?_Grow@?$basic_string@DU?$char_traits@D@std@@V?$allocator@D@2@@std@@AAE_NI_N@Z
		?_Split@?$basic_string@DU?$char_traits@D@std@@V?$allocator@D@2@@std@@AAEXXZ
		?_Xran@std@@YAXXZ
		?npos@?$basic_string@DU?$char_traits@D@std@@V?$allocator@D@2@@std@@2IB
		?assign@?$basic_string@DU?$char_traits@D@std@@V?$allocator@D@2@@std@@QAEAAV12@ABV12@II@Z
		?substr@?$basic_string@DU?$char_traits@D@std@@V?$allocator@D@2@@std@@QBE?AV12@II@Z
		?assign@?$basic_string@DU?$char_traits@D@std@@V?$allocator@D@2@@std@@QAEAAV12@PBDI@Z
		??_7?$basic_stringbuf@DU?$char_traits@D@std@@V?$allocator@D@2@@std@@6B@
		??Hstd@@YA?AV?$basic_string@DU?$char_traits@D@std@@V?$allocator@D@2@@0@ABV10@PBD@Z
		??Hstd@@YA?AV?$basic_string@DU?$char_traits@D@std@@V?$allocator@D@2@@0@PBDABV10@@Z
		??Hstd@@YA?AV?$basic_string@DU?$char_traits@D@std@@V?$allocator@D@2@@0@ABV10@0@Z
		?append@?$basic_string@DU?$char_traits@D@std@@V?$allocator@D@2@@std@@QAEAAV12@ABV12@II@Z
		?append@?$basic_string@DU?$char_traits@D@std@@V?$allocator@D@2@@std@@QAEAAV12@PBDI@Z
		?_Refcnt@?$basic_string@DU?$char_traits@D@std@@V?$allocator@D@2@@std@@AAEAAEPBD@Z
		??1?$basic_streambuf@DU?$char_traits@D@std@@@std@@UAE@XZ
		??_D?$basic_stringstream@DU?$char_traits@D@std@@V?$allocator@D@2@@std@@QAEXXZ
		??1?$basic_iostream@DU?$char_traits@D@std@@@std@@UAE@XZ
		??_7?$basic_ios@DU?$char_traits@D@std@@@std@@6B@
		??_7?$basic_istream@DU?$char_traits@D@std@@@std@@6B@
		??_7?$basic_ostream@DU?$char_traits@D@std@@@std@@6B@
		??_7?$basic_iostream@DU?$char_traits@D@std@@@std@@6B@
		??1locale@std@@QAE@XZ
		??_7?$basic_streambuf@DU?$char_traits@D@std@@@std@@6B@
		?_Tidy@?$basic_stringbuf@DU?$char_traits@D@std@@V?$allocator@D@2@@std@@IAEXXZ
	MSVCRT.dll:
		_XcptFilter
		_onexit
		_exit
		__getmainargs
		exit
		__p___initenv
		_adjust_fdiv
		_initterm
		__setusermatherr
		__set_app_type
		__p__commode
		__p__fmode
		_controlfp
		_except_handler3
		__dllonexit
		_purecall
		fwrite
		free
		_mbsicmp
		__CxxFrameHandler
		fread
		fseek
		fclose
		strtoul
		??2@YAPAXI@Z
		_mbscmp
		sprintf
		memmove
		printf
		_ftol

Section .text (start = 0x1000, length = 0x9000, minimum allocation = 0x80cb):
    Address: 1000
    Flags: 0x60000020 (code, executable, readable)
    Alignment: 1 (2**0)

401000 <no name>:
  401000:	51                        push	ecx
  401001:	8b 44 24 0c               mov	eax, [esp+0Ch]
  401005:	8b 4c 24 08               mov	ecx, [esp+08h]
  401009:	50                        push	eax
  40100a:	51                        push	ecx
  40100b:	8d 4c 24 08               lea	ecx, [esp+08h]
  40100f:	c7 44 24 08 88 a1 40      mov	dword [esp+08h], 0040A188h
		00 
  401017:	e8 24 25 00 00            call	403540
  40101c:	59                        pop	ecx
  40101d:	c3                        ret
     ...

401020 <no name>:
  401020:	51                        push	ecx
  401021:	8a 54 24 03               mov	dl, [esp+03h]
  401025:	8b c1                     mov	eax, ecx
  401027:	33 c9                     xor	ecx, ecx
  401029:	89 48 04                  mov	[eax+04h], ecx
  40102c:	89 48 08                  mov	[eax+08h], ecx
  40102f:	89 48 0c                  mov	[eax+0Ch], ecx
  401032:	88 50 10                  mov	[eax+10h], dl
  401035:	8a 54 24 03               mov	dl, [esp+03h]
  401039:	89 48 14                  mov	[eax+14h], ecx
  40103c:	89 48 18                  mov	[eax+18h], ecx
  40103f:	89 48 1c                  mov	[eax+1Ch], ecx
  401042:	88 50 20                  mov	[eax+20h], dl
  401045:	89 48 24                  mov	[eax+24h], ecx
  401048:	89 48 28                  mov	[eax+28h], ecx
  40104b:	89 48 2c                  mov	[eax+2Ch], ecx
  40104e:	c7 40 30 ff ff ff ff      mov	dword [eax+30h], FFFFFFFFh
  401055:	c7 00 8c a1 40 00         mov	dword [eax], 0040A18Ch
  40105b:	59                        pop	ecx
  40105c:	c3                        ret
     ...

401080 <no name>:
  401080:	6a ff                     push	dword FFFFFFFFh
  401082:	68 68 89 40 00            push	dword 00408968h
  401087:	64 a1 00 00 00 00         mov	eax, [fs:0000h]
  40108d:	50                        push	eax
  40108e:	64 89 25 00 00 00 00      mov	[fs:00000000h], esp
  401095:	51                        push	ecx
  401096:	53                        push	ebx
  401097:	56                        push	esi
  401098:	8b f1                     mov	esi, ecx
  40109a:	89 74 24 08               mov	[esp+08h], esi
  40109e:	c7 06 8c a1 40 00         mov	dword [esi], 0040A18Ch
  4010a4:	c7 44 24 14 01 00 00      mov	dword [esp+14h], 00000001h
		00 
  4010ac:	e8 9f 02 00 00            call	401350
  4010b1:	8b 46 24                  mov	eax, [esi+24h]
  4010b4:	33 db                     xor	ebx, ebx
  4010b6:	3b c3                     cmp	eax, ebx
  4010b8:	74 1d                     jz	4010d7
  4010ba:	8d 48 ff                  lea	ecx, [eax-01h]
  4010bd:	8a 40 ff                  mov	al, [eax-01h]
  4010c0:	3a c3                     cmp	al, bl
  4010c2:	74 0a                     jz	4010ce
  4010c4:	3c ff                     cmp	al, FFh
  4010c6:	74 06                     jz	4010ce
  4010c8:	fe c8                     dec	al
  4010ca:	88 01                     mov	[ecx], al
  4010cc:	eb 09                     jmp	4010d7
  4010ce:	51                       >push	ecx
  4010cf:	e8 78 76 00 00            call	40874c
  4010d4:	83 c4 04                  add	esp, 04h
  4010d7:	89 5e 24                 >mov	[esi+24h], ebx
  4010da:	89 5e 28                  mov	[esi+28h], ebx
  4010dd:	89 5e 2c                  mov	[esi+2Ch], ebx
  4010e0:	8b 46 14                  mov	eax, [esi+14h]
  4010e3:	3b c3                     cmp	eax, ebx
  4010e5:	74 1d                     jz	401104
  4010e7:	8d 48 ff                  lea	ecx, [eax-01h]
  4010ea:	8a 40 ff                  mov	al, [eax-01h]
  4010ed:	3a c3                     cmp	al, bl
  4010ef:	74 0a                     jz	4010fb
  4010f1:	3c ff                     cmp	al, FFh
  4010f3:	74 06                     jz	4010fb
  4010f5:	fe c8                     dec	al
  4010f7:	88 01                     mov	[ecx], al
  4010f9:	eb 09                     jmp	401104
  4010fb:	51                       >push	ecx
  4010fc:	e8 4b 76 00 00            call	40874c
  401101:	83 c4 04                  add	esp, 04h
  401104:	8b 4c 24 0c              >mov	ecx, [esp+0Ch]
  401108:	89 5e 14                  mov	[esi+14h], ebx
  40110b:	89 5e 18                  mov	[esi+18h], ebx
  40110e:	89 5e 1c                  mov	[esi+1Ch], ebx
  401111:	5e                        pop	esi
  401112:	5b                        pop	ebx
  401113:	64 89 0d 00 00 00 00      mov	[fs:00000000h], ecx
  40111a:	83 c4 10                  add	esp, 10h
  40111d:	c3                        ret
     ...

401120 <no name>:
  401120:	81 ec 08 01 00 00         sub	esp, 00000108h
  401126:	56                        push	esi
  401127:	8b f1                     mov	esi, ecx
  401129:	57                        push	edi
  40112a:	89 74 24 08               mov	[esp+08h], esi
  40112e:	e8 1d 02 00 00            call	401350
  401133:	8b 8c 24 14 01 00 00      mov	ecx, [esp+00000114h]
  40113a:	68 50 c0 40 00            push	dword 0040C050h
  40113f:	ff 15 74 a1 40 00         call	dword [0040A174h]	; <?Open@FileLocation@@QBEPAU_iobuf@@PBD@Z>
  401145:	85 c0                     test	eax, eax
  401147:	89 46 04                  mov	[esi+04h], eax
  40114a:	75 10                     jnz	40115c
  40114c:	5f                        pop	edi
  40114d:	b8 8a 00 00 00            mov	eax, 0000008Ah
  401152:	5e                        pop	esi
  401153:	81 c4 08 01 00 00         add	esp, 00000108h
  401159:	c2 04 00                  ret	0004h
  40115c:	8b ce                    >mov	ecx, esi
  40115e:	e8 2d 07 00 00            call	401890
  401163:	83 f8 6e                  cmp	eax, 6Eh
  401166:	0f 85 cc 01 00 00         jnz	401338
  40116c:	83 7e 0c 01               cmp	dword [esi+0Ch], 01h
  401170:	75 21                     jnz	401193
  401172:	8b 46 04                  mov	eax, [esi+04h]
  401175:	6a 00                     push	dword 00000000h
  401177:	6a 00                     push	dword 00000000h
  401179:	50                        push	eax
  40117a:	ff 15 30 a1 40 00         call	dword [0040A130h]	; <fseek>
  401180:	83 c4 0c                  add	esp, 0Ch
  401183:	b8 6e 00 00 00            mov	eax, 0000006Eh
  401188:	5f                        pop	edi
  401189:	5e                        pop	esi
  40118a:	81 c4 08 01 00 00         add	esp, 00000108h
  401190:	c2 04 00                  ret	0004h
  401193:	8d 4c 24 0c              >lea	ecx, [esp+0Ch]
  401197:	51                        push	ecx
  401198:	8b ce                     mov	ecx, esi
  40119a:	e8 91 07 00 00            call	401930
  40119f:	83 f8 6e                  cmp	eax, 6Eh
  4011a2:	0f 85 90 01 00 00         jnz	401338
  4011a8:	8b 56 04                  mov	edx, [esi+04h]
  4011ab:	8b 3d 2c a1 40 00         mov	edi, [0040A12Ch]
  4011b1:	52                        push	edx
  4011b2:	68 80 00 00 00            push	dword 00000080h
  4011b7:	8d 44 24 18               lea	eax, [esp+18h]
  4011bb:	6a 01                     push	dword 00000001h
  4011bd:	50                        push	eax
  4011be:	ff d7                     call	edi
  4011c0:	83 c4 10                  add	esp, 10h
  4011c3:	3d 80 00 00 00            cmp	eax, 00000080h
  4011c8:	74 10                     jz	4011da
  4011ca:	5f                        pop	edi
  4011cb:	b8 70 00 00 00            mov	eax, 00000070h
  4011d0:	5e                        pop	esi
  4011d1:	81 c4 08 01 00 00         add	esp, 00000108h
  4011d7:	c2 04 00                  ret	0004h
  4011da:	8b 4e 04                 >mov	ecx, [esi+04h]
  4011dd:	53                        push	ebx
  4011de:	55                        push	ebp
  4011df:	51                        push	ecx
  4011e0:	68 80 00 00 00            push	dword 00000080h
  4011e5:	8d 94 24 a0 00 00 00      lea	edx, [esp+000000A0h]
  4011ec:	6a 01                     push	dword 00000001h
  4011ee:	52                        push	edx
  4011ef:	ff d7                     call	edi
  4011f1:	8d 7c 24 28               lea	edi, [esp+28h]
  4011f5:	83 c9 ff                  or	ecx, FFh
  4011f8:	33 c0                     xor	eax, eax
  4011fa:	83 c4 10                  add	esp, 10h
  4011fd:	f2 ae                     repne scasb
  4011ff:	f7 d1                     not	ecx
  401201:	49                        dec	ecx
  401202:	8d 5e 10                  lea	ebx, [esi+10h]
  401205:	8b e9                     mov	ebp, ecx
  401207:	83 fd fd                  cmp	ebp, FDh
  40120a:	76 06                     jbe	401212
  40120c:	ff 15 58 a0 40 00         call	dword [0040A058h]	; <?_Xlen@std@@YAXXZ>
  401212:	8b 4b 04                 >mov	ecx, [ebx+04h]
  401215:	85 c9                     test	ecx, ecx
  401217:	74 1f                     jz	401238
  401219:	8a 41 ff                  mov	al, [ecx-01h]
  40121c:	84 c0                     test	al, al
  40121e:	74 18                     jz	401238
  401220:	3c ff                     cmp	al, FFh
  401222:	74 14                     jz	401238
  401224:	85 ed                     test	ebp, ebp
  401226:	75 36                     jnz	40125e
  401228:	fe c8                     dec	al
  40122a:	55                        push	ebp
  40122b:	88 41 ff                  mov	[ecx-01h], al
  40122e:	8b cb                     mov	ecx, ebx
  401230:	ff 15 54 a0 40 00         call	dword [0040A054h]	; <?_Tidy@?$basic_string@DU?$char_traits@D@std@@V?$allocator@D@2@@std@@AAEX_N@Z>
  401236:	eb 54                     jmp	40128c
  401238:	85 ed                    >test	ebp, ebp
  40123a:	75 0c                     jnz	401248
  40123c:	6a 01                     push	dword 00000001h
  40123e:	8b cb                     mov	ecx, ebx
  401240:	ff 15 54 a0 40 00         call	dword [0040A054h]	; <?_Tidy@?$basic_string@DU?$char_traits@D@std@@V?$allocator@D@2@@std@@AAEX_N@Z>
  401246:	eb 44                     jmp	40128c
  401248:	8b 43 0c                 >mov	eax, [ebx+0Ch]
  40124b:	83 f8 1f                  cmp	eax, 1Fh
  40124e:	77 04                     ja	401254
  401250:	3b c5                     cmp	eax, ebp
  401252:	73 13                     jae	401267
  401254:	6a 01                    >push	dword 00000001h
  401256:	8b cb                     mov	ecx, ebx
  401258:	ff 15 54 a0 40 00         call	dword [0040A054h]	; <?_Tidy@?$basic_string@DU?$char_traits@D@std@@V?$allocator@D@2@@std@@AAEX_N@Z>
  40125e:	55                       >push	ebp
  40125f:	8b cb                     mov	ecx, ebx
  401261:	ff 15 50 a0 40 00         call	dword [0040A050h]	; <?_Copy@?$basic_string@DU?$char_traits@D@std@@V?$allocator@D@2@@std@@AAEXI@Z>
  401267:	8b 7b 04                 >mov	edi, [ebx+04h]
  40126a:	8b cd                     mov	ecx, ebp
  40126c:	8b c1                     mov	eax, ecx
  40126e:	8d 74 24 18               lea	esi, [esp+18h]
  401272:	c1 e9 02                  shr	ecx, 02h
  401275:	f3 a5                     rep movsd
  401277:	8b c8                     mov	ecx, eax
  401279:	83 e1 03                  and	ecx, 03h
  40127c:	f3 a4                     rep movsb
  40127e:	8b 4b 04                  mov	ecx, [ebx+04h]
  401281:	8b 74 24 10               mov	esi, [esp+10h]
  401285:	89 6b 08                  mov	[ebx+08h], ebp
  401288:	c6 04 29 00               mov	byte [ecx+ebp*1], 00h
  40128c:	8d bc 24 98 00 00 00     >lea	edi, [esp+00000098h]
  401293:	83 c9 ff                  or	ecx, FFh
  401296:	33 c0                     xor	eax, eax
  401298:	8d 5e 20                  lea	ebx, [esi+20h]
  40129b:	f2 ae                     repne scasb
  40129d:	f7 d1                     not	ecx
  40129f:	49                        dec	ecx
  4012a0:	8b e9                     mov	ebp, ecx
  4012a2:	83 fd fd                  cmp	ebp, FDh
  4012a5:	76 06                     jbe	4012ad
  4012a7:	ff 15 58 a0 40 00         call	dword [0040A058h]	; <?_Xlen@std@@YAXXZ>
  4012ad:	8b 4b 04                 >mov	ecx, [ebx+04h]
  4012b0:	85 c9                     test	ecx, ecx
  4012b2:	74 1f                     jz	4012d3
  4012b4:	8a 41 ff                  mov	al, [ecx-01h]
  4012b7:	84 c0                     test	al, al
  4012b9:	74 18                     jz	4012d3
  4012bb:	3c ff                     cmp	al, FFh
  4012bd:	74 14                     jz	4012d3
  4012bf:	85 ed                     test	ebp, ebp
  4012c1:	75 36                     jnz	4012f9
  4012c3:	fe c8                     dec	al
  4012c5:	55                        push	ebp
  4012c6:	88 41 ff                  mov	[ecx-01h], al
  4012c9:	8b cb                     mov	ecx, ebx
  4012cb:	ff 15 54 a0 40 00         call	dword [0040A054h]	; <?_Tidy@?$basic_string@DU?$char_traits@D@std@@V?$allocator@D@2@@std@@AAEX_N@Z>
  4012d1:	eb 57                     jmp	40132a
  4012d3:	85 ed                    >test	ebp, ebp
  4012d5:	75 0c                     jnz	4012e3
  4012d7:	6a 01                     push	dword 00000001h
  4012d9:	8b cb                     mov	ecx, ebx
  4012db:	ff 15 54 a0 40 00         call	dword [0040A054h]	; <?_Tidy@?$basic_string@DU?$char_traits@D@std@@V?$allocator@D@2@@std@@AAEX_N@Z>
  4012e1:	eb 47                     jmp	40132a
  4012e3:	8b 43 0c                 >mov	eax, [ebx+0Ch]
  4012e6:	83 f8 1f                  cmp	eax, 1Fh
  4012e9:	77 04                     ja	4012ef
  4012eb:	3b c5                     cmp	eax, ebp
  4012ed:	73 13                     jae	401302
  4012ef:	6a 01                    >push	dword 00000001h
  4012f1:	8b cb                     mov	ecx, ebx
  4012f3:	ff 15 54 a0 40 00         call	dword [0040A054h]	; <?_Tidy@?$basic_string@DU?$char_traits@D@std@@V?$allocator@D@2@@std@@AAEX_N@Z>
  4012f9:	55                       >push	ebp
  4012fa:	8b cb                     mov	ecx, ebx
  4012fc:	ff 15 50 a0 40 00         call	dword [0040A050h]	; <?_Copy@?$basic_string@DU?$char_traits@D@std@@V?$allocator@D@2@@std@@AAEXI@Z>
  401302:	8b 7b 04                 >mov	edi, [ebx+04h]
  401305:	8b cd                     mov	ecx, ebp
  401307:	8b d1                     mov	edx, ecx
  401309:	8d b4 24 98 00 00 00      lea	esi, [esp+00000098h]
  401310:	c1 e9 02                  shr	ecx, 02h
  401313:	f3 a5                     rep movsd
  401315:	8b ca                     mov	ecx, edx
  401317:	83 e1 03                  and	ecx, 03h
  40131a:	f3 a4                     rep movsb
  40131c:	8b 43 04                  mov	eax, [ebx+04h]
  40131f:	8b 74 24 10               mov	esi, [esp+10h]
  401323:	89 6b 08                  mov	[ebx+08h], ebp
  401326:	c6 04 28 00               mov	byte [eax+ebp*1], 00h
  40132a:	8b 4c 24 14              >mov	ecx, [esp+14h]
  40132e:	5d                        pop	ebp
  40132f:	89 4e 30                  mov	[esi+30h], ecx
  401332:	5b                        pop	ebx
  401333:	b8 6e 00 00 00            mov	eax, 0000006Eh
  401338:	5f                       >pop	edi
  401339:	5e                        pop	esi
  40133a:	81 c4 08 01 00 00         add	esp, 00000108h
  401340:	c2 04 00                  ret	0004h
     ...

401350 <no name>:
  401350:	56                        push	esi
  401351:	8b f1                     mov	esi, ecx
  401353:	8b 46 04                  mov	eax, [esi+04h]
  401356:	85 c0                     test	eax, eax
  401358:	74 18                     jz	401372
  40135a:	50                        push	eax
  40135b:	ff 15 34 a1 40 00         call	dword [0040A134h]	; <fclose>
  401361:	83 c4 04                  add	esp, 04h
  401364:	c7 46 04 00 00 00 00      mov	dword [esi+04h], 00000000h
  40136b:	c7 46 0c 00 00 00 00      mov	dword [esi+0Ch], 00000000h
  401372:	5e                       >pop	esi
  401373:	c3                        ret
     ...

401380 <no name>:
  401380:	8b 41 0c                  mov	eax, [ecx+0Ch]
  401383:	c3                        ret
     ...

401390 <no name>:
  401390:	8d 41 10                  lea	eax, [ecx+10h]
  401393:	c3                        ret
     ...

4013a0 <no name>:
  4013a0:	8d 41 20                  lea	eax, [ecx+20h]
  4013a3:	c3                        ret
     ...

4013b0 <no name>:
  4013b0:	8b 41 30                  mov	eax, [ecx+30h]
  4013b3:	c3                        ret
     ...

4013c0 <no name>:
  4013c0:	83 ec 20                  sub	esp, 20h
  4013c3:	56                        push	esi
  4013c4:	8b f1                     mov	esi, ecx
  4013c6:	57                        push	edi
  4013c7:	8b 7c 24 2c               mov	edi, [esp+2Ch]
  4013cb:	8b 46 04                  mov	eax, [esi+04h]
  4013ce:	8d 4c 24 08               lea	ecx, [esp+08h]
  4013d2:	50                        push	eax
  4013d3:	57                        push	edi
  4013d4:	6a 01                     push	dword 00000001h
  4013d6:	51                        push	ecx
  4013d7:	ff 15 2c a1 40 00         call	dword [0040A12Ch]	; <fread>
  4013dd:	83 c4 10                  add	esp, 10h
  4013e0:	3b f8                     cmp	edi, eax
  4013e2:	74 14                     jz	4013f8
  4013e4:	8b ce                     mov	ecx, esi
  4013e6:	e8 65 ff ff ff            call	401350
  4013eb:	5f                        pop	edi
  4013ec:	b8 72 00 00 00            mov	eax, 00000072h
  4013f1:	5e                        pop	esi
  4013f2:	83 c4 20                  add	esp, 20h
  4013f5:	c2 08 00                  ret	0008h
  4013f8:	8d 54 24 2c              >lea	edx, [esp+2Ch]
  4013fc:	6a 10                     push	dword 00000010h
  4013fe:	8d 44 24 0c               lea	eax, [esp+0Ch]
  401402:	52                        push	edx
  401403:	50                        push	eax
  401404:	c6 44 3c 14 00            mov	byte [esp+edi*1+14h], 00h
  401409:	ff 15 38 a1 40 00         call	dword [0040A138h]	; <strtoul>
  40140f:	8b 4c 24 3c               mov	ecx, [esp+3Ch]
  401413:	83 c4 0c                  add	esp, 0Ch
  401416:	89 01                     mov	[ecx], eax
  401418:	5f                        pop	edi
  401419:	b8 6e 00 00 00            mov	eax, 0000006Eh
  40141e:	5e                        pop	esi
  40141f:	83 c4 20                  add	esp, 20h
  401422:	c2 08 00                  ret	0008h
     ...

401430 <no name>:
  401430:	83 ec 44                  sub	esp, 44h
  401433:	a1 54 c0 40 00            mov	eax, [40C054h]
  401438:	56                        push	esi
  401439:	8b f1                     mov	esi, ecx
  40143b:	8b 08                     mov	ecx, [eax]
  40143d:	89 4c 24 04               mov	[esp+04h], ecx
  401441:	8b 50 04                  mov	edx, [eax+04h]
  401444:	8b ce                     mov	ecx, esi
  401446:	89 54 24 08               mov	[esp+08h], edx
  40144a:	e8 41 04 00 00            call	401890
  40144f:	83 f8 6e                  cmp	eax, 6Eh
  401452:	0f 85 8c 00 00 00         jnz	4014e4
  401458:	8d 44 24 0c               lea	eax, [esp+0Ch]
  40145c:	8b ce                     mov	ecx, esi
  40145e:	50                        push	eax
  40145f:	6a 08                     push	dword 00000008h
  401461:	e8 5a ff ff ff            call	4013c0
  401466:	83 f8 6e                  cmp	eax, 6Eh
  401469:	75 79                     jnz	4014e4
  40146b:	8d 4c 24 10               lea	ecx, [esp+10h]
  40146f:	51                        push	ecx
  401470:	6a 08                     push	dword 00000008h
  401472:	8b ce                     mov	ecx, esi
  401474:	e8 47 ff ff ff            call	4013c0
  401479:	83 f8 6e                  cmp	eax, 6Eh
  40147c:	75 66                     jnz	4014e4
  40147e:	8b 54 24 0c               mov	edx, [esp+0Ch]
  401482:	8b 74 24 50               mov	esi, [esp+50h]
  401486:	53                        push	ebx
  401487:	8b 5c 24 14               mov	ebx, [esp+14h]
  40148b:	83 fa ff                  cmp	edx, FFh
  40148e:	57                        push	edi
  40148f:	75 07                     jnz	401498
  401491:	85 db                     test	ebx, ebx
  401493:	75 03                     jnz	401498
  401495:	c6 06 01                  mov	byte [esi], 01h
  401498:	b9 07 00 00 00           >mov	ecx, 00000007h
  40149d:	33 c0                     xor	eax, eax
  40149f:	8d 7c 24 30               lea	edi, [esp+30h]
  4014a3:	c7 44 24 28 00 00 00      mov	dword [esp+28h], 00000000h
		00 
  4014ab:	f3 ab                     rep stosd
  4014ad:	8b 44 24 54               mov	eax, [esp+54h]
  4014b1:	8d 4b 01                  lea	ecx, [ebx+01h]
  4014b4:	5f                        pop	edi
  4014b5:	5b                        pop	ebx
  4014b6:	89 50 04                  mov	[eax+04h], edx
  4014b9:	8b 54 24 20               mov	edx, [esp+20h]
  4014bd:	c7 00 02 00 00 00         mov	dword [eax], 00000002h
  4014c3:	89 48 08                  mov	[eax+08h], ecx
  4014c6:	89 50 0c                  mov	[eax+0Ch], edx
  4014c9:	89 48 10                  mov	[eax+10h], ecx
  4014cc:	c7 40 30 01 00 00 00      mov	dword [eax+30h], 00000001h
  4014d3:	8a 0e                     mov	cl, [esi]
  4014d5:	84 c9                     test	cl, cl
  4014d7:	74 06                     jz	4014df
  4014d9:	c7 00 ff ff ff ff         mov	dword [eax], FFFFFFFFh
  4014df:	b8 6e 00 00 00           >mov	eax, 0000006Eh
  4014e4:	5e                       >pop	esi
  4014e5:	83 c4 44                  add	esp, 44h
  4014e8:	c2 08 00                  ret	0008h
     ...

4014f0 <no name>:
  4014f0:	83 ec 30                  sub	esp, 30h
  4014f3:	56                        push	esi
  4014f4:	8b f1                     mov	esi, ecx
  4014f6:	57                        push	edi
  4014f7:	33 c0                     xor	eax, eax
  4014f9:	b9 07 00 00 00            mov	ecx, 00000007h
  4014fe:	8d 7c 24 1c               lea	edi, [esp+1Ch]
  401502:	c7 44 24 08 01 00 00      mov	dword [esp+08h], 00000001h
		00 
  40150a:	89 44 24 0c               mov	[esp+0Ch], eax
  40150e:	89 44 24 10               mov	[esp+10h], eax
  401512:	89 44 24 14               mov	[esp+14h], eax
  401516:	89 44 24 18               mov	[esp+18h], eax
  40151a:	f3 ab                     rep stosd
  40151c:	8d 44 24 08               lea	eax, [esp+08h]
  401520:	8b ce                     mov	ecx, esi
  401522:	50                        push	eax
  401523:	e8 08 04 00 00            call	401930
  401528:	83 f8 6e                  cmp	eax, 6Eh
  40152b:	0f 85 b2 00 00 00         jnz	4015e3
  401531:	8d 4c 24 0c               lea	ecx, [esp+0Ch]
  401535:	51                        push	ecx
  401536:	8b ce                     mov	ecx, esi
  401538:	e8 f3 03 00 00            call	401930
  40153d:	83 f8 6e                  cmp	eax, 6Eh
  401540:	0f 85 9d 00 00 00         jnz	4015e3
  401546:	8d 54 24 10               lea	edx, [esp+10h]
  40154a:	8b ce                     mov	ecx, esi
  40154c:	52                        push	edx
  40154d:	e8 de 03 00 00            call	401930
  401552:	83 f8 6e                  cmp	eax, 6Eh
  401555:	0f 85 88 00 00 00         jnz	4015e3
  40155b:	8d 44 24 14               lea	eax, [esp+14h]
  40155f:	8b ce                     mov	ecx, esi
  401561:	50                        push	eax
  401562:	e8 c9 03 00 00            call	401930
  401567:	83 f8 6e                  cmp	eax, 6Eh
  40156a:	75 77                     jnz	4015e3
  40156c:	8d 4c 24 18               lea	ecx, [esp+18h]
  401570:	51                        push	ecx
  401571:	8b ce                     mov	ecx, esi
  401573:	e8 b8 03 00 00            call	401930
  401578:	83 f8 6e                  cmp	eax, 6Eh
  40157b:	75 66                     jnz	4015e3
  40157d:	8b 56 04                  mov	edx, [esi+04h]
  401580:	8d 44 24 1c               lea	eax, [esp+1Ch]
  401584:	52                        push	edx
  401585:	6a 1c                     push	dword 0000001Ch
  401587:	6a 01                     push	dword 00000001h
  401589:	50                        push	eax
  40158a:	ff 15 2c a1 40 00         call	dword [0040A12Ch]	; <fread>
  401590:	83 c4 10                  add	esp, 10h
  401593:	83 f8 1c                  cmp	eax, 1Ch
  401596:	74 0d                     jz	4015a5
  401598:	5f                        pop	edi
  401599:	b8 6f 00 00 00            mov	eax, 0000006Fh
  40159e:	5e                        pop	esi
  40159f:	83 c4 30                  add	esp, 30h
  4015a2:	c2 08 00                  ret	0008h
  4015a5:	8b 44 24 3c              >mov	eax, [esp+3Ch]
  4015a9:	8b 54 24 0c               mov	edx, [esp+0Ch]
  4015ad:	8b 4c 24 08               mov	ecx, [esp+08h]
  4015b1:	89 50 04                  mov	[eax+04h], edx
  4015b4:	8b 54 24 10               mov	edx, [esp+10h]
  4015b8:	89 50 08                  mov	[eax+08h], edx
  4015bb:	8b 54 24 14               mov	edx, [esp+14h]
  4015bf:	89 50 0c                  mov	[eax+0Ch], edx
  4015c2:	8b 54 24 18               mov	edx, [esp+18h]
  4015c6:	89 08                     mov	[eax], ecx
  4015c8:	83 f9 ff                  cmp	ecx, FFh
  4015cb:	8b 4c 24 40               mov	ecx, [esp+40h]
  4015cf:	89 50 10                  mov	[eax+10h], edx
  4015d2:	c7 40 30 02 00 00 00      mov	dword [eax+30h], 00000002h
  4015d9:	0f 94 c0                  setz	al
  4015dc:	88 01                     mov	[ecx], al
  4015de:	b8 6e 00 00 00            mov	eax, 0000006Eh
  4015e3:	5f                       >pop	edi
  4015e4:	5e                        pop	esi
  4015e5:	83 c4 30                  add	esp, 30h
  4015e8:	c2 08 00                  ret	0008h
     ...

4015f0 <no name>:
  4015f0:	51                        push	ecx
  4015f1:	53                        push	ebx
  4015f2:	55                        push	ebp
  4015f3:	56                        push	esi
  4015f4:	57                        push	edi
  4015f5:	33 db                     xor	ebx, ebx
  4015f7:	8b e9                     mov	ebp, ecx
  4015f9:	6a 40                     push	dword 00000040h
  4015fb:	89 5c 24 14               mov	[esp+14h], ebx
  4015ff:	e8 7c 71 00 00            call	408780	; <??2@YAPAXI@Z>
  401604:	8b d0                     mov	edx, eax
  401606:	83 c4 04                  add	esp, 04h
  401609:	3b d3                     cmp	edx, ebx
  40160b:	74 30                     jz	40163d
  40160d:	b9 07 00 00 00            mov	ecx, 00000007h
  401612:	33 c0                     xor	eax, eax
  401614:	8d 7a 14                  lea	edi, [edx+14h]
  401617:	c7 02 01 00 00 00         mov	dword [edx], 00000001h
  40161d:	89 5a 04                  mov	[edx+04h], ebx
  401620:	89 5a 08                  mov	[edx+08h], ebx
  401623:	89 5a 0c                  mov	[edx+0Ch], ebx
  401626:	89 5a 10                  mov	[edx+10h], ebx
  401629:	f3 ab                     rep stosd
  40162b:	89 5a 30                  mov	[edx+30h], ebx
  40162e:	89 5a 34                  mov	[edx+34h], ebx
  401631:	89 5a 38                  mov	[edx+38h], ebx
  401634:	c7 42 3c 01 00 00 00      mov	dword [edx+3Ch], 00000001h
  40163b:	eb 02                     jmp	40163f
  40163d:	33 d2                    >xor	edx, edx
  40163f:	8b 44 24 1c              >mov	eax, [esp+1Ch]
  401643:	8b 74 24 18               mov	esi, [esp+18h]
  401647:	8d 4c 24 10               lea	ecx, [esp+10h]
  40164b:	50                        push	eax
  40164c:	51                        push	ecx
  40164d:	52                        push	edx
  40164e:	6a 01                     push	dword 00000001h
  401650:	8b cd                     mov	ecx, ebp
  401652:	89 16                     mov	[esi], edx
  401654:	e8 d7 00 00 00            call	401730
  401659:	8b c8                     mov	ecx, eax
  40165b:	8b 44 24 10               mov	eax, [esp+10h]
  40165f:	3b c3                     cmp	eax, ebx
  401661:	89 4c 24 18               mov	[esp+18h], ecx
  401665:	0f 84 af 00 00 00         jz	40171a
  40166b:	8b 36                     mov	esi, [esi]
  40166d:	8b e8                     mov	ebp, eax
  40166f:	8b 7e 38                  mov	edi, [esi+38h]
  401672:	3b fb                     cmp	edi, ebx
  401674:	74 20                     jz	401696
  401676:	8d 57 10                  lea	edx, [edi+10h]
  401679:	52                        push	edx
  40167a:	e8 91 6c 00 00            call	408310
  40167f:	83 c4 04                  add	esp, 04h
  401682:	85 c0                     test	eax, eax
  401684:	75 0d                     jnz	401693
  401686:	3b fb                     cmp	edi, ebx
  401688:	74 09                     jz	401693
  40168a:	6a 01                     push	dword 00000001h
  40168c:	8b cf                     mov	ecx, edi
  40168e:	e8 0d 03 00 00            call	4019a0
  401693:	89 5e 38                 >mov	[esi+38h], ebx
  401696:	8b 7e 34                 >mov	edi, [esi+34h]
  401699:	3b fb                     cmp	edi, ebx
  40169b:	74 27                     jz	4016c4
  40169d:	8d 47 10                  lea	eax, [edi+10h]
  4016a0:	50                        push	eax
  4016a1:	e8 6a 6c 00 00            call	408310
  4016a6:	83 c4 04                  add	esp, 04h
  4016a9:	85 c0                     test	eax, eax
  4016ab:	75 14                     jnz	4016c1
  4016ad:	3b fb                     cmp	edi, ebx
  4016af:	74 10                     jz	4016c1
  4016b1:	8b cf                     mov	ecx, edi
  4016b3:	e8 08 03 00 00            call	4019c0
  4016b8:	57                        push	edi
  4016b9:	e8 8e 70 00 00            call	40874c
  4016be:	83 c4 04                  add	esp, 04h
  4016c1:	89 5e 34                 >mov	[esi+34h], ebx
  4016c4:	3b eb                    >cmp	ebp, ebx
  4016c6:	89 6e 34                  mov	[esi+34h], ebp
  4016c9:	74 0c                     jz	4016d7
  4016cb:	83 c5 10                  add	ebp, 10h
  4016ce:	55                        push	ebp
  4016cf:	e8 2c 6c 00 00            call	408300
  4016d4:	83 c4 04                  add	esp, 04h
  4016d7:	8b 74 24 10              >mov	esi, [esp+10h]
  4016db:	8d 4e 10                  lea	ecx, [esi+10h]
  4016de:	51                        push	ecx
  4016df:	e8 2c 6c 00 00            call	408310
  4016e4:	83 c4 04                  add	esp, 04h
  4016e7:	85 c0                     test	eax, eax
  4016e9:	75 23                     jnz	40170e
  4016eb:	3b f3                     cmp	esi, ebx
  4016ed:	74 1f                     jz	40170e
  4016ef:	8b 46 04                  mov	eax, [esi+04h]
  4016f2:	50                        push	eax
  4016f3:	89 44 24 20               mov	[esp+20h], eax
  4016f7:	e8 50 70 00 00            call	40874c
  4016fc:	56                        push	esi
  4016fd:	89 5e 04                  mov	[esi+04h], ebx
  401700:	89 5e 08                  mov	[esi+08h], ebx
  401703:	89 5e 0c                  mov	[esi+0Ch], ebx
  401706:	e8 41 70 00 00            call	40874c
  40170b:	83 c4 08                  add	esp, 08h
  40170e:	8b 44 24 18              >mov	eax, [esp+18h]
  401712:	5f                        pop	edi
  401713:	5e                        pop	esi
  401714:	5d                        pop	ebp
  401715:	5b                        pop	ebx
  401716:	59                        pop	ecx
  401717:	c2 08 00                  ret	0008h
  40171a:	5f                       >pop	edi
  40171b:	5e                        pop	esi
  40171c:	5d                        pop	ebp
  40171d:	8b c1                     mov	eax, ecx
  40171f:	5b                        pop	ebx
  401720:	59                        pop	ecx
  401721:	c2 08 00                  ret	0008h
     ...

401730 <no name>:
  401730:	53                        push	ebx
  401731:	55                        push	ebp
  401732:	8b 6c 24 10               mov	ebp, [esp+10h]
  401736:	56                        push	esi
  401737:	8b 74 24 1c               mov	esi, [esp+1Ch]
  40173b:	8b d9                     mov	ebx, ecx
  40173d:	56                        push	esi
  40173e:	55                        push	ebp
  40173f:	c6 06 00                  mov	byte [esi], 00h
  401742:	8b 43 0c                  mov	eax, [ebx+0Ch]
  401745:	83 f8 01                  cmp	eax, 01h
  401748:	75 07                     jnz	401751
  40174a:	e8 e1 fc ff ff            call	401430
  40174f:	eb 05                     jmp	401756
  401751:	e8 9a fd ff ff           >call	4014f0
  401756:	80 3e 00                 >cmp	byte [esi], 00h
  401759:	0f 85 19 01 00 00         jnz	401878
  40175f:	8a 44 24 10               mov	al, [esp+10h]
  401763:	84 c0                     test	al, al
  401765:	0f 84 d5 00 00 00         jz	401840
  40176b:	57                        push	edi
  40176c:	6a 14                     push	dword 00000014h
  40176e:	e8 0d 70 00 00            call	408780	; <??2@YAPAXI@Z>
  401773:	33 ff                     xor	edi, edi
  401775:	83 c4 04                  add	esp, 04h
  401778:	3b c7                     cmp	eax, edi
  40177a:	74 1a                     jz	401796
  40177c:	8a 4c 24 14               mov	cl, [esp+14h]
  401780:	89 78 04                  mov	[eax+04h], edi
  401783:	88 08                     mov	[eax], cl
  401785:	89 78 08                  mov	[eax+08h], edi
  401788:	89 78 0c                  mov	[eax+0Ch], edi
  40178b:	c7 40 10 01 00 00 00      mov	dword [eax+10h], 00000001h
  401792:	8b f0                     mov	esi, eax
  401794:	eb 02                     jmp	401798
  401796:	33 f6                    >xor	esi, esi
  401798:	8b 54 24 1c              >mov	edx, [esp+1Ch]
  40179c:	c6 44 24 14 00            mov	byte [esp+14h], 00h
  4017a1:	89 32                     mov	[edx], esi
  4017a3:	8b 46 04                  mov	eax, [esi+04h]
  4017a6:	8b 55 10                  mov	edx, [ebp+10h]
  4017a9:	3b c7                     cmp	eax, edi
  4017ab:	75 04                     jnz	4017b1
  4017ad:	33 c9                     xor	ecx, ecx
  4017af:	eb 05                     jmp	4017b6
  4017b1:	8b 4e 08                 >mov	ecx, [esi+08h]
  4017b4:	2b c8                     sub	ecx, eax
  4017b6:	3b ca                    >cmp	ecx, edx
  4017b8:	73 22                     jae	4017dc
  4017ba:	3b c7                     cmp	eax, edi
  4017bc:	75 04                     jnz	4017c2
  4017be:	33 c9                     xor	ecx, ecx
  4017c0:	eb 05                     jmp	4017c7
  4017c2:	8b 4e 08                 >mov	ecx, [esi+08h]
  4017c5:	2b c8                     sub	ecx, eax
  4017c7:	8d 44 24 14              >lea	eax, [esp+14h]
  4017cb:	2b d1                     sub	edx, ecx
  4017cd:	8b 4e 08                  mov	ecx, [esi+08h]
  4017d0:	50                        push	eax
  4017d1:	52                        push	edx
  4017d2:	51                        push	ecx
  4017d3:	8b ce                     mov	ecx, esi
  4017d5:	e8 16 02 00 00            call	4019f0
  4017da:	eb 2d                     jmp	401809
  4017dc:	3b c7                    >cmp	eax, edi
  4017de:	74 29                     jz	401809
  4017e0:	8b 4e 08                  mov	ecx, [esi+08h]
  4017e3:	8b f9                     mov	edi, ecx
  4017e5:	2b f8                     sub	edi, eax
  4017e7:	3b d7                     cmp	edx, edi
  4017e9:	73 1e                     jae	401809
  4017eb:	03 c2                     add	eax, edx
  4017ed:	50                        push	eax
  4017ee:	51                        push	ecx
  4017ef:	51                        push	ecx
  4017f0:	e8 cb 03 00 00            call	401bc0
  4017f5:	8b 56 08                  mov	edx, [esi+08h]
  4017f8:	83 c4 0c                  add	esp, 0Ch
  4017fb:	8b f8                     mov	edi, eax
  4017fd:	8b ce                     mov	ecx, esi
  4017ff:	52                        push	edx
  401800:	57                        push	edi
  401801:	e8 5a 60 00 00            call	407860
  401806:	89 7e 08                  mov	[esi+08h], edi
  401809:	8b 4c 24 1c              >mov	ecx, [esp+1Ch]
  40180d:	8b 45 10                  mov	eax, [ebp+10h]
  401810:	8b 11                     mov	edx, [ecx]
  401812:	8b 4a 04                  mov	ecx, [edx+04h]
  401815:	8b 53 04                  mov	edx, [ebx+04h]
  401818:	52                        push	edx
  401819:	50                        push	eax
  40181a:	6a 01                     push	dword 00000001h
  40181c:	51                        push	ecx
  40181d:	ff 15 2c a1 40 00         call	dword [0040A12Ch]	; <fread>
  401823:	8b 4d 10                  mov	ecx, [ebp+10h]
  401826:	83 c4 10                  add	esp, 10h
  401829:	3b c1                     cmp	eax, ecx
  40182b:	5f                        pop	edi
  40182c:	74 25                     jz	401853
  40182e:	8b cb                     mov	ecx, ebx
  401830:	e8 1b fb ff ff            call	401350
  401835:	5e                        pop	esi
  401836:	5d                        pop	ebp
  401837:	b8 74 00 00 00            mov	eax, 00000074h
  40183c:	5b                        pop	ebx
  40183d:	c2 10 00                  ret	0010h
  401840:	8b 45 10                 >mov	eax, [ebp+10h]
  401843:	8b 4b 04                  mov	ecx, [ebx+04h]
  401846:	6a 01                     push	dword 00000001h
  401848:	50                        push	eax
  401849:	51                        push	ecx
  40184a:	ff 15 30 a1 40 00         call	dword [0040A130h]	; <fseek>
  401850:	83 c4 0c                  add	esp, 0Ch
  401853:	83 7b 0c 02              >cmp	dword [ebx+0Ch], 02h
  401857:	75 1f                     jnz	401878
  401859:	8b 6d 10                  mov	ebp, [ebp+10h]
  40185c:	83 e5 03                  and	ebp, 03h
  40185f:	76 17                     jbe	401878
  401861:	8b 43 04                  mov	eax, [ebx+04h]
  401864:	ba 04 00 00 00            mov	edx, 00000004h
  401869:	2b d5                     sub	edx, ebp
  40186b:	6a 01                     push	dword 00000001h
  40186d:	52                        push	edx
  40186e:	50                        push	eax
  40186f:	ff 15 30 a1 40 00         call	dword [0040A130h]	; <fseek>
  401875:	83 c4 0c                  add	esp, 0Ch
  401878:	5e                       >pop	esi
  401879:	5d                        pop	ebp
  40187a:	b8 6e 00 00 00            mov	eax, 0000006Eh
  40187f:	5b                        pop	ebx
  401880:	c2 10 00                  ret	0010h
     ...

401890 <no name>:
  401890:	83 ec 08                  sub	esp, 08h
  401893:	53                        push	ebx
  401894:	8b d9                     mov	ebx, ecx
  401896:	56                        push	esi
  401897:	57                        push	edi
  401898:	8b 43 04                  mov	eax, [ebx+04h]
  40189b:	8d 4c 24 0c               lea	ecx, [esp+0Ch]
  40189f:	50                        push	eax
  4018a0:	6a 08                     push	dword 00000008h
  4018a2:	6a 01                     push	dword 00000001h
  4018a4:	51                        push	ecx
  4018a5:	ff 15 2c a1 40 00         call	dword [0040A12Ch]	; <fread>
  4018ab:	83 c4 10                  add	esp, 10h
  4018ae:	83 f8 08                  cmp	eax, 08h
  4018b1:	74 13                     jz	4018c6
  4018b3:	8b cb                     mov	ecx, ebx
  4018b5:	e8 96 fa ff ff            call	401350
  4018ba:	5f                        pop	edi
  4018bb:	5e                        pop	esi
  4018bc:	b8 75 00 00 00            mov	eax, 00000075h
  4018c1:	5b                        pop	ebx
  4018c2:	83 c4 08                  add	esp, 08h
  4018c5:	c3                        ret
  4018c6:	c7 43 0c 00 00 00 00     >mov	dword [ebx+0Ch], 00000000h
  4018cd:	8b 3d 30 c0 40 00         mov	edi, [0040C030h]
  4018d3:	b9 02 00 00 00            mov	ecx, 00000002h
  4018d8:	8d 74 24 0c               lea	esi, [esp+0Ch]
  4018dc:	33 d2                     xor	edx, edx
  4018de:	f3 a7                     repe cmpsd
  4018e0:	75 13                     jnz	4018f5
  4018e2:	5f                        pop	edi
  4018e3:	c7 43 0c 01 00 00 00      mov	dword [ebx+0Ch], 00000001h
  4018ea:	5e                        pop	esi
  4018eb:	b8 6e 00 00 00            mov	eax, 0000006Eh
  4018f0:	5b                        pop	ebx
  4018f1:	83 c4 08                  add	esp, 08h
  4018f4:	c3                        ret
  4018f5:	8b 3d 34 c0 40 00        >mov	edi, [0040C034h]
  4018fb:	b9 02 00 00 00            mov	ecx, 00000002h
  401900:	8d 74 24 0c               lea	esi, [esp+0Ch]
  401904:	33 c0                     xor	eax, eax
  401906:	f3 a7                     repe cmpsd
  401908:	75 13                     jnz	40191d
  40190a:	5f                        pop	edi
  40190b:	c7 43 0c 02 00 00 00      mov	dword [ebx+0Ch], 00000002h
  401912:	5e                        pop	esi
  401913:	b8 6e 00 00 00            mov	eax, 0000006Eh
  401918:	5b                        pop	ebx
  401919:	83 c4 08                  add	esp, 08h
  40191c:	c3                        ret
  40191d:	5f                       >pop	edi
  40191e:	5e                        pop	esi
  40191f:	b8 76 00 00 00            mov	eax, 00000076h
  401924:	5b                        pop	ebx
  401925:	83 c4 08                  add	esp, 08h
  401928:	c3                        ret
     ...

401930 <no name>:
  401930:	51                        push	ecx
  401931:	56                        push	esi
  401932:	8b f1                     mov	esi, ecx
  401934:	8d 4c 24 04               lea	ecx, [esp+04h]
  401938:	8b 46 04                  mov	eax, [esi+04h]
  40193b:	50                        push	eax
  40193c:	6a 04                     push	dword 00000004h
  40193e:	6a 01                     push	dword 00000001h
  401940:	51                        push	ecx
  401941:	ff 15 2c a1 40 00         call	dword [0040A12Ch]	; <fread>
  401947:	83 c4 10                  add	esp, 10h
  40194a:	83 f8 04                  cmp	eax, 04h
  40194d:	74 11                     jz	401960
  40194f:	8b ce                     mov	ecx, esi
  401951:	e8 fa f9 ff ff            call	401350
  401956:	b8 6f 00 00 00            mov	eax, 0000006Fh
  40195b:	5e                        pop	esi
  40195c:	59                        pop	ecx
  40195d:	c2 04 00                  ret	0004h
  401960:	8b 4c 24 0c              >mov	ecx, [esp+0Ch]
  401964:	57                        push	edi
  401965:	b8 03 00 00 00            mov	eax, 00000003h
  40196a:	c7 01 00 00 00 00         mov	dword [ecx], 00000000h
  401970:	8b 39                     mov	edi, [ecx]
  401972:	33 d2                    >xor	edx, edx
  401974:	8b f7                     mov	esi, edi
  401976:	8a 54 04 08               mov	dl, [esp+eax*1+08h]
  40197a:	c1 e6 08                  shl	esi, 08h
  40197d:	03 d6                     add	edx, esi
  40197f:	48                        dec	eax
  401980:	8b fa                     mov	edi, edx
  401982:	79 ee                     jns	401972
  401984:	89 39                     mov	[ecx], edi
  401986:	5f                        pop	edi
  401987:	b8 6e 00 00 00            mov	eax, 0000006Eh
  40198c:	5e                        pop	esi
  40198d:	59                        pop	ecx
  40198e:	c2 04 00                  ret	0004h
     ...

4019a0 <no name>:
  4019a0:	56                        push	esi
  4019a1:	8b f1                     mov	esi, ecx
  4019a3:	e8 18 00 00 00            call	4019c0
  4019a8:	f6 44 24 08 01            test	byte [esp+08h], 01h
  4019ad:	74 09                     jz	4019b8
  4019af:	56                        push	esi
  4019b0:	e8 97 6d 00 00            call	40874c
  4019b5:	83 c4 04                  add	esp, 04h
  4019b8:	8b c6                    >mov	eax, esi
  4019ba:	5e                        pop	esi
  4019bb:	c2 04 00                  ret	0004h
     ...

4019c0 <no name>:
  4019c0:	51                        push	ecx
  4019c1:	56                        push	esi
  4019c2:	8b f1                     mov	esi, ecx
  4019c4:	8b 46 04                  mov	eax, [esi+04h]
  4019c7:	50                        push	eax
  4019c8:	89 44 24 08               mov	[esp+08h], eax
  4019cc:	e8 7b 6d 00 00            call	40874c
  4019d1:	83 c4 04                  add	esp, 04h
  4019d4:	33 c0                     xor	eax, eax
  4019d6:	89 46 04                  mov	[esi+04h], eax
  4019d9:	89 46 08                  mov	[esi+08h], eax
  4019dc:	89 46 0c                  mov	[esi+0Ch], eax
  4019df:	5e                        pop	esi
  4019e0:	59                        pop	ecx
  4019e1:	c3                        ret
     ...

4019f0 <no name>:
  4019f0:	83 ec 08                  sub	esp, 08h
  4019f3:	53                        push	ebx
  4019f4:	8b d9                     mov	ebx, ecx
  4019f6:	55                        push	ebp
  4019f7:	8b 6c 24 18               mov	ebp, [esp+18h]
  4019fb:	8b 43 08                  mov	eax, [ebx+08h]
  4019fe:	8b 4b 0c                  mov	ecx, [ebx+0Ch]
  401a01:	2b c8                     sub	ecx, eax
  401a03:	56                        push	esi
  401a04:	3b cd                     cmp	ecx, ebp
  401a06:	57                        push	edi
  401a07:	0f 83 e8 00 00 00         jae	401af5
  401a0d:	8b 53 04                  mov	edx, [ebx+04h]
  401a10:	85 d2                     test	edx, edx
  401a12:	74 08                     jz	401a1c
  401a14:	8b c8                     mov	ecx, eax
  401a16:	2b ca                     sub	ecx, edx
  401a18:	3b e9                     cmp	ebp, ecx
  401a1a:	72 02                     jb	401a1e
  401a1c:	8b cd                    >mov	ecx, ebp
  401a1e:	85 d2                    >test	edx, edx
  401a20:	75 04                     jnz	401a26
  401a22:	33 c0                     xor	eax, eax
  401a24:	eb 02                     jmp	401a28
  401a26:	2b c2                    >sub	eax, edx
  401a28:	03 c1                    >add	eax, ecx
  401a2a:	85 c0                     test	eax, eax
  401a2c:	89 44 24 14               mov	[esp+14h], eax
  401a30:	7d 02                     jge	401a34
  401a32:	33 c0                     xor	eax, eax
  401a34:	50                       >push	eax
  401a35:	e8 46 6d 00 00            call	408780	; <??2@YAPAXI@Z>
  401a3a:	8b 7c 24 20               mov	edi, [esp+20h]
  401a3e:	89 44 24 14               mov	[esp+14h], eax
  401a42:	8b c8                     mov	ecx, eax
  401a44:	8b 43 04                  mov	eax, [ebx+04h]
  401a47:	83 c4 04                  add	esp, 04h
  401a4a:	3b c7                     cmp	eax, edi
  401a4c:	74 12                     jz	401a60
  401a4e:	85 c9                    >test	ecx, ecx
  401a50:	74 08                     jz	401a5a
  401a52:	8a 10                     mov	dl, [eax]
  401a54:	8b 6c 24 20               mov	ebp, [esp+20h]
  401a58:	88 11                     mov	[ecx], dl
  401a5a:	41                       >inc	ecx
  401a5b:	40                        inc	eax
  401a5c:	3b c7                     cmp	eax, edi
  401a5e:	75 ee                     jnz	401a4e
  401a60:	85 ed                    >test	ebp, ebp
  401a62:	8b c1                     mov	eax, ecx
  401a64:	76 17                     jbe	401a7d
  401a66:	8b f5                     mov	esi, ebp
  401a68:	8b 6c 24 24               mov	ebp, [esp+24h]
  401a6c:	85 c0                    >test	eax, eax
  401a6e:	74 05                     jz	401a75
  401a70:	8a 55 00                  mov	dl, [ebp+00h]
  401a73:	88 10                     mov	[eax], dl
  401a75:	40                       >inc	eax
  401a76:	4e                        dec	esi
  401a77:	75 f3                     jnz	401a6c
  401a79:	8b 6c 24 20               mov	ebp, [esp+20h]
  401a7d:	8b 73 08                 >mov	esi, [ebx+08h]
  401a80:	8d 14 29                  lea	edx, [ecx+ebp*1]
  401a83:	3b fe                     cmp	edi, esi
  401a85:	74 1a                     jz	401aa1
  401a87:	8b c2                     mov	eax, edx
  401a89:	2b c1                     sub	eax, ecx
  401a8b:	2b c5                     sub	eax, ebp
  401a8d:	03 c7                     add	eax, edi
  401a8f:	85 d2                    >test	edx, edx
  401a91:	74 08                     jz	401a9b
  401a93:	8a 08                     mov	cl, [eax]
  401a95:	8b 6c 24 20               mov	ebp, [esp+20h]
  401a99:	88 0a                     mov	[edx], cl
  401a9b:	42                       >inc	edx
  401a9c:	40                        inc	eax
  401a9d:	3b c6                     cmp	eax, esi
  401a9f:	75 ee                     jnz	401a8f
  401aa1:	8b 43 04                 >mov	eax, [ebx+04h]
  401aa4:	50                        push	eax
  401aa5:	89 44 24 24               mov	[esp+24h], eax
  401aa9:	e8 9e 6c 00 00            call	40874c
  401aae:	8b 54 24 14               mov	edx, [esp+14h]
  401ab2:	8b 44 24 18               mov	eax, [esp+18h]
  401ab6:	83 c4 04                  add	esp, 04h
  401ab9:	8d 0c 02                  lea	ecx, [edx+eax*1]
  401abc:	89 4b 0c                  mov	[ebx+0Ch], ecx
  401abf:	8b 4b 04                  mov	ecx, [ebx+04h]
  401ac2:	85 c9                     test	ecx, ecx
  401ac4:	75 16                     jnz	401adc
  401ac6:	33 c0                     xor	eax, eax
  401ac8:	5f                        pop	edi
  401ac9:	8b c2                     mov	eax, edx
  401acb:	5e                        pop	esi
  401acc:	03 c5                     add	eax, ebp
  401ace:	89 53 04                  mov	[ebx+04h], edx
  401ad1:	89 43 08                  mov	[ebx+08h], eax
  401ad4:	5d                        pop	ebp
  401ad5:	5b                        pop	ebx
  401ad6:	83 c4 08                  add	esp, 08h
  401ad9:	c2 0c 00                  ret	000Ch
  401adc:	8b 43 08                 >mov	eax, [ebx+08h]
  401adf:	5f                        pop	edi
  401ae0:	2b c1                     sub	eax, ecx
  401ae2:	5e                        pop	esi
  401ae3:	03 c2                     add	eax, edx
  401ae5:	89 53 04                  mov	[ebx+04h], edx
  401ae8:	03 c5                     add	eax, ebp
  401aea:	5d                        pop	ebp
  401aeb:	89 43 08                  mov	[ebx+08h], eax
  401aee:	5b                        pop	ebx
  401aef:	83 c4 08                  add	esp, 08h
  401af2:	c2 0c 00                  ret	000Ch
  401af5:	8b 74 24 1c              >mov	esi, [esp+1Ch]
  401af9:	8b d0                     mov	edx, eax
  401afb:	2b d6                     sub	edx, esi
  401afd:	3b d5                     cmp	edx, ebp
  401aff:	73 50                     jae	401b51
  401b01:	3b f0                     cmp	esi, eax
  401b03:	8d 3c 2e                  lea	edi, [esi+ebp*1]
  401b06:	74 16                     jz	401b1e
  401b08:	8b cf                     mov	ecx, edi
  401b0a:	2b cd                     sub	ecx, ebp
  401b0c:	85 ff                    >test	edi, edi
  401b0e:	74 08                     jz	401b18
  401b10:	8a 11                     mov	dl, [ecx]
  401b12:	8b 6c 24 20               mov	ebp, [esp+20h]
  401b16:	88 17                     mov	[edi], dl
  401b18:	47                       >inc	edi
  401b19:	41                        inc	ecx
  401b1a:	3b c8                     cmp	ecx, eax
  401b1c:	75 ee                     jnz	401b0c
  401b1e:	8b 4b 08                 >mov	ecx, [ebx+08h]
  401b21:	8b 7c 24 24               mov	edi, [esp+24h]
  401b25:	8b c6                     mov	eax, esi
  401b27:	2b c1                     sub	eax, ecx
  401b29:	03 c5                     add	eax, ebp
  401b2b:	74 10                     jz	401b3d
  401b2d:	85 c9                    >test	ecx, ecx
  401b2f:	74 08                     jz	401b39
  401b31:	8a 17                     mov	dl, [edi]
  401b33:	8b 6c 24 20               mov	ebp, [esp+20h]
  401b37:	88 11                     mov	[ecx], dl
  401b39:	41                       >inc	ecx
  401b3a:	48                        dec	eax
  401b3b:	75 f0                     jnz	401b2d
  401b3d:	8b 4b 08                 >mov	ecx, [ebx+08h]
  401b40:	8b c6                     mov	eax, esi
  401b42:	3b f1                     cmp	esi, ecx
  401b44:	74 5f                     jz	401ba5
  401b46:	8a 17                    >mov	dl, [edi]
  401b48:	88 10                     mov	[eax], dl
  401b4a:	40                        inc	eax
  401b4b:	3b c1                     cmp	eax, ecx
  401b4d:	75 f7                     jnz	401b46
  401b4f:	eb 50                     jmp	401ba1
  401b51:	85 ed                    >test	ebp, ebp
  401b53:	76 53                     jbe	401ba8
  401b55:	8b c8                     mov	ecx, eax
  401b57:	8b f8                     mov	edi, eax
  401b59:	2b cd                     sub	ecx, ebp
  401b5b:	3b c8                     cmp	ecx, eax
  401b5d:	74 12                     jz	401b71
  401b5f:	85 ff                    >test	edi, edi
  401b61:	74 08                     jz	401b6b
  401b63:	8a 11                     mov	dl, [ecx]
  401b65:	8b 6c 24 20               mov	ebp, [esp+20h]
  401b69:	88 17                     mov	[edi], dl
  401b6b:	47                       >inc	edi
  401b6c:	41                        inc	ecx
  401b6d:	3b c8                     cmp	ecx, eax
  401b6f:	75 ee                     jnz	401b5f
  401b71:	8b 4b 08                 >mov	ecx, [ebx+08h]
  401b74:	8b c1                     mov	eax, ecx
  401b76:	2b c5                     sub	eax, ebp
  401b78:	3b f0                     cmp	esi, eax
  401b7a:	74 0f                     jz	401b8b
  401b7c:	8a 50 ff                 >mov	dl, [eax-01h]
  401b7f:	48                        dec	eax
  401b80:	49                        dec	ecx
  401b81:	3b c6                     cmp	eax, esi
  401b83:	88 11                     mov	[ecx], dl
  401b85:	75 f5                     jnz	401b7c
  401b87:	8b 6c 24 20               mov	ebp, [esp+20h]
  401b8b:	8d 0c 2e                 >lea	ecx, [esi+ebp*1]
  401b8e:	8b c6                     mov	eax, esi
  401b90:	3b f1                     cmp	esi, ecx
  401b92:	74 11                     jz	401ba5
  401b94:	8b 74 24 24               mov	esi, [esp+24h]
  401b98:	8a 16                    >mov	dl, [esi]
  401b9a:	88 10                     mov	[eax], dl
  401b9c:	40                        inc	eax
  401b9d:	3b c1                     cmp	eax, ecx
  401b9f:	75 f7                     jnz	401b98
  401ba1:	8b 6c 24 20              >mov	ebp, [esp+20h]
  401ba5:	01 6b 08                 >add	[ebx+08h], ebp
  401ba8:	5f                       >pop	edi
  401ba9:	5e                        pop	esi
  401baa:	5d                        pop	ebp
  401bab:	5b                        pop	ebx
  401bac:	83 c4 08                  add	esp, 08h
  401baf:	c2 0c 00                  ret	000Ch
     ...

401bc0 <no name>:
  401bc0:	8b 4c 24 04               mov	ecx, [esp+04h]
  401bc4:	8b 44 24 0c               mov	eax, [esp+0Ch]
  401bc8:	56                        push	esi
  401bc9:	8b 74 24 0c               mov	esi, [esp+0Ch]
  401bcd:	3b ce                     cmp	ecx, esi
  401bcf:	74 0a                     jz	401bdb
  401bd1:	8a 11                    >mov	dl, [ecx]
  401bd3:	88 10                     mov	[eax], dl
  401bd5:	40                        inc	eax
  401bd6:	41                        inc	ecx
  401bd7:	3b ce                     cmp	ecx, esi
  401bd9:	75 f6                     jnz	401bd1
  401bdb:	5e                       >pop	esi
  401bdc:	c3                        ret
     ...

401be0 <no name>:
  401be0:	8b 4c 24 08               mov	ecx, [esp+08h]
  401be4:	33 c0                     xor	eax, eax
  401be6:	88 4c 04 08              >mov	[esp+eax*1+08h], cl
  401bea:	c1 e9 08                  shr	ecx, 08h
  401bed:	40                        inc	eax
  401bee:	83 f8 04                  cmp	eax, 04h
  401bf1:	7c f3                     jl	401be6
  401bf3:	8b 4c 24 04               mov	ecx, [esp+04h]
  401bf7:	8d 54 24 08               lea	edx, [esp+08h]
  401bfb:	6a 04                     push	dword 00000004h
  401bfd:	52                        push	edx
  401bfe:	8b 01                     mov	eax, [ecx]
  401c00:	ff 50 10                  call	dword [eax+10h]
  401c03:	c3                        ret
     ...

401c30 <no name>:
  401c30:	8b c1                     mov	eax, ecx
  401c32:	8b 4c 24 04               mov	ecx, [esp+04h]
  401c36:	c7 40 04 00 00 00 00      mov	dword [eax+04h], 00000000h
  401c3d:	89 48 08                  mov	[eax+08h], ecx
  401c40:	c7 00 b8 a1 40 00         mov	dword [eax], 0040A1B8h
  401c46:	c2 04 00                  ret	0004h
     ...

401c70 <no name>:
  401c70:	6a ff                     push	dword FFFFFFFFh
  401c72:	68 88 89 40 00            push	dword 00408988h
  401c77:	64 a1 00 00 00 00         mov	eax, [fs:0000h]
  401c7d:	50                        push	eax
  401c7e:	64 89 25 00 00 00 00      mov	[fs:00000000h], esp
  401c85:	51                        push	ecx
  401c86:	56                        push	esi
  401c87:	8b f1                     mov	esi, ecx
  401c89:	89 74 24 04               mov	[esp+04h], esi
  401c8d:	c7 06 b8 a1 40 00         mov	dword [esi], 0040A1B8h
  401c93:	8b 46 04                  mov	eax, [esi+04h]
  401c96:	c7 44 24 10 00 00 00      mov	dword [esp+10h], 00000000h
		00 
  401c9e:	85 c0                     test	eax, eax
  401ca0:	74 05                     jz	401ca7
  401ca2:	e8 e9 00 00 00            call	401d90
  401ca7:	8b 4c 24 08              >mov	ecx, [esp+08h]
  401cab:	c7 06 a0 a1 40 00         mov	dword [esi], 0040A1A0h
  401cb1:	5e                        pop	esi
  401cb2:	64 89 0d 00 00 00 00      mov	[fs:00000000h], ecx
  401cb9:	83 c4 10                  add	esp, 10h
  401cbc:	c3                        ret
     ...

401d90 <no name>:
  401d90:	56                        push	esi
  401d91:	8b f1                     mov	esi, ecx
  401d93:	8b 46 04                  mov	eax, [esi+04h]
  401d96:	50                        push	eax
  401d97:	ff 15 34 a1 40 00         call	dword [0040A134h]	; <fclose>
  401d9d:	83 c4 04                  add	esp, 04h
  401da0:	c7 46 04 00 00 00 00      mov	dword [esi+04h], 00000000h
  401da7:	b8 6e 00 00 00            mov	eax, 0000006Eh
  401dac:	5e                        pop	esi
  401dad:	c3                        ret
     ...

401db0 <no name>:
  401db0:	51                        push	ecx
  401db1:	8a 54 24 03               mov	dl, [esp+03h]
  401db5:	8b c1                     mov	eax, ecx
  401db7:	33 c9                     xor	ecx, ecx
  401db9:	89 08                     mov	[eax], ecx
  401dbb:	88 50 04                  mov	[eax+04h], dl
  401dbe:	89 48 08                  mov	[eax+08h], ecx
  401dc1:	89 48 0c                  mov	[eax+0Ch], ecx
  401dc4:	89 48 10                  mov	[eax+10h], ecx
  401dc7:	c7 40 14 ff ff ff ff      mov	dword [eax+14h], FFFFFFFFh
  401dce:	88 48 18                  mov	[eax+18h], cl
  401dd1:	88 48 19                  mov	[eax+19h], cl
  401dd4:	59                        pop	ecx
  401dd5:	c3                        ret
     ...

401de0 <no name>:
  401de0:	6a ff                     push	dword FFFFFFFFh
  401de2:	68 ac 89 40 00            push	dword 004089ACh
  401de7:	64 a1 00 00 00 00         mov	eax, [fs:0000h]
  401ded:	50                        push	eax
  401dee:	64 89 25 00 00 00 00      mov	[fs:00000000h], esp
  401df5:	51                        push	ecx
  401df6:	53                        push	ebx
  401df7:	56                        push	esi
  401df8:	8b f1                     mov	esi, ecx
  401dfa:	89 74 24 08               mov	[esp+08h], esi
  401dfe:	33 db                     xor	ebx, ebx
  401e00:	89 5c 24 14               mov	[esp+14h], ebx
  401e04:	e8 d7 01 00 00            call	401fe0
  401e09:	8b 46 08                  mov	eax, [esi+08h]
  401e0c:	3b c3                     cmp	eax, ebx
  401e0e:	74 1d                     jz	401e2d
  401e10:	8d 48 ff                  lea	ecx, [eax-01h]
  401e13:	8a 40 ff                  mov	al, [eax-01h]
  401e16:	3a c3                     cmp	al, bl
  401e18:	74 0a                     jz	401e24
  401e1a:	3c ff                     cmp	al, FFh
  401e1c:	74 06                     jz	401e24
  401e1e:	fe c8                     dec	al
  401e20:	88 01                     mov	[ecx], al
  401e22:	eb 09                     jmp	401e2d
  401e24:	51                       >push	ecx
  401e25:	e8 22 69 00 00            call	40874c
  401e2a:	83 c4 04                  add	esp, 04h
  401e2d:	8b 4c 24 0c              >mov	ecx, [esp+0Ch]
  401e31:	89 5e 08                  mov	[esi+08h], ebx
  401e34:	89 5e 0c                  mov	[esi+0Ch], ebx
  401e37:	89 5e 10                  mov	[esi+10h], ebx
  401e3a:	5e                        pop	esi
  401e3b:	5b                        pop	ebx
  401e3c:	64 89 0d 00 00 00 00      mov	[fs:00000000h], ecx
  401e43:	83 c4 10                  add	esp, 10h
  401e46:	c3                        ret
     ...

401e50 <no name>:
  401e50:	8b 44 24 04               mov	eax, [esp+04h]
  401e54:	c6 41 19 01               mov	byte [ecx+19h], 01h
  401e58:	89 41 14                  mov	[ecx+14h], eax
  401e5b:	c2 04 00                  ret	0004h
     ...

401e60 <no name>:
  401e60:	51                        push	ecx
  401e61:	53                        push	ebx
  401e62:	55                        push	ebp
  401e63:	56                        push	esi
  401e64:	8b f1                     mov	esi, ecx
  401e66:	57                        push	edi
  401e67:	8b 7c 24 18               mov	edi, [esp+18h]
  401e6b:	83 c9 ff                  or	ecx, FFh
  401e6e:	33 c0                     xor	eax, eax
  401e70:	f2 ae                     repne scasb
  401e72:	f7 d1                     not	ecx
  401e74:	49                        dec	ecx
  401e75:	89 74 24 10               mov	[esp+10h], esi
  401e79:	8b d9                     mov	ebx, ecx
  401e7b:	8d 6e 04                  lea	ebp, [esi+04h]
  401e7e:	83 fb fd                  cmp	ebx, FDh
  401e81:	76 06                     jbe	401e89
  401e83:	ff 15 58 a0 40 00         call	dword [0040A058h]	; <?_Xlen@std@@YAXXZ>
  401e89:	8b 4d 04                 >mov	ecx, [ebp+04h]
  401e8c:	33 d2                     xor	edx, edx
  401e8e:	3b ca                     cmp	ecx, edx
  401e90:	74 29                     jz	401ebb
  401e92:	8a 41 ff                  mov	al, [ecx-01h]
  401e95:	84 c0                     test	al, al
  401e97:	74 22                     jz	401ebb
  401e99:	3c ff                     cmp	al, FFh
  401e9b:	74 1e                     jz	401ebb
  401e9d:	3b da                     cmp	ebx, edx
  401e9f:	75 4a                     jnz	401eeb
  401ea1:	fe c8                     dec	al
  401ea3:	5f                        pop	edi
  401ea4:	88 41 ff                  mov	[ecx-01h], al
  401ea7:	89 55 04                  mov	[ebp+04h], edx
  401eaa:	89 55 08                  mov	[ebp+08h], edx
  401ead:	89 55 0c                  mov	[ebp+0Ch], edx
  401eb0:	c6 46 19 01               mov	byte [esi+19h], 01h
  401eb4:	5e                        pop	esi
  401eb5:	5d                        pop	ebp
  401eb6:	5b                        pop	ebx
  401eb7:	59                        pop	ecx
  401eb8:	c2 04 00                  ret	0004h
  401ebb:	3b da                    >cmp	ebx, edx
  401ebd:	75 16                     jnz	401ed5
  401ebf:	6a 01                     push	dword 00000001h
  401ec1:	8b cd                     mov	ecx, ebp
  401ec3:	ff 15 54 a0 40 00         call	dword [0040A054h]	; <?_Tidy@?$basic_string@DU?$char_traits@D@std@@V?$allocator@D@2@@std@@AAEX_N@Z>
  401ec9:	c6 46 19 01               mov	byte [esi+19h], 01h
  401ecd:	5f                        pop	edi
  401ece:	5e                        pop	esi
  401ecf:	5d                        pop	ebp
  401ed0:	5b                        pop	ebx
  401ed1:	59                        pop	ecx
  401ed2:	c2 04 00                  ret	0004h
  401ed5:	8b 45 0c                 >mov	eax, [ebp+0Ch]
  401ed8:	83 f8 1f                  cmp	eax, 1Fh
  401edb:	77 04                     ja	401ee1
  401edd:	3b c3                     cmp	eax, ebx
  401edf:	73 13                     jae	401ef4
  401ee1:	6a 01                    >push	dword 00000001h
  401ee3:	8b cd                     mov	ecx, ebp
  401ee5:	ff 15 54 a0 40 00         call	dword [0040A054h]	; <?_Tidy@?$basic_string@DU?$char_traits@D@std@@V?$allocator@D@2@@std@@AAEX_N@Z>
  401eeb:	53                       >push	ebx
  401eec:	8b cd                     mov	ecx, ebp
  401eee:	ff 15 50 a0 40 00         call	dword [0040A050h]	; <?_Copy@?$basic_string@DU?$char_traits@D@std@@V?$allocator@D@2@@std@@AAEXI@Z>
  401ef4:	8b 74 24 18              >mov	esi, [esp+18h]
  401ef8:	8b 7d 04                  mov	edi, [ebp+04h]
  401efb:	8b cb                     mov	ecx, ebx
  401efd:	8b 54 24 10               mov	edx, [esp+10h]
  401f01:	8b c1                     mov	eax, ecx
  401f03:	c1 e9 02                  shr	ecx, 02h
  401f06:	f3 a5                     rep movsd
  401f08:	8b c8                     mov	ecx, eax
  401f0a:	83 e1 03                  and	ecx, 03h
  401f0d:	f3 a4                     rep movsb
  401f0f:	8b 4d 04                  mov	ecx, [ebp+04h]
  401f12:	5f                        pop	edi
  401f13:	89 5d 08                  mov	[ebp+08h], ebx
  401f16:	5e                        pop	esi
  401f17:	c6 04 19 00               mov	byte [ecx+ebx*1], 00h
  401f1b:	5d                        pop	ebp
  401f1c:	c6 42 19 01               mov	byte [edx+19h], 01h
  401f20:	5b                        pop	ebx
  401f21:	59                        pop	ecx
  401f22:	c2 04 00                  ret	0004h
     ...

401f30 <no name>:
  401f30:	56                        push	esi
  401f31:	8b f1                     mov	esi, ecx
  401f33:	e8 a8 00 00 00            call	401fe0
  401f38:	8b 4c 24 08               mov	ecx, [esp+08h]
  401f3c:	89 0e                     mov	[esi], ecx
  401f3e:	8b 01                     mov	eax, [ecx]
  401f40:	ff 50 04                  call	dword [eax+04h]
  401f43:	5e                        pop	esi
  401f44:	c2 04 00                  ret	0004h
     ...

401f50 <no name>:
  401f50:	8b 44 24 04               mov	eax, [esp+04h]
  401f54:	83 ec 30                  sub	esp, 30h
  401f57:	53                        push	ebx
  401f58:	56                        push	esi
  401f59:	8b d9                     mov	ebx, ecx
  401f5b:	57                        push	edi
  401f5c:	b9 0c 00 00 00            mov	ecx, 0000000Ch
  401f61:	8b f0                     mov	esi, eax
  401f63:	8d 7c 24 0c               lea	edi, [esp+0Ch]
  401f67:	f3 a5                     rep movsd
  401f69:	8b c8                     mov	ecx, eax
  401f6b:	e8 20 00 00 00            call	401f90
  401f70:	8b 4c 24 1c               mov	ecx, [esp+1Ch]
  401f74:	8b 40 04                  mov	eax, [eax+04h]
  401f77:	51                        push	ecx
  401f78:	8d 54 24 10               lea	edx, [esp+10h]
  401f7c:	50                        push	eax
  401f7d:	52                        push	edx
  401f7e:	8b cb                     mov	ecx, ebx
  401f80:	e8 cb 00 00 00            call	402050
  401f85:	5f                        pop	edi
  401f86:	5e                        pop	esi
  401f87:	5b                        pop	ebx
  401f88:	83 c4 30                  add	esp, 30h
  401f8b:	c2 04 00                  ret	0004h
     ...

401f90 <no name>:
  401f90:	51                        push	ecx
  401f91:	56                        push	esi
  401f92:	8b f1                     mov	esi, ecx
  401f94:	8b 46 34                  mov	eax, [esi+34h]
  401f97:	85 c0                     test	eax, eax
  401f99:	75 3b                     jnz	401fd6
  401f9b:	6a 14                     push	dword 00000014h
  401f9d:	e8 de 67 00 00            call	408780	; <??2@YAPAXI@Z>
  401fa2:	83 c4 04                  add	esp, 04h
  401fa5:	85 c0                     test	eax, eax
  401fa7:	74 28                     jz	401fd1
  401fa9:	8a 4c 24 07               mov	cl, [esp+07h]
  401fad:	c7 40 04 00 00 00 00      mov	dword [eax+04h], 00000000h
  401fb4:	88 08                     mov	[eax], cl
  401fb6:	c7 40 08 00 00 00 00      mov	dword [eax+08h], 00000000h
  401fbd:	c7 40 0c 00 00 00 00      mov	dword [eax+0Ch], 00000000h
  401fc4:	c7 40 10 01 00 00 00      mov	dword [eax+10h], 00000001h
  401fcb:	89 46 34                  mov	[esi+34h], eax
  401fce:	5e                        pop	esi
  401fcf:	59                        pop	ecx
  401fd0:	c3                        ret
  401fd1:	33 c0                    >xor	eax, eax
  401fd3:	89 46 34                  mov	[esi+34h], eax
  401fd6:	8b 46 34                 >mov	eax, [esi+34h]
  401fd9:	5e                        pop	esi
  401fda:	59                        pop	ecx
  401fdb:	c3                        ret
     ...

401fe0 <no name>:
  401fe0:	56                        push	esi
  401fe1:	8b f1                     mov	esi, ecx
  401fe3:	83 3e 00                  cmp	dword [esi], 00h
  401fe6:	74 2f                     jz	402017
  401fe8:	e8 e3 01 00 00            call	4021d0
  401fed:	8a 46 19                  mov	al, [esi+19h]
  401ff0:	84 c0                     test	al, al
  401ff2:	74 12                     jz	402006
  401ff4:	8b 0e                     mov	ecx, [esi]
  401ff6:	6a 01                     push	dword 00000001h
  401ff8:	6a 00                     push	dword 00000000h
  401ffa:	8b 01                     mov	eax, [ecx]
  401ffc:	ff 50 08                  call	dword [eax+08h]
  401fff:	8b ce                     mov	ecx, esi
  402001:	e8 1a 00 00 00            call	402020
  402006:	8b 0e                    >mov	ecx, [esi]
  402008:	8b 11                     mov	edx, [ecx]
  40200a:	ff 52 14                  call	dword [edx+14h]
  40200d:	c7 06 00 00 00 00         mov	dword [esi], 00000000h
  402013:	c6 46 18 00               mov	byte [esi+18h], 00h
  402017:	5e                       >pop	esi
  402018:	c3                        ret
     ...

402020 <no name>:
  402020:	56                        push	esi
  402021:	8b f1                     mov	esi, ecx
  402023:	6a 08                     push	dword 00000008h
  402025:	68 90 a1 40 00            push	dword 0040A190h
  40202a:	8b 0e                     mov	ecx, [esi]
  40202c:	8b 01                     mov	eax, [ecx]
  40202e:	ff 50 10                  call	dword [eax+10h]
  402031:	8b ce                     mov	ecx, esi
  402033:	e8 b8 00 00 00            call	4020f0
  402038:	8b ce                     mov	ecx, esi
  40203a:	e8 c1 00 00 00            call	402100
  40203f:	8b ce                     mov	ecx, esi
  402041:	e8 2a 01 00 00            call	402170
  402046:	c6 46 18 01               mov	byte [esi+18h], 01h
  40204a:	c6 46 19 00               mov	byte [esi+19h], 00h
  40204e:	5e                        pop	esi
  40204f:	c3                        ret

402050 <no name>:
  402050:	56                        push	esi
  402051:	8b f1                     mov	esi, ecx
  402053:	57                        push	edi
  402054:	8a 46 18                  mov	al, [esi+18h]
  402057:	84 c0                     test	al, al
  402059:	75 05                     jnz	402060
  40205b:	e8 c0 ff ff ff            call	402020
  402060:	8b 7c 24 0c              >mov	edi, [esp+0Ch]
  402064:	8b 0e                     mov	ecx, [esi]
  402066:	8b 07                     mov	eax, [edi]
  402068:	50                        push	eax
  402069:	51                        push	ecx
  40206a:	e8 71 fb ff ff            call	401be0
  40206f:	8b 57 04                  mov	edx, [edi+04h]
  402072:	8b 06                     mov	eax, [esi]
  402074:	52                        push	edx
  402075:	50                        push	eax
  402076:	e8 65 fb ff ff            call	401be0
  40207b:	8b 4f 08                  mov	ecx, [edi+08h]
  40207e:	8b 16                     mov	edx, [esi]
  402080:	51                        push	ecx
  402081:	52                        push	edx
  402082:	e8 59 fb ff ff            call	401be0
  402087:	8b 47 0c                  mov	eax, [edi+0Ch]
  40208a:	8b 0e                     mov	ecx, [esi]
  40208c:	50                        push	eax
  40208d:	51                        push	ecx
  40208e:	e8 4d fb ff ff            call	401be0
  402093:	8b 57 10                  mov	edx, [edi+10h]
  402096:	8b 06                     mov	eax, [esi]
  402098:	52                        push	edx
  402099:	50                        push	eax
  40209a:	e8 41 fb ff ff            call	401be0
  40209f:	8b 0e                     mov	ecx, [esi]
  4020a1:	83 c4 28                  add	esp, 28h
  4020a4:	83 c7 14                  add	edi, 14h
  4020a7:	8b 11                     mov	edx, [ecx]
  4020a9:	6a 1c                     push	dword 0000001Ch
  4020ab:	57                        push	edi
  4020ac:	ff 52 10                  call	dword [edx+10h]
  4020af:	8b 44 24 10               mov	eax, [esp+10h]
  4020b3:	85 c0                     test	eax, eax
  4020b5:	74 2c                     jz	4020e3
  4020b7:	8b 7c 24 14               mov	edi, [esp+14h]
  4020bb:	85 ff                     test	edi, edi
  4020bd:	74 24                     jz	4020e3
  4020bf:	8b 0e                     mov	ecx, [esi]
  4020c1:	57                        push	edi
  4020c2:	50                        push	eax
  4020c3:	8b 11                     mov	edx, [ecx]
  4020c5:	ff 52 10                  call	dword [edx+10h]
  4020c8:	8b c7                     mov	eax, edi
  4020ca:	83 e0 03                  and	eax, 03h
  4020cd:	76 14                     jbe	4020e3
  4020cf:	8b 0e                     mov	ecx, [esi]
  4020d1:	be 04 00 00 00            mov	esi, 00000004h
  4020d6:	2b f0                     sub	esi, eax
  4020d8:	8b 11                     mov	edx, [ecx]
  4020da:	56                        push	esi
  4020db:	68 9c a1 40 00            push	dword 0040A19Ch
  4020e0:	ff 52 10                  call	dword [edx+10h]
  4020e3:	5f                       >pop	edi
  4020e4:	b8 6e 00 00 00            mov	eax, 0000006Eh
  4020e9:	5e                        pop	esi
  4020ea:	c2 0c 00                  ret	000Ch
     ...

4020f0 <no name>:
  4020f0:	8b 41 14                  mov	eax, [ecx+14h]
  4020f3:	8b 09                     mov	ecx, [ecx]
  4020f5:	50                        push	eax
  4020f6:	51                        push	ecx
  4020f7:	e8 e4 fa ff ff            call	401be0
  4020fc:	83 c4 08                  add	esp, 08h
  4020ff:	c3                        ret

402100 <no name>:
  402100:	81 ec 80 00 00 00         sub	esp, 00000080h
  402106:	8b d1                     mov	edx, ecx
  402108:	b9 20 00 00 00            mov	ecx, 00000020h
  40210d:	33 c0                     xor	eax, eax
  40210f:	53                        push	ebx
  402110:	56                        push	esi
  402111:	57                        push	edi
  402112:	8d 7c 24 0c               lea	edi, [esp+0Ch]
  402116:	f3 ab                     rep stosd
  402118:	8b 7a 08                  mov	edi, [edx+08h]
  40211b:	85 ff                     test	edi, edi
  40211d:	75 06                     jnz	402125
  40211f:	8b 3d 5c a0 40 00         mov	edi, [0040A05Ch]
  402125:	83 c9 ff                 >or	ecx, FFh
  402128:	33 c0                     xor	eax, eax
  40212a:	f2 ae                     repne scasb
  40212c:	f7 d1                     not	ecx
  40212e:	2b f9                     sub	edi, ecx
  402130:	8d 5c 24 0c               lea	ebx, [esp+0Ch]
  402134:	8b c1                     mov	eax, ecx
  402136:	8b f7                     mov	esi, edi
  402138:	8b fb                     mov	edi, ebx
  40213a:	68 80 00 00 00            push	dword 00000080h
  40213f:	c1 e9 02                  shr	ecx, 02h
  402142:	f3 a5                     rep movsd
  402144:	8b c8                     mov	ecx, eax
  402146:	8d 44 24 10               lea	eax, [esp+10h]
  40214a:	83 e1 03                  and	ecx, 03h
  40214d:	50                        push	eax
  40214e:	f3 a4                     rep movsb
  402150:	8b 0a                     mov	ecx, [edx]
  402152:	8b 11                     mov	edx, [ecx]
  402154:	ff 52 10                  call	dword [edx+10h]
  402157:	5f                        pop	edi
  402158:	5e                        pop	esi
  402159:	5b                        pop	ebx
  40215a:	81 c4 80 00 00 00         add	esp, 00000080h
  402160:	c3                        ret
     ...

402170 <no name>:
  402170:	81 ec 80 00 00 00         sub	esp, 00000080h
  402176:	8b d1                     mov	edx, ecx
  402178:	b9 20 00 00 00            mov	ecx, 00000020h
  40217d:	33 c0                     xor	eax, eax
  40217f:	53                        push	ebx
  402180:	56                        push	esi
  402181:	57                        push	edi
  402182:	8d 7c 24 0c               lea	edi, [esp+0Ch]
  402186:	f3 ab                     rep stosd
  402188:	8b 3d 58 c0 40 00         mov	edi, [0040C058h]
  40218e:	83 c9 ff                  or	ecx, FFh
  402191:	f2 ae                     repne scasb
  402193:	f7 d1                     not	ecx
  402195:	2b f9                     sub	edi, ecx
  402197:	8d 5c 24 0c               lea	ebx, [esp+0Ch]
  40219b:	8b c1                     mov	eax, ecx
  40219d:	8b f7                     mov	esi, edi
  40219f:	8b fb                     mov	edi, ebx
  4021a1:	68 80 00 00 00            push	dword 00000080h
  4021a6:	c1 e9 02                  shr	ecx, 02h
  4021a9:	f3 a5                     rep movsd
  4021ab:	8b c8                     mov	ecx, eax
  4021ad:	8d 44 24 10               lea	eax, [esp+10h]
  4021b1:	83 e1 03                  and	ecx, 03h
  4021b4:	50                        push	eax
  4021b5:	f3 a4                     rep movsb
  4021b7:	8b 0a                     mov	ecx, [edx]
  4021b9:	8b 11                     mov	edx, [ecx]
  4021bb:	ff 52 10                  call	dword [edx+10h]
  4021be:	5f                        pop	edi
  4021bf:	5e                        pop	esi
  4021c0:	5b                        pop	ebx
  4021c1:	81 c4 80 00 00 00         add	esp, 00000080h
  4021c7:	c3                        ret
     ...

4021d0 <no name>:
  4021d0:	83 ec 30                  sub	esp, 30h
  4021d3:	56                        push	esi
  4021d4:	8b d1                     mov	edx, ecx
  4021d6:	57                        push	edi
  4021d7:	33 f6                     xor	esi, esi
  4021d9:	b9 07 00 00 00            mov	ecx, 00000007h
  4021de:	33 c0                     xor	eax, eax
  4021e0:	8d 7c 24 1c               lea	edi, [esp+1Ch]
  4021e4:	89 74 24 0c               mov	[esp+0Ch], esi
  4021e8:	89 74 24 10               mov	[esp+10h], esi
  4021ec:	89 74 24 14               mov	[esp+14h], esi
  4021f0:	89 74 24 18               mov	[esp+18h], esi
  4021f4:	56                        push	esi
  4021f5:	f3 ab                     rep stosd
  4021f7:	8d 44 24 0c               lea	eax, [esp+0Ch]
  4021fb:	56                        push	esi
  4021fc:	50                        push	eax
  4021fd:	8b ca                     mov	ecx, edx
  4021ff:	c7 44 24 14 ff ff ff      mov	dword [esp+14h], FFFFFFFFh
		ff 
  402207:	e8 44 fe ff ff            call	402050
  40220c:	5f                        pop	edi
  40220d:	5e                        pop	esi
  40220e:	83 c4 30                  add	esp, 30h
  402211:	c3                        ret
     ...

402220 <no name>:
  402220:	8b 4c 24 04               mov	ecx, [esp+04h]
  402224:	8b 44 24 0c               mov	eax, [esp+0Ch]
  402228:	56                        push	esi
  402229:	8b 74 24 0c               mov	esi, [esp+0Ch]
  40222d:	3b ce                     cmp	ecx, esi
  40222f:	74 0e                     jz	40223f
  402231:	85 c0                    >test	eax, eax
  402233:	74 04                     jz	402239
  402235:	8a 11                     mov	dl, [ecx]
  402237:	88 10                     mov	[eax], dl
  402239:	40                       >inc	eax
  40223a:	41                        inc	ecx
  40223b:	3b ce                     cmp	ecx, esi
  40223d:	75 f2                     jnz	402231
  40223f:	5e                       >pop	esi
  402240:	c2 0c 00                  ret	000Ch
     ...

402250 <no name>:
  402250:	8b 44 24 08               mov	eax, [esp+08h]
  402254:	85 c0                     test	eax, eax
  402256:	76 18                     jbe	402270
  402258:	56                        push	esi
  402259:	8b 74 24 10               mov	esi, [esp+10h]
  40225d:	8b c8                     mov	ecx, eax
  40225f:	8b 44 24 08               mov	eax, [esp+08h]
  402263:	85 c0                    >test	eax, eax
  402265:	74 04                     jz	40226b
  402267:	8a 16                     mov	dl, [esi]
  402269:	88 10                     mov	[eax], dl
  40226b:	40                       >inc	eax
  40226c:	49                        dec	ecx
  40226d:	75 f4                     jnz	402263
  40226f:	5e                        pop	esi
  402270:	c2 0c 00                 >ret	000Ch
     ...

402280 <no name>:
  402280:	8b 44 24 04               mov	eax, [esp+04h]
  402284:	85 c0                     test	eax, eax
  402286:	74 08                     jz	402290
  402288:	8b 4c 24 08               mov	ecx, [esp+08h]
  40228c:	8a 11                     mov	dl, [ecx]
  40228e:	88 10                     mov	[eax], dl
  402290:	c3                       >ret
     ...

4024b0 <no name>:
  4024b0:	8b 4c 24 04               mov	ecx, [esp+04h]
  4024b4:	8d 41 01                  lea	eax, [ecx+01h]
  4024b7:	83 f8 04                  cmp	eax, 04h
  4024ba:	77 27                     ja	4024e3
  4024bc:	ff 24 85 00 25 40 00      jmp	dword [eax*4+00402500h]
     ...
  4024e3:	51                       >push	ecx
  4024e4:	68 ac c0 40 00            push	dword 0040C0ACh
  4024e9:	68 98 c5 40 00            push	dword 0040C598h
  4024ee:	ff 15 44 a1 40 00         call	dword [0040A144h]	; <sprintf>
  4024f4:	83 c4 0c                  add	esp, 0Ch
  4024f7:	b8 98 c5 40 00            mov	eax, 0040C598h
  4024fc:	c2 04 00                  ret	0004h
     ...

402520 <no name>:
  402520:	6a ff                     push	dword FFFFFFFFh
  402522:	64 a1 00 00 00 00         mov	eax, [fs:0000h]
  402528:	68 56 8a 40 00            push	dword 00408A56h
  40252d:	50                        push	eax
  40252e:	b8 90 20 00 00            mov	eax, 00002090h
  402533:	64 89 25 00 00 00 00      mov	[fs:00000000h], esp
  40253a:	e8 91 62 00 00            call	4087d0
  40253f:	a1 84 a0 40 00            mov	eax, [40A084h]
  402544:	53                        push	ebx
  402545:	8b 1d 64 a1 40 00         mov	ebx, [0040A164h]
  40254b:	55                        push	ebp
  40254c:	8b 28                     mov	ebp, [eax]
  40254e:	56                        push	esi
  40254f:	8b b4 24 ac 20 00 00      mov	esi, [esp+000020ACh]
  402556:	8d 4c 24 44               lea	ecx, [esp+44h]
  40255a:	57                        push	edi
  40255b:	51                        push	ecx
  40255c:	8b ce                     mov	ecx, esi
  40255e:	ff d3                     call	ebx
  402560:	8b d0                     mov	edx, eax
  402562:	bf 78 c1 40 00            mov	edi, 0040C178h
  402567:	83 c9 ff                  or	ecx, FFh
  40256a:	33 c0                     xor	eax, eax
  40256c:	c7 84 24 a8 20 00 00      mov	dword [esp+000020A8h], 00000000h
		00 00 00 00 
  402577:	f2 ae                     repne scasb
  402579:	f7 d1                     not	ecx
  40257b:	49                        dec	ecx
  40257c:	51                        push	ecx
  40257d:	55                        push	ebp
  40257e:	68 78 c1 40 00            push	dword 0040C178h
  402583:	8b ca                     mov	ecx, edx
  402585:	ff 15 1c a0 40 00         call	dword [0040A01Ch]	; <?find_last_of@?$basic_string@DU?$char_traits@D@std@@V?$allocator@D@2@@std@@QBEIPBDII@Z>
  40258b:	83 cd ff                  or	ebp, FFh
  40258e:	6a 01                     push	dword 00000001h
  402590:	8d 4c 24 4c               lea	ecx, [esp+4Ch]
  402594:	8b f8                     mov	edi, eax
  402596:	89 ac 24 ac 20 00 00      mov	[esp+000020ACh], ebp
  40259d:	ff 15 54 a0 40 00         call	dword [0040A054h]	; <?_Tidy@?$basic_string@DU?$char_traits@D@std@@V?$allocator@D@2@@std@@AAEX_N@Z>
  4025a3:	8d 94 24 90 00 00 00      lea	edx, [esp+00000090h]
  4025aa:	8b ce                     mov	ecx, esi
  4025ac:	52                        push	edx
  4025ad:	ff d3                     call	ebx
  4025af:	8b 0d 84 a0 40 00         mov	ecx, [0040A084h]
  4025b5:	c7 84 24 a8 20 00 00      mov	dword [esp+000020A8h], 00000001h
		01 00 00 00 
  4025c0:	8b 11                     mov	edx, [ecx]
  4025c2:	8d 4c 24 38               lea	ecx, [esp+38h]
  4025c6:	52                        push	edx
  4025c7:	57                        push	edi
  4025c8:	51                        push	ecx
  4025c9:	8b c8                     mov	ecx, eax
  4025cb:	ff 15 8c a0 40 00         call	dword [0040A08Ch]	; <?substr@?$basic_string@DU?$char_traits@D@std@@V?$allocator@D@2@@std@@QBE?AV12@II@Z>
  4025d1:	6a 01                     push	dword 00000001h
  4025d3:	8d 8c 24 94 00 00 00      lea	ecx, [esp+00000094h]
  4025da:	c6 84 24 ac 20 00 00      mov	byte [esp+000020ACh], 03h
		03 
  4025e2:	ff 15 54 a0 40 00         call	dword [0040A054h]	; <?_Tidy@?$basic_string@DU?$char_traits@D@std@@V?$allocator@D@2@@std@@AAEX_N@Z>
  4025e8:	56                        push	esi
  4025e9:	8d 4c 24 1c               lea	ecx, [esp+1Ch]
  4025ed:	ff 15 68 a1 40 00         call	dword [0040A168h]	; <??0FileLocation@@QAE@ABV0@@Z>
  4025f3:	8a 54 24 13               mov	dl, [esp+13h]
  4025f7:	6a 00                     push	dword 00000000h
  4025f9:	8d 4c 24 4c               lea	ecx, [esp+4Ch]
  4025fd:	c6 84 24 ac 20 00 00      mov	byte [esp+000020ACh], 04h
		04 
  402605:	88 54 24 4c               mov	[esp+4Ch], dl
  402609:	ff 15 54 a0 40 00         call	dword [0040A054h]	; <?_Tidy@?$basic_string@DU?$char_traits@D@std@@V?$allocator@D@2@@std@@AAEX_N@Z>
  40260f:	bf 70 c1 40 00            mov	edi, 0040C170h
  402614:	8b cd                     mov	ecx, ebp
  402616:	33 c0                     xor	eax, eax
  402618:	f2 ae                     repne scasb
  40261a:	f7 d1                     not	ecx
  40261c:	49                        dec	ecx
  40261d:	51                        push	ecx
  40261e:	68 70 c1 40 00            push	dword 0040C170h
  402623:	8d 4c 24 50               lea	ecx, [esp+50h]
  402627:	ff 15 90 a0 40 00         call	dword [0040A090h]	; <?assign@?$basic_string@DU?$char_traits@D@std@@V?$allocator@D@2@@std@@QAEAAV12@PBDI@Z>
  40262d:	c6 84 24 a8 20 00 00      mov	byte [esp+000020A8h], 05h
		05 
  402635:	8d 44 24 48               lea	eax, [esp+48h]
  402639:	8d 4c 24 14               lea	ecx, [esp+14h]
  40263d:	50                        push	eax
  40263e:	51                        push	ecx
  40263f:	8d 4c 24 20               lea	ecx, [esp+20h]
  402643:	ff 15 58 a1 40 00         call	dword [0040A158h]	; <?ExtendFileName@FileLocation@@QBE?AV1@ABV?$basic_string@DU?$char_traits@D@std@@V?$allocator@D@2@@std@@@Z>
  402649:	6a 01                     push	dword 00000001h
  40264b:	8d 4c 24 4c               lea	ecx, [esp+4Ch]
  40264f:	c6 84 24 ac 20 00 00      mov	byte [esp+000020ACh], 07h
		07 
  402657:	ff 15 54 a0 40 00         call	dword [0040A054h]	; <?_Tidy@?$basic_string@DU?$char_traits@D@std@@V?$allocator@D@2@@std@@AAEX_N@Z>
  40265d:	68 50 c0 40 00            push	dword 0040C050h
  402662:	8d 4c 24 1c               lea	ecx, [esp+1Ch]
  402666:	ff 15 74 a1 40 00         call	dword [0040A174h]	; <?Open@FileLocation@@QBEPAU_iobuf@@PBD@Z>
  40266c:	85 c0                     test	eax, eax
  40266e:	89 44 24 34               mov	[esp+34h], eax
  402672:	75 6f                     jnz	4026e3
  402674:	8d 54 24 24               lea	edx, [esp+24h]
  402678:	8b ce                     mov	ecx, esi
  40267a:	52                        push	edx
  40267b:	ff d3                     call	ebx
  40267d:	8b 40 04                  mov	eax, [eax+04h]
  402680:	85 c0                     test	eax, eax
  402682:	75 05                     jnz	402689
  402684:	a1 5c a0 40 00            mov	eax, [40A05Ch]
  402689:	50                       >push	eax
  40268a:	68 48 c1 40 00            push	dword 0040C148h
  40268f:	ff 15 4c a1 40 00         call	dword [0040A14Ch]	; <printf>
  402695:	83 c4 08                  add	esp, 08h
  402698:	8d 4c 24 24               lea	ecx, [esp+24h]
  40269c:	6a 01                     push	dword 00000001h
  40269e:	ff 15 54 a0 40 00         call	dword [0040A054h]	; <?_Tidy@?$basic_string@DU?$char_traits@D@std@@V?$allocator@D@2@@std@@AAEX_N@Z>
  4026a4:	8b 35 6c a1 40 00         mov	esi, [0040A16Ch]
  4026aa:	8d 4c 24 14               lea	ecx, [esp+14h]
  4026ae:	c6 84 24 a8 20 00 00      mov	byte [esp+000020A8h], 04h
		04 
  4026b6:	ff d6                     call	esi
  4026b8:	8d 4c 24 18               lea	ecx, [esp+18h]
  4026bc:	c6 84 24 a8 20 00 00      mov	byte [esp+000020A8h], 03h
		03 
  4026c4:	ff d6                     call	esi
  4026c6:	6a 01                     push	dword 00000001h
  4026c8:	8d 4c 24 3c               lea	ecx, [esp+3Ch]
  4026cc:	89 ac 24 ac 20 00 00      mov	[esp+000020ACh], ebp
  4026d3:	ff 15 54 a0 40 00         call	dword [0040A054h]	; <?_Tidy@?$basic_string@DU?$char_traits@D@std@@V?$allocator@D@2@@std@@AAEX_N@Z>
  4026d9:	b8 fb ff ff ff            mov	eax, FFFFFFFBh
  4026de:	e9 6a 06 00 00            jmp	402d4d
  4026e3:	8d 44 24 14              >lea	eax, [esp+14h]
  4026e7:	8d 4c 24 58               lea	ecx, [esp+58h]
  4026eb:	50                        push	eax
  4026ec:	e8 3f f5 ff ff            call	401c30
  4026f1:	8d 4c 24 64               lea	ecx, [esp+64h]
  4026f5:	c6 84 24 a8 20 00 00      mov	byte [esp+000020A8h], 08h
		08 
  4026fd:	e8 ae f6 ff ff            call	401db0
  402702:	8d 4c 24 58               lea	ecx, [esp+58h]
  402706:	c6 84 24 a8 20 00 00      mov	byte [esp+000020A8h], 09h
		09 
  40270e:	51                        push	ecx
  40270f:	8d 4c 24 68               lea	ecx, [esp+68h]
  402713:	e8 18 f8 ff ff            call	401f30
  402718:	83 f8 6e                  cmp	eax, 6Eh
  40271b:	0f 84 93 00 00 00         jz	4027b4
  402721:	8d 54 24 24               lea	edx, [esp+24h]
  402725:	8d 4c 24 14               lea	ecx, [esp+14h]
  402729:	52                        push	edx
  40272a:	ff d3                     call	ebx
  40272c:	8b 40 04                  mov	eax, [eax+04h]
  40272f:	85 c0                     test	eax, eax
  402731:	75 05                     jnz	402738
  402733:	a1 5c a0 40 00            mov	eax, [40A05Ch]
  402738:	50                       >push	eax
  402739:	68 2c c1 40 00            push	dword 0040C12Ch
  40273e:	ff 15 4c a1 40 00         call	dword [0040A14Ch]	; <printf>
  402744:	83 c4 08                  add	esp, 08h
  402747:	8d 4c 24 24               lea	ecx, [esp+24h]
  40274b:	6a 01                     push	dword 00000001h
  40274d:	ff 15 54 a0 40 00         call	dword [0040A054h]	; <?_Tidy@?$basic_string@DU?$char_traits@D@std@@V?$allocator@D@2@@std@@AAEX_N@Z>
  402753:	8d 4c 24 64               lea	ecx, [esp+64h]
  402757:	c6 84 24 a8 20 00 00      mov	byte [esp+000020A8h], 08h
		08 
  40275f:	e8 7c f6 ff ff            call	401de0
  402764:	8d 4c 24 58               lea	ecx, [esp+58h]
  402768:	c6 84 24 a8 20 00 00      mov	byte [esp+000020A8h], 07h
		07 
  402770:	e8 fb f4 ff ff            call	401c70
  402775:	8b 35 6c a1 40 00         mov	esi, [0040A16Ch]
  40277b:	8d 4c 24 14               lea	ecx, [esp+14h]
  40277f:	c6 84 24 a8 20 00 00      mov	byte [esp+000020A8h], 04h
		04 
  402787:	ff d6                     call	esi
  402789:	8d 4c 24 18               lea	ecx, [esp+18h]
  40278d:	c6 84 24 a8 20 00 00      mov	byte [esp+000020A8h], 03h
		03 
  402795:	ff d6                     call	esi
  402797:	6a 01                     push	dword 00000001h
  402799:	8d 4c 24 3c               lea	ecx, [esp+3Ch]
  40279d:	89 ac 24 ac 20 00 00      mov	[esp+000020ACh], ebp
  4027a4:	ff 15 54 a0 40 00         call	dword [0040A054h]	; <?_Tidy@?$basic_string@DU?$char_traits@D@std@@V?$allocator@D@2@@std@@AAEX_N@Z>
  4027aa:	b8 8a 00 00 00            mov	eax, 0000008Ah
  4027af:	e9 99 05 00 00            jmp	402d4d
  4027b4:	6a 40                    >push	dword 00000040h
  4027b6:	e8 c5 5f 00 00            call	408780	; <??2@YAPAXI@Z>
  4027bb:	8b d8                     mov	ebx, eax
  4027bd:	83 c4 04                  add	esp, 04h
  4027c0:	89 5c 24 24               mov	[esp+24h], ebx
  4027c4:	85 db                     test	ebx, ebx
  4027c6:	c6 84 24 a8 20 00 00      mov	byte [esp+000020A8h], 0Ah
		0a 
  4027ce:	74 10                     jz	4027e0
  4027d0:	8b cb                     mov	ecx, ebx
  4027d2:	e8 c9 05 00 00            call	402da0
  4027d7:	c7 43 3c 01 00 00 00      mov	dword [ebx+3Ch], 00000001h
  4027de:	eb 02                     jmp	4027e2
  4027e0:	33 db                    >xor	ebx, ebx
  4027e2:	6a 14                    >push	dword 00000014h
  4027e4:	c6 84 24 ac 20 00 00      mov	byte [esp+000020ACh], 09h
		09 
  4027ec:	e8 8f 5f 00 00            call	408780	; <??2@YAPAXI@Z>
  4027f1:	8b e8                     mov	ebp, eax
  4027f3:	83 c4 04                  add	esp, 04h
  4027f6:	89 6c 24 24               mov	[esp+24h], ebp
  4027fa:	85 ed                     test	ebp, ebp
  4027fc:	c6 84 24 a8 20 00 00      mov	byte [esp+000020A8h], 0Bh
		0b 
  402804:	74 15                     jz	40281b
  402806:	8d 44 24 13               lea	eax, [esp+13h]
  40280a:	8b cd                     mov	ecx, ebp
  40280c:	50                        push	eax
  40280d:	e8 9e 4c 00 00            call	4074b0
  402812:	c7 45 10 01 00 00 00      mov	dword [ebp+10h], 00000001h
  402819:	eb 02                     jmp	40281d
  40281b:	33 ed                    >xor	ebp, ebp
  40281d:	8b 45 04                 >mov	eax, [ebp+04h]
  402820:	c6 84 24 a8 20 00 00      mov	byte [esp+000020A8h], 09h
		09 
  402828:	85 c0                     test	eax, eax
  40282a:	c6 44 24 13 00            mov	byte [esp+13h], 00h
  40282f:	75 04                     jnz	402835
  402831:	33 d2                     xor	edx, edx
  402833:	eb 05                     jmp	40283a
  402835:	8b 55 08                 >mov	edx, [ebp+08h]
  402838:	2b d0                     sub	edx, eax
  40283a:	8b 4c 24 40              >mov	ecx, [esp+40h]
  40283e:	3b d1                     cmp	edx, ecx
  402840:	73 22                     jae	402864
  402842:	85 c0                     test	eax, eax
  402844:	75 04                     jnz	40284a
  402846:	33 d2                     xor	edx, edx
  402848:	eb 05                     jmp	40284f
  40284a:	8b 55 08                 >mov	edx, [ebp+08h]
  40284d:	2b d0                     sub	edx, eax
  40284f:	8b 45 08                 >mov	eax, [ebp+08h]
  402852:	8d 74 24 13               lea	esi, [esp+13h]
  402856:	2b ca                     sub	ecx, edx
  402858:	56                        push	esi
  402859:	51                        push	ecx
  40285a:	50                        push	eax
  40285b:	8b cd                     mov	ecx, ebp
  40285d:	e8 8e f1 ff ff            call	4019f0
  402862:	eb 1a                     jmp	40287e
  402864:	85 c0                    >test	eax, eax
  402866:	74 1a                     jz	402882
  402868:	8b 55 08                  mov	edx, [ebp+08h]
  40286b:	8b f2                     mov	esi, edx
  40286d:	2b f0                     sub	esi, eax
  40286f:	3b ce                     cmp	ecx, esi
  402871:	73 0f                     jae	402882
  402873:	03 c8                     add	ecx, eax
  402875:	52                        push	edx
  402876:	51                        push	ecx
  402877:	8b cd                     mov	ecx, ebp
  402879:	e8 b2 44 00 00            call	406d30
  40287e:	8b 4c 24 40              >mov	ecx, [esp+40h]
  402882:	8b 74 24 3c              >mov	esi, [esp+3Ch]
  402886:	85 f6                     test	esi, esi
  402888:	75 06                     jnz	402890
  40288a:	8b 35 5c a0 40 00         mov	esi, [0040A05Ch]
  402890:	8b 7d 04                 >mov	edi, [ebp+04h]
  402893:	8b d1                     mov	edx, ecx
  402895:	c1 e9 02                  shr	ecx, 02h
  402898:	f3 a5                     rep movsd
  40289a:	8b ca                     mov	ecx, edx
  40289c:	83 e1 03                  and	ecx, 03h
  40289f:	f3 a4                     rep movsb
  4028a1:	c7 43 04 ef be ef be      mov	dword [ebx+04h], BEEFBEEFh
  4028a8:	8b 44 24 40               mov	eax, [esp+40h]
  4028ac:	89 43 08                  mov	[ebx+08h], eax
  4028af:	8b 4c 24 40               mov	ecx, [esp+40h]
  4028b3:	89 4b 10                  mov	[ebx+10h], ecx
  4028b6:	c7 03 02 00 00 00         mov	dword [ebx], 00000002h
  4028bc:	8b 4b 38                  mov	ecx, [ebx+38h]
  4028bf:	85 c9                     test	ecx, ecx
  4028c1:	74 0c                     jz	4028cf
  4028c3:	e8 38 42 00 00            call	406b00
  4028c8:	33 f6                     xor	esi, esi
  4028ca:	89 73 38                  mov	[ebx+38h], esi
  4028cd:	eb 02                     jmp	4028d1
  4028cf:	33 f6                    >xor	esi, esi
  4028d1:	8d 7b 34                 >lea	edi, [ebx+34h]
  4028d4:	8b cb                     mov	ecx, ebx
  4028d6:	57                        push	edi
  4028d7:	e8 94 05 00 00            call	402e70
  4028dc:	3b ee                     cmp	ebp, esi
  4028de:	89 2f                     mov	[edi], ebp
  4028e0:	74 0c                     jz	4028ee
  4028e2:	8d 55 10                  lea	edx, [ebp+10h]
  4028e5:	52                        push	edx
  4028e6:	e8 15 5a 00 00            call	408300
  4028eb:	83 c4 04                  add	esp, 04h
  4028ee:	53                       >push	ebx
  4028ef:	8d 4c 24 68               lea	ecx, [esp+68h]
  4028f3:	e8 58 f6 ff ff            call	401f50
  4028f8:	8d 45 10                  lea	eax, [ebp+10h]
  4028fb:	50                        push	eax
  4028fc:	e8 0f 5a 00 00            call	408310
  402901:	83 c4 04                  add	esp, 04h
  402904:	3b c6                     cmp	eax, esi
  402906:	75 14                     jnz	40291c
  402908:	3b ee                     cmp	ebp, esi
  40290a:	74 10                     jz	40291c
  40290c:	8b cd                     mov	ecx, ebp
  40290e:	e8 ad f0 ff ff            call	4019c0
  402913:	55                        push	ebp
  402914:	e8 33 5e 00 00            call	40874c
  402919:	83 c4 04                  add	esp, 04h
  40291c:	8d 4b 3c                 >lea	ecx, [ebx+3Ch]
  40291f:	51                        push	ecx
  402920:	e8 eb 59 00 00            call	408310
  402925:	83 c4 04                  add	esp, 04h
  402928:	3b c6                     cmp	eax, esi
  40292a:	75 15                     jnz	402941
  40292c:	3b de                     cmp	ebx, esi
  40292e:	74 11                     jz	402941
  402930:	56                        push	esi
  402931:	8b cb                     mov	ecx, ebx
  402933:	e8 a8 04 00 00            call	402de0
  402938:	53                        push	ebx
  402939:	e8 0e 5e 00 00            call	40874c
  40293e:	83 c4 04                  add	esp, 04h
  402941:	6a 40                    >push	dword 00000040h
  402943:	e8 38 5e 00 00            call	408780	; <??2@YAPAXI@Z>
  402948:	8b f8                     mov	edi, eax
  40294a:	83 c4 04                  add	esp, 04h
  40294d:	89 7c 24 24               mov	[esp+24h], edi
  402951:	3b fe                     cmp	edi, esi
  402953:	c6 84 24 a8 20 00 00      mov	byte [esp+000020A8h], 0Ch
		0c 
  40295b:	74 1d                     jz	40297a
  40295d:	8b cf                     mov	ecx, edi
  40295f:	e8 0c 04 00 00            call	402d70
  402964:	89 77 30                  mov	[edi+30h], esi
  402967:	89 77 34                  mov	[edi+34h], esi
  40296a:	89 77 38                  mov	[edi+38h], esi
  40296d:	c7 47 3c 01 00 00 00      mov	dword [edi+3Ch], 00000001h
  402974:	89 7c 24 1c               mov	[esp+1Ch], edi
  402978:	eb 04                     jmp	40297e
  40297a:	89 74 24 1c              >mov	[esp+1Ch], esi
  40297e:	6a 14                    >push	dword 00000014h
  402980:	c6 84 24 ac 20 00 00      mov	byte [esp+000020ACh], 09h
		09 
  402988:	e8 f3 5d 00 00            call	408780	; <??2@YAPAXI@Z>
  40298d:	83 c4 04                  add	esp, 04h
  402990:	3b c6                     cmp	eax, esi
  402992:	74 18                     jz	4029ac
  402994:	8a 54 24 13               mov	dl, [esp+13h]
  402998:	89 70 04                  mov	[eax+04h], esi
  40299b:	89 70 08                  mov	[eax+08h], esi
  40299e:	89 70 0c                  mov	[eax+0Ch], esi
  4029a1:	88 10                     mov	[eax], dl
  4029a3:	c7 40 10 01 00 00 00      mov	dword [eax+10h], 00000001h
  4029aa:	8b f0                     mov	esi, eax
  4029ac:	8b 44 24 34              >mov	eax, [esp+34h]
  4029b0:	8d 8c 24 a0 00 00 00      lea	ecx, [esp+000000A0h]
  4029b7:	50                        push	eax
  4029b8:	68 00 20 00 00            push	dword 00002000h
  4029bd:	6a 01                     push	dword 00000001h
  4029bf:	51                        push	ecx
  4029c0:	ff 15 2c a1 40 00         call	dword [0040A12Ch]	; <fread>
  4029c6:	8b c8                     mov	ecx, eax
  4029c8:	8b 46 08                  mov	eax, [esi+08h]
  4029cb:	89 4c 24 30               mov	[esp+30h], ecx
  4029cf:	8d 94 24 b0 00 00 00      lea	edx, [esp+000000B0h]
  4029d6:	8d 9c 0c b0 00 00 00      lea	ebx, [esp+ecx*1+000000B0h]
  4029dd:	8b 4e 0c                  mov	ecx, [esi+0Ch]
  4029e0:	8b eb                     mov	ebp, ebx
  4029e2:	2b c8                     sub	ecx, eax
  4029e4:	2b ea                     sub	ebp, edx
  4029e6:	83 c4 10                  add	esp, 10h
  4029e9:	3b cd                     cmp	ecx, ebp
  4029eb:	8b f8                     mov	edi, eax
  4029ed:	0f 83 b9 00 00 00         jae	402aac
  4029f3:	8b 56 04                  mov	edx, [esi+04h]
  4029f6:	85 d2                     test	edx, edx
  4029f8:	74 08                     jz	402a02
  4029fa:	8b c8                     mov	ecx, eax
  4029fc:	2b ca                     sub	ecx, edx
  4029fe:	3b e9                     cmp	ebp, ecx
  402a00:	72 02                     jb	402a04
  402a02:	8b cd                    >mov	ecx, ebp
  402a04:	85 d2                    >test	edx, edx
  402a06:	75 04                     jnz	402a0c
  402a08:	33 c0                     xor	eax, eax
  402a0a:	eb 02                     jmp	402a0e
  402a0c:	2b c2                    >sub	eax, edx
  402a0e:	03 c1                    >add	eax, ecx
  402a10:	85 c0                     test	eax, eax
  402a12:	89 44 24 24               mov	[esp+24h], eax
  402a16:	7d 02                     jge	402a1a
  402a18:	33 c0                     xor	eax, eax
  402a1a:	50                       >push	eax
  402a1b:	e8 60 5d 00 00            call	408780	; <??2@YAPAXI@Z>
  402a20:	8b 56 04                  mov	edx, [esi+04h]
  402a23:	83 c4 04                  add	esp, 04h
  402a26:	8b d8                     mov	ebx, eax
  402a28:	8b ce                     mov	ecx, esi
  402a2a:	53                        push	ebx
  402a2b:	57                        push	edi
  402a2c:	52                        push	edx
  402a2d:	e8 ee f7 ff ff            call	402220
  402a32:	50                        push	eax
  402a33:	8b 44 24 24               mov	eax, [esp+24h]
  402a37:	8d 8c 24 a4 00 00 00      lea	ecx, [esp+000000A4h]
  402a3e:	8d 84 04 a4 00 00 00      lea	eax, [esp+eax*1+000000A4h]
  402a45:	50                        push	eax
  402a46:	51                        push	ecx
  402a47:	8b ce                     mov	ecx, esi
  402a49:	e8 d2 f7 ff ff            call	402220
  402a4e:	8b 56 08                  mov	edx, [esi+08h]
  402a51:	50                        push	eax
  402a52:	52                        push	edx
  402a53:	57                        push	edi
  402a54:	8b ce                     mov	ecx, esi
  402a56:	e8 c5 f7 ff ff            call	402220
  402a5b:	8b 46 08                  mov	eax, [esi+08h]
  402a5e:	8b 4e 04                  mov	ecx, [esi+04h]
  402a61:	50                        push	eax
  402a62:	51                        push	ecx
  402a63:	8b ce                     mov	ecx, esi
  402a65:	e8 f6 4d 00 00            call	407860
  402a6a:	8b 46 04                  mov	eax, [esi+04h]
  402a6d:	50                        push	eax
  402a6e:	e8 d9 5c 00 00            call	40874c
  402a73:	8b 54 24 28               mov	edx, [esp+28h]
  402a77:	83 c4 04                  add	esp, 04h
  402a7a:	8d 04 13                  lea	eax, [ebx+edx*1]
  402a7d:	89 46 0c                  mov	[esi+0Ch], eax
  402a80:	8b 46 04                  mov	eax, [esi+04h]
  402a83:	85 c0                     test	eax, eax
  402a85:	75 11                     jnz	402a98
  402a87:	33 c9                     xor	ecx, ecx
  402a89:	89 5e 04                  mov	[esi+04h], ebx
  402a8c:	8b cb                     mov	ecx, ebx
  402a8e:	03 cd                     add	ecx, ebp
  402a90:	89 4e 08                  mov	[esi+08h], ecx
  402a93:	e9 a2 00 00 00            jmp	402b3a
  402a98:	8b 4e 08                 >mov	ecx, [esi+08h]
  402a9b:	89 5e 04                  mov	[esi+04h], ebx
  402a9e:	2b c8                     sub	ecx, eax
  402aa0:	03 cb                     add	ecx, ebx
  402aa2:	03 cd                     add	ecx, ebp
  402aa4:	89 4e 08                  mov	[esi+08h], ecx
  402aa7:	e9 8e 00 00 00            jmp	402b3a
  402aac:	8b c8                    >mov	ecx, eax
  402aae:	2b cf                     sub	ecx, edi
  402ab0:	3b cd                     cmp	ecx, ebp
  402ab2:	73 3b                     jae	402aef
  402ab4:	8d 14 2f                  lea	edx, [edi+ebp*1]
  402ab7:	8b ce                     mov	ecx, esi
  402ab9:	52                        push	edx
  402aba:	50                        push	eax
  402abb:	57                        push	edi
  402abc:	e8 5f f7 ff ff            call	402220
  402ac1:	8b 46 08                  mov	eax, [esi+08h]
  402ac4:	8b ce                     mov	ecx, esi
  402ac6:	50                        push	eax
  402ac7:	2b c7                     sub	eax, edi
  402ac9:	53                        push	ebx
  402aca:	8d 84 04 a8 00 00 00      lea	eax, [esp+eax*1+000000A8h]
  402ad1:	50                        push	eax
  402ad2:	e8 49 f7 ff ff            call	402220
  402ad7:	8b 4e 08                  mov	ecx, [esi+08h]
  402ada:	57                        push	edi
  402adb:	2b cf                     sub	ecx, edi
  402add:	8d 84 24 a4 00 00 00      lea	eax, [esp+000000A4h]
  402ae4:	8d 94 0c a4 00 00 00      lea	edx, [esp+ecx*1+000000A4h]
  402aeb:	52                        push	edx
  402aec:	50                        push	eax
  402aed:	eb 3b                     jmp	402b2a
  402aef:	85 ed                    >test	ebp, ebp
  402af1:	76 47                     jbe	402b3a
  402af3:	50                        push	eax
  402af4:	50                        push	eax
  402af5:	2b c5                     sub	eax, ebp
  402af7:	8b ce                     mov	ecx, esi
  402af9:	50                        push	eax
  402afa:	e8 21 f7 ff ff            call	402220
  402aff:	8b 4e 08                  mov	ecx, [esi+08h]
  402b02:	8b c1                     mov	eax, ecx
  402b04:	2b c5                     sub	eax, ebp
  402b06:	3b f8                     cmp	edi, eax
  402b08:	74 0b                     jz	402b15
  402b0a:	8a 50 ff                 >mov	dl, [eax-01h]
  402b0d:	48                        dec	eax
  402b0e:	49                        dec	ecx
  402b0f:	3b c7                     cmp	eax, edi
  402b11:	88 11                     mov	[ecx], dl
  402b13:	75 f5                     jnz	402b0a
  402b15:	8b 44 24 20              >mov	eax, [esp+20h]
  402b19:	57                        push	edi
  402b1a:	8d 8c 24 a4 00 00 00      lea	ecx, [esp+000000A4h]
  402b21:	8d 84 04 a4 00 00 00      lea	eax, [esp+eax*1+000000A4h]
  402b28:	50                        push	eax
  402b29:	51                        push	ecx
  402b2a:	e8 91 f0 ff ff           >call	401bc0
  402b2f:	8b 46 08                  mov	eax, [esi+08h]
  402b32:	83 c4 0c                  add	esp, 0Ch
  402b35:	03 c5                     add	eax, ebp
  402b37:	89 46 08                  mov	[esi+08h], eax
  402b3a:	81 7c 24 20 00 20 00     >cmp	dword [esp+20h], 00002000h
		00 
  402b42:	0f 84 64 fe ff ff         jz	4029ac
  402b48:	8b 54 24 34               mov	edx, [esp+34h]
  402b4c:	52                        push	edx
  402b4d:	ff 15 34 a1 40 00         call	dword [0040A134h]	; <fclose>
  402b53:	8b 7c 24 20               mov	edi, [esp+20h]
  402b57:	33 ed                     xor	ebp, ebp
  402b59:	83 c4 04                  add	esp, 04h
  402b5c:	c7 47 04 fe ca fe ca      mov	dword [edi+04h], CAFECAFEh
  402b63:	8b 4e 04                  mov	ecx, [esi+04h]
  402b66:	3b cd                     cmp	ecx, ebp
  402b68:	75 04                     jnz	402b6e
  402b6a:	33 c0                     xor	eax, eax
  402b6c:	eb 05                     jmp	402b73
  402b6e:	8b 46 08                 >mov	eax, [esi+08h]
  402b71:	2b c1                     sub	eax, ecx
  402b73:	89 47 08                 >mov	[edi+08h], eax
  402b76:	c7 07 02 00 00 00         mov	dword [edi], 00000002h
  402b7c:	8b 4f 38                  mov	ecx, [edi+38h]
  402b7f:	3b cd                     cmp	ecx, ebp
  402b81:	74 08                     jz	402b8b
  402b83:	e8 78 3f 00 00            call	406b00
  402b88:	89 6f 38                  mov	[edi+38h], ebp
  402b8b:	8d 5f 34                 >lea	ebx, [edi+34h]
  402b8e:	8b cf                     mov	ecx, edi
  402b90:	53                        push	ebx
  402b91:	e8 da 02 00 00            call	402e70
  402b96:	3b f5                     cmp	esi, ebp
  402b98:	89 33                     mov	[ebx], esi
  402b9a:	74 0c                     jz	402ba8
  402b9c:	8d 46 10                  lea	eax, [esi+10h]
  402b9f:	50                        push	eax
  402ba0:	e8 5b 57 00 00            call	408300
  402ba5:	83 c4 04                  add	esp, 04h
  402ba8:	83 3f 02                 >cmp	dword [edi], 02h
  402bab:	0f 85 a8 00 00 00         jnz	402c59
  402bb1:	8b 5f 08                  mov	ebx, [edi+08h]
  402bb4:	83 fb 20                  cmp	ebx, 20h
  402bb7:	0f 82 9c 00 00 00         jb	402c59
  402bbd:	6a 14                     push	dword 00000014h
  402bbf:	e8 bc 5b 00 00            call	408780	; <??2@YAPAXI@Z>
  402bc4:	83 c4 04                  add	esp, 04h
  402bc7:	89 44 24 24               mov	[esp+24h], eax
  402bcb:	3b c5                     cmp	eax, ebp
  402bcd:	c6 84 24 a8 20 00 00      mov	byte [esp+000020A8h], 0Dh
		0d 
  402bd5:	74 09                     jz	402be0
  402bd7:	8b c8                     mov	ecx, eax
  402bd9:	e8 02 3f 00 00            call	406ae0
  402bde:	8b e8                     mov	ebp, eax
  402be0:	89 5c 24 24              >mov	[esp+24h], ebx
  402be4:	c7 44 24 28 00 00 00      mov	dword [esp+28h], 00000000h
		00 
  402bec:	df 6c 24 24               fild	qword [esp+24h]
  402bf0:	c6 84 24 a8 20 00 00      mov	byte [esp+000020A8h], 09h
		09 
  402bf8:	d8 0d d4 a1 40 00         fmul	dword [0040A1D4h]
  402bfe:	d8 05 d0 a1 40 00         fadd	dword [0040A1D0h]
  402c04:	e8 f7 5b 00 00            call	408800	; <_ftol>
  402c09:	8d 4c 24 13               lea	ecx, [esp+13h]
  402c0d:	89 44 24 1c               mov	[esp+1Ch], eax
  402c11:	51                        push	ecx
  402c12:	50                        push	eax
  402c13:	8b cd                     mov	ecx, ebp
  402c15:	c6 44 24 1b 00            mov	byte [esp+1Bh], 00h
  402c1a:	e8 11 3f 00 00            call	406b30
  402c1f:	8b cf                     mov	ecx, edi
  402c21:	e8 6a f3 ff ff            call	401f90
  402c26:	8b 40 04                  mov	eax, [eax+04h]
  402c29:	8b 4d 04                  mov	ecx, [ebp+04h]
  402c2c:	53                        push	ebx
  402c2d:	8d 54 24 20               lea	edx, [esp+20h]
  402c31:	50                        push	eax
  402c32:	52                        push	edx
  402c33:	51                        push	ecx
  402c34:	e8 07 5b 00 00            call	408740	; <zlib.dll.2
>
  402c39:	8b 44 24 1c               mov	eax, [esp+1Ch]
  402c3d:	3b c3                     cmp	eax, ebx
  402c3f:	73 11                     jae	402c52
  402c41:	55                        push	ebp
  402c42:	8b cf                     mov	ecx, edi
  402c44:	c7 07 03 00 00 00         mov	dword [edi], 00000003h
  402c4a:	89 47 10                  mov	[edi+10h], eax
  402c4d:	e8 8e 01 00 00            call	402de0
  402c52:	8b cd                    >mov	ecx, ebp
  402c54:	e8 a7 3e 00 00            call	406b00
  402c59:	57                       >push	edi
  402c5a:	8d 4c 24 68               lea	ecx, [esp+68h]
  402c5e:	e8 ed f2 ff ff            call	401f50
  402c63:	8d 4c 24 64               lea	ecx, [esp+64h]
  402c67:	e8 74 f3 ff ff            call	401fe0
  402c6c:	8d 47 3c                  lea	eax, [edi+3Ch]
  402c6f:	50                        push	eax
  402c70:	e8 9b 56 00 00            call	408310
  402c75:	83 c4 04                  add	esp, 04h
  402c78:	85 c0                     test	eax, eax
  402c7a:	75 0d                     jnz	402c89
  402c7c:	85 ff                     test	edi, edi
  402c7e:	74 09                     jz	402c89
  402c80:	6a 01                     push	dword 00000001h
  402c82:	8b cf                     mov	ecx, edi
  402c84:	e8 37 47 00 00            call	4073c0
  402c89:	8d 4e 10                 >lea	ecx, [esi+10h]
  402c8c:	51                        push	ecx
  402c8d:	e8 7e 56 00 00            call	408310
  402c92:	83 c4 04                  add	esp, 04h
  402c95:	85 c0                     test	eax, eax
  402c97:	75 0d                     jnz	402ca6
  402c99:	85 f6                     test	esi, esi
  402c9b:	74 09                     jz	402ca6
  402c9d:	6a 01                     push	dword 00000001h
  402c9f:	8b ce                     mov	ecx, esi
  402ca1:	e8 fa ec ff ff            call	4019a0
  402ca6:	8d 94 24 80 00 00 00     >lea	edx, [esp+00000080h]
  402cad:	8d 4c 24 14               lea	ecx, [esp+14h]
  402cb1:	52                        push	edx
  402cb2:	ff 15 64 a1 40 00         call	dword [0040A164h]	; <?FileName@FileLocation@@QBE?AV?$basic_string@DU?$char_traits@D@std@@V?$allocator@D@2@@std@@XZ>
  402cb8:	8b 40 04                  mov	eax, [eax+04h]
  402cbb:	85 c0                     test	eax, eax
  402cbd:	75 05                     jnz	402cc4
  402cbf:	a1 5c a0 40 00            mov	eax, [40A05Ch]
  402cc4:	50                       >push	eax
  402cc5:	68 10 c1 40 00            push	dword 0040C110h
  402cca:	ff 15 4c a1 40 00         call	dword [0040A14Ch]	; <printf>
  402cd0:	83 c4 08                  add	esp, 08h
  402cd3:	8d 8c 24 80 00 00 00      lea	ecx, [esp+00000080h]
  402cda:	6a 01                     push	dword 00000001h
  402cdc:	ff 15 54 a0 40 00         call	dword [0040A054h]	; <?_Tidy@?$basic_string@DU?$char_traits@D@std@@V?$allocator@D@2@@std@@AAEX_N@Z>
  402ce2:	8d 4c 24 64               lea	ecx, [esp+64h]
  402ce6:	c6 84 24 a8 20 00 00      mov	byte [esp+000020A8h], 08h
		08 
  402cee:	e8 ed f0 ff ff            call	401de0
  402cf3:	8d 4c 24 58               lea	ecx, [esp+58h]
  402cf7:	c6 84 24 a8 20 00 00      mov	byte [esp+000020A8h], 07h
		07 
  402cff:	e8 6c ef ff ff            call	401c70
  402d04:	8b 35 6c a1 40 00         mov	esi, [0040A16Ch]
  402d0a:	8d 4c 24 14               lea	ecx, [esp+14h]
  402d0e:	c6 84 24 a8 20 00 00      mov	byte [esp+000020A8h], 04h
		04 
  402d16:	ff d6                     call	esi
  402d18:	8d 4c 24 18               lea	ecx, [esp+18h]
  402d1c:	c6 84 24 a8 20 00 00      mov	byte [esp+000020A8h], 03h
		03 
  402d24:	ff d6                     call	esi
  402d26:	8b 44 24 3c               mov	eax, [esp+3Ch]
  402d2a:	85 c0                     test	eax, eax
  402d2c:	74 1d                     jz	402d4b
  402d2e:	8a 48 ff                  mov	cl, [eax-01h]
  402d31:	84 c9                     test	cl, cl
  402d33:	74 0c                     jz	402d41
  402d35:	80 f9 ff                  cmp	cl, FFh
  402d38:	74 07                     jz	402d41
  402d3a:	fe c9                     dec	cl
  402d3c:	88 48 ff                  mov	[eax-01h], cl
  402d3f:	eb 0a                     jmp	402d4b
  402d41:	48                       >dec	eax
  402d42:	50                        push	eax
  402d43:	e8 04 5a 00 00            call	40874c
  402d48:	83 c4 04                  add	esp, 04h
  402d4b:	33 c0                    >xor	eax, eax
  402d4d:	8b 8c 24 a0 20 00 00     >mov	ecx, [esp+000020A0h]
  402d54:	5f                        pop	edi
  402d55:	5e                        pop	esi
  402d56:	5d                        pop	ebp
  402d57:	5b                        pop	ebx
  402d58:	64 89 0d 00 00 00 00      mov	[fs:00000000h], ecx
  402d5f:	81 c4 9c 20 00 00         add	esp, 0000209Ch
  402d65:	c2 04 00                  ret	0004h
     ...

402d70 <no name>:
  402d70:	8b d1                     mov	edx, ecx
  402d72:	57                        push	edi
  402d73:	33 c0                     xor	eax, eax
  402d75:	b9 07 00 00 00            mov	ecx, 00000007h
  402d7a:	8d 7a 14                  lea	edi, [edx+14h]
  402d7d:	c7 02 01 00 00 00         mov	dword [edx], 00000001h
  402d83:	89 42 04                  mov	[edx+04h], eax
  402d86:	89 42 08                  mov	[edx+08h], eax
  402d89:	89 42 0c                  mov	[edx+0Ch], eax
  402d8c:	89 42 10                  mov	[edx+10h], eax
  402d8f:	f3 ab                     rep stosd
  402d91:	8b c2                     mov	eax, edx
  402d93:	5f                        pop	edi
  402d94:	c3                        ret
     ...

402da0 <no name>:
  402da0:	8b d1                     mov	edx, ecx
  402da2:	56                        push	esi
  402da3:	57                        push	edi
  402da4:	33 f6                     xor	esi, esi
  402da6:	b9 07 00 00 00            mov	ecx, 00000007h
  402dab:	33 c0                     xor	eax, eax
  402dad:	8d 7a 14                  lea	edi, [edx+14h]
  402db0:	c7 02 01 00 00 00         mov	dword [edx], 00000001h
  402db6:	89 72 04                  mov	[edx+04h], esi
  402db9:	89 72 08                  mov	[edx+08h], esi
  402dbc:	89 72 0c                  mov	[edx+0Ch], esi
  402dbf:	89 72 10                  mov	[edx+10h], esi
  402dc2:	f3 ab                     rep stosd
  402dc4:	89 72 30                  mov	[edx+30h], esi
  402dc7:	89 72 34                  mov	[edx+34h], esi
  402dca:	89 72 38                  mov	[edx+38h], esi
  402dcd:	5f                        pop	edi
  402dce:	8b c2                     mov	eax, edx
  402dd0:	5e                        pop	esi
  402dd1:	c3                        ret
     ...

402de0 <no name>:
  402de0:	56                        push	esi
  402de1:	8b f1                     mov	esi, ecx
  402de3:	57                        push	edi
  402de4:	8b 7e 38                  mov	edi, [esi+38h]
  402de7:	85 ff                     test	edi, edi
  402de9:	74 2b                     jz	402e16
  402deb:	8d 47 10                  lea	eax, [edi+10h]
  402dee:	50                        push	eax
  402def:	e8 1c 55 00 00            call	408310
  402df4:	83 c4 04                  add	esp, 04h
  402df7:	85 c0                     test	eax, eax
  402df9:	75 14                     jnz	402e0f
  402dfb:	85 ff                     test	edi, edi
  402dfd:	74 10                     jz	402e0f
  402dff:	8b cf                     mov	ecx, edi
  402e01:	e8 ba eb ff ff            call	4019c0
  402e06:	57                        push	edi
  402e07:	e8 40 59 00 00            call	40874c
  402e0c:	83 c4 04                  add	esp, 04h
  402e0f:	c7 46 38 00 00 00 00     >mov	dword [esi+38h], 00000000h
  402e16:	8b 7e 34                 >mov	edi, [esi+34h]
  402e19:	85 ff                     test	edi, edi
  402e1b:	74 2b                     jz	402e48
  402e1d:	8d 4f 10                  lea	ecx, [edi+10h]
  402e20:	51                        push	ecx
  402e21:	e8 ea 54 00 00            call	408310
  402e26:	83 c4 04                  add	esp, 04h
  402e29:	85 c0                     test	eax, eax
  402e2b:	75 14                     jnz	402e41
  402e2d:	85 ff                     test	edi, edi
  402e2f:	74 10                     jz	402e41
  402e31:	8b cf                     mov	ecx, edi
  402e33:	e8 88 eb ff ff            call	4019c0
  402e38:	57                        push	edi
  402e39:	e8 0e 59 00 00            call	40874c
  402e3e:	83 c4 04                  add	esp, 04h
  402e41:	c7 46 34 00 00 00 00     >mov	dword [esi+34h], 00000000h
  402e48:	8b 44 24 0c              >mov	eax, [esp+0Ch]
  402e4c:	5f                        pop	edi
  402e4d:	89 46 34                  mov	[esi+34h], eax
  402e50:	5e                        pop	esi
  402e51:	85 c0                     test	eax, eax
  402e53:	74 0a                     jz	402e5f
  402e55:	83 c0 10                  add	eax, 10h
  402e58:	50                        push	eax
  402e59:	e8 a2 54 00 00            call	408300
  402e5e:	59                        pop	ecx
  402e5f:	c2 04 00                 >ret	0004h
     ...

402e70 <no name>:
  402e70:	56                        push	esi
  402e71:	57                        push	edi
  402e72:	8b 7c 24 0c               mov	edi, [esp+0Ch]
  402e76:	8b 37                     mov	esi, [edi]
  402e78:	85 f6                     test	esi, esi
  402e7a:	74 2a                     jz	402ea6
  402e7c:	8d 46 10                  lea	eax, [esi+10h]
  402e7f:	50                        push	eax
  402e80:	e8 8b 54 00 00            call	408310
  402e85:	83 c4 04                  add	esp, 04h
  402e88:	85 c0                     test	eax, eax
  402e8a:	75 14                     jnz	402ea0
  402e8c:	85 f6                     test	esi, esi
  402e8e:	74 10                     jz	402ea0
  402e90:	8b ce                     mov	ecx, esi
  402e92:	e8 29 eb ff ff            call	4019c0
  402e97:	56                        push	esi
  402e98:	e8 af 58 00 00            call	40874c
  402e9d:	83 c4 04                  add	esp, 04h
  402ea0:	c7 07 00 00 00 00        >mov	dword [edi], 00000000h
  402ea6:	5f                       >pop	edi
  402ea7:	5e                        pop	esi
  402ea8:	c2 04 00                  ret	0004h
     ...

402eb0 <no name>:
  402eb0:	53                        push	ebx
  402eb1:	56                        push	esi
  402eb2:	8b 74 24 0c               mov	esi, [esp+0Ch]
  402eb6:	83 3e 03                  cmp	dword [esi], 03h
  402eb9:	0f 85 94 00 00 00         jnz	402f53
  402ebf:	55                        push	ebp
  402ec0:	57                        push	edi
  402ec1:	8b ce                     mov	ecx, esi
  402ec3:	e8 98 00 00 00            call	402f60
  402ec8:	8b d8                     mov	ebx, eax
  402eca:	8d 6b 10                  lea	ebp, [ebx+10h]
  402ecd:	55                        push	ebp
  402ece:	e8 2d 54 00 00            call	408300
  402ed3:	8b 46 08                  mov	eax, [esi+08h]
  402ed6:	83 c4 04                  add	esp, 04h
  402ed9:	89 46 10                  mov	[esi+10h], eax
  402edc:	8b 7e 38                  mov	edi, [esi+38h]
  402edf:	85 ff                     test	edi, edi
  402ee1:	74 24                     jz	402f07
  402ee3:	8d 4f 10                  lea	ecx, [edi+10h]
  402ee6:	51                        push	ecx
  402ee7:	e8 24 54 00 00            call	408310
  402eec:	83 c4 04                  add	esp, 04h
  402eef:	85 c0                     test	eax, eax
  402ef1:	75 0d                     jnz	402f00
  402ef3:	85 ff                     test	edi, edi
  402ef5:	74 09                     jz	402f00
  402ef7:	6a 01                     push	dword 00000001h
  402ef9:	8b cf                     mov	ecx, edi
  402efb:	e8 a0 ea ff ff            call	4019a0
  402f00:	c7 46 38 00 00 00 00     >mov	dword [esi+38h], 00000000h
  402f07:	8b 4e 34                 >mov	ecx, [esi+34h]
  402f0a:	85 c9                     test	ecx, ecx
  402f0c:	74 0c                     jz	402f1a
  402f0e:	e8 ed 3b 00 00            call	406b00
  402f13:	c7 46 34 00 00 00 00      mov	dword [esi+34h], 00000000h
  402f1a:	85 db                    >test	ebx, ebx
  402f1c:	89 5e 34                  mov	[esi+34h], ebx
  402f1f:	74 09                     jz	402f2a
  402f21:	55                        push	ebp
  402f22:	e8 d9 53 00 00            call	408300
  402f27:	83 c4 04                  add	esp, 04h
  402f2a:	55                       >push	ebp
  402f2b:	c7 06 02 00 00 00         mov	dword [esi], 00000002h
  402f31:	e8 da 53 00 00            call	408310
  402f36:	83 c4 04                  add	esp, 04h
  402f39:	85 c0                     test	eax, eax
  402f3b:	5f                        pop	edi
  402f3c:	5d                        pop	ebp
  402f3d:	75 14                     jnz	402f53
  402f3f:	85 db                     test	ebx, ebx
  402f41:	74 10                     jz	402f53
  402f43:	8b cb                     mov	ecx, ebx
  402f45:	e8 76 ea ff ff            call	4019c0
  402f4a:	53                        push	ebx
  402f4b:	e8 fc 57 00 00            call	40874c
  402f50:	83 c4 04                  add	esp, 04h
  402f53:	5e                       >pop	esi
  402f54:	5b                        pop	ebx
  402f55:	c2 04 00                  ret	0004h
     ...

402f60 <no name>:
  402f60:	64 a1 00 00 00 00         mov	eax, [fs:0000h]
  402f66:	6a ff                     push	dword FFFFFFFFh
  402f68:	68 6b 8a 40 00            push	dword 00408A6Bh
  402f6d:	50                        push	eax
  402f6e:	64 89 25 00 00 00 00      mov	[fs:00000000h], esp
  402f75:	83 ec 0c                  sub	esp, 0Ch
  402f78:	53                        push	ebx
  402f79:	55                        push	ebp
  402f7a:	8b e9                     mov	ebp, ecx
  402f7c:	33 db                     xor	ebx, ebx
  402f7e:	56                        push	esi
  402f7f:	57                        push	edi
  402f80:	39 5d 38                  cmp	[ebp+38h], ebx
  402f83:	0f 85 20 01 00 00         jnz	4030a9
  402f89:	8b 45 34                  mov	eax, [ebp+34h]
  402f8c:	bf 01 00 00 00            mov	edi, 00000001h
  402f91:	3b c3                     cmp	eax, ebx
  402f93:	75 36                     jnz	402fcb
  402f95:	6a 14                     push	dword 00000014h
  402f97:	e8 e4 57 00 00            call	408780	; <??2@YAPAXI@Z>
  402f9c:	8b f0                     mov	esi, eax
  402f9e:	83 c4 04                  add	esp, 04h
  402fa1:	89 74 24 18               mov	[esp+18h], esi
  402fa5:	3b f3                     cmp	esi, ebx
  402fa7:	89 5c 24 24               mov	[esp+24h], ebx
  402fab:	74 11                     jz	402fbe
  402fad:	8d 44 24 13               lea	eax, [esp+13h]
  402fb1:	8b ce                     mov	ecx, esi
  402fb3:	50                        push	eax
  402fb4:	e8 f7 44 00 00            call	4074b0
  402fb9:	89 7e 10                  mov	[esi+10h], edi
  402fbc:	eb 02                     jmp	402fc0
  402fbe:	33 f6                    >xor	esi, esi
  402fc0:	c7 44 24 24 ff ff ff     >mov	dword [esp+24h], FFFFFFFFh
		ff 
  402fc8:	89 75 34                  mov	[ebp+34h], esi
  402fcb:	8b 4d 00                 >mov	ecx, [ebp+00h]
  402fce:	8b 45 34                  mov	eax, [ebp+34h]
  402fd1:	83 f9 03                  cmp	ecx, 03h
  402fd4:	89 44 24 14               mov	[esp+14h], eax
  402fd8:	74 14                     jz	402fee
  402fda:	89 45 38                  mov	[ebp+38h], eax
  402fdd:	83 c0 10                  add	eax, 10h
  402fe0:	50                        push	eax
  402fe1:	e8 1a 53 00 00            call	408300
  402fe6:	83 c4 04                  add	esp, 04h
  402fe9:	e9 bb 00 00 00            jmp	4030a9
  402fee:	39 5d 38                 >cmp	[ebp+38h], ebx
  402ff1:	75 27                     jnz	40301a
  402ff3:	6a 14                     push	dword 00000014h
  402ff5:	e8 86 57 00 00            call	408780	; <??2@YAPAXI@Z>
  402ffa:	83 c4 04                  add	esp, 04h
  402ffd:	3b c3                     cmp	eax, ebx
  402fff:	74 14                     jz	403015
  403001:	8a 4c 24 13               mov	cl, [esp+13h]
  403005:	89 58 04                  mov	[eax+04h], ebx
  403008:	88 08                     mov	[eax], cl
  40300a:	89 58 08                  mov	[eax+08h], ebx
  40300d:	89 58 0c                  mov	[eax+0Ch], ebx
  403010:	89 78 10                  mov	[eax+10h], edi
  403013:	eb 02                     jmp	403017
  403015:	33 c0                    >xor	eax, eax
  403017:	89 45 38                 >mov	[ebp+38h], eax
  40301a:	8b 75 38                 >mov	esi, [ebp+38h]
  40301d:	8b 55 08                  mov	edx, [ebp+08h]
  403020:	89 54 24 18               mov	[esp+18h], edx
  403024:	88 5c 24 13               mov	[esp+13h], bl
  403028:	8b 46 04                  mov	eax, [esi+04h]
  40302b:	3b c3                     cmp	eax, ebx
  40302d:	75 04                     jnz	403033
  40302f:	33 c9                     xor	ecx, ecx
  403031:	eb 05                     jmp	403038
  403033:	8b 4e 08                 >mov	ecx, [esi+08h]
  403036:	2b c8                     sub	ecx, eax
  403038:	3b ca                    >cmp	ecx, edx
  40303a:	73 22                     jae	40305e
  40303c:	3b c3                     cmp	eax, ebx
  40303e:	75 04                     jnz	403044
  403040:	33 c9                     xor	ecx, ecx
  403042:	eb 05                     jmp	403049
  403044:	8b 4e 08                 >mov	ecx, [esi+08h]
  403047:	2b c8                     sub	ecx, eax
  403049:	8d 44 24 13              >lea	eax, [esp+13h]
  40304d:	2b d1                     sub	edx, ecx
  40304f:	8b 4e 08                  mov	ecx, [esi+08h]
  403052:	50                        push	eax
  403053:	52                        push	edx
  403054:	51                        push	ecx
  403055:	8b ce                     mov	ecx, esi
  403057:	e8 94 e9 ff ff            call	4019f0
  40305c:	eb 31                     jmp	40308f
  40305e:	3b c3                    >cmp	eax, ebx
  403060:	74 2d                     jz	40308f
  403062:	8b 4e 08                  mov	ecx, [esi+08h]
  403065:	8b f9                     mov	edi, ecx
  403067:	2b f8                     sub	edi, eax
  403069:	3b d7                     cmp	edx, edi
  40306b:	73 22                     jae	40308f
  40306d:	8d 3c 10                  lea	edi, [eax+edx*1]
  403070:	8b c1                     mov	eax, ecx
  403072:	3b c1                     cmp	eax, ecx
  403074:	74 0a                     jz	403080
  403076:	8a 10                    >mov	dl, [eax]
  403078:	88 17                     mov	[edi], dl
  40307a:	47                        inc	edi
  40307b:	40                        inc	eax
  40307c:	3b c1                     cmp	eax, ecx
  40307e:	75 f6                     jnz	403076
  403080:	8b 46 08                 >mov	eax, [esi+08h]
  403083:	8b ce                     mov	ecx, esi
  403085:	50                        push	eax
  403086:	57                        push	edi
  403087:	e8 d4 47 00 00            call	407860
  40308c:	89 7e 08                  mov	[esi+08h], edi
  40308f:	8b 54 24 14              >mov	edx, [esp+14h]
  403093:	8b 4d 10                  mov	ecx, [ebp+10h]
  403096:	51                        push	ecx
  403097:	8d 4c 24 1c               lea	ecx, [esp+1Ch]
  40309b:	8b 42 04                  mov	eax, [edx+04h]
  40309e:	8b 56 04                  mov	edx, [esi+04h]
  4030a1:	50                        push	eax
  4030a2:	51                        push	ecx
  4030a3:	52                        push	edx
  4030a4:	e8 9d 56 00 00            call	408746	; <zlib.dll.26
>
  4030a9:	8b 45 38                 >mov	eax, [ebp+38h]
  4030ac:	8b 4c 24 1c               mov	ecx, [esp+1Ch]
  4030b0:	5f                        pop	edi
  4030b1:	5e                        pop	esi
  4030b2:	5d                        pop	ebp
  4030b3:	5b                        pop	ebx
  4030b4:	64 89 0d 00 00 00 00      mov	[fs:00000000h], ecx
  4030bb:	83 c4 18                  add	esp, 18h
  4030be:	c3                        ret
     ...

4030c0 <no name>:
  4030c0:	6a ff                     push	dword FFFFFFFFh
  4030c2:	68 af 8a 40 00            push	dword 00408AAFh
  4030c7:	64 a1 00 00 00 00         mov	eax, [fs:0000h]
  4030cd:	50                        push	eax
  4030ce:	64 89 25 00 00 00 00      mov	[fs:00000000h], esp
  4030d5:	81 ec 88 00 00 00         sub	esp, 00000088h
  4030db:	89 4c 24 24               mov	[esp+24h], ecx
  4030df:	53                        push	ebx
  4030e0:	56                        push	esi
  4030e1:	8d 4c 24 5c               lea	ecx, [esp+5Ch]
  4030e5:	e8 36 df ff ff            call	401020
  4030ea:	8b b4 24 a0 00 00 00      mov	esi, [esp+000000A0h]
  4030f1:	33 db                     xor	ebx, ebx
  4030f3:	56                        push	esi
  4030f4:	8d 4c 24 60               lea	ecx, [esp+60h]
  4030f8:	89 9c 24 9c 00 00 00      mov	[esp+0000009Ch], ebx
  4030ff:	e8 1c e0 ff ff            call	401120
  403104:	83 f8 6e                  cmp	eax, 6Eh
  403107:	74 4c                     jz	403155
  403109:	8d 44 24 1c               lea	eax, [esp+1Ch]
  40310d:	8b ce                     mov	ecx, esi
  40310f:	50                        push	eax
  403110:	ff 15 64 a1 40 00         call	dword [0040A164h]	; <?FileName@FileLocation@@QBE?AV?$basic_string@DU?$char_traits@D@std@@V?$allocator@D@2@@std@@XZ>
  403116:	8b 40 04                  mov	eax, [eax+04h]
  403119:	3b c3                     cmp	eax, ebx
  40311b:	75 05                     jnz	403122
  40311d:	a1 5c a0 40 00            mov	eax, [40A05Ch]
  403122:	50                       >push	eax
  403123:	68 e4 c1 40 00            push	dword 0040C1E4h
  403128:	ff 15 4c a1 40 00         call	dword [0040A14Ch]	; <printf>
  40312e:	8b 44 24 28               mov	eax, [esp+28h]
  403132:	83 c4 08                  add	esp, 08h
  403135:	3b c3                     cmp	eax, ebx
  403137:	74 41                     jz	40317a
  403139:	8d 48 ff                  lea	ecx, [eax-01h]
  40313c:	8a 40 ff                  mov	al, [eax-01h]
  40313f:	3a c3                     cmp	al, bl
  403141:	74 0a                     jz	40314d
  403143:	3c ff                     cmp	al, FFh
  403145:	74 06                     jz	40314d
  403147:	fe c8                     dec	al
  403149:	88 01                     mov	[ecx], al
  40314b:	eb 2d                     jmp	40317a
  40314d:	51                       >push	ecx
  40314e:	e8 f9 55 00 00            call	40874c
  403153:	eb 22                     jmp	403177
  403155:	8d 4c 24 5c              >lea	ecx, [esp+5Ch]
  403159:	e8 22 e2 ff ff            call	401380
  40315e:	83 f8 02                  cmp	eax, 02h
  403161:	74 35                     jz	403198
  403163:	8d 4c 24 5c               lea	ecx, [esp+5Ch]
  403167:	e8 e4 e1 ff ff            call	401350
  40316c:	68 bc c1 40 00            push	dword 0040C1BCh
  403171:	ff 15 4c a1 40 00         call	dword [0040A14Ch]	; <printf>
  403177:	83 c4 04                 >add	esp, 04h
  40317a:	8d 4c 24 5c              >lea	ecx, [esp+5Ch]
  40317e:	c7 84 24 98 00 00 00      mov	dword [esp+00000098h], FFFFFFFFh
		ff ff ff ff 
  403189:	e8 f2 de ff ff            call	401080
  40318e:	b8 8a 00 00 00            mov	eax, 0000008Ah
  403193:	e9 6f 03 00 00            jmp	403507
  403198:	8d 4c 24 10              >lea	ecx, [esp+10h]
  40319c:	53                        push	ebx
  40319d:	51                        push	ecx
  40319e:	ff 15 5c a1 40 00         call	dword [0040A15Ch]	; <?GetTemporaryFileName@FileManager@@SA?AVFileLocation@@PBD@Z>
  4031a4:	83 c4 08                  add	esp, 08h
  4031a7:	8d 54 24 10               lea	edx, [esp+10h]
  4031ab:	8d 4c 24 30               lea	ecx, [esp+30h]
  4031af:	52                        push	edx
  4031b0:	c6 84 24 9c 00 00 00      mov	byte [esp+0000009Ch], 01h
		01 
  4031b8:	e8 73 ea ff ff            call	401c30
  4031bd:	8d 4c 24 3c               lea	ecx, [esp+3Ch]
  4031c1:	c6 84 24 98 00 00 00      mov	byte [esp+00000098h], 02h
		02 
  4031c9:	e8 e2 eb ff ff            call	401db0
  4031ce:	8d 4c 24 5c               lea	ecx, [esp+5Ch]
  4031d2:	c6 84 24 98 00 00 00      mov	byte [esp+00000098h], 03h
		03 
  4031da:	e8 d1 e1 ff ff            call	4013b0
  4031df:	50                        push	eax
  4031e0:	8d 4c 24 40               lea	ecx, [esp+40h]
  4031e4:	e8 67 ec ff ff            call	401e50
  4031e9:	8d 4c 24 5c               lea	ecx, [esp+5Ch]
  4031ed:	e8 9e e1 ff ff            call	401390
  4031f2:	8b 40 04                  mov	eax, [eax+04h]
  4031f5:	3b c3                     cmp	eax, ebx
  4031f7:	75 05                     jnz	4031fe
  4031f9:	a1 5c a0 40 00            mov	eax, [40A05Ch]
  4031fe:	50                       >push	eax
  4031ff:	8d 4c 24 40               lea	ecx, [esp+40h]
  403203:	e8 58 ec ff ff            call	401e60
  403208:	8d 44 24 30               lea	eax, [esp+30h]
  40320c:	8d 4c 24 3c               lea	ecx, [esp+3Ch]
  403210:	50                        push	eax
  403211:	e8 1a ed ff ff            call	401f30
  403216:	83 f8 6e                  cmp	eax, 6Eh
  403219:	74 68                     jz	403283
  40321b:	68 98 c1 40 00            push	dword 0040C198h
  403220:	ff 15 4c a1 40 00         call	dword [0040A14Ch]	; <printf>
  403226:	83 c4 04                  add	esp, 04h
  403229:	8d 4c 24 5c               lea	ecx, [esp+5Ch]
  40322d:	e8 1e e1 ff ff            call	401350
  403232:	8d 4c 24 3c               lea	ecx, [esp+3Ch]
  403236:	c6 84 24 98 00 00 00      mov	byte [esp+00000098h], 02h
		02 
  40323e:	e8 9d eb ff ff            call	401de0
  403243:	8d 4c 24 30               lea	ecx, [esp+30h]
  403247:	c6 84 24 98 00 00 00      mov	byte [esp+00000098h], 01h
		01 
  40324f:	e8 1c ea ff ff            call	401c70
  403254:	8d 4c 24 10               lea	ecx, [esp+10h]
  403258:	88 9c 24 98 00 00 00      mov	[esp+00000098h], bl
  40325f:	ff 15 6c a1 40 00         call	dword [0040A16Ch]	; <??1FileLocation@@QAE@XZ>
  403265:	8d 4c 24 5c               lea	ecx, [esp+5Ch]
  403269:	c7 84 24 98 00 00 00      mov	dword [esp+00000098h], FFFFFFFFh
		ff ff ff ff 
  403274:	e8 07 de ff ff            call	401080
  403279:	b8 8a 00 00 00            mov	eax, 0000008Ah
  40327e:	e9 84 02 00 00            jmp	403507
  403283:	55                       >push	ebp
  403284:	57                        push	edi
  403285:	89 5c 24 14               mov	[esp+14h], ebx
  403289:	8d 4c 24 12              >lea	ecx, [esp+12h]
  40328d:	8d 54 24 14               lea	edx, [esp+14h]
  403291:	51                        push	ecx
  403292:	52                        push	edx
  403293:	8d 4c 24 6c               lea	ecx, [esp+6Ch]
  403297:	e8 54 e3 ff ff            call	4015f0
  40329c:	38 5c 24 12               cmp	[esp+12h], bl
  4032a0:	0f 85 33 01 00 00         jnz	4033d9
  4032a6:	8a 84 24 ac 00 00 00      mov	al, [esp+000000ACh]
  4032ad:	3a c3                     cmp	al, bl
  4032af:	8b 44 24 14               mov	eax, [esp+14h]
  4032b3:	0f 84 08 01 00 00         jz	4033c1
  4032b9:	8b 08                     mov	ecx, [eax]
  4032bb:	8b e8                     mov	ebp, eax
  4032bd:	83 f9 02                  cmp	ecx, 02h
  4032c0:	0f 85 09 01 00 00         jnz	4033cf
  4032c6:	8b 78 08                  mov	edi, [eax+08h]
  4032c9:	83 ff 20                  cmp	edi, 20h
  4032cc:	0f 82 fd 00 00 00         jb	4033cf
  4032d2:	6a 14                     push	dword 00000014h
  4032d4:	e8 a7 54 00 00            call	408780	; <??2@YAPAXI@Z>
  4032d9:	8b f0                     mov	esi, eax
  4032db:	83 c4 04                  add	esp, 04h
  4032de:	89 74 24 60               mov	[esp+60h], esi
  4032e2:	3b f3                     cmp	esi, ebx
  4032e4:	c6 84 24 a0 00 00 00      mov	byte [esp+000000A0h], 04h
		04 
  4032ec:	74 15                     jz	403303
  4032ee:	8d 44 24 1f               lea	eax, [esp+1Fh]
  4032f2:	8b ce                     mov	ecx, esi
  4032f4:	50                        push	eax
  4032f5:	e8 b6 41 00 00            call	4074b0
  4032fa:	c7 46 10 01 00 00 00      mov	dword [esi+10h], 00000001h
  403301:	eb 02                     jmp	403305
  403303:	33 f6                    >xor	esi, esi
  403305:	89 7c 24 24              >mov	[esp+24h], edi
  403309:	89 5c 24 28               mov	[esp+28h], ebx
  40330d:	df 6c 24 24               fild	qword [esp+24h]
  403311:	c6 84 24 a0 00 00 00      mov	byte [esp+000000A0h], 03h
		03 
  403319:	d8 0d d4 a1 40 00         fmul	dword [0040A1D4h]
  40331f:	d8 05 d0 a1 40 00         fadd	dword [0040A1D0h]
  403325:	e8 d6 54 00 00            call	408800	; <_ftol>
  40332a:	89 44 24 20               mov	[esp+20h], eax
  40332e:	8b 4e 04                  mov	ecx, [esi+04h]
  403331:	3b cb                     cmp	ecx, ebx
  403333:	88 5c 24 13               mov	[esp+13h], bl
  403337:	75 04                     jnz	40333d
  403339:	33 d2                     xor	edx, edx
  40333b:	eb 05                     jmp	403342
  40333d:	8b 56 08                 >mov	edx, [esi+08h]
  403340:	2b d1                     sub	edx, ecx
  403342:	3b d0                    >cmp	edx, eax
  403344:	73 22                     jae	403368
  403346:	3b cb                     cmp	ecx, ebx
  403348:	75 04                     jnz	40334e
  40334a:	33 d2                     xor	edx, edx
  40334c:	eb 05                     jmp	403353
  40334e:	8b 56 08                 >mov	edx, [esi+08h]
  403351:	2b d1                     sub	edx, ecx
  403353:	8b 4e 08                 >mov	ecx, [esi+08h]
  403356:	8d 5c 24 13               lea	ebx, [esp+13h]
  40335a:	2b c2                     sub	eax, edx
  40335c:	53                        push	ebx
  40335d:	50                        push	eax
  40335e:	51                        push	ecx
  40335f:	8b ce                     mov	ecx, esi
  403361:	e8 8a e6 ff ff            call	4019f0
  403366:	eb 1a                     jmp	403382
  403368:	3b cb                    >cmp	ecx, ebx
  40336a:	74 18                     jz	403384
  40336c:	8b 56 08                  mov	edx, [esi+08h]
  40336f:	8b da                     mov	ebx, edx
  403371:	2b d9                     sub	ebx, ecx
  403373:	3b c3                     cmp	eax, ebx
  403375:	73 0b                     jae	403382
  403377:	03 c8                     add	ecx, eax
  403379:	52                        push	edx
  40337a:	51                        push	ecx
  40337b:	8b ce                     mov	ecx, esi
  40337d:	e8 ae 39 00 00            call	406d30
  403382:	33 db                    >xor	ebx, ebx
  403384:	8b cd                    >mov	ecx, ebp
  403386:	e8 05 ec ff ff            call	401f90
  40338b:	8b 40 04                  mov	eax, [eax+04h]
  40338e:	8b 4e 04                  mov	ecx, [esi+04h]
  403391:	57                        push	edi
  403392:	8d 54 24 24               lea	edx, [esp+24h]
  403396:	50                        push	eax
  403397:	52                        push	edx
  403398:	51                        push	ecx
  403399:	e8 a2 53 00 00            call	408740	; <zlib.dll.2
>
  40339e:	8b 44 24 20               mov	eax, [esp+20h]
  4033a2:	3b c7                     cmp	eax, edi
  4033a4:	73 12                     jae	4033b8
  4033a6:	56                        push	esi
  4033a7:	8b cd                     mov	ecx, ebp
  4033a9:	c7 45 00 03 00 00 00      mov	dword [ebp+00h], 00000003h
  4033b0:	89 45 10                  mov	[ebp+10h], eax
  4033b3:	e8 28 fa ff ff            call	402de0
  4033b8:	8b ce                    >mov	ecx, esi
  4033ba:	e8 41 37 00 00            call	406b00
  4033bf:	eb 0a                     jmp	4033cb
  4033c1:	8b 4c 24 34              >mov	ecx, [esp+34h]
  4033c5:	50                        push	eax
  4033c6:	e8 e5 fa ff ff            call	402eb0
  4033cb:	8b 44 24 14              >mov	eax, [esp+14h]
  4033cf:	50                       >push	eax
  4033d0:	8d 4c 24 48               lea	ecx, [esp+48h]
  4033d4:	e8 77 eb ff ff            call	401f50
  4033d9:	8b 74 24 14              >mov	esi, [esp+14h]
  4033dd:	8d 4e 3c                  lea	ecx, [esi+3Ch]
  4033e0:	51                        push	ecx
  4033e1:	e8 2a 4f 00 00            call	408310
  4033e6:	83 c4 04                  add	esp, 04h
  4033e9:	3b c3                     cmp	eax, ebx
  4033eb:	75 25                     jnz	403412
  4033ed:	3b f3                     cmp	esi, ebx
  4033ef:	74 21                     jz	403412
  4033f1:	8d 56 38                  lea	edx, [esi+38h]
  4033f4:	8b ce                     mov	ecx, esi
  4033f6:	52                        push	edx
  4033f7:	e8 74 fa ff ff            call	402e70
  4033fc:	8d 7e 34                  lea	edi, [esi+34h]
  4033ff:	8b ce                     mov	ecx, esi
  403401:	57                        push	edi
  403402:	e8 69 fa ff ff            call	402e70
  403407:	56                        push	esi
  403408:	89 1f                     mov	[edi], ebx
  40340a:	e8 3d 53 00 00            call	40874c
  40340f:	83 c4 04                  add	esp, 04h
  403412:	8a 44 24 12              >mov	al, [esp+12h]
  403416:	89 5c 24 14               mov	[esp+14h], ebx
  40341a:	3a c3                     cmp	al, bl
  40341c:	0f 84 67 fe ff ff         jz	403289
  403422:	8d 4c 24 64               lea	ecx, [esp+64h]
  403426:	e8 25 df ff ff            call	401350
  40342b:	8d 4c 24 44               lea	ecx, [esp+44h]
  40342f:	e8 ac eb ff ff            call	401fe0
  403434:	8b bc 24 a8 00 00 00      mov	edi, [esp+000000A8h]
  40343b:	8d 44 24 18               lea	eax, [esp+18h]
  40343f:	57                        push	edi
  403440:	50                        push	eax
  403441:	ff 15 60 a1 40 00         call	dword [0040A160h]	; <?Move@FileManager@@SAXABVFileLocation@@0@Z>
  403447:	8a 84 24 b4 00 00 00      mov	al, [esp+000000B4h]
  40344e:	83 c4 08                  add	esp, 08h
  403451:	3a c3                     cmp	al, bl
  403453:	be c0 c5 40 00            mov	esi, 0040C5C0h
  403458:	75 05                     jnz	40345f
  40345a:	be 94 c1 40 00            mov	esi, 0040C194h
  40345f:	8d 4c 24 24              >lea	ecx, [esp+24h]
  403463:	51                        push	ecx
  403464:	8b cf                     mov	ecx, edi
  403466:	ff 15 64 a1 40 00         call	dword [0040A164h]	; <?FileName@FileLocation@@QBE?AV?$basic_string@DU?$char_traits@D@std@@V?$allocator@D@2@@std@@XZ>
  40346c:	8b 40 04                  mov	eax, [eax+04h]
  40346f:	5f                        pop	edi
  403470:	3b c3                     cmp	eax, ebx
  403472:	5d                        pop	ebp
  403473:	75 05                     jnz	40347a
  403475:	a1 5c a0 40 00            mov	eax, [40A05Ch]
  40347a:	50                       >push	eax
  40347b:	56                        push	esi
  40347c:	68 7c c1 40 00            push	dword 0040C17Ch
  403481:	ff 15 4c a1 40 00         call	dword [0040A14Ch]	; <printf>
  403487:	8b 44 24 2c               mov	eax, [esp+2Ch]
  40348b:	83 c4 0c                  add	esp, 0Ch
  40348e:	3b c3                     cmp	eax, ebx
  403490:	74 1d                     jz	4034af
  403492:	8d 48 ff                  lea	ecx, [eax-01h]
  403495:	8a 40 ff                  mov	al, [eax-01h]
  403498:	3a c3                     cmp	al, bl
  40349a:	74 0a                     jz	4034a6
  40349c:	3c ff                     cmp	al, FFh
  40349e:	74 06                     jz	4034a6
  4034a0:	fe c8                     dec	al
  4034a2:	88 01                     mov	[ecx], al
  4034a4:	eb 09                     jmp	4034af
  4034a6:	51                       >push	ecx
  4034a7:	e8 a0 52 00 00            call	40874c
  4034ac:	83 c4 04                  add	esp, 04h
  4034af:	8d 4c 24 3c              >lea	ecx, [esp+3Ch]
  4034b3:	89 5c 24 20               mov	[esp+20h], ebx
  4034b7:	89 5c 24 24               mov	[esp+24h], ebx
  4034bb:	89 5c 24 28               mov	[esp+28h], ebx
  4034bf:	c6 84 24 98 00 00 00      mov	byte [esp+00000098h], 02h
		02 
  4034c7:	e8 14 e9 ff ff            call	401de0
  4034cc:	8d 4c 24 30               lea	ecx, [esp+30h]
  4034d0:	c6 84 24 98 00 00 00      mov	byte [esp+00000098h], 01h
		01 
  4034d8:	e8 93 e7 ff ff            call	401c70
  4034dd:	8d 4c 24 10               lea	ecx, [esp+10h]
  4034e1:	88 9c 24 98 00 00 00      mov	[esp+00000098h], bl
  4034e8:	ff 15 6c a1 40 00         call	dword [0040A16Ch]	; <??1FileLocation@@QAE@XZ>
  4034ee:	8d 4c 24 5c               lea	ecx, [esp+5Ch]
  4034f2:	c7 84 24 98 00 00 00      mov	dword [esp+00000098h], FFFFFFFFh
		ff ff ff ff 
  4034fd:	e8 7e db ff ff            call	401080
  403502:	b8 6e 00 00 00            mov	eax, 0000006Eh
  403507:	8b 8c 24 90 00 00 00     >mov	ecx, [esp+00000090h]
  40350e:	5e                        pop	esi
  40350f:	5b                        pop	ebx
  403510:	64 89 0d 00 00 00 00      mov	[fs:00000000h], ecx
  403517:	81 c4 94 00 00 00         add	esp, 00000094h
  40351d:	c2 08 00                  ret	0008h

403520 <no name>:
  403520:	8b 44 24 04               mov	eax, [esp+04h]
  403524:	6a 00                     push	dword 00000000h
  403526:	50                        push	eax
  403527:	e8 94 fb ff ff            call	4030c0
  40352c:	c2 04 00                  ret	0004h
     ...

403530 <no name>:
  403530:	8b 44 24 04               mov	eax, [esp+04h]
  403534:	6a 01                     push	dword 00000001h
  403536:	50                        push	eax
  403537:	e8 84 fb ff ff            call	4030c0
  40353c:	c2 04 00                  ret	0004h
     ...

403540 <no name>:
  403540:	6a ff                     push	dword FFFFFFFFh
  403542:	68 f9 8b 40 00            push	dword 00408BF9h
  403547:	64 a1 00 00 00 00         mov	eax, [fs:0000h]
  40354d:	50                        push	eax
  40354e:	64 89 25 00 00 00 00      mov	[fs:00000000h], esp
  403555:	81 ec e0 02 00 00         sub	esp, 000002E0h
  40355b:	53                        push	ebx
  40355c:	55                        push	ebp
  40355d:	8b e9                     mov	ebp, ecx
  40355f:	56                        push	esi
  403560:	6a 00                     push	dword 00000000h
  403562:	8d 8c 24 48 01 00 00      lea	ecx, [esp+00000148h]
  403569:	e8 a2 25 00 00            call	405b10
  40356e:	8d 44 24 23               lea	eax, [esp+23h]
  403572:	8d 8c 24 d4 00 00 00      lea	ecx, [esp+000000D4h]
  403579:	50                        push	eax
  40357a:	68 b8 c2 40 00            push	dword 0040C2B8h
  40357f:	c7 84 24 fc 02 00 00      mov	dword [esp+000002FCh], 00000000h
		00 00 00 00 
  40358a:	ff 15 20 a0 40 00         call	dword [0040A020h]	; <??0?$basic_string@DU?$char_traits@D@std@@V?$allocator@D@2@@std@@QAE@PBDABV?$allocator@D@1@@Z>
  403590:	8d 4c 24 22               lea	ecx, [esp+22h]
  403594:	c6 84 24 f4 02 00 00      mov	byte [esp+000002F4h], 01h
		01 
  40359c:	51                        push	ecx
  40359d:	68 a8 c2 40 00            push	dword 0040C2A8h
  4035a2:	8d 8c 24 2c 01 00 00      lea	ecx, [esp+0000012Ch]
  4035a9:	ff 15 20 a0 40 00         call	dword [0040A020h]	; <??0?$basic_string@DU?$char_traits@D@std@@V?$allocator@D@2@@std@@QAE@PBDABV?$allocator@D@1@@Z>
  4035af:	8d 54 24 21               lea	edx, [esp+21h]
  4035b3:	8d 8c 24 34 01 00 00      lea	ecx, [esp+00000134h]
  4035ba:	52                        push	edx
  4035bb:	68 9c c2 40 00            push	dword 0040C29Ch
  4035c0:	c6 84 24 fc 02 00 00      mov	byte [esp+000002FCh], 02h
		02 
  4035c8:	ff 15 20 a0 40 00         call	dword [0040A020h]	; <??0?$basic_string@DU?$char_traits@D@std@@V?$allocator@D@2@@std@@QAE@PBDABV?$allocator@D@1@@Z>
  4035ce:	8d 84 24 d4 00 00 00      lea	eax, [esp+000000D4h]
  4035d5:	8d 8c 24 24 01 00 00      lea	ecx, [esp+00000124h]
  4035dc:	50                        push	eax
  4035dd:	8d 94 24 38 01 00 00      lea	edx, [esp+00000138h]
  4035e4:	51                        push	ecx
  4035e5:	52                        push	edx
  4035e6:	8d 8c 24 c8 01 00 00      lea	ecx, [esp+000001C8h]
  4035ed:	c6 84 24 00 03 00 00      mov	byte [esp+00000300h], 03h
		03 
  4035f5:	e8 c6 37 00 00            call	406dc0
  4035fa:	6a 01                     push	dword 00000001h
  4035fc:	8d 8c 24 38 01 00 00      lea	ecx, [esp+00000138h]
  403603:	c6 84 24 f8 02 00 00      mov	byte [esp+000002F8h], 07h
		07 
  40360b:	ff 15 54 a0 40 00         call	dword [0040A054h]	; <?_Tidy@?$basic_string@DU?$char_traits@D@std@@V?$allocator@D@2@@std@@AAEX_N@Z>
  403611:	6a 01                     push	dword 00000001h
  403613:	8d 8c 24 28 01 00 00      lea	ecx, [esp+00000128h]
  40361a:	c6 84 24 f8 02 00 00      mov	byte [esp+000002F8h], 06h
		06 
  403622:	ff 15 54 a0 40 00         call	dword [0040A054h]	; <?_Tidy@?$basic_string@DU?$char_traits@D@std@@V?$allocator@D@2@@std@@AAEX_N@Z>
  403628:	6a 01                     push	dword 00000001h
  40362a:	8d 8c 24 d8 00 00 00      lea	ecx, [esp+000000D8h]
  403631:	c6 84 24 f8 02 00 00      mov	byte [esp+000002F8h], 05h
		05 
  403639:	ff 15 54 a0 40 00         call	dword [0040A054h]	; <?_Tidy@?$basic_string@DU?$char_traits@D@std@@V?$allocator@D@2@@std@@AAEX_N@Z>
  40363f:	8d 44 24 1c               lea	eax, [esp+1Ch]
  403643:	8d 8c 24 14 01 00 00      lea	ecx, [esp+00000114h]
  40364a:	50                        push	eax
  40364b:	68 8c c2 40 00            push	dword 0040C28Ch
  403650:	ff 15 20 a0 40 00         call	dword [0040A020h]	; <??0?$basic_string@DU?$char_traits@D@std@@V?$allocator@D@2@@std@@QAE@PBDABV?$allocator@D@1@@Z>
  403656:	8d 4c 24 16               lea	ecx, [esp+16h]
  40365a:	c6 84 24 f4 02 00 00      mov	byte [esp+000002F4h], 08h
		08 
  403662:	51                        push	ecx
  403663:	68 88 c2 40 00            push	dword 0040C288h
  403668:	8d 4c 24 7c               lea	ecx, [esp+7Ch]
  40366c:	ff 15 20 a0 40 00         call	dword [0040A020h]	; <??0?$basic_string@DU?$char_traits@D@std@@V?$allocator@D@2@@std@@QAE@PBDABV?$allocator@D@1@@Z>
  403672:	8d 94 24 14 01 00 00      lea	edx, [esp+00000114h]
  403679:	8d 44 24 74               lea	eax, [esp+74h]
  40367d:	52                        push	edx
  40367e:	50                        push	eax
  40367f:	8d 8c 24 20 02 00 00      lea	ecx, [esp+00000220h]
  403686:	c6 84 24 fc 02 00 00      mov	byte [esp+000002FCh], 09h
		09 
  40368e:	e8 bd 05 00 00            call	403c50
  403693:	6a 01                     push	dword 00000001h
  403695:	8d 4c 24 78               lea	ecx, [esp+78h]
  403699:	c6 84 24 f8 02 00 00      mov	byte [esp+000002F8h], 0Ch
		0c 
  4036a1:	ff 15 54 a0 40 00         call	dword [0040A054h]	; <?_Tidy@?$basic_string@DU?$char_traits@D@std@@V?$allocator@D@2@@std@@AAEX_N@Z>
  4036a7:	6a 01                     push	dword 00000001h
  4036a9:	8d 8c 24 18 01 00 00      lea	ecx, [esp+00000118h]
  4036b0:	c6 84 24 f8 02 00 00      mov	byte [esp+000002F8h], 0Bh
		0b 
  4036b8:	ff 15 54 a0 40 00         call	dword [0040A054h]	; <?_Tidy@?$basic_string@DU?$char_traits@D@std@@V?$allocator@D@2@@std@@AAEX_N@Z>
  4036be:	8d 4c 24 20               lea	ecx, [esp+20h]
  4036c2:	51                        push	ecx
  4036c3:	68 74 c2 40 00            push	dword 0040C274h
  4036c8:	8d 8c 24 fc 00 00 00      lea	ecx, [esp+000000FCh]
  4036cf:	ff 15 20 a0 40 00         call	dword [0040A020h]	; <??0?$basic_string@DU?$char_traits@D@std@@V?$allocator@D@2@@std@@QAE@PBDABV?$allocator@D@1@@Z>
  4036d5:	8d 54 24 18               lea	edx, [esp+18h]
  4036d9:	8d 8c 24 94 00 00 00      lea	ecx, [esp+00000094h]
  4036e0:	52                        push	edx
  4036e1:	68 70 c2 40 00            push	dword 0040C270h
  4036e6:	c6 84 24 fc 02 00 00      mov	byte [esp+000002FCh], 0Dh
		0d 
  4036ee:	ff 15 20 a0 40 00         call	dword [0040A020h]	; <??0?$basic_string@DU?$char_traits@D@std@@V?$allocator@D@2@@std@@QAE@PBDABV?$allocator@D@1@@Z>
  4036f4:	8d 84 24 f4 00 00 00      lea	eax, [esp+000000F4h]
  4036fb:	8d 8c 24 94 00 00 00      lea	ecx, [esp+00000094h]
  403702:	50                        push	eax
  403703:	51                        push	ecx
  403704:	8d 8c 24 48 02 00 00      lea	ecx, [esp+00000248h]
  40370b:	c6 84 24 fc 02 00 00      mov	byte [esp+000002FCh], 0Eh
		0e 
  403713:	e8 38 05 00 00            call	403c50
  403718:	6a 01                     push	dword 00000001h
  40371a:	8d 8c 24 98 00 00 00      lea	ecx, [esp+00000098h]
  403721:	c6 84 24 f8 02 00 00      mov	byte [esp+000002F8h], 11h
		11 
  403729:	ff 15 54 a0 40 00         call	dword [0040A054h]	; <?_Tidy@?$basic_string@DU?$char_traits@D@std@@V?$allocator@D@2@@std@@AAEX_N@Z>
  40372f:	6a 01                     push	dword 00000001h
  403731:	8d 8c 24 f8 00 00 00      lea	ecx, [esp+000000F8h]
  403738:	c6 84 24 f8 02 00 00      mov	byte [esp+000002F8h], 10h
		10 
  403740:	ff 15 54 a0 40 00         call	dword [0040A054h]	; <?_Tidy@?$basic_string@DU?$char_traits@D@std@@V?$allocator@D@2@@std@@AAEX_N@Z>
  403746:	8d 54 24 1e               lea	edx, [esp+1Eh]
  40374a:	8d 4c 24 44               lea	ecx, [esp+44h]
  40374e:	52                        push	edx
  40374f:	68 54 c2 40 00            push	dword 0040C254h
  403754:	ff 15 20 a0 40 00         call	dword [0040A020h]	; <??0?$basic_string@DU?$char_traits@D@std@@V?$allocator@D@2@@std@@QAE@PBDABV?$allocator@D@1@@Z>
  40375a:	8d 44 24 1a               lea	eax, [esp+1Ah]
  40375e:	8d 8c 24 b4 00 00 00      lea	ecx, [esp+000000B4h]
  403765:	50                        push	eax
  403766:	68 50 c2 40 00            push	dword 0040C250h
  40376b:	c6 84 24 fc 02 00 00      mov	byte [esp+000002FCh], 12h
		12 
  403773:	ff 15 20 a0 40 00         call	dword [0040A020h]	; <??0?$basic_string@DU?$char_traits@D@std@@V?$allocator@D@2@@std@@QAE@PBDABV?$allocator@D@1@@Z>
  403779:	8d 4c 24 44               lea	ecx, [esp+44h]
  40377d:	8d 94 24 b4 00 00 00      lea	edx, [esp+000000B4h]
  403784:	51                        push	ecx
  403785:	52                        push	edx
  403786:	8d 8c 24 70 02 00 00      lea	ecx, [esp+00000270h]
  40378d:	c6 84 24 fc 02 00 00      mov	byte [esp+000002FCh], 13h
		13 
  403795:	e8 b6 04 00 00            call	403c50
  40379a:	6a 01                     push	dword 00000001h
  40379c:	8d 8c 24 b8 00 00 00      lea	ecx, [esp+000000B8h]
  4037a3:	c6 84 24 f8 02 00 00      mov	byte [esp+000002F8h], 16h
		16 
  4037ab:	ff 15 54 a0 40 00         call	dword [0040A054h]	; <?_Tidy@?$basic_string@DU?$char_traits@D@std@@V?$allocator@D@2@@std@@AAEX_N@Z>
  4037b1:	6a 01                     push	dword 00000001h
  4037b3:	8d 4c 24 48               lea	ecx, [esp+48h]
  4037b7:	c6 84 24 f8 02 00 00      mov	byte [esp+000002F8h], 15h
		15 
  4037bf:	ff 15 54 a0 40 00         call	dword [0040A054h]	; <?_Tidy@?$basic_string@DU?$char_traits@D@std@@V?$allocator@D@2@@std@@AAEX_N@Z>
  4037c5:	8d 44 24 13               lea	eax, [esp+13h]
  4037c9:	8d 8c 24 84 00 00 00      lea	ecx, [esp+00000084h]
  4037d0:	50                        push	eax
  4037d1:	68 b8 c2 40 00            push	dword 0040C2B8h
  4037d6:	ff 15 20 a0 40 00         call	dword [0040A020h]	; <??0?$basic_string@DU?$char_traits@D@std@@V?$allocator@D@2@@std@@QAE@PBDABV?$allocator@D@1@@Z>
  4037dc:	8d 4c 24 14               lea	ecx, [esp+14h]
  4037e0:	c6 84 24 f4 02 00 00      mov	byte [esp+000002F4h], 17h
		17 
  4037e8:	51                        push	ecx
  4037e9:	68 28 c2 40 00            push	dword 0040C228h
  4037ee:	8d 4c 24 6c               lea	ecx, [esp+6Ch]
  4037f2:	ff 15 20 a0 40 00         call	dword [0040A020h]	; <??0?$basic_string@DU?$char_traits@D@std@@V?$allocator@D@2@@std@@QAE@PBDABV?$allocator@D@1@@Z>
  4037f8:	c6 84 24 f4 02 00 00      mov	byte [esp+000002F4h], 18h
		18 
  403800:	8d 54 24 15               lea	edx, [esp+15h]
  403804:	52                        push	edx
  403805:	68 24 c2 40 00            push	dword 0040C224h
  40380a:	8d 4c 24 5c               lea	ecx, [esp+5Ch]
  40380e:	ff 15 20 a0 40 00         call	dword [0040A020h]	; <??0?$basic_string@DU?$char_traits@D@std@@V?$allocator@D@2@@std@@QAE@PBDABV?$allocator@D@1@@Z>
  403814:	8d 84 24 84 00 00 00      lea	eax, [esp+00000084h]
  40381b:	8d 4c 24 64               lea	ecx, [esp+64h]
  40381f:	50                        push	eax
  403820:	8d 54 24 58               lea	edx, [esp+58h]
  403824:	51                        push	ecx
  403825:	52                        push	edx
  403826:	8d 8c 24 9c 02 00 00      lea	ecx, [esp+0000029Ch]
  40382d:	c6 84 24 00 03 00 00      mov	byte [esp+00000300h], 19h
		19 
  403835:	e8 86 35 00 00            call	406dc0
  40383a:	6a 01                     push	dword 00000001h
  40383c:	8d 4c 24 58               lea	ecx, [esp+58h]
  403840:	c6 84 24 f8 02 00 00      mov	byte [esp+000002F8h], 1Dh
		1d 
  403848:	ff 15 54 a0 40 00         call	dword [0040A054h]	; <?_Tidy@?$basic_string@DU?$char_traits@D@std@@V?$allocator@D@2@@std@@AAEX_N@Z>
  40384e:	6a 01                     push	dword 00000001h
  403850:	8d 4c 24 68               lea	ecx, [esp+68h]
  403854:	c6 84 24 f8 02 00 00      mov	byte [esp+000002F8h], 1Ch
		1c 
  40385c:	ff 15 54 a0 40 00         call	dword [0040A054h]	; <?_Tidy@?$basic_string@DU?$char_traits@D@std@@V?$allocator@D@2@@std@@AAEX_N@Z>
  403862:	b3 1b                     mov	bl, 1Bh
  403864:	6a 01                     push	dword 00000001h
  403866:	8d 8c 24 88 00 00 00      lea	ecx, [esp+00000088h]
  40386d:	88 9c 24 f8 02 00 00      mov	[esp+000002F8h], bl
  403874:	ff 15 54 a0 40 00         call	dword [0040A054h]	; <?_Tidy@?$basic_string@DU?$char_traits@D@std@@V?$allocator@D@2@@std@@AAEX_N@Z>
  40387a:	8d 84 24 bc 01 00 00      lea	eax, [esp+000001BCh]
  403881:	8d 8c 24 44 01 00 00      lea	ecx, [esp+00000144h]
  403888:	50                        push	eax
  403889:	c7 84 24 48 01 00 00      mov	dword [esp+00000148h], 0040A1D8h
		d8 a1 40 00 
  403894:	e8 c7 12 00 00            call	404b60
  403899:	8d 4c 24 17               lea	ecx, [esp+17h]
  40389d:	51                        push	ecx
  40389e:	68 18 c2 40 00            push	dword 0040C218h
  4038a3:	8d 8c 24 ac 00 00 00      lea	ecx, [esp+000000ACh]
  4038aa:	ff 15 20 a0 40 00         call	dword [0040A020h]	; <??0?$basic_string@DU?$char_traits@D@std@@V?$allocator@D@2@@std@@QAE@PBDABV?$allocator@D@1@@Z>
  4038b0:	8b 84 24 28 02 00 00      mov	eax, [esp+00000228h]
  4038b7:	8d 94 24 a4 00 00 00      lea	edx, [esp+000000A4h]
  4038be:	52                        push	edx
  4038bf:	50                        push	eax
  4038c0:	8d 8c 24 28 02 00 00      lea	ecx, [esp+00000228h]
  4038c7:	c6 84 24 fc 02 00 00      mov	byte [esp+000002FCh], 1Eh
		1e 
  4038cf:	e8 fc 3b 00 00            call	4074d0
  4038d4:	6a 01                     push	dword 00000001h
  4038d6:	8d 8c 24 a8 00 00 00      lea	ecx, [esp+000000A8h]
  4038dd:	88 9c 24 f8 02 00 00      mov	[esp+000002F8h], bl
  4038e4:	ff 15 54 a0 40 00         call	dword [0040A054h]	; <?_Tidy@?$basic_string@DU?$char_traits@D@std@@V?$allocator@D@2@@std@@AAEX_N@Z>
  4038ea:	8d 4c 24 19               lea	ecx, [esp+19h]
  4038ee:	51                        push	ecx
  4038ef:	68 0c c2 40 00            push	dword 0040C20Ch
  4038f4:	8d 8c 24 cc 00 00 00      lea	ecx, [esp+000000CCh]
  4038fb:	ff 15 20 a0 40 00         call	dword [0040A020h]	; <??0?$basic_string@DU?$char_traits@D@std@@V?$allocator@D@2@@std@@QAE@PBDABV?$allocator@D@1@@Z>
  403901:	8b 84 24 50 02 00 00      mov	eax, [esp+00000250h]
  403908:	8d 94 24 c4 00 00 00      lea	edx, [esp+000000C4h]
  40390f:	52                        push	edx
  403910:	50                        push	eax
  403911:	8d 8c 24 50 02 00 00      lea	ecx, [esp+00000250h]
  403918:	c6 84 24 fc 02 00 00      mov	byte [esp+000002FCh], 1Fh
		1f 
  403920:	e8 ab 3b 00 00            call	4074d0
  403925:	6a 01                     push	dword 00000001h
  403927:	8d 8c 24 c8 00 00 00      lea	ecx, [esp+000000C8h]
  40392e:	88 9c 24 f8 02 00 00      mov	[esp+000002F8h], bl
  403935:	ff 15 54 a0 40 00         call	dword [0040A054h]	; <?_Tidy@?$basic_string@DU?$char_traits@D@std@@V?$allocator@D@2@@std@@AAEX_N@Z>
  40393b:	8d 4c 24 1b               lea	ecx, [esp+1Bh]
  40393f:	51                        push	ecx
  403940:	68 00 c2 40 00            push	dword 0040C200h
  403945:	8d 8c 24 ec 00 00 00      lea	ecx, [esp+000000ECh]
  40394c:	ff 15 20 a0 40 00         call	dword [0040A020h]	; <??0?$basic_string@DU?$char_traits@D@std@@V?$allocator@D@2@@std@@QAE@PBDABV?$allocator@D@1@@Z>
  403952:	8b 84 24 78 02 00 00      mov	eax, [esp+00000278h]
  403959:	8d 94 24 e4 00 00 00      lea	edx, [esp+000000E4h]
  403960:	52                        push	edx
  403961:	c6 84 24 f8 02 00 00      mov	byte [esp+000002F8h], 20h
		20 
  403969:	50                        push	eax
  40396a:	8d 8c 24 78 02 00 00      lea	ecx, [esp+00000278h]
  403971:	e8 5a 3b 00 00            call	4074d0
  403976:	6a 01                     push	dword 00000001h
  403978:	8d 8c 24 e8 00 00 00      lea	ecx, [esp+000000E8h]
  40397f:	88 9c 24 f8 02 00 00      mov	[esp+000002F8h], bl
  403986:	ff 15 54 a0 40 00         call	dword [0040A054h]	; <?_Tidy@?$basic_string@DU?$char_traits@D@std@@V?$allocator@D@2@@std@@AAEX_N@Z>
  40398c:	8d 8c 24 18 02 00 00      lea	ecx, [esp+00000218h]
  403993:	51                        push	ecx
  403994:	8d 8c 24 48 01 00 00      lea	ecx, [esp+00000148h]
  40399b:	e8 f0 0f 00 00            call	404990
  4039a0:	8d 94 24 40 02 00 00      lea	edx, [esp+00000240h]
  4039a7:	8d 8c 24 44 01 00 00      lea	ecx, [esp+00000144h]
  4039ae:	52                        push	edx
  4039af:	e8 dc 0f 00 00            call	404990
  4039b4:	8d 84 24 68 02 00 00      lea	eax, [esp+00000268h]
  4039bb:	8d 8c 24 44 01 00 00      lea	ecx, [esp+00000144h]
  4039c2:	50                        push	eax
  4039c3:	e8 c8 0f 00 00            call	404990
  4039c8:	8d 4c 24 1d               lea	ecx, [esp+1Dh]
  4039cc:	51                        push	ecx
  4039cd:	68 c0 c5 40 00            push	dword 0040C5C0h
  4039d2:	8d 8c 24 0c 01 00 00      lea	ecx, [esp+0000010Ch]
  4039d9:	ff 15 20 a0 40 00         call	dword [0040A020h]	; <??0?$basic_string@DU?$char_traits@D@std@@V?$allocator@D@2@@std@@QAE@PBDABV?$allocator@D@1@@Z>
  4039df:	8d 94 24 04 01 00 00      lea	edx, [esp+00000104h]
  4039e6:	8d 8c 24 90 02 00 00      lea	ecx, [esp+00000290h]
  4039ed:	52                        push	edx
  4039ee:	c6 84 24 f8 02 00 00      mov	byte [esp+000002F8h], 21h
		21 
  4039f6:	e8 c5 34 00 00            call	406ec0
  4039fb:	6a 01                     push	dword 00000001h
  4039fd:	8d 8c 24 08 01 00 00      lea	ecx, [esp+00000108h]
  403a04:	88 9c 24 f8 02 00 00      mov	[esp+000002F8h], bl
  403a0b:	ff 15 54 a0 40 00         call	dword [0040A054h]	; <?_Tidy@?$basic_string@DU?$char_traits@D@std@@V?$allocator@D@2@@std@@AAEX_N@Z>
  403a11:	8d 84 24 90 02 00 00      lea	eax, [esp+00000290h]
  403a18:	8d 8c 24 44 01 00 00      lea	ecx, [esp+00000144h]
  403a1f:	50                        push	eax
  403a20:	e8 6b 0f 00 00            call	404990
  403a25:	8d 4c 24 1f               lea	ecx, [esp+1Fh]
  403a29:	c7 84 24 f4 02 00 00      mov	dword [esp+000002F4h], 00000022h
		22 00 00 00 
  403a34:	51                        push	ecx
  403a35:	8d 4c 24 28               lea	ecx, [esp+28h]
  403a39:	e8 72 3a 00 00            call	4074b0
  403a3e:	8b 84 24 fc 02 00 00      mov	eax, [esp+000002FCh]
  403a45:	b3 23                     mov	bl, 23h
  403a47:	83 f8 01                  cmp	eax, 01h
  403a4a:	88 9c 24 f4 02 00 00      mov	[esp+000002F4h], bl
  403a51:	7e 55                     jle	403aa8
  403a53:	8b 94 24 00 03 00 00      mov	edx, [esp+00000300h]
  403a5a:	57                        push	edi
  403a5b:	8d 78 ff                  lea	edi, [eax-01h]
  403a5e:	8d 72 04                  lea	esi, [edx+04h]
  403a61:	8b 0e                    >mov	ecx, [esi]
  403a63:	8d 44 24 16               lea	eax, [esp+16h]
  403a67:	50                        push	eax
  403a68:	51                        push	ecx
  403a69:	8d 4c 24 40               lea	ecx, [esp+40h]
  403a6d:	ff 15 20 a0 40 00         call	dword [0040A020h]	; <??0?$basic_string@DU?$char_traits@D@std@@V?$allocator@D@2@@std@@QAE@PBDABV?$allocator@D@1@@Z>
  403a73:	8b 44 24 30               mov	eax, [esp+30h]
  403a77:	8d 54 24 38               lea	edx, [esp+38h]
  403a7b:	52                        push	edx
  403a7c:	50                        push	eax
  403a7d:	8d 4c 24 30               lea	ecx, [esp+30h]
  403a81:	c6 84 24 00 03 00 00      mov	byte [esp+00000300h], 24h
		24 
  403a89:	e8 42 3a 00 00            call	4074d0
  403a8e:	6a 01                     push	dword 00000001h
  403a90:	8d 4c 24 3c               lea	ecx, [esp+3Ch]
  403a94:	88 9c 24 fc 02 00 00      mov	[esp+000002FCh], bl
  403a9b:	ff 15 54 a0 40 00         call	dword [0040A054h]	; <?_Tidy@?$basic_string@DU?$char_traits@D@std@@V?$allocator@D@2@@std@@AAEX_N@Z>
  403aa1:	83 c6 04                  add	esi, 04h
  403aa4:	4f                        dec	edi
  403aa5:	75 ba                     jnz	403a61
  403aa7:	5f                        pop	edi
  403aa8:	8d 4c 24 24              >lea	ecx, [esp+24h]
  403aac:	6a 01                     push	dword 00000001h
  403aae:	51                        push	ecx
  403aaf:	8d 8c 24 4c 01 00 00      lea	ecx, [esp+0000014Ch]
  403ab6:	e8 85 17 00 00            call	405240
  403abb:	8d 4c 24 24               lea	ecx, [esp+24h]
  403abf:	8a d8                     mov	bl, al
  403ac1:	c6 84 24 f4 02 00 00      mov	byte [esp+000002F4h], 22h
		22 
  403ac9:	e8 92 32 00 00            call	406d60
  403ace:	84 db                     test	bl, bl
  403ad0:	0f 85 87 00 00 00         jnz	403b5d
  403ad6:	8d 54 24 12               lea	edx, [esp+12h]
  403ada:	8d 4c 24 34               lea	ecx, [esp+34h]
  403ade:	52                        push	edx
  403adf:	68 c0 c5 40 00            push	dword 0040C5C0h
  403ae4:	ff 15 20 a0 40 00         call	dword [0040A020h]	; <??0?$basic_string@DU?$char_traits@D@std@@V?$allocator@D@2@@std@@QAE@PBDABV?$allocator@D@1@@Z>
  403aea:	8d 44 24 34               lea	eax, [esp+34h]
  403aee:	8d 4c 24 24               lea	ecx, [esp+24h]
  403af2:	50                        push	eax
  403af3:	51                        push	ecx
  403af4:	8d 8c 24 4c 01 00 00      lea	ecx, [esp+0000014Ch]
  403afb:	c6 84 24 fc 02 00 00      mov	byte [esp+000002FCh], 25h
		25 
  403b03:	e8 28 12 00 00            call	404d30
  403b08:	8b 40 04                  mov	eax, [eax+04h]
  403b0b:	85 c0                     test	eax, eax
  403b0d:	75 05                     jnz	403b14
  403b0f:	a1 5c a0 40 00            mov	eax, [40A05Ch]
  403b14:	50                       >push	eax
  403b15:	ff 15 4c a1 40 00         call	dword [0040A14Ch]	; <printf>
  403b1b:	83 c4 04                  add	esp, 04h
  403b1e:	8d 4c 24 24               lea	ecx, [esp+24h]
  403b22:	6a 01                     push	dword 00000001h
  403b24:	ff 15 54 a0 40 00         call	dword [0040A054h]	; <?_Tidy@?$basic_string@DU?$char_traits@D@std@@V?$allocator@D@2@@std@@AAEX_N@Z>
  403b2a:	6a 01                     push	dword 00000001h
  403b2c:	8d 4c 24 38               lea	ecx, [esp+38h]
  403b30:	c6 84 24 f8 02 00 00      mov	byte [esp+000002F8h], 22h
		22 
  403b38:	ff 15 54 a0 40 00         call	dword [0040A054h]	; <?_Tidy@?$basic_string@DU?$char_traits@D@std@@V?$allocator@D@2@@std@@AAEX_N@Z>
  403b3e:	8d 8c 24 44 01 00 00      lea	ecx, [esp+00000144h]
  403b45:	c7 84 24 f4 02 00 00      mov	dword [esp+000002F4h], FFFFFFFFh
		ff ff ff ff 
  403b50:	e8 6b 27 00 00            call	4062c0
  403b55:	83 c8 ff                  or	eax, FFh
  403b58:	e9 d5 00 00 00            jmp	403c32
  403b5d:	8d 94 24 08 02 00 00     >lea	edx, [esp+00000208h]
  403b64:	8d 44 24 0c               lea	eax, [esp+0Ch]
  403b68:	52                        push	edx
  403b69:	50                        push	eax
  403b6a:	ff 15 70 a1 40 00         call	dword [0040A170h]	; <?makeLocation@FileManager@@SA?AVFileLocation@@ABV?$basic_string@DU?$char_traits@D@std@@V?$allocator@D@2@@std@@@Z>
  403b70:	83 c4 08                  add	esp, 08h
  403b73:	8a 84 24 6c 02 00 00      mov	al, [esp+0000026Ch]
  403b7a:	c6 84 24 f4 02 00 00      mov	byte [esp+000002F4h], 26h
		26 
  403b82:	a8 01                     test	al, 01h
  403b84:	74 0e                     jz	403b94
  403b86:	8d 4c 24 0c               lea	ecx, [esp+0Ch]
  403b8a:	51                        push	ecx
  403b8b:	8b cd                     mov	ecx, ebp
  403b8d:	e8 8e e9 ff ff            call	402520
  403b92:	eb 71                     jmp	403c05
  403b94:	f6 84 24 1c 02 00 00     >test	byte [esp+0000021Ch], 01h
		01 
  403b9c:	74 15                     jz	403bb3
  403b9e:	8d 54 24 0c               lea	edx, [esp+0Ch]
  403ba2:	8b cd                     mov	ecx, ebp
  403ba4:	52                        push	edx
  403ba5:	e8 86 f9 ff ff            call	403530
  403baa:	83 f8 6e                  cmp	eax, 6Eh
  403bad:	74 23                     jz	403bd2
  403baf:	f7 d8                     neg	eax
  403bb1:	eb 52                     jmp	403c05
  403bb3:	f6 84 24 44 02 00 00     >test	byte [esp+00000244h], 01h
		01 
  403bbb:	74 15                     jz	403bd2
  403bbd:	8d 44 24 0c               lea	eax, [esp+0Ch]
  403bc1:	8b cd                     mov	ecx, ebp
  403bc3:	50                        push	eax
  403bc4:	e8 57 f9 ff ff            call	403520
  403bc9:	83 f8 6e                  cmp	eax, 6Eh
  403bcc:	74 04                     jz	403bd2
  403bce:	f7 d8                     neg	eax
  403bd0:	eb 33                     jmp	403c05
  403bd2:	f6 84 24 94 02 00 00     >test	byte [esp+00000294h], 01h
		01 
  403bda:	74 1d                     jz	403bf9
  403bdc:	8d 8c 24 dc 02 00 00      lea	ecx, [esp+000002DCh]
  403be3:	8d 54 24 0c               lea	edx, [esp+0Ch]
  403be7:	51                        push	ecx
  403be8:	52                        push	edx
  403be9:	8b cd                     mov	ecx, ebp
  403beb:	e8 f0 28 00 00            call	4064e0
  403bf0:	83 f8 6e                  cmp	eax, 6Eh
  403bf3:	74 04                     jz	403bf9
  403bf5:	f7 d8                     neg	eax
  403bf7:	eb 0c                     jmp	403c05
  403bf9:	8d 44 24 0c              >lea	eax, [esp+0Ch]
  403bfd:	8b cd                     mov	ecx, ebp
  403bff:	50                        push	eax
  403c00:	e8 1b 2c 00 00            call	406820
  403c05:	8d 4c 24 0c              >lea	ecx, [esp+0Ch]
  403c09:	8b f0                     mov	esi, eax
  403c0b:	c6 84 24 f4 02 00 00      mov	byte [esp+000002F4h], 22h
		22 
  403c13:	ff 15 6c a1 40 00         call	dword [0040A16Ch]	; <??1FileLocation@@QAE@XZ>
  403c19:	8d 8c 24 44 01 00 00      lea	ecx, [esp+00000144h]
  403c20:	c7 84 24 f4 02 00 00      mov	dword [esp+000002F4h], FFFFFFFFh
		ff ff ff ff 
  403c2b:	e8 90 26 00 00            call	4062c0
  403c30:	8b c6                     mov	eax, esi
  403c32:	8b 8c 24 ec 02 00 00     >mov	ecx, [esp+000002ECh]
  403c39:	5e                        pop	esi
  403c3a:	5d                        pop	ebp
  403c3b:	5b                        pop	ebx
  403c3c:	64 89 0d 00 00 00 00      mov	[fs:00000000h], ecx
  403c43:	81 c4 ec 02 00 00         add	esp, 000002ECh
  403c49:	c2 08 00                  ret	0008h
     ...

403c50 <no name>:
  403c50:	6a ff                     push	dword FFFFFFFFh
  403c52:	68 27 8c 40 00            push	dword 00408C27h
  403c57:	64 a1 00 00 00 00         mov	eax, [fs:0000h]
  403c5d:	50                        push	eax
  403c5e:	64 89 25 00 00 00 00      mov	[fs:00000000h], esp
  403c65:	83 ec 08                  sub	esp, 08h
  403c68:	53                        push	ebx
  403c69:	55                        push	ebp
  403c6a:	56                        push	esi
  403c6b:	57                        push	edi
  403c6c:	8b f9                     mov	edi, ecx
  403c6e:	89 7c 24 14               mov	[esp+14h], edi
  403c72:	8a 47 04                  mov	al, [edi+04h]
  403c75:	8d 77 08                  lea	esi, [edi+08h]
  403c78:	24 fc                     and	al, FCh
  403c7a:	88 47 04                  mov	[edi+04h], al
  403c7d:	8a 44 24 28               mov	al, [esp+28h]
  403c81:	88 06                     mov	[esi], al
  403c83:	33 c0                     xor	eax, eax
  403c85:	89 46 04                  mov	[esi+04h], eax
  403c88:	89 46 08                  mov	[esi+08h], eax
  403c8b:	89 46 0c                  mov	[esi+0Ch], eax
  403c8e:	8b 6c 24 2c               mov	ebp, [esp+2Ch]
  403c92:	8d 4f 18                  lea	ecx, [edi+18h]
  403c95:	89 44 24 20               mov	[esp+20h], eax
  403c99:	8a 55 00                  mov	dl, [ebp+00h]
  403c9c:	89 41 04                  mov	[ecx+04h], eax
  403c9f:	88 11                     mov	[ecx], dl
  403ca1:	89 41 08                  mov	[ecx+08h], eax
  403ca4:	89 41 0c                  mov	[ecx+0Ch], eax
  403ca7:	8b 15 84 a0 40 00         mov	edx, [0040A084h]
  403cad:	8b 12                     mov	edx, [edx]
  403caf:	52                        push	edx
  403cb0:	50                        push	eax
  403cb1:	55                        push	ebp
  403cb2:	ff 15 88 a0 40 00         call	dword [0040A088h]	; <?assign@?$basic_string@DU?$char_traits@D@std@@V?$allocator@D@2@@std@@QAEAAV12@ABV12@II@Z>
  403cb8:	c7 07 f8 a1 40 00         mov	dword [edi], 0040A1F8h
  403cbe:	8b 5e 08                  mov	ebx, [esi+08h]
  403cc1:	8b 46 0c                  mov	eax, [esi+0Ch]
  403cc4:	c6 44 24 20 01            mov	byte [esp+20h], 01h
  403cc9:	2b c3                     sub	eax, ebx
  403ccb:	c1 f8 04                  sar	eax, 04h
  403cce:	83 f8 01                  cmp	eax, 01h
  403cd1:	0f 83 b6 00 00 00         jae	403d8d
  403cd7:	8b ce                     mov	ecx, esi
  403cd9:	e8 b2 40 00 00            call	407d90
  403cde:	83 f8 01                  cmp	eax, 01h
  403ce1:	76 0d                     jbe	403cf0
  403ce3:	8b ce                     mov	ecx, esi
  403ce5:	e8 a6 40 00 00            call	407d90
  403cea:	89 44 24 2c               mov	[esp+2Ch], eax
  403cee:	eb 08                     jmp	403cf8
  403cf0:	c7 44 24 2c 01 00 00     >mov	dword [esp+2Ch], 00000001h
		00 
  403cf8:	8b ce                    >mov	ecx, esi
  403cfa:	e8 91 40 00 00            call	407d90
  403cff:	8b e8                     mov	ebp, eax
  403d01:	8b 44 24 2c               mov	eax, [esp+2Ch]
  403d05:	03 e8                     add	ebp, eax
  403d07:	8b c5                     mov	eax, ebp
  403d09:	79 02                     jns	403d0d
  403d0b:	33 c0                     xor	eax, eax
  403d0d:	c1 e0 04                 >shl	eax, 04h
  403d10:	50                        push	eax
  403d11:	e8 6a 4a 00 00            call	408780	; <??2@YAPAXI@Z>
  403d16:	8b 4e 04                  mov	ecx, [esi+04h]
  403d19:	83 c4 04                  add	esp, 04h
  403d1c:	89 44 24 10               mov	[esp+10h], eax
  403d20:	50                        push	eax
  403d21:	53                        push	ebx
  403d22:	51                        push	ecx
  403d23:	8b ce                     mov	ecx, esi
  403d25:	e8 86 40 00 00            call	407db0
  403d2a:	8b 54 24 28               mov	edx, [esp+28h]
  403d2e:	8b ce                     mov	ecx, esi
  403d30:	52                        push	edx
  403d31:	6a 01                     push	dword 00000001h
  403d33:	50                        push	eax
  403d34:	89 44 24 38               mov	[esp+38h], eax
  403d38:	e8 b3 40 00 00            call	407df0
  403d3d:	8b 44 24 2c               mov	eax, [esp+2Ch]
  403d41:	8b 4e 08                  mov	ecx, [esi+08h]
  403d44:	83 c0 10                  add	eax, 10h
  403d47:	50                        push	eax
  403d48:	51                        push	ecx
  403d49:	53                        push	ebx
  403d4a:	8b ce                     mov	ecx, esi
  403d4c:	e8 5f 40 00 00            call	407db0
  403d51:	8b 56 08                  mov	edx, [esi+08h]
  403d54:	8b 46 04                  mov	eax, [esi+04h]
  403d57:	52                        push	edx
  403d58:	50                        push	eax
  403d59:	8b ce                     mov	ecx, esi
  403d5b:	e8 00 39 00 00            call	407660
  403d60:	8b 4e 04                  mov	ecx, [esi+04h]
  403d63:	51                        push	ecx
  403d64:	e8 e3 49 00 00            call	40874c
  403d69:	8b 5c 24 14               mov	ebx, [esp+14h]
  403d6d:	83 c4 04                  add	esp, 04h
  403d70:	c1 e5 04                  shl	ebp, 04h
  403d73:	03 eb                     add	ebp, ebx
  403d75:	8b ce                     mov	ecx, esi
  403d77:	89 6e 0c                  mov	[esi+0Ch], ebp
  403d7a:	e8 11 40 00 00            call	407d90
  403d7f:	40                        inc	eax
  403d80:	89 5e 04                  mov	[esi+04h], ebx
  403d83:	c1 e0 04                  shl	eax, 04h
  403d86:	03 c3                     add	eax, ebx
  403d88:	89 46 08                  mov	[esi+08h], eax
  403d8b:	eb 79                     jmp	403e06
  403d8d:	8b d3                    >mov	edx, ebx
  403d8f:	2b d3                     sub	edx, ebx
  403d91:	c1 fa 04                  sar	edx, 04h
  403d94:	83 fa 01                  cmp	edx, 01h
  403d97:	73 3c                     jae	403dd5
  403d99:	8d 43 10                  lea	eax, [ebx+10h]
  403d9c:	8b ce                     mov	ecx, esi
  403d9e:	50                        push	eax
  403d9f:	53                        push	ebx
  403da0:	53                        push	ebx
  403da1:	e8 0a 40 00 00            call	407db0
  403da6:	8b 46 08                  mov	eax, [esi+08h]
  403da9:	8b 6c 24 28               mov	ebp, [esp+28h]
  403dad:	8b c8                     mov	ecx, eax
  403daf:	ba 01 00 00 00            mov	edx, 00000001h
  403db4:	2b cb                     sub	ecx, ebx
  403db6:	55                        push	ebp
  403db7:	c1 f9 04                  sar	ecx, 04h
  403dba:	2b d1                     sub	edx, ecx
  403dbc:	8b ce                     mov	ecx, esi
  403dbe:	52                        push	edx
  403dbf:	50                        push	eax
  403dc0:	e8 2b 40 00 00            call	407df0
  403dc5:	8b 46 08                  mov	eax, [esi+08h]
  403dc8:	55                        push	ebp
  403dc9:	50                        push	eax
  403dca:	53                        push	ebx
  403dcb:	e8 e0 40 00 00            call	407eb0
  403dd0:	83 c4 0c                  add	esp, 0Ch
  403dd3:	eb 2d                     jmp	403e02
  403dd5:	53                       >push	ebx
  403dd6:	8d 4b f0                  lea	ecx, [ebx-10h]
  403dd9:	53                        push	ebx
  403dda:	51                        push	ecx
  403ddb:	8b ce                     mov	ecx, esi
  403ddd:	e8 ce 3f 00 00            call	407db0
  403de2:	8b 46 08                  mov	eax, [esi+08h]
  403de5:	50                        push	eax
  403de6:	83 c0 f0                  add	eax, F0h
  403de9:	50                        push	eax
  403dea:	53                        push	ebx
  403deb:	e8 10 42 00 00            call	408000
  403df0:	8b 54 24 34               mov	edx, [esp+34h]
  403df4:	8d 43 10                  lea	eax, [ebx+10h]
  403df7:	52                        push	edx
  403df8:	50                        push	eax
  403df9:	53                        push	ebx
  403dfa:	e8 b1 40 00 00            call	407eb0
  403dff:	83 c4 18                  add	esp, 18h
  403e02:	83 46 08 10              >add	dword [esi+08h], 10h
  403e06:	8b 4c 24 18              >mov	ecx, [esp+18h]
  403e0a:	c7 07 dc a1 40 00         mov	dword [edi], 0040A1DCh
  403e10:	8b c7                     mov	eax, edi
  403e12:	5f                        pop	edi
  403e13:	5e                        pop	esi
  403e14:	5d                        pop	ebp
  403e15:	5b                        pop	ebx
  403e16:	64 89 0d 00 00 00 00      mov	[fs:00000000h], ecx
  403e1d:	83 c4 14                  add	esp, 14h
  403e20:	c2 08 00                  ret	0008h
     ...

403e50 <no name>:
  403e50:	53                        push	ebx
  403e51:	55                        push	ebp
  403e52:	56                        push	esi
  403e53:	57                        push	edi
  403e54:	8b f9                     mov	edi, ecx
  403e56:	33 db                     xor	ebx, ebx
  403e58:	c7 07 f8 a1 40 00         mov	dword [edi], 0040A1F8h
  403e5e:	8b 47 1c                  mov	eax, [edi+1Ch]
  403e61:	3b c3                     cmp	eax, ebx
  403e63:	74 1d                     jz	403e82
  403e65:	8d 48 ff                  lea	ecx, [eax-01h]
  403e68:	8a 40 ff                  mov	al, [eax-01h]
  403e6b:	3a c3                     cmp	al, bl
  403e6d:	74 0a                     jz	403e79
  403e6f:	3c ff                     cmp	al, FFh
  403e71:	74 06                     jz	403e79
  403e73:	fe c8                     dec	al
  403e75:	88 01                     mov	[ecx], al
  403e77:	eb 09                     jmp	403e82
  403e79:	51                       >push	ecx
  403e7a:	e8 cd 48 00 00            call	40874c
  403e7f:	83 c4 04                  add	esp, 04h
  403e82:	89 5f 1c                 >mov	[edi+1Ch], ebx
  403e85:	89 5f 20                  mov	[edi+20h], ebx
  403e88:	89 5f 24                  mov	[edi+24h], ebx
  403e8b:	8b 6f 10                  mov	ebp, [edi+10h]
  403e8e:	8b 77 0c                  mov	esi, [edi+0Ch]
  403e91:	3b f5                     cmp	esi, ebp
  403e93:	74 34                     jz	403ec9
  403e95:	8b 46 04                 >mov	eax, [esi+04h]
  403e98:	3b c3                     cmp	eax, ebx
  403e9a:	74 1d                     jz	403eb9
  403e9c:	8d 48 ff                  lea	ecx, [eax-01h]
  403e9f:	8a 40 ff                  mov	al, [eax-01h]
  403ea2:	3a c3                     cmp	al, bl
  403ea4:	74 0a                     jz	403eb0
  403ea6:	3c ff                     cmp	al, FFh
  403ea8:	74 06                     jz	403eb0
  403eaa:	fe c8                     dec	al
  403eac:	88 01                     mov	[ecx], al
  403eae:	eb 09                     jmp	403eb9
  403eb0:	51                       >push	ecx
  403eb1:	e8 96 48 00 00            call	40874c
  403eb6:	83 c4 04                  add	esp, 04h
  403eb9:	89 5e 04                 >mov	[esi+04h], ebx
  403ebc:	89 5e 08                  mov	[esi+08h], ebx
  403ebf:	89 5e 0c                  mov	[esi+0Ch], ebx
  403ec2:	83 c6 10                  add	esi, 10h
  403ec5:	3b f5                     cmp	esi, ebp
  403ec7:	75 cc                     jnz	403e95
  403ec9:	8b 47 0c                 >mov	eax, [edi+0Ch]
  403ecc:	50                        push	eax
  403ecd:	e8 7a 48 00 00            call	40874c
  403ed2:	83 c4 04                  add	esp, 04h
  403ed5:	89 5f 0c                  mov	[edi+0Ch], ebx
  403ed8:	89 5f 10                  mov	[edi+10h], ebx
  403edb:	89 5f 14                  mov	[edi+14h], ebx
  403ede:	5f                        pop	edi
  403edf:	5e                        pop	esi
  403ee0:	5d                        pop	ebp
  403ee1:	5b                        pop	ebx
  403ee2:	c3                        ret
     ...

404770 <no name>:
  404770:	51                        push	ecx
  404771:	53                        push	ebx
  404772:	55                        push	ebp
  404773:	8b 6c 24 10               mov	ebp, [esp+10h]
  404777:	56                        push	esi
  404778:	8b 71 0c                  mov	esi, [ecx+0Ch]
  40477b:	57                        push	edi
  40477c:	33 ff                     xor	edi, edi
  40477e:	8a 06                     mov	al, [esi]
  404780:	89 7d 04                  mov	[ebp+04h], edi
  404783:	88 45 00                  mov	[ebp+00h], al
  404786:	89 7d 08                  mov	[ebp+08h], edi
  404789:	89 7d 0c                  mov	[ebp+0Ch], edi
  40478c:	8b 0d 84 a0 40 00         mov	ecx, [0040A084h]
  404792:	89 7c 24 10               mov	[esp+10h], edi
  404796:	8b 01                     mov	eax, [ecx]
  404798:	8b 4e 08                  mov	ecx, [esi+08h]
  40479b:	8b d9                     mov	ebx, ecx
  40479d:	3b c3                     cmp	eax, ebx
  40479f:	73 02                     jae	4047a3
  4047a1:	8b d8                     mov	ebx, eax
  4047a3:	3b ee                    >cmp	ebp, esi
  4047a5:	75 67                     jnz	40480e
  4047a7:	3b df                     cmp	ebx, edi
  4047a9:	8b f0                     mov	esi, eax
  4047ab:	76 06                     jbe	4047b3
  4047ad:	ff 15 80 a0 40 00         call	dword [0040A080h]	; <?_Xran@std@@YAXXZ>
  4047b3:	8b cd                    >mov	ecx, ebp
  4047b5:	ff 15 7c a0 40 00         call	dword [0040A07Ch]	; <?_Split@?$basic_string@DU?$char_traits@D@std@@V?$allocator@D@2@@std@@AAEXXZ>
  4047bb:	8b 45 08                  mov	eax, [ebp+08h]
  4047be:	2b c3                     sub	eax, ebx
  4047c0:	3b c6                     cmp	eax, esi
  4047c2:	73 02                     jae	4047c6
  4047c4:	8b f0                     mov	esi, eax
  4047c6:	3b f7                    >cmp	esi, edi
  4047c8:	76 32                     jbe	4047fc
  4047ca:	8b 55 04                  mov	edx, [ebp+04h]
  4047cd:	2b c6                     sub	eax, esi
  4047cf:	03 da                     add	ebx, edx
  4047d1:	50                        push	eax
  4047d2:	8d 04 33                  lea	eax, [ebx+esi*1]
  4047d5:	50                        push	eax
  4047d6:	53                        push	ebx
  4047d7:	ff 15 48 a1 40 00         call	dword [0040A148h]	; <memmove>
  4047dd:	8b 5d 08                  mov	ebx, [ebp+08h]
  4047e0:	83 c4 0c                  add	esp, 0Ch
  4047e3:	2b de                     sub	ebx, esi
  4047e5:	8b cd                     mov	ecx, ebp
  4047e7:	57                        push	edi
  4047e8:	53                        push	ebx
  4047e9:	ff 15 78 a0 40 00         call	dword [0040A078h]	; <?_Grow@?$basic_string@DU?$char_traits@D@std@@V?$allocator@D@2@@std@@AAE_NI_N@Z>
  4047ef:	84 c0                     test	al, al
  4047f1:	74 09                     jz	4047fc
  4047f3:	53                        push	ebx
  4047f4:	8b cd                     mov	ecx, ebp
  4047f6:	ff 15 74 a0 40 00         call	dword [0040A074h]	; <?_Eos@?$basic_string@DU?$char_traits@D@std@@V?$allocator@D@2@@std@@AAEXI@Z>
  4047fc:	8b cd                    >mov	ecx, ebp
  4047fe:	ff 15 7c a0 40 00         call	dword [0040A07Ch]	; <?_Split@?$basic_string@DU?$char_traits@D@std@@V?$allocator@D@2@@std@@AAEXXZ>
  404804:	5f                        pop	edi
  404805:	8b c5                     mov	eax, ebp
  404807:	5e                        pop	esi
  404808:	5d                        pop	ebp
  404809:	5b                        pop	ebx
  40480a:	59                        pop	ecx
  40480b:	c2 04 00                  ret	0004h
  40480e:	3b df                    >cmp	ebx, edi
  404810:	76 4d                     jbe	40485f
  404812:	3b d9                     cmp	ebx, ecx
  404814:	75 49                     jnz	40485f
  404816:	8b 46 04                  mov	eax, [esi+04h]
  404819:	3b c7                     cmp	eax, edi
  40481b:	75 05                     jnz	404822
  40481d:	a1 5c a0 40 00            mov	eax, [40A05Ch]
  404822:	80 78 ff fe              >cmp	byte [eax-01h], FEh
  404826:	73 37                     jae	40485f
  404828:	6a 01                     push	dword 00000001h
  40482a:	8b cd                     mov	ecx, ebp
  40482c:	ff 15 54 a0 40 00         call	dword [0040A054h]	; <?_Tidy@?$basic_string@DU?$char_traits@D@std@@V?$allocator@D@2@@std@@AAEX_N@Z>
  404832:	8b 46 04                  mov	eax, [esi+04h]
  404835:	3b c7                     cmp	eax, edi
  404837:	75 05                     jnz	40483e
  404839:	a1 5c a0 40 00            mov	eax, [40A05Ch]
  40483e:	89 45 04                 >mov	[ebp+04h], eax
  404841:	8b 4e 08                  mov	ecx, [esi+08h]
  404844:	89 4d 08                  mov	[ebp+08h], ecx
  404847:	8b 56 0c                  mov	edx, [esi+0Ch]
  40484a:	89 55 0c                  mov	[ebp+0Ch], edx
  40484d:	8a 48 ff                  mov	cl, [eax-01h]
  404850:	fe c1                     inc	cl
  404852:	5f                        pop	edi
  404853:	88 48 ff                  mov	[eax-01h], cl
  404856:	8b c5                     mov	eax, ebp
  404858:	5e                        pop	esi
  404859:	5d                        pop	ebp
  40485a:	5b                        pop	ebx
  40485b:	59                        pop	ecx
  40485c:	c2 04 00                  ret	0004h
  40485f:	6a 01                    >push	dword 00000001h
  404861:	53                        push	ebx
  404862:	8b cd                     mov	ecx, ebp
  404864:	ff 15 78 a0 40 00         call	dword [0040A078h]	; <?_Grow@?$basic_string@DU?$char_traits@D@std@@V?$allocator@D@2@@std@@AAE_NI_N@Z>
  40486a:	84 c0                     test	al, al
  40486c:	74 2a                     jz	404898
  40486e:	8b 76 04                  mov	esi, [esi+04h]
  404871:	3b f7                     cmp	esi, edi
  404873:	75 06                     jnz	40487b
  404875:	8b 35 5c a0 40 00         mov	esi, [0040A05Ch]
  40487b:	8b 7d 04                 >mov	edi, [ebp+04h]
  40487e:	8b cb                     mov	ecx, ebx
  404880:	8b c1                     mov	eax, ecx
  404882:	c1 e9 02                  shr	ecx, 02h
  404885:	f3 a5                     rep movsd
  404887:	8b c8                     mov	ecx, eax
  404889:	83 e1 03                  and	ecx, 03h
  40488c:	f3 a4                     rep movsb
  40488e:	8b 4d 04                  mov	ecx, [ebp+04h]
  404891:	89 5d 08                  mov	[ebp+08h], ebx
  404894:	c6 04 19 00               mov	byte [ecx+ebx*1], 00h
  404898:	5f                       >pop	edi
  404899:	8b c5                     mov	eax, ebp
  40489b:	5e                        pop	esi
  40489c:	5d                        pop	ebp
  40489d:	5b                        pop	ebx
  40489e:	59                        pop	ecx
  40489f:	c2 04 00                  ret	0004h
     ...

404990 <no name>:
  404990:	83 ec 0c                  sub	esp, 0Ch
  404993:	8b 44 24 10               mov	eax, [esp+10h]
  404997:	56                        push	esi
  404998:	8d 71 04                  lea	esi, [ecx+04h]
  40499b:	89 44 24 0c               mov	[esp+0Ch], eax
  40499f:	57                        push	edi
  4049a0:	c7 44 24 0c 00 00 00      mov	dword [esp+0Ch], 00000000h
		00 
  4049a8:	8b 46 08                  mov	eax, [esi+08h]
  4049ab:	8b 4e 0c                  mov	ecx, [esi+0Ch]
  4049ae:	2b c8                     sub	ecx, eax
  4049b0:	8b f8                     mov	edi, eax
  4049b2:	c1 f9 03                  sar	ecx, 03h
  4049b5:	83 f9 01                  cmp	ecx, 01h
  4049b8:	0f 83 e3 00 00 00         jae	404aa1
  4049be:	8b 56 04                  mov	edx, [esi+04h]
  4049c1:	85 d2                     test	edx, edx
  4049c3:	74 0c                     jz	4049d1
  4049c5:	8b c8                     mov	ecx, eax
  4049c7:	2b ca                     sub	ecx, edx
  4049c9:	c1 f9 03                  sar	ecx, 03h
  4049cc:	83 f9 01                  cmp	ecx, 01h
  4049cf:	77 05                     ja	4049d6
  4049d1:	b9 01 00 00 00           >mov	ecx, 00000001h
  4049d6:	85 d2                    >test	edx, edx
  4049d8:	75 04                     jnz	4049de
  4049da:	33 c0                     xor	eax, eax
  4049dc:	eb 05                     jmp	4049e3
  4049de:	2b c2                    >sub	eax, edx
  4049e0:	c1 f8 03                  sar	eax, 03h
  4049e3:	03 c1                    >add	eax, ecx
  4049e5:	85 c0                     test	eax, eax
  4049e7:	89 44 24 08               mov	[esp+08h], eax
  4049eb:	7d 02                     jge	4049ef
  4049ed:	33 c0                     xor	eax, eax
  4049ef:	53                       >push	ebx
  4049f0:	8d 14 c5 00 00 00 00      lea	edx, [eax*8+00000000h]
  4049f7:	55                        push	ebp
  4049f8:	52                        push	edx
  4049f9:	e8 82 3d 00 00            call	408780	; <??2@YAPAXI@Z>
  4049fe:	8b 6e 04                  mov	ebp, [esi+04h]
  404a01:	83 c4 04                  add	esp, 04h
  404a04:	3b ef                     cmp	ebp, edi
  404a06:	89 44 24 20               mov	[esp+20h], eax
  404a0a:	8b d8                     mov	ebx, eax
  404a0c:	74 14                     jz	404a22
  404a0e:	55                       >push	ebp
  404a0f:	53                        push	ebx
  404a10:	e8 cb 38 00 00            call	4082e0
  404a15:	83 c5 08                  add	ebp, 08h
  404a18:	83 c4 08                  add	esp, 08h
  404a1b:	83 c3 08                  add	ebx, 08h
  404a1e:	3b ef                     cmp	ebp, edi
  404a20:	75 ec                     jnz	404a0e
  404a22:	8d 44 24 14              >lea	eax, [esp+14h]
  404a26:	8b ce                     mov	ecx, esi
  404a28:	50                        push	eax
  404a29:	6a 01                     push	dword 00000001h
  404a2b:	53                        push	ebx
  404a2c:	e8 4f 34 00 00            call	407e80
  404a31:	8b 4e 08                  mov	ecx, [esi+08h]
  404a34:	83 c3 08                  add	ebx, 08h
  404a37:	53                        push	ebx
  404a38:	51                        push	ecx
  404a39:	57                        push	edi
  404a3a:	8b ce                     mov	ecx, esi
  404a3c:	e8 ff 33 00 00            call	407e40
  404a41:	8b 56 08                  mov	edx, [esi+08h]
  404a44:	8b 46 04                  mov	eax, [esi+04h]
  404a47:	52                        push	edx
  404a48:	50                        push	eax
  404a49:	8b ce                     mov	ecx, esi
  404a4b:	e8 10 2e 00 00            call	407860
  404a50:	8b 4e 04                  mov	ecx, [esi+04h]
  404a53:	51                        push	ecx
  404a54:	e8 f3 3c 00 00            call	40874c
  404a59:	8b 54 24 24               mov	edx, [esp+24h]
  404a5d:	8b 44 24 14               mov	eax, [esp+14h]
  404a61:	83 c4 04                  add	esp, 04h
  404a64:	8d 0c c2                  lea	ecx, [edx+eax*8]
  404a67:	8b 46 04                  mov	eax, [esi+04h]
  404a6a:	5d                        pop	ebp
  404a6b:	89 4e 0c                  mov	[esi+0Ch], ecx
  404a6e:	85 c0                     test	eax, eax
  404a70:	5b                        pop	ebx
  404a71:	75 14                     jnz	404a87
  404a73:	33 c9                     xor	ecx, ecx
  404a75:	89 56 04                  mov	[esi+04h], edx
  404a78:	5f                        pop	edi
  404a79:	8d 44 ca 08               lea	eax, [edx+ecx*8+08h]
  404a7d:	89 46 08                  mov	[esi+08h], eax
  404a80:	5e                        pop	esi
  404a81:	83 c4 0c                  add	esp, 0Ch
  404a84:	c2 04 00                  ret	0004h
  404a87:	8b 4e 08                 >mov	ecx, [esi+08h]
  404a8a:	89 56 04                  mov	[esi+04h], edx
  404a8d:	2b c8                     sub	ecx, eax
  404a8f:	5f                        pop	edi
  404a90:	c1 f9 03                  sar	ecx, 03h
  404a93:	8d 44 ca 08               lea	eax, [edx+ecx*8+08h]
  404a97:	89 46 08                  mov	[esi+08h], eax
  404a9a:	5e                        pop	esi
  404a9b:	83 c4 0c                  add	esp, 0Ch
  404a9e:	c2 04 00                  ret	0004h
  404aa1:	8b c8                    >mov	ecx, eax
  404aa3:	2b cf                     sub	ecx, edi
  404aa5:	c1 f9 03                  sar	ecx, 03h
  404aa8:	83 f9 01                  cmp	ecx, 01h
  404aab:	73 58                     jae	404b05
  404aad:	8d 57 08                  lea	edx, [edi+08h]
  404ab0:	8b ce                     mov	ecx, esi
  404ab2:	52                        push	edx
  404ab3:	50                        push	eax
  404ab4:	57                        push	edi
  404ab5:	e8 86 33 00 00            call	407e40
  404aba:	8b 46 08                  mov	eax, [esi+08h]
  404abd:	8d 4c 24 0c               lea	ecx, [esp+0Ch]
  404ac1:	8b d0                     mov	edx, eax
  404ac3:	51                        push	ecx
  404ac4:	2b d7                     sub	edx, edi
  404ac6:	b9 01 00 00 00            mov	ecx, 00000001h
  404acb:	c1 fa 03                  sar	edx, 03h
  404ace:	2b ca                     sub	ecx, edx
  404ad0:	51                        push	ecx
  404ad1:	50                        push	eax
  404ad2:	8b ce                     mov	ecx, esi
  404ad4:	e8 a7 33 00 00            call	407e80
  404ad9:	8b 46 08                  mov	eax, [esi+08h]
  404adc:	3b f8                     cmp	edi, eax
  404ade:	74 6e                     jz	404b4e
  404ae0:	8b 54 24 0c              >mov	edx, [esp+0Ch]
  404ae4:	89 17                     mov	[edi], edx
  404ae6:	8b 4c 24 10               mov	ecx, [esp+10h]
  404aea:	89 4f 04                  mov	[edi+04h], ecx
  404aed:	83 c7 08                  add	edi, 08h
  404af0:	3b f8                     cmp	edi, eax
  404af2:	75 ec                     jnz	404ae0
  404af4:	8b 46 08                  mov	eax, [esi+08h]
  404af7:	5f                        pop	edi
  404af8:	83 c0 08                  add	eax, 08h
  404afb:	89 46 08                  mov	[esi+08h], eax
  404afe:	5e                        pop	esi
  404aff:	83 c4 0c                  add	esp, 0Ch
  404b02:	c2 04 00                  ret	0004h
  404b05:	50                       >push	eax
  404b06:	50                        push	eax
  404b07:	83 c0 f8                  add	eax, F8h
  404b0a:	8b ce                     mov	ecx, esi
  404b0c:	50                        push	eax
  404b0d:	e8 2e 33 00 00            call	407e40
  404b12:	8b 4e 08                  mov	ecx, [esi+08h]
  404b15:	8d 41 f8                  lea	eax, [ecx-08h]
  404b18:	3b f8                     cmp	edi, eax
  404b1a:	74 15                     jz	404b31
  404b1c:	8b 50 f8                 >mov	edx, [eax-08h]
  404b1f:	83 e8 08                  sub	eax, 08h
  404b22:	83 e9 08                  sub	ecx, 08h
  404b25:	3b c7                     cmp	eax, edi
  404b27:	89 11                     mov	[ecx], edx
  404b29:	8b 50 04                  mov	edx, [eax+04h]
  404b2c:	89 51 04                  mov	[ecx+04h], edx
  404b2f:	75 eb                     jnz	404b1c
  404b31:	8d 4f 08                 >lea	ecx, [edi+08h]
  404b34:	8b c7                     mov	eax, edi
  404b36:	3b f9                     cmp	edi, ecx
  404b38:	74 14                     jz	404b4e
  404b3a:	8b 54 24 0c              >mov	edx, [esp+0Ch]
  404b3e:	89 10                     mov	[eax], edx
  404b40:	8b 54 24 10               mov	edx, [esp+10h]
  404b44:	89 50 04                  mov	[eax+04h], edx
  404b47:	83 c0 08                  add	eax, 08h
  404b4a:	3b c1                     cmp	eax, ecx
  404b4c:	75 ec                     jnz	404b3a
  404b4e:	8b 46 08                 >mov	eax, [esi+08h]
  404b51:	5f                        pop	edi
  404b52:	83 c0 08                  add	eax, 08h
  404b55:	89 46 08                  mov	[esi+08h], eax
  404b58:	5e                        pop	esi
  404b59:	83 c4 0c                  add	esp, 0Ch
  404b5c:	c2 04 00                  ret	0004h
     ...

404b60 <no name>:
  404b60:	83 ec 0c                  sub	esp, 0Ch
  404b63:	8b 44 24 10               mov	eax, [esp+10h]
  404b67:	56                        push	esi
  404b68:	8d 71 04                  lea	esi, [ecx+04h]
  404b6b:	89 44 24 0c               mov	[esp+0Ch], eax
  404b6f:	57                        push	edi
  404b70:	c7 44 24 0c 01 00 00      mov	dword [esp+0Ch], 00000001h
		00 
  404b78:	8b 46 08                  mov	eax, [esi+08h]
  404b7b:	8b 4e 0c                  mov	ecx, [esi+0Ch]
  404b7e:	2b c8                     sub	ecx, eax
  404b80:	8b f8                     mov	edi, eax
  404b82:	c1 f9 03                  sar	ecx, 03h
  404b85:	83 f9 01                  cmp	ecx, 01h
  404b88:	0f 83 e3 00 00 00         jae	404c71
  404b8e:	8b 56 04                  mov	edx, [esi+04h]
  404b91:	85 d2                     test	edx, edx
  404b93:	74 0c                     jz	404ba1
  404b95:	8b c8                     mov	ecx, eax
  404b97:	2b ca                     sub	ecx, edx
  404b99:	c1 f9 03                  sar	ecx, 03h
  404b9c:	83 f9 01                  cmp	ecx, 01h
  404b9f:	77 05                     ja	404ba6
  404ba1:	b9 01 00 00 00           >mov	ecx, 00000001h
  404ba6:	85 d2                    >test	edx, edx
  404ba8:	75 04                     jnz	404bae
  404baa:	33 c0                     xor	eax, eax
  404bac:	eb 05                     jmp	404bb3
  404bae:	2b c2                    >sub	eax, edx
  404bb0:	c1 f8 03                  sar	eax, 03h
  404bb3:	03 c1                    >add	eax, ecx
  404bb5:	85 c0                     test	eax, eax
  404bb7:	89 44 24 08               mov	[esp+08h], eax
  404bbb:	7d 02                     jge	404bbf
  404bbd:	33 c0                     xor	eax, eax
  404bbf:	53                       >push	ebx
  404bc0:	8d 14 c5 00 00 00 00      lea	edx, [eax*8+00000000h]
  404bc7:	55                        push	ebp
  404bc8:	52                        push	edx
  404bc9:	e8 b2 3b 00 00            call	408780	; <??2@YAPAXI@Z>
  404bce:	8b 6e 04                  mov	ebp, [esi+04h]
  404bd1:	83 c4 04                  add	esp, 04h
  404bd4:	3b ef                     cmp	ebp, edi
  404bd6:	89 44 24 20               mov	[esp+20h], eax
  404bda:	8b d8                     mov	ebx, eax
  404bdc:	74 14                     jz	404bf2
  404bde:	55                       >push	ebp
  404bdf:	53                        push	ebx
  404be0:	e8 fb 36 00 00            call	4082e0
  404be5:	83 c5 08                  add	ebp, 08h
  404be8:	83 c4 08                  add	esp, 08h
  404beb:	83 c3 08                  add	ebx, 08h
  404bee:	3b ef                     cmp	ebp, edi
  404bf0:	75 ec                     jnz	404bde
  404bf2:	8d 44 24 14              >lea	eax, [esp+14h]
  404bf6:	8b ce                     mov	ecx, esi
  404bf8:	50                        push	eax
  404bf9:	6a 01                     push	dword 00000001h
  404bfb:	53                        push	ebx
  404bfc:	e8 7f 32 00 00            call	407e80
  404c01:	8b 4e 08                  mov	ecx, [esi+08h]
  404c04:	83 c3 08                  add	ebx, 08h
  404c07:	53                        push	ebx
  404c08:	51                        push	ecx
  404c09:	57                        push	edi
  404c0a:	8b ce                     mov	ecx, esi
  404c0c:	e8 2f 32 00 00            call	407e40
  404c11:	8b 56 08                  mov	edx, [esi+08h]
  404c14:	8b 46 04                  mov	eax, [esi+04h]
  404c17:	52                        push	edx
  404c18:	50                        push	eax
  404c19:	8b ce                     mov	ecx, esi
  404c1b:	e8 40 2c 00 00            call	407860
  404c20:	8b 4e 04                  mov	ecx, [esi+04h]
  404c23:	51                        push	ecx
  404c24:	e8 23 3b 00 00            call	40874c
  404c29:	8b 54 24 24               mov	edx, [esp+24h]
  404c2d:	8b 44 24 14               mov	eax, [esp+14h]
  404c31:	83 c4 04                  add	esp, 04h
  404c34:	8d 0c c2                  lea	ecx, [edx+eax*8]
  404c37:	8b 46 04                  mov	eax, [esi+04h]
  404c3a:	5d                        pop	ebp
  404c3b:	89 4e 0c                  mov	[esi+0Ch], ecx
  404c3e:	85 c0                     test	eax, eax
  404c40:	5b                        pop	ebx
  404c41:	75 14                     jnz	404c57
  404c43:	33 c9                     xor	ecx, ecx
  404c45:	89 56 04                  mov	[esi+04h], edx
  404c48:	5f                        pop	edi
  404c49:	8d 44 ca 08               lea	eax, [edx+ecx*8+08h]
  404c4d:	89 46 08                  mov	[esi+08h], eax
  404c50:	5e                        pop	esi
  404c51:	83 c4 0c                  add	esp, 0Ch
  404c54:	c2 04 00                  ret	0004h
  404c57:	8b 4e 08                 >mov	ecx, [esi+08h]
  404c5a:	89 56 04                  mov	[esi+04h], edx
  404c5d:	2b c8                     sub	ecx, eax
  404c5f:	5f                        pop	edi
  404c60:	c1 f9 03                  sar	ecx, 03h
  404c63:	8d 44 ca 08               lea	eax, [edx+ecx*8+08h]
  404c67:	89 46 08                  mov	[esi+08h], eax
  404c6a:	5e                        pop	esi
  404c6b:	83 c4 0c                  add	esp, 0Ch
  404c6e:	c2 04 00                  ret	0004h
  404c71:	8b c8                    >mov	ecx, eax
  404c73:	2b cf                     sub	ecx, edi
  404c75:	c1 f9 03                  sar	ecx, 03h
  404c78:	83 f9 01                  cmp	ecx, 01h
  404c7b:	73 58                     jae	404cd5
  404c7d:	8d 57 08                  lea	edx, [edi+08h]
  404c80:	8b ce                     mov	ecx, esi
  404c82:	52                        push	edx
  404c83:	50                        push	eax
  404c84:	57                        push	edi
  404c85:	e8 b6 31 00 00            call	407e40
  404c8a:	8b 46 08                  mov	eax, [esi+08h]
  404c8d:	8d 4c 24 0c               lea	ecx, [esp+0Ch]
  404c91:	8b d0                     mov	edx, eax
  404c93:	51                        push	ecx
  404c94:	2b d7                     sub	edx, edi
  404c96:	b9 01 00 00 00            mov	ecx, 00000001h
  404c9b:	c1 fa 03                  sar	edx, 03h
  404c9e:	2b ca                     sub	ecx, edx
  404ca0:	51                        push	ecx
  404ca1:	50                        push	eax
  404ca2:	8b ce                     mov	ecx, esi
  404ca4:	e8 d7 31 00 00            call	407e80
  404ca9:	8b 46 08                  mov	eax, [esi+08h]
  404cac:	3b f8                     cmp	edi, eax
  404cae:	74 6e                     jz	404d1e
  404cb0:	8b 54 24 0c              >mov	edx, [esp+0Ch]
  404cb4:	89 17                     mov	[edi], edx
  404cb6:	8b 4c 24 10               mov	ecx, [esp+10h]
  404cba:	89 4f 04                  mov	[edi+04h], ecx
  404cbd:	83 c7 08                  add	edi, 08h
  404cc0:	3b f8                     cmp	edi, eax
  404cc2:	75 ec                     jnz	404cb0
  404cc4:	8b 46 08                  mov	eax, [esi+08h]
  404cc7:	5f                        pop	edi
  404cc8:	83 c0 08                  add	eax, 08h
  404ccb:	89 46 08                  mov	[esi+08h], eax
  404cce:	5e                        pop	esi
  404ccf:	83 c4 0c                  add	esp, 0Ch
  404cd2:	c2 04 00                  ret	0004h
  404cd5:	50                       >push	eax
  404cd6:	50                        push	eax
  404cd7:	83 c0 f8                  add	eax, F8h
  404cda:	8b ce                     mov	ecx, esi
  404cdc:	50                        push	eax
  404cdd:	e8 5e 31 00 00            call	407e40
  404ce2:	8b 4e 08                  mov	ecx, [esi+08h]
  404ce5:	8d 41 f8                  lea	eax, [ecx-08h]
  404ce8:	3b f8                     cmp	edi, eax
  404cea:	74 15                     jz	404d01
  404cec:	8b 50 f8                 >mov	edx, [eax-08h]
  404cef:	83 e8 08                  sub	eax, 08h
  404cf2:	83 e9 08                  sub	ecx, 08h
  404cf5:	3b c7                     cmp	eax, edi
  404cf7:	89 11                     mov	[ecx], edx
  404cf9:	8b 50 04                  mov	edx, [eax+04h]
  404cfc:	89 51 04                  mov	[ecx+04h], edx
  404cff:	75 eb                     jnz	404cec
  404d01:	8d 4f 08                 >lea	ecx, [edi+08h]
  404d04:	8b c7                     mov	eax, edi
  404d06:	3b f9                     cmp	edi, ecx
  404d08:	74 14                     jz	404d1e
  404d0a:	8b 54 24 0c              >mov	edx, [esp+0Ch]
  404d0e:	89 10                     mov	[eax], edx
  404d10:	8b 54 24 10               mov	edx, [esp+10h]
  404d14:	89 50 04                  mov	[eax+04h], edx
  404d17:	83 c0 08                  add	eax, 08h
  404d1a:	3b c1                     cmp	eax, ecx
  404d1c:	75 ec                     jnz	404d0a
  404d1e:	8b 46 08                 >mov	eax, [esi+08h]
  404d21:	5f                        pop	edi
  404d22:	83 c0 08                  add	eax, 08h
  404d25:	89 46 08                  mov	[esi+08h], eax
  404d28:	5e                        pop	esi
  404d29:	83 c4 0c                  add	esp, 0Ch
  404d2c:	c2 04 00                  ret	0004h
     ...

404d30 <no name>:
  404d30:	6a ff                     push	dword FFFFFFFFh
  404d32:	68 89 8d 40 00            push	dword 00408D89h
  404d37:	64 a1 00 00 00 00         mov	eax, [fs:0000h]
  404d3d:	50                        push	eax
  404d3e:	64 89 25 00 00 00 00      mov	[fs:00000000h], esp
  404d45:	81 ec c4 00 00 00         sub	esp, 000000C4h
  404d4b:	53                        push	ebx
  404d4c:	a1 28 a0 40 00            mov	eax, [40A028h]
  404d51:	55                        push	ebp
  404d52:	56                        push	esi
  404d53:	57                        push	edi
  404d54:	8b f9                     mov	edi, ecx
  404d56:	8b 0d 2c a0 40 00         mov	ecx, [0040A02Ch]
  404d5c:	89 7c 24 1c               mov	[esp+1Ch], edi
  404d60:	89 4c 24 50               mov	[esp+50h], ecx
  404d64:	8d 8c 24 a0 00 00 00      lea	ecx, [esp+000000A0h]
  404d6b:	c7 44 24 24 00 00 00      mov	dword [esp+24h], 00000000h
		00 
  404d73:	89 44 24 48               mov	[esp+48h], eax
  404d77:	ff 15 3c a0 40 00         call	dword [0040A03Ch]	; <??0?$basic_ios@DU?$char_traits@D@std@@@std@@IAE@XZ>
  404d7d:	be 02 00 00 00            mov	esi, 00000002h
  404d82:	89 74 24 24               mov	[esp+24h], esi
  404d86:	8d 54 24 54               lea	edx, [esp+54h]
  404d8a:	6a 00                     push	dword 00000000h
  404d8c:	52                        push	edx
  404d8d:	8d 4c 24 50               lea	ecx, [esp+50h]
  404d91:	c7 84 24 e4 00 00 00      mov	dword [esp+000000E4h], 00000001h
		01 00 00 00 
  404d9c:	ff 15 34 a0 40 00         call	dword [0040A034h]	; <??0?$basic_iostream@DU?$char_traits@D@std@@@std@@QAE@PAV?$basic_streambuf@DU?$char_traits@D@std@@@1@@Z>
  404da2:	6a 03                     push	dword 00000003h
  404da4:	8d 4c 24 58               lea	ecx, [esp+58h]
  404da8:	89 b4 24 e0 00 00 00      mov	[esp+000000E0h], esi
  404daf:	ff 15 38 a0 40 00         call	dword [0040A038h]	; <??0?$basic_stringbuf@DU?$char_traits@D@std@@V?$allocator@D@2@@std@@QAE@H@Z>
  404db5:	8b 44 24 48               mov	eax, [esp+48h]
  404db9:	8b 15 44 a0 40 00         mov	edx, [0040A044h]
  404dbf:	8b 48 04                  mov	ecx, [eax+04h]
  404dc2:	89 54 0c 48               mov	[esp+ecx*1+48h], edx
  404dc6:	8b 07                     mov	eax, [edi]
  404dc8:	8d 4c 24 38               lea	ecx, [esp+38h]
  404dcc:	51                        push	ecx
  404dcd:	8b cf                     mov	ecx, edi
  404dcf:	c7 84 24 e0 00 00 00      mov	dword [esp+000000E0h], 00000003h
		03 00 00 00 
  404dda:	ff 10                     call	dword [eax]
  404ddc:	8b 44 24 40               mov	eax, [esp+40h]
  404de0:	c6 84 24 dc 00 00 00      mov	byte [esp+000000DCh], 04h
		04 
  404de8:	85 c0                     test	eax, eax
  404dea:	74 46                     jz	404e32
  404dec:	8b 07                     mov	eax, [edi]
  404dee:	8d 74 24 48               lea	esi, [esp+48h]
  404df2:	f7 de                     neg	esi
  404df4:	8d 4c 24 28               lea	ecx, [esp+28h]
  404df8:	8d 54 24 50               lea	edx, [esp+50h]
  404dfc:	1b f6                     sbb	esi, esi
  404dfe:	51                        push	ecx
  404dff:	8b cf                     mov	ecx, edi
  404e01:	23 f2                     and	esi, edx
  404e03:	ff 10                     call	dword [eax]
  404e05:	50                        push	eax
  404e06:	56                        push	esi
  404e07:	c6 84 24 e4 00 00 00      mov	byte [esp+000000E4h], 05h
		05 
  404e0f:	e8 56 39 00 00            call	40876a	; <??6std@@YAAAV?$basic_ostream@DU?$char_traits@D@std@@@0@AAV10@ABV?$basic_string@DU?$char_traits@D@std@@V?$allocator@D@2@@0@@Z>
  404e14:	50                        push	eax
  404e15:	ff 15 14 a0 40 00         call	dword [0040A014h]	; <?endl@std@@YAAAV?$basic_ostream@DU?$char_traits@D@std@@@1@AAV21@@Z>
  404e1b:	83 c4 0c                  add	esp, 0Ch
  404e1e:	8d 4c 24 28               lea	ecx, [esp+28h]
  404e22:	c6 84 24 dc 00 00 00      mov	byte [esp+000000DCh], 04h
		04 
  404e2a:	6a 01                     push	dword 00000001h
  404e2c:	ff 15 54 a0 40 00         call	dword [0040A054h]	; <?_Tidy@?$basic_string@DU?$char_traits@D@std@@V?$allocator@D@2@@std@@AAEX_N@Z>
  404e32:	8b 8c 24 e8 00 00 00     >mov	ecx, [esp+000000E8h]
  404e39:	8b 41 08                  mov	eax, [ecx+08h]
  404e3c:	85 c0                     test	eax, eax
  404e3e:	74 11                     jz	404e51
  404e40:	8d 44 24 48               lea	eax, [esp+48h]
  404e44:	8d 54 24 50               lea	edx, [esp+50h]
  404e48:	f7 d8                     neg	eax
  404e4a:	1b c0                     sbb	eax, eax
  404e4c:	51                        push	ecx
  404e4d:	23 c2                     and	eax, edx
  404e4f:	eb 19                     jmp	404e6a
  404e51:	8b 47 1c                 >mov	eax, [edi+1Ch]
  404e54:	85 c0                     test	eax, eax
  404e56:	74 29                     jz	404e81
  404e58:	8d 44 24 48               lea	eax, [esp+48h]
  404e5c:	8d 4c 24 50               lea	ecx, [esp+50h]
  404e60:	f7 d8                     neg	eax
  404e62:	1b c0                     sbb	eax, eax
  404e64:	8d 57 14                  lea	edx, [edi+14h]
  404e67:	23 c1                     and	eax, ecx
  404e69:	52                        push	edx
  404e6a:	50                       >push	eax
  404e6b:	e8 fa 38 00 00            call	40876a	; <??6std@@YAAAV?$basic_ostream@DU?$char_traits@D@std@@@0@AAV10@ABV?$basic_string@DU?$char_traits@D@std@@V?$allocator@D@2@@0@@Z>
  404e70:	50                        push	eax
  404e71:	ff 15 14 a0 40 00         call	dword [0040A014h]	; <?endl@std@@YAAAV?$basic_ostream@DU?$char_traits@D@std@@@1@AAV21@@Z>
  404e77:	50                        push	eax
  404e78:	ff 15 14 a0 40 00         call	dword [0040A014h]	; <?endl@std@@YAAAV?$basic_ostream@DU?$char_traits@D@std@@@1@AAV21@@Z>
  404e7e:	83 c4 10                  add	esp, 10h
  404e81:	8d 44 24 48              >lea	eax, [esp+48h]
  404e85:	8b 1d 10 a0 40 00         mov	ebx, [0040A010h]
  404e8b:	f7 d8                     neg	eax
  404e8d:	1b c0                     sbb	eax, eax
  404e8f:	8d 4c 24 50               lea	ecx, [esp+50h]
  404e93:	23 c1                     and	eax, ecx
  404e95:	68 14 c3 40 00            push	dword 0040C314h
  404e9a:	50                        push	eax
  404e9b:	ff d3                     call	ebx
  404e9d:	8a 47 24                  mov	al, [edi+24h]
  404ea0:	83 c4 08                  add	esp, 08h
  404ea3:	a8 01                     test	al, 01h
  404ea5:	74 24                     jz	404ecb
  404ea7:	8d 44 24 48               lea	eax, [esp+48h]
  404eab:	8d 54 24 50               lea	edx, [esp+50h]
  404eaf:	f7 d8                     neg	eax
  404eb1:	1b c0                     sbb	eax, eax
  404eb3:	68 08 c3 40 00            push	dword 0040C308h
  404eb8:	23 c2                     and	eax, edx
  404eba:	68 04 c3 40 00            push	dword 0040C304h
  404ebf:	50                        push	eax
  404ec0:	ff d3                     call	ebx
  404ec2:	83 c4 08                  add	esp, 08h
  404ec5:	50                        push	eax
  404ec6:	ff d3                     call	ebx
  404ec8:	83 c4 08                  add	esp, 08h
  404ecb:	8b 77 08                 >mov	esi, [edi+08h]
  404ece:	8b 47 0c                  mov	eax, [edi+0Ch]
  404ed1:	3b f0                     cmp	esi, eax
  404ed3:	89 74 24 14               mov	[esp+14h], esi
  404ed7:	0f 84 e6 00 00 00         jz	404fc3
  404edd:	8b 06                    >mov	eax, [esi]
  404edf:	c7 44 24 20 00 c3 40      mov	dword [esp+20h], 0040C300h
		00 
  404ee7:	85 c0                     test	eax, eax
  404ee9:	74 08                     jz	404ef3
  404eeb:	c7 44 24 20 c0 c5 40      mov	dword [esp+20h], 0040C5C0h
		00 
  404ef3:	8d 6c 24 48              >lea	ebp, [esp+48h]
  404ef7:	8a 4c 24 13               mov	cl, [esp+13h]
  404efb:	f7 dd                     neg	ebp
  404efd:	1b ed                     sbb	ebp, ebp
  404eff:	83 ec 10                  sub	esp, 10h
  404f02:	8b dc                     mov	ebx, esp
  404f04:	8d 44 24 60               lea	eax, [esp+60h]
  404f08:	89 64 24 28               mov	[esp+28h], esp
  404f0c:	6a 00                     push	dword 00000000h
  404f0e:	88 0b                     mov	[ebx], cl
  404f10:	8b cb                     mov	ecx, ebx
  404f12:	23 e8                     and	ebp, eax
  404f14:	ff 15 54 a0 40 00         call	dword [0040A054h]	; <?_Tidy@?$basic_string@DU?$char_traits@D@std@@V?$allocator@D@2@@std@@AAEX_N@Z>
  404f1a:	8b 7c 24 30               mov	edi, [esp+30h]
  404f1e:	83 c9 ff                  or	ecx, FFh
  404f21:	33 c0                     xor	eax, eax
  404f23:	6a 01                     push	dword 00000001h
  404f25:	f2 ae                     repne scasb
  404f27:	f7 d1                     not	ecx
  404f29:	49                        dec	ecx
  404f2a:	8b f9                     mov	edi, ecx
  404f2c:	8b cb                     mov	ecx, ebx
  404f2e:	57                        push	edi
  404f2f:	89 7c 24 30               mov	[esp+30h], edi
  404f33:	ff 15 78 a0 40 00         call	dword [0040A078h]	; <?_Grow@?$basic_string@DU?$char_traits@D@std@@V?$allocator@D@2@@std@@AAE_NI_N@Z>
  404f39:	84 c0                     test	al, al
  404f3b:	74 28                     jz	404f65
  404f3d:	8b 43 04                  mov	eax, [ebx+04h]
  404f40:	8b 74 24 30               mov	esi, [esp+30h]
  404f44:	8b cf                     mov	ecx, edi
  404f46:	8b f8                     mov	edi, eax
  404f48:	8b d1                     mov	edx, ecx
  404f4a:	c1 e9 02                  shr	ecx, 02h
  404f4d:	f3 a5                     rep movsd
  404f4f:	8b ca                     mov	ecx, edx
  404f51:	8b c2                     mov	eax, edx
  404f53:	83 e1 03                  and	ecx, 03h
  404f56:	50                        push	eax
  404f57:	f3 a4                     rep movsb
  404f59:	8b cb                     mov	ecx, ebx
  404f5b:	ff 15 74 a0 40 00         call	dword [0040A074h]	; <?_Eos@?$basic_string@DU?$char_traits@D@std@@V?$allocator@D@2@@std@@AAEXI@Z>
  404f61:	8b 74 24 24               mov	esi, [esp+24h]
  404f65:	8b 4e 04                 >mov	ecx, [esi+04h]
  404f68:	8d 44 24 38               lea	eax, [esp+38h]
  404f6c:	50                        push	eax
  404f6d:	8b 11                     mov	edx, [ecx]
  404f6f:	ff 52 14                  call	dword [edx+14h]
  404f72:	50                        push	eax
  404f73:	68 04 c3 40 00            push	dword 0040C304h
  404f78:	55                        push	ebp
  404f79:	c6 84 24 e8 00 00 00      mov	byte [esp+000000E8h], 06h
		06 
  404f81:	ff 15 10 a0 40 00         call	dword [0040A010h]	; <??6std@@YAAAV?$basic_ostream@DU?$char_traits@D@std@@@0@AAV10@PBD@Z>
  404f87:	83 c4 08                  add	esp, 08h
  404f8a:	50                        push	eax
  404f8b:	e8 da 37 00 00            call	40876a	; <??6std@@YAAAV?$basic_ostream@DU?$char_traits@D@std@@@0@AAV10@ABV?$basic_string@DU?$char_traits@D@std@@V?$allocator@D@2@@0@@Z>
  404f90:	83 c4 08                  add	esp, 08h
  404f93:	8d 4c 24 28               lea	ecx, [esp+28h]
  404f97:	c6 84 24 dc 00 00 00      mov	byte [esp+000000DCh], 04h
		04 
  404f9f:	6a 01                     push	dword 00000001h
  404fa1:	ff 15 54 a0 40 00         call	dword [0040A054h]	; <?_Tidy@?$basic_string@DU?$char_traits@D@std@@V?$allocator@D@2@@std@@AAEX_N@Z>
  404fa7:	8b 4c 24 1c               mov	ecx, [esp+1Ch]
  404fab:	83 c6 08                  add	esi, 08h
  404fae:	89 74 24 14               mov	[esp+14h], esi
  404fb2:	3b 71 0c                  cmp	esi, [ecx+0Ch]
  404fb5:	0f 85 22 ff ff ff         jnz	404edd
  404fbb:	8b 1d 10 a0 40 00         mov	ebx, [0040A010h]
  404fc1:	8b f9                     mov	edi, ecx
  404fc3:	8d 54 24 50              >lea	edx, [esp+50h]
  404fc7:	52                        push	edx
  404fc8:	ff 15 14 a0 40 00         call	dword [0040A014h]	; <?endl@std@@YAAAV?$basic_ostream@DU?$char_traits@D@std@@@1@AAV21@@Z>
  404fce:	8d 44 24 54               lea	eax, [esp+54h]
  404fd2:	50                        push	eax
  404fd3:	ff 15 14 a0 40 00         call	dword [0040A014h]	; <?endl@std@@YAAAV?$basic_ostream@DU?$char_traits@D@std@@@1@AAV21@@Z>
  404fd9:	8a 47 24                  mov	al, [edi+24h]
  404fdc:	83 c4 08                  add	esp, 08h
  404fdf:	a8 01                     test	al, 01h
  404fe1:	74 20                     jz	405003
  404fe3:	8d 44 24 48               lea	eax, [esp+48h]
  404fe7:	8d 4c 24 50               lea	ecx, [esp+50h]
  404feb:	f7 d8                     neg	eax
  404fed:	1b c0                     sbb	eax, eax
  404fef:	68 d8 c2 40 00            push	dword 0040C2D8h
  404ff4:	23 c1                     and	eax, ecx
  404ff6:	50                        push	eax
  404ff7:	ff d3                     call	ebx
  404ff9:	50                        push	eax
  404ffa:	ff 15 14 a0 40 00         call	dword [0040A014h]	; <?endl@std@@YAAAV?$basic_ostream@DU?$char_traits@D@std@@@1@AAV21@@Z>
  405000:	83 c4 0c                  add	esp, 0Ch
  405003:	8b 47 08                 >mov	eax, [edi+08h]
  405006:	8b 7f 0c                  mov	edi, [edi+0Ch]
  405009:	3b c7                     cmp	eax, edi
  40500b:	89 44 24 14               mov	[esp+14h], eax
  40500f:	0f 84 00 01 00 00         jz	405115
  405015:	eb 04                     jmp	40501b
  405017:	8b 44 24 14              >mov	eax, [esp+14h]
  40501b:	8b 08                    >mov	ecx, [eax]
  40501d:	be 00 c3 40 00            mov	esi, 0040C300h
  405022:	85 c9                     test	ecx, ecx
  405024:	74 05                     jz	40502b
  405026:	be c0 c5 40 00            mov	esi, 0040C5C0h
  40502b:	8a 54 24 13              >mov	dl, [esp+13h]
  40502f:	83 ec 10                  sub	esp, 10h
  405032:	8b ec                     mov	ebp, esp
  405034:	89 64 24 28               mov	[esp+28h], esp
  405038:	6a 00                     push	dword 00000000h
  40503a:	8b cd                     mov	ecx, ebp
  40503c:	88 55 00                  mov	[ebp+00h], dl
  40503f:	ff 15 54 a0 40 00         call	dword [0040A054h]	; <?_Tidy@?$basic_string@DU?$char_traits@D@std@@V?$allocator@D@2@@std@@AAEX_N@Z>
  405045:	8b fe                     mov	edi, esi
  405047:	83 c9 ff                  or	ecx, FFh
  40504a:	33 c0                     xor	eax, eax
  40504c:	6a 01                     push	dword 00000001h
  40504e:	f2 ae                     repne scasb
  405050:	f7 d1                     not	ecx
  405052:	49                        dec	ecx
  405053:	8b d9                     mov	ebx, ecx
  405055:	8b cd                     mov	ecx, ebp
  405057:	53                        push	ebx
  405058:	ff 15 78 a0 40 00         call	dword [0040A078h]	; <?_Grow@?$basic_string@DU?$char_traits@D@std@@V?$allocator@D@2@@std@@AAE_NI_N@Z>
  40505e:	84 c0                     test	al, al
  405060:	74 1e                     jz	405080
  405062:	8b 7d 04                  mov	edi, [ebp+04h]
  405065:	8b cb                     mov	ecx, ebx
  405067:	8b c1                     mov	eax, ecx
  405069:	c1 e9 02                  shr	ecx, 02h
  40506c:	f3 a5                     rep movsd
  40506e:	8b c8                     mov	ecx, eax
  405070:	83 e1 03                  and	ecx, 03h
  405073:	f3 a4                     rep movsb
  405075:	8b 45 04                  mov	eax, [ebp+04h]
  405078:	89 5d 08                  mov	[ebp+08h], ebx
  40507b:	03 d8                     add	ebx, eax
  40507d:	c6 03 00                  mov	byte [ebx], 00h
  405080:	8b 74 24 24              >mov	esi, [esp+24h]
  405084:	8d 44 24 38               lea	eax, [esp+38h]
  405088:	50                        push	eax
  405089:	8b 4e 04                  mov	ecx, [esi+04h]
  40508c:	8b 11                     mov	edx, [ecx]
  40508e:	ff 52 18                  call	dword [edx+18h]
  405091:	8b 44 24 30               mov	eax, [esp+30h]
  405095:	33 ff                     xor	edi, edi
  405097:	3b c7                     cmp	eax, edi
  405099:	c6 84 24 dc 00 00 00      mov	byte [esp+000000DCh], 07h
		07 
  4050a1:	74 23                     jz	4050c6
  4050a3:	8d 44 24 48               lea	eax, [esp+48h]
  4050a7:	8d 4c 24 50               lea	ecx, [esp+50h]
  4050ab:	f7 d8                     neg	eax
  4050ad:	1b c0                     sbb	eax, eax
  4050af:	8d 54 24 28               lea	edx, [esp+28h]
  4050b3:	23 c1                     and	eax, ecx
  4050b5:	52                        push	edx
  4050b6:	50                        push	eax
  4050b7:	e8 ae 36 00 00            call	40876a	; <??6std@@YAAAV?$basic_ostream@DU?$char_traits@D@std@@@0@AAV10@ABV?$basic_string@DU?$char_traits@D@std@@V?$allocator@D@2@@0@@Z>
  4050bc:	50                        push	eax
  4050bd:	ff 15 14 a0 40 00         call	dword [0040A014h]	; <?endl@std@@YAAAV?$basic_ostream@DU?$char_traits@D@std@@@1@AAV21@@Z>
  4050c3:	83 c4 0c                  add	esp, 0Ch
  4050c6:	8b 44 24 2c              >mov	eax, [esp+2Ch]
  4050ca:	c6 84 24 dc 00 00 00      mov	byte [esp+000000DCh], 04h
		04 
  4050d2:	3b c7                     cmp	eax, edi
  4050d4:	74 1d                     jz	4050f3
  4050d6:	8d 48 ff                  lea	ecx, [eax-01h]
  4050d9:	8a 40 ff                  mov	al, [eax-01h]
  4050dc:	84 c0                     test	al, al
  4050de:	74 0a                     jz	4050ea
  4050e0:	3c ff                     cmp	al, FFh
  4050e2:	74 06                     jz	4050ea
  4050e4:	fe c8                     dec	al
  4050e6:	88 01                     mov	[ecx], al
  4050e8:	eb 09                     jmp	4050f3
  4050ea:	51                       >push	ecx
  4050eb:	e8 5c 36 00 00            call	40874c
  4050f0:	83 c4 04                  add	esp, 04h
  4050f3:	8b 44 24 1c              >mov	eax, [esp+1Ch]
  4050f7:	83 c6 08                  add	esi, 08h
  4050fa:	89 7c 24 2c               mov	[esp+2Ch], edi
  4050fe:	89 7c 24 30               mov	[esp+30h], edi
  405102:	8b 48 0c                  mov	ecx, [eax+0Ch]
  405105:	89 7c 24 34               mov	[esp+34h], edi
  405109:	3b f1                     cmp	esi, ecx
  40510b:	89 74 24 14               mov	[esp+14h], esi
  40510f:	0f 85 02 ff ff ff         jnz	405017
  405115:	8b b4 24 e4 00 00 00     >mov	esi, [esp+000000E4h]
  40511c:	8d 4c 24 48               lea	ecx, [esp+48h]
  405120:	56                        push	esi
  405121:	ff 15 48 a0 40 00         call	dword [0040A048h]	; <?str@?$basic_stringstream@DU?$char_traits@D@std@@V?$allocator@D@2@@std@@QBE?AV?$basic_string@DU?$char_traits@D@std@@V?$allocator@D@2@@2@XZ>
  405127:	c7 44 24 24 03 00 00      mov	dword [esp+24h], 00000003h
		00 
  40512f:	8b 44 24 3c               mov	eax, [esp+3Ch]
  405133:	33 ff                     xor	edi, edi
  405135:	3b c7                     cmp	eax, edi
  405137:	74 1d                     jz	405156
  405139:	8d 48 ff                  lea	ecx, [eax-01h]
  40513c:	8a 40 ff                  mov	al, [eax-01h]
  40513f:	84 c0                     test	al, al
  405141:	74 0a                     jz	40514d
  405143:	3c ff                     cmp	al, FFh
  405145:	74 06                     jz	40514d
  405147:	fe c8                     dec	al
  405149:	88 01                     mov	[ecx], al
  40514b:	eb 09                     jmp	405156
  40514d:	51                       >push	ecx
  40514e:	e8 f9 35 00 00            call	40874c
  405153:	83 c4 04                  add	esp, 04h
  405156:	8b 54 24 48              >mov	edx, [esp+48h]
  40515a:	8d 8c 24 a0 00 00 00      lea	ecx, [esp+000000A0h]
  405161:	89 7c 24 3c               mov	[esp+3Ch], edi
  405165:	89 7c 24 40               mov	[esp+40h], edi
  405169:	89 7c 24 44               mov	[esp+44h], edi
  40516d:	8b 42 04                  mov	eax, [edx+04h]
  405170:	89 4c 24 18               mov	[esp+18h], ecx
  405174:	8b 0d 44 a0 40 00         mov	ecx, [0040A044h]
  40517a:	89 4c 04 48               mov	[esp+eax*1+48h], ecx
  40517e:	a1 94 a0 40 00            mov	eax, [40A094h]
  405183:	8d 54 24 54               lea	edx, [esp+54h]
  405187:	c7 84 24 dc 00 00 00      mov	dword [esp+000000DCh], 00000008h
		08 00 00 00 
  405192:	89 54 24 1c               mov	[esp+1Ch], edx
  405196:	89 44 24 54               mov	[esp+54h], eax
  40519a:	8d 4c 24 54               lea	ecx, [esp+54h]
  40519e:	c6 84 24 dc 00 00 00      mov	byte [esp+000000DCh], 09h
		09 
  4051a6:	ff 15 d4 a0 40 00         call	dword [0040A0D4h]	; <?_Tidy@?$basic_stringbuf@DU?$char_traits@D@std@@V?$allocator@D@2@@std@@IAEXXZ>
  4051ac:	8b 0d d0 a0 40 00         mov	ecx, [0040A0D0h]
  4051b2:	89 4c 24 54               mov	[esp+54h], ecx
  4051b6:	8d 8c 24 88 00 00 00      lea	ecx, [esp+00000088h]
  4051bd:	ff 15 cc a0 40 00         call	dword [0040A0CCh]	; <??1locale@std@@QAE@XZ>
  4051c3:	8b 54 24 48               mov	edx, [esp+48h]
  4051c7:	8b 0d c8 a0 40 00         mov	ecx, [0040A0C8h]
  4051cd:	c6 84 24 dc 00 00 00      mov	byte [esp+000000DCh], 00h
		00 
  4051d5:	8b 42 04                  mov	eax, [edx+04h]
  4051d8:	8d 54 24 50               lea	edx, [esp+50h]
  4051dc:	89 4c 04 48               mov	[esp+eax*1+48h], ecx
  4051e0:	8d 44 24 48               lea	eax, [esp+48h]
  4051e4:	f7 d8                     neg	eax
  4051e6:	1b c0                     sbb	eax, eax
  4051e8:	23 c2                     and	eax, edx
  4051ea:	8b 08                     mov	ecx, [eax]
  4051ec:	8b 51 04                  mov	edx, [ecx+04h]
  4051ef:	8b 0d c4 a0 40 00         mov	ecx, [0040A0C4h]
  4051f5:	89 0c 02                  mov	[edx+eax*1], ecx
  4051f8:	8b 54 24 48               mov	edx, [esp+48h]
  4051fc:	8b 0d c0 a0 40 00         mov	ecx, [0040A0C0h]
  405202:	8b 42 04                  mov	eax, [edx+04h]
  405205:	89 4c 04 48               mov	[esp+eax*1+48h], ecx
  405209:	8b 15 bc a0 40 00         mov	edx, [0040A0BCh]
  40520f:	8d 8c 24 a0 00 00 00      lea	ecx, [esp+000000A0h]
  405216:	89 94 24 a0 00 00 00      mov	[esp+000000A0h], edx
  40521d:	ff 15 18 a0 40 00         call	dword [0040A018h]	; <??1ios_base@std@@UAE@XZ>
  405223:	8b 8c 24 d4 00 00 00      mov	ecx, [esp+000000D4h]
  40522a:	8b c6                     mov	eax, esi
  40522c:	5f                        pop	edi
  40522d:	5e                        pop	esi
  40522e:	5d                        pop	ebp
  40522f:	64 89 0d 00 00 00 00      mov	[fs:00000000h], ecx
  405236:	5b                        pop	ebx
  405237:	81 c4 d0 00 00 00         add	esp, 000000D0h
  40523d:	c2 08 00                  ret	0008h

405240 <no name>:
  405240:	6a ff                     push	dword FFFFFFFFh
  405242:	68 75 8e 40 00            push	dword 00408E75h
  405247:	64 a1 00 00 00 00         mov	eax, [fs:0000h]
  40524d:	50                        push	eax
  40524e:	64 89 25 00 00 00 00      mov	[fs:00000000h], esp
  405255:	81 ec 88 00 00 00         sub	esp, 00000088h
  40525b:	a1 84 a0 40 00            mov	eax, [40A084h]
  405260:	53                        push	ebx
  405261:	8b d9                     mov	ebx, ecx
  405263:	55                        push	ebp
  405264:	8b 08                     mov	ecx, [eax]
  405266:	56                        push	esi
  405267:	57                        push	edi
  405268:	8d 73 14                  lea	esi, [ebx+14h]
  40526b:	33 ed                     xor	ebp, ebp
  40526d:	51                        push	ecx
  40526e:	55                        push	ebp
  40526f:	8b ce                     mov	ecx, esi
  405271:	89 74 24 1c               mov	[esp+1Ch], esi
  405275:	ff 15 30 a0 40 00         call	dword [0040A030h]	; <?erase@?$basic_string@DU?$char_traits@D@std@@V?$allocator@D@2@@std@@QAEAAV12@II@Z>
  40527b:	8b 84 24 a8 00 00 00      mov	eax, [esp+000000A8h]
  405282:	8b 78 04                  mov	edi, [eax+04h]
  405285:	8b 40 08                  mov	eax, [eax+08h]
  405288:	3b f8                     cmp	edi, eax
  40528a:	0f 84 17 05 00 00         jz	4057a7
  405290:	8b 47 08                 >mov	eax, [edi+08h]
  405293:	c6 44 24 13 00            mov	byte [esp+13h], 00h
  405298:	83 f8 01                  cmp	eax, 01h
  40529b:	0f 86 94 00 00 00         jbe	405335
  4052a1:	3b c5                     cmp	eax, ebp
  4052a3:	77 06                     ja	4052ab
  4052a5:	ff 15 80 a0 40 00         call	dword [0040A080h]	; <?_Xran@std@@YAXXZ>
  4052ab:	8b 57 04                 >mov	edx, [edi+04h]
  4052ae:	80 3a 2f                  cmp	byte [edx], 2Fh
  4052b1:	74 13                     jz	4052c6
  4052b3:	39 6f 08                  cmp	[edi+08h], ebp
  4052b6:	77 06                     ja	4052be
  4052b8:	ff 15 80 a0 40 00         call	dword [0040A080h]	; <?_Xran@std@@YAXXZ>
  4052be:	8b 47 04                 >mov	eax, [edi+04h]
  4052c1:	80 38 2d                  cmp	byte [eax], 2Dh
  4052c4:	75 6f                     jnz	405335
  4052c6:	8b 0d 84 a0 40 00        >mov	ecx, [0040A084h]
  4052cc:	8d 44 24 18               lea	eax, [esp+18h]
  4052d0:	8b 11                     mov	edx, [ecx]
  4052d2:	8b cf                     mov	ecx, edi
  4052d4:	52                        push	edx
  4052d5:	6a 01                     push	dword 00000001h
  4052d7:	50                        push	eax
  4052d8:	ff 15 8c a0 40 00         call	dword [0040A08Ch]	; <?substr@?$basic_string@DU?$char_traits@D@std@@V?$allocator@D@2@@std@@QBE?AV12@II@Z>
  4052de:	8b e8                     mov	ebp, eax
  4052e0:	8b 73 08                  mov	esi, [ebx+08h]
  4052e3:	8b 43 0c                  mov	eax, [ebx+0Ch]
  4052e6:	3b f0                     cmp	esi, eax
  4052e8:	c7 84 24 a0 00 00 00      mov	dword [esp+000000A0h], 00000000h
		00 00 00 00 
  4052f3:	74 1c                     jz	405311
  4052f5:	83 3e 00                 >cmp	dword [esi], 00h
  4052f8:	75 0d                     jnz	405307
  4052fa:	8b 4e 04                  mov	ecx, [esi+04h]
  4052fd:	55                        push	ebp
  4052fe:	e8 8d 06 00 00            call	405990
  405303:	84 c0                     test	al, al
  405305:	75 29                     jnz	405330
  405307:	8b 43 0c                 >mov	eax, [ebx+0Ch]
  40530a:	83 c6 08                  add	esi, 08h
  40530d:	3b f0                     cmp	esi, eax
  40530f:	75 e4                     jnz	4052f5
  405311:	33 f6                    >xor	esi, esi
  405313:	83 cd ff                 >or	ebp, FFh
  405316:	6a 01                     push	dword 00000001h
  405318:	8d 4c 24 1c               lea	ecx, [esp+1Ch]
  40531c:	89 ac 24 a4 00 00 00      mov	[esp+000000A4h], ebp
  405323:	ff 15 54 a0 40 00         call	dword [0040A054h]	; <?_Tidy@?$basic_string@DU?$char_traits@D@std@@V?$allocator@D@2@@std@@AAEX_N@Z>
  405329:	c6 44 24 13 01            mov	byte [esp+13h], 01h
  40532e:	eb 49                     jmp	405379
  405330:	8b 76 04                 >mov	esi, [esi+04h]
  405333:	eb de                     jmp	405313
  405335:	8b 6b 08                 >mov	ebp, [ebx+08h]
  405338:	8b 43 0c                  mov	eax, [ebx+0Ch]
  40533b:	3b e8                     cmp	ebp, eax
  40533d:	0f 84 ba 00 00 00         jz	4053fd
  405343:	83 7d 00 01              >cmp	dword [ebp+00h], 01h
  405347:	75 1d                     jnz	405366
  405349:	8b 75 04                  mov	esi, [ebp+04h]
  40534c:	8b ce                     mov	ecx, esi
  40534e:	8b 16                     mov	edx, [esi]
  405350:	ff 52 08                  call	dword [edx+08h]
  405353:	84 c0                     test	al, al
  405355:	74 0b                     jz	405362
  405357:	8b 06                     mov	eax, [esi]
  405359:	8b ce                     mov	ecx, esi
  40535b:	ff 50 0c                  call	dword [eax+0Ch]
  40535e:	84 c0                     test	al, al
  405360:	75 14                     jnz	405376
  405362:	8b 74 24 14              >mov	esi, [esp+14h]
  405366:	8b 43 0c                 >mov	eax, [ebx+0Ch]
  405369:	83 c5 08                  add	ebp, 08h
  40536c:	3b e8                     cmp	ebp, eax
  40536e:	0f 84 89 00 00 00         jz	4053fd
  405374:	eb cd                     jmp	405343
  405376:	83 cd ff                 >or	ebp, FFh
  405379:	85 f6                    >test	esi, esi
  40537b:	74 7a                     jz	4053f7
  40537d:	8b 16                     mov	edx, [esi]
  40537f:	8b ce                     mov	ecx, esi
  405381:	ff 52 08                  call	dword [edx+08h]
  405384:	84 c0                     test	al, al
  405386:	74 3c                     jz	4053c4
  405388:	8a 44 24 13               mov	al, [esp+13h]
  40538c:	84 c0                     test	al, al
  40538e:	74 13                     jz	4053a3
  405390:	8b 84 24 a8 00 00 00      mov	eax, [esp+000000A8h]
  405397:	83 c7 10                  add	edi, 10h
  40539a:	3b 78 08                  cmp	edi, [eax+08h]
  40539d:	0f 84 d5 00 00 00         jz	405478
  4053a3:	8b 16                    >mov	edx, [esi]
  4053a5:	8b ce                     mov	ecx, esi
  4053a7:	ff 52 0c                  call	dword [edx+0Ch]
  4053aa:	84 c0                     test	al, al
  4053ac:	0f 84 68 01 00 00         jz	40551a
  4053b2:	8b 06                     mov	eax, [esi]
  4053b4:	57                        push	edi
  4053b5:	8b ce                     mov	ecx, esi
  4053b7:	ff 50 10                  call	dword [eax+10h]
  4053ba:	84 c0                     test	al, al
  4053bc:	0f 84 4e 02 00 00         jz	405610
  4053c2:	eb 0a                     jmp	4053ce
  4053c4:	f6 46 04 01              >test	byte [esi+04h], 01h
  4053c8:	0f 85 38 03 00 00         jnz	405706
  4053ce:	8a 56 04                 >mov	dl, [esi+04h]
  4053d1:	8b 8c 24 a8 00 00 00      mov	ecx, [esp+000000A8h]
  4053d8:	80 ca 01                  or	dl, 01h
  4053db:	83 c7 10                  add	edi, 10h
  4053de:	88 56 04                  mov	[esi+04h], dl
  4053e1:	8b 41 08                  mov	eax, [ecx+08h]
  4053e4:	8b 74 24 14               mov	esi, [esp+14h]
  4053e8:	3b f8                     cmp	edi, eax
  4053ea:	0f 84 b5 03 00 00         jz	4057a5
  4053f0:	33 ed                     xor	ebp, ebp
  4053f2:	e9 99 fe ff ff            jmp	405290
  4053f7:	8b 74 24 14              >mov	esi, [esp+14h]
  4053fb:	eb 03                     jmp	405400
  4053fd:	83 cd ff                 >or	ebp, FFh
  405400:	57                       >push	edi
  405401:	8d 54 24 3c               lea	edx, [esp+3Ch]
  405405:	68 b4 c3 40 00            push	dword 0040C3B4h
  40540a:	52                        push	edx
  40540b:	e8 4e 33 00 00            call	40875e	; <??Hstd@@YA?AV?$basic_string@DU?$char_traits@D@std@@V?$allocator@D@2@@0@PBDABV10@@Z>
  405410:	68 b0 c3 40 00            push	dword 0040C3B0h
  405415:	50                        push	eax
  405416:	8d 44 24 2c               lea	eax, [esp+2Ch]
  40541a:	c7 84 24 b4 00 00 00      mov	dword [esp+000000B4h], 00000001h
		01 00 00 00 
  405425:	50                        push	eax
  405426:	e8 2d 33 00 00            call	408758	; <??Hstd@@YA?AV?$basic_string@DU?$char_traits@D@std@@V?$allocator@D@2@@0@ABV10@PBD@Z>
  40542b:	83 c4 18                  add	esp, 18h
  40542e:	8b 0d 84 a0 40 00         mov	ecx, [0040A084h]
  405434:	c6 84 24 a0 00 00 00      mov	byte [esp+000000A0h], 02h
		02 
  40543c:	8b 11                     mov	edx, [ecx]
  40543e:	8b ce                     mov	ecx, esi
  405440:	52                        push	edx
  405441:	6a 00                     push	dword 00000000h
  405443:	50                        push	eax
  405444:	ff 15 88 a0 40 00         call	dword [0040A088h]	; <?assign@?$basic_string@DU?$char_traits@D@std@@V?$allocator@D@2@@std@@QAEAAV12@ABV12@II@Z>
  40544a:	6a 01                     push	dword 00000001h
  40544c:	8d 4c 24 1c               lea	ecx, [esp+1Ch]
  405450:	c6 84 24 a4 00 00 00      mov	byte [esp+000000A4h], 01h
		01 
  405458:	ff 15 54 a0 40 00         call	dword [0040A054h]	; <?_Tidy@?$basic_string@DU?$char_traits@D@std@@V?$allocator@D@2@@std@@AAEX_N@Z>
  40545e:	6a 01                     push	dword 00000001h
  405460:	8d 4c 24 3c               lea	ecx, [esp+3Ch]
  405464:	89 ac 24 a4 00 00 00      mov	[esp+000000A4h], ebp
  40546b:	ff 15 54 a0 40 00         call	dword [0040A054h]	; <?_Tidy@?$basic_string@DU?$char_traits@D@std@@V?$allocator@D@2@@std@@AAEX_N@Z>
  405471:	32 c0                     xor	al, al
  405473:	e9 51 03 00 00            jmp	4057c9
  405478:	8d 44 24 28              >lea	eax, [esp+28h]
  40547c:	8b ce                     mov	ecx, esi
  40547e:	50                        push	eax
  40547f:	e8 ec f2 ff ff            call	404770
  405484:	50                        push	eax
  405485:	8d 4c 24 1c               lea	ecx, [esp+1Ch]
  405489:	68 a4 c3 40 00            push	dword 0040C3A4h
  40548e:	51                        push	ecx
  40548f:	c7 84 24 ac 00 00 00      mov	dword [esp+000000ACh], 00000003h
		03 00 00 00 
  40549a:	e8 bf 32 00 00            call	40875e	; <??Hstd@@YA?AV?$basic_string@DU?$char_traits@D@std@@V?$allocator@D@2@@0@PBDABV10@@Z>
  40549f:	68 8c c3 40 00            push	dword 0040C38Ch
  4054a4:	8d 54 24 48               lea	edx, [esp+48h]
  4054a8:	b3 04                     mov	bl, 04h
  4054aa:	50                        push	eax
  4054ab:	52                        push	edx
  4054ac:	88 9c 24 b8 00 00 00      mov	[esp+000000B8h], bl
  4054b3:	e8 a0 32 00 00            call	408758	; <??Hstd@@YA?AV?$basic_string@DU?$char_traits@D@std@@V?$allocator@D@2@@0@ABV10@PBD@Z>
  4054b8:	83 c4 18                  add	esp, 18h
  4054bb:	8b 0d 84 a0 40 00         mov	ecx, [0040A084h]
  4054c1:	c6 84 24 a0 00 00 00      mov	byte [esp+000000A0h], 05h
		05 
  4054c9:	8b 11                     mov	edx, [ecx]
  4054cb:	8b 4c 24 14               mov	ecx, [esp+14h]
  4054cf:	52                        push	edx
  4054d0:	6a 00                     push	dword 00000000h
  4054d2:	50                        push	eax
  4054d3:	ff 15 88 a0 40 00         call	dword [0040A088h]	; <?assign@?$basic_string@DU?$char_traits@D@std@@V?$allocator@D@2@@std@@QAEAAV12@ABV12@II@Z>
  4054d9:	6a 01                     push	dword 00000001h
  4054db:	8d 4c 24 3c               lea	ecx, [esp+3Ch]
  4054df:	88 9c 24 a4 00 00 00      mov	[esp+000000A4h], bl
  4054e6:	ff 15 54 a0 40 00         call	dword [0040A054h]	; <?_Tidy@?$basic_string@DU?$char_traits@D@std@@V?$allocator@D@2@@std@@AAEX_N@Z>
  4054ec:	6a 01                     push	dword 00000001h
  4054ee:	8d 4c 24 1c               lea	ecx, [esp+1Ch]
  4054f2:	c6 84 24 a4 00 00 00      mov	byte [esp+000000A4h], 03h
		03 
  4054fa:	ff 15 54 a0 40 00         call	dword [0040A054h]	; <?_Tidy@?$basic_string@DU?$char_traits@D@std@@V?$allocator@D@2@@std@@AAEX_N@Z>
  405500:	6a 01                     push	dword 00000001h
  405502:	8d 4c 24 2c               lea	ecx, [esp+2Ch]
  405506:	89 ac 24 a4 00 00 00      mov	[esp+000000A4h], ebp
  40550d:	ff 15 54 a0 40 00         call	dword [0040A054h]	; <?_Tidy@?$basic_string@DU?$char_traits@D@std@@V?$allocator@D@2@@std@@AAEX_N@Z>
