File: Mindstation/LeapFrog/MS2002.exe
Module type: PE (Portable Executable)

Flags: 0x010f (relocations stripped, executable, line numbers stripped, local symbols stripped, 32-bit)
Image type: 32-bit
File version: 0.0
Linker version: 6.0
Program entry point: 0x410543
Base of code section: 0x1000
Base of data section: 0x4f000
Preferred base address: 0x400000
Required OS version: 4.0
Subsystem: GUI
Subsystem version: 4.0
DLL flags: 0x0000 ()
Stack size (reserve): 1048576 bytes
Stack size (commit): 4096 bytes
Heap size (reserve): 1048576 bytes
Heap size (commit): 4096 bytes

No export table

Imported modules:
	WINMM.dll
	Engine.dll
	Utils.dll
	KERNEL32.dll
	USER32.dll
	GDI32.dll
	comdlg32.dll
	WINSPOOL.DRV
	ADVAPI32.dll
	SHELL32.dll
	COMCTL32.dll
	ole32.dll
	VERSION.dll

Imported functions:
	WINMM.dll:
		PlaySoundA
	Engine.dll:
		?NoActionStartup@CEngine@@QAEXXZ
		?AddChipSelect@MSCommandLine@@QAEXH@Z
		?getDevHelpFile@CEngine@@QAEHPAVFileLocation@@@Z
		?WebUpdate@CEngine@@QAEXXZ
		?get@MSCommandLine@@SAPAV1@XZ
		?ReclaimParams@CEngine@@SAXPAX@Z
		?LBKConvert@CEngine@@QAEXABVFileLocation@@@Z
		?RunACPDisk@CEngine@@QAEXABVFileLocation@@0@Z
		?RunACP@CEngine@@QAEXABVFileLocation@@@Z
		?RunDiag@CEngine@@QAEXXZ
		?GoToURL@CEngine@@QAEXPBD@Z
		?LBKVerify@CEngine@@QAEXABVFileLocation@@@Z
		?LBKRestore@CEngine@@QAEXABVFileLocation@@@Z
		?LBKSave@CEngine@@QAEXABVFileLocation@@@Z
		?QuitAppReq@CEngine@@QAEXXZ
		??1CEngine@@QAE@XZ
		??0CEngine@@QAE@PAVCLogger@@PAVMSCommandLine@@P6AHHPAX@Z@Z
	Utils.dll:
		??1FileLocation@@QAE@XZ
		??1CLogger@@QAE@XZ
		?HasInternetConnection@InetChecker@@SA_NPBD@Z
		?getDirectoryValue@configEngine@@QAEHPBDPAVFileLocation@@@Z
		??0FileLocation@@QAE@XZ
		?SerializedReference@FileManager@@SA?AV?$basic_string@DU?$char_traits@D@std@@V?$allocator@D@2@@std@@ABVFileLocation@@@Z
		??0CLogger@@QAE@PBDP6AXPAD@Z22@Z
		?SetDebugLevel@CLogger@@QAEHH@Z
		?Shutdown@CLogger@@QAEXXZ
		?Message@CLogger@@QAAXPBDZZ
		?makeLocation@FileManager@@SA?AVFileLocation@@PBD@Z
		?getValue@configEngine@@QAEHPBDAAV?$basic_string@DU?$char_traits@D@std@@V?$allocator@D@2@@std@@@Z
		?main@config@@SAAAVconfigEngine@@XZ
	KERNEL32.dll:
		FileTimeToSystemTime
		FileTimeToLocalFileTime
		RtlUnwind
		RaiseException
		SetErrorMode
		HeapFree
		GetStartupInfoA
		GetCommandLineA
		ExitProcess
		HeapAlloc
		TerminateProcess
		CreateThread
		SystemTimeToFileTime
		SetFileAttributesA
		HeapSize
		GetACP
		GetTimeZoneInformation
		GetSystemTime
		GetLocalTime
		FatalAppExitA
		LCMapStringA
		LCMapStringW
		SetUnhandledExceptionFilter
		GetEnvironmentVariableA
		GetFileSize
		LocalFileTimeToFileTime
		HeapReAlloc
		ExitThread
		GetCurrentDirectoryA
		UnhandledExceptionFilter
		FreeEnvironmentStringsA
		FreeEnvironmentStringsW
		GetEnvironmentStrings
		GetEnvironmentStringsW
		SetHandleCount
		GetStdHandle
		GetFileType
		GetStringTypeA
		GetStringTypeW
		IsBadReadPtr
		IsBadCodePtr
		IsValidLocale
		IsValidCodePage
		GetLocaleInfoA
		EnumSystemLocalesA
		GetUserDefaultLCID
		SetConsoleCtrlHandler
		SetStdHandle
		CompareStringA
		CompareStringW
		SetEnvironmentVariableA
		GetLocaleInfoW
		GetOEMCP
		GetCPInfo
		GetProcessVersion
		TlsGetValue
		LocalReAlloc
		TlsSetValue
		EnterCriticalSection
		GlobalReAlloc
		LeaveCriticalSection
		TlsFree
		GlobalHandle
		DeleteCriticalSection
		TlsAlloc
		InitializeCriticalSection
		LocalAlloc
		SizeofResource
		GlobalFlags
		GetShortPathNameA
		GetThreadLocale
		GetStringTypeExA
		GetVolumeInformationA
		FindFirstFileA
		FindClose
		DeleteFileA
		MoveFileA
		SetEndOfFile
		UnlockFile
		LockFile
		FlushFileBuffers
		SetFilePointer
		WriteFile
		ReadFile
		CreateFileA
		GetCurrentProcess
		DuplicateHandle
		GetDiskFreeSpaceA
		HeapDestroy
		FormatMessageA
		GetModuleFileNameA
		GetLastError
		LocalFree
		GetFullPathNameA
		GetFileTime
		SetFileTime
		WritePrivateProfileStringA
		GetTempFileNameA
		GetFileAttributesA
		CreateEventA
		GetPrivateProfileStringA
		GetPrivateProfileIntA
		ResumeThread
		SuspendThread
		SetThreadPriority
		lstrcmpA
		SetEvent
		GlobalAlloc
		HeapCreate
		VirtualFree
		MulDiv
		InterlockedExchange
		GetTickCount
		GetCurrentThread
		lstrcpynA
		FreeLibrary
		SetLastError
		LoadLibraryA
		GlobalGetAtomNameA
		GetVersion
		GetCurrentThreadId
		GlobalFindAtomA
		lstrcmpiA
		GlobalAddAtomA
		GetProcAddress
		GlobalDeleteAtom
		GetModuleHandleA
		GlobalFree
		GlobalLock
		GlobalUnlock
		LoadResource
		LockResource
		FindResourceA
		InterlockedIncrement
		WaitForSingleObject
		InterlockedDecrement
		VirtualAlloc
		IsBadWritePtr
		GetProfileStringA
		lstrcatA
		lstrcpyA
		MultiByteToWideChar
		Sleep
		WideCharToMultiByte
		CloseHandle
		CreateProcessA
		lstrlenA
		GetVersionExA
	USER32.dll:
		ClientToScreen
		GetDC
		GetMenuCheckMarkDimensions
		ReleaseDC
		GetWindowDC
		BeginPaint
		EndPaint
		TabbedTextOutA
		DrawTextA
		GrayStringA
		CheckDlgButton
		CheckRadioButton
		GetDlgItemInt
		GetDlgItemTextA
		ModifyMenuA
		GetMenuState
		IsDlgButtonChecked
		SetDlgItemTextA
		IsDialogMessageA
		SetWindowTextA
		MoveWindow
		ShowWindow
		CharToOemA
		OemToCharA
		wvsprintfA
		InflateRect
		SetRectEmpty
		LoadAcceleratorsA
		TranslateAcceleratorA
		ReleaseCapture
		SetCursor
		SetDlgItemInt
		ScrollWindowEx
		LoadMenuA
		SetMenu
		ReuseDDElParam
		UnpackDDElParam
		BringWindowToTop
		GetDesktopWindow
		GetCursorPos
		ValidateRect
		GetMessageA
		CharUpperA
		FillRect
		IsRectEmpty
		GetClassNameA
		GetDialogBaseUnits
		GetSysColorBrush
		LoadStringA
		DestroyIcon
		InsertMenuA
		GetMenuStringA
		EndDeferWindowPos
		IsWindowVisible
		ScrollWindow
		GetScrollInfo
		SetScrollInfo
		ShowScrollBar
		GetScrollRange
		SetScrollRange
		GetScrollPos
		SetScrollPos
		GetTopWindow
		MessageBoxA
		IsChild
		DestroyMenu
		ShowOwnedPopups
		GetClassInfoA
		RegisterClassA
		GetSubMenu
		SendDlgItemMessageA
		TrackPopupMenu
		SetWindowPlacement
		GetWindowTextLengthA
		GetWindowTextA
		GetDlgCtrlID
		GetKeyState
		CreateWindowExA
		EnableMenuItem
		SetPropA
		UnhookWindowsHookEx
		GetPropA
		CallWindowProcA
		RemovePropA
		GetMessageTime
		GetMessagePos
		GetForegroundWindow
		GetWindow
		SetWindowLongA
		SetWindowPos
		RegisterWindowMessageA
		IntersectRect
		SystemParametersInfoA
		GetWindowPlacement
		GetNextDlgTabItem
		EndDialog
		GetActiveWindow
		GetSystemMetrics
		CreateDialogIndirectParamA
		GetParent
		GetWindowLongA
		GetDlgItem
		IsWindowEnabled
		PeekMessageA
		MsgWaitForMultipleObjects
		TranslateMessage
		DispatchMessageA
		wsprintfA
		LoadBitmapA
		RedrawWindow
		GetMenu
		GetMenuItemCount
		DeleteMenu
		DrawMenuBar
		DestroyWindow
		PostMessageA
		UnregisterClassA
		FindWindowA
		GetLastActivePopup
		IsIconic
		SetForegroundWindow
		DefWindowProcA
		LoadIconA
		LoadCursorA
		UpdateWindow
		PostQuitMessage
		KillTimer
		SetTimer
		PtInRect
		EnableWindow
		GetClientRect
		InvalidateRect
		SendMessageA
		GetWindowRect
		OffsetRect
		SetMenuItemBitmaps
		CheckMenuItem
		BeginDeferWindowPos
		DeferWindowPos
		GetMenuItemID
		MapWindowPoints
		GetSysColor
		GetFocus
		SetFocus
		AdjustWindowRectEx
		ScreenToClient
		EqualRect
		GetCapture
		CopyRect
		WinHelpA
		CallNextHookEx
		SetWindowsHookExA
		SetActiveWindow
		IsWindow
		GetClassLongA
		HideCaret
		ShowCaret
		ExcludeUpdateRgn
		DrawFocusRect
		DefDlgProcA
		CharNextA
		IsWindowUnicode
	GDI32.dll:
		GetTextExtentPointA
		CreateDIBitmap
		RoundRect
		CreatePen
		CreateFontA
		SelectObject
		BitBlt
		Rectangle
		GetTextExtentPoint32A
		StretchBlt
		CreateCompatibleDC
		GetClipBox
		SetTextColor
		GetDCOrgEx
		GetObjectA
		CreateBitmap
		SetBkColor
		StartDocA
		SaveDC
		DeleteDC
		GetStockObject
		SelectPalette
		RestoreDC
		SetPolyFillMode
		SetROP2
		SetBkMode
		OffsetViewportOrgEx
		SetViewportExtEx
		SetViewportOrgEx
		SetWindowOrgEx
		OffsetWindowOrgEx
		ScaleViewportExtEx
		ScaleWindowExtEx
		SelectClipRgn
		SetWindowExtEx
		IntersectClipRect
		OffsetClipRgn
		ExcludeClipRect
		LineTo
		SetTextAlign
		MoveToEx
		SetTextCharacterExtra
		SetMapperFlags
		SetTextJustification
		ArcTo
		SetArcDirection
		PolyDraw
		PolylineTo
		SetColorAdjustment
		PolyBezierTo
		DeleteObject
		GetClipRgn
		CreateRectRgn
		SelectClipPath
		ExtSelectClipRgn
		PlayMetaFileRecord
		GetObjectType
		EnumMetaFile
		PlayMetaFile
		GetDeviceCaps
		GetViewportExtEx
		GetWindowExtEx
		ExtCreatePen
		CreateSolidBrush
		CreateHatchBrush
		CreatePatternBrush
		CreateDIBPatternBrushPt
		PtVisible
		RectVisible
		TextOutA
		ExtTextOutA
		Escape
		GetMapMode
		PatBlt
		SetRectRgn
		CombineRgn
		CreateRectRgnIndirect
		CreateFontIndirectA
		DPtoLP
		LPtoDP
		GetTextMetricsA
		SetStretchBltMode
		SetMapMode
		GetCurrentPositionEx
	comdlg32.dll:
		GetSaveFileNameA
		GetFileTitleA
		GetOpenFileNameA
	WINSPOOL.DRV:
		OpenPrinterA
		DocumentPropertiesA
		ClosePrinter
	ADVAPI32.dll:
		GetFileSecurityA
		SetFileSecurityA
		RegOpenKeyExA
		RegSetValueA
		RegCreateKeyA
		RegCloseKey
		RegQueryValueExA
		RegSetValueExA
		RegQueryValueA
		RegEnumKeyA
		RegOpenKeyA
		RegDeleteKeyA
		RegDeleteValueA
		RegCreateKeyExA
	SHELL32.dll:
		DragAcceptFiles
		DragFinish
		ShellExecuteA
		DragQueryFileA
		SHGetFileInfoA
		ExtractIconA
	COMCTL32.dll:
		<ordinal 14>
		ImageList_Write
		<ordinal 13>
		ImageList_Read
		<ordinal 17>
		ImageList_Merge
		ImageList_Create
		ImageList_LoadImageA
		ImageList_Destroy
	ole32.dll:
		CoInitialize
		CoUninitialize
		CoCreateInstance
	VERSION.dll:
		GetFileVersionInfoSizeA
		GetFileVersionInfoA
		VerQueryValueA

Section .text (start = 0x1000, length = 0x4e000, minimum allocation = 0x4db06):
    Address: 1000
    Flags: 0x60000020 (code, executable, readable)
    Alignment: 1 (2**0)
     ...

40ee98 <no name>:
  40ee98:	6a ff                     push	dword FFFFFFFFh
  40ee9a:	50                        push	eax
  40ee9b:	64 a1 00 00 00 00         mov	eax, [fs:0000h]
  40eea1:	50                        push	eax
  40eea2:	8b 44 24 0c               mov	eax, [esp+0Ch]
  40eea6:	64 89 25 00 00 00 00      mov	[fs:00000000h], esp
  40eead:	89 6c 24 0c               mov	[esp+0Ch], ebp
  40eeb1:	8d 6c 24 0c               lea	ebp, [esp+0Ch]
  40eeb5:	50                        push	eax
  40eeb6:	c3                        ret
     ...

40ef80 <no name>:
  40ef80:	8b 54 24 0c               mov	edx, [esp+0Ch]
  40ef84:	8b 4c 24 04               mov	ecx, [esp+04h]
  40ef88:	85 d2                     test	edx, edx
  40ef8a:	74 47                     jz	40efd3
  40ef8c:	33 c0                     xor	eax, eax
  40ef8e:	8a 44 24 08               mov	al, [esp+08h]
  40ef92:	57                        push	edi
  40ef93:	8b f9                     mov	edi, ecx
  40ef95:	83 fa 04                  cmp	edx, 04h
  40ef98:	72 2d                     jb	40efc7
  40ef9a:	f7 d9                     neg	ecx
  40ef9c:	83 e1 03                  and	ecx, 03h
  40ef9f:	74 08                     jz	40efa9
  40efa1:	2b d1                     sub	edx, ecx
  40efa3:	88 07                    >mov	[edi], al
  40efa5:	47                        inc	edi
  40efa6:	49                        dec	ecx
  40efa7:	75 fa                     jnz	40efa3
  40efa9:	8b c8                    >mov	ecx, eax
  40efab:	c1 e0 08                  shl	eax, 08h
  40efae:	03 c1                     add	eax, ecx
  40efb0:	8b c8                     mov	ecx, eax
  40efb2:	c1 e0 10                  shl	eax, 10h
  40efb5:	03 c1                     add	eax, ecx
  40efb7:	8b ca                     mov	ecx, edx
  40efb9:	83 e2 03                  and	edx, 03h
  40efbc:	c1 e9 02                  shr	ecx, 02h
  40efbf:	74 06                     jz	40efc7
  40efc1:	f3 ab                     rep stosd
  40efc3:	85 d2                     test	edx, edx
  40efc5:	74 06                     jz	40efcd
  40efc7:	88 07                    >mov	[edi], al
  40efc9:	47                        inc	edi
  40efca:	4a                        dec	edx
  40efcb:	75 fa                     jnz	40efc7
  40efcd:	8b 44 24 08              >mov	eax, [esp+08h]
  40efd1:	5f                        pop	edi
  40efd2:	c3                        ret
  40efd3:	8b 44 24 04              >mov	eax, [esp+04h]
  40efd7:	c3                        ret
     ...

40efe0 <no name>:
  40efe0:	8b 4c 24 04               mov	ecx, [esp+04h]
  40efe4:	f7 c1 03 00 00 00         test	ecx, 00000003h
  40efea:	74 14                     jz	40f000
  40efec:	8a 01                    >mov	al, [ecx]
  40efee:	41                        inc	ecx
  40efef:	84 c0                     test	al, al
  40eff1:	74 40                     jz	40f033
  40eff3:	f7 c1 03 00 00 00         test	ecx, 00000003h
  40eff9:	75 f1                     jnz	40efec
  40effb:	05 00 00 00 00            add	eax, 00000000h
  40f000:	8b 01                    >mov	eax, [ecx]
  40f002:	ba ff fe fe 7e            mov	edx, 7EFEFEFFh
  40f007:	03 d0                     add	edx, eax
  40f009:	83 f0 ff                  xor	eax, FFh
  40f00c:	33 c2                     xor	eax, edx
  40f00e:	83 c1 04                  add	ecx, 04h
  40f011:	a9 00 01 01 81            test	eax, 81010100h
  40f016:	74 e8                     jz	40f000
  40f018:	8b 41 fc                  mov	eax, [ecx-04h]
  40f01b:	84 c0                     test	al, al
  40f01d:	74 32                     jz	40f051
  40f01f:	84 e4                     test	ah, ah
  40f021:	74 24                     jz	40f047
  40f023:	a9 00 00 ff 00            test	eax, 00FF0000h
  40f028:	74 13                     jz	40f03d
  40f02a:	a9 00 00 00 ff            test	eax, FF000000h
  40f02f:	74 02                     jz	40f033
  40f031:	eb cd                     jmp	40f000
  40f033:	8d 41 ff                 >lea	eax, [ecx-01h]
  40f036:	8b 4c 24 04               mov	ecx, [esp+04h]
  40f03a:	2b c1                     sub	eax, ecx
  40f03c:	c3                        ret
  40f03d:	8d 41 fe                 >lea	eax, [ecx-02h]
  40f040:	8b 4c 24 04               mov	ecx, [esp+04h]
  40f044:	2b c1                     sub	eax, ecx
  40f046:	c3                        ret
  40f047:	8d 41 fd                 >lea	eax, [ecx-03h]
  40f04a:	8b 4c 24 04               mov	ecx, [esp+04h]
  40f04e:	2b c1                     sub	eax, ecx
  40f050:	c3                        ret
  40f051:	8d 41 fc                 >lea	eax, [ecx-04h]
  40f054:	8b 4c 24 04               mov	ecx, [esp+04h]
  40f058:	2b c1                     sub	eax, ecx
  40f05a:	c3                        ret
     ...

40f060 <no name>:
  40f060:	55                        push	ebp
  40f061:	8b ec                     mov	ebp, esp
  40f063:	57                        push	edi
  40f064:	56                        push	esi
  40f065:	8b 75 0c                  mov	esi, [ebp+0Ch]
  40f068:	8b 4d 10                  mov	ecx, [ebp+10h]
  40f06b:	8b 7d 08                  mov	edi, [ebp+08h]
  40f06e:	8b c1                     mov	eax, ecx
  40f070:	8b d1                     mov	edx, ecx
  40f072:	03 c6                     add	eax, esi
  40f074:	3b fe                     cmp	edi, esi
  40f076:	76 08                     jbe	40f080
  40f078:	3b f8                     cmp	edi, eax
  40f07a:	0f 82 78 01 00 00         jb	40f1f8
  40f080:	f7 c7 03 00 00 00        >test	edi, 00000003h
  40f086:	75 14                     jnz	40f09c
  40f088:	c1 e9 02                  shr	ecx, 02h
  40f08b:	83 e2 03                  and	edx, 03h
  40f08e:	83 f9 08                  cmp	ecx, 08h
  40f091:	72 29                     jb	40f0bc
  40f093:	f3 a5                     rep movsd
  40f095:	ff 24 95 a8 f1 40 00      jmp	dword [edx*4+0040F1A8h]
  40f09c:	8b c7                    >mov	eax, edi
  40f09e:	ba 03 00 00 00            mov	edx, 00000003h
  40f0a3:	83 e9 04                  sub	ecx, 04h
  40f0a6:	72 0c                     jb	40f0b4
  40f0a8:	83 e0 03                  and	eax, 03h
  40f0ab:	03 c8                     add	ecx, eax
  40f0ad:	ff 24 85 c0 f0 40 00      jmp	dword [eax*4+0040F0C0h]
  40f0b4:	ff 24 8d b8 f1 40 00     >jmp	dword [ecx*4+0040F1B8h]
     ...
  40f0bc:	ff 24 8d 3c f1 40 00     >jmp	dword [ecx*4+0040F13Ch]
     ...
  40f1f8:	8d 74 31 fc              >lea	esi, [ecx+esi*1-04h]
  40f1fc:	8d 7c 39 fc               lea	edi, [ecx+edi*1-04h]
  40f200:	f7 c7 03 00 00 00         test	edi, 00000003h
  40f206:	75 24                     jnz	40f22c
  40f208:	c1 e9 02                  shr	ecx, 02h
  40f20b:	83 e2 03                  and	edx, 03h
  40f20e:	83 f9 08                  cmp	ecx, 08h
  40f211:	72 0d                     jb	40f220
  40f213:	fd                        std
  40f214:	f3 a5                     rep movsd
  40f216:	fc                        cld
  40f217:	ff 24 95 40 f3 40 00      jmp	dword [edx*4+0040F340h]
     ...
  40f220:	f7 d9                    >neg	ecx
  40f222:	ff 24 8d f0 f2 40 00      jmp	dword [ecx*4+0040F2F0h]
     ...
  40f22c:	8b c7                    >mov	eax, edi
  40f22e:	ba 03 00 00 00            mov	edx, 00000003h
  40f233:	83 f9 04                  cmp	ecx, 04h
  40f236:	72 0c                     jb	40f244
  40f238:	83 e0 03                  and	eax, 03h
  40f23b:	2b c8                     sub	ecx, eax
  40f23d:	ff 24 85 48 f2 40 00      jmp	dword [eax*4+0040F248h]
  40f244:	ff 24 8d 40 f3 40 00     >jmp	dword [ecx*4+0040F340h]
     ...

40f3a0 <no name>:
  40f3a0:	55                        push	ebp
  40f3a1:	8b ec                     mov	ebp, esp
  40f3a3:	57                        push	edi
  40f3a4:	56                        push	esi
  40f3a5:	8b 75 0c                  mov	esi, [ebp+0Ch]
  40f3a8:	8b 4d 10                  mov	ecx, [ebp+10h]
  40f3ab:	8b 7d 08                  mov	edi, [ebp+08h]
  40f3ae:	8b c1                     mov	eax, ecx
  40f3b0:	8b d1                     mov	edx, ecx
  40f3b2:	03 c6                     add	eax, esi
  40f3b4:	3b fe                     cmp	edi, esi
  40f3b6:	76 08                     jbe	40f3c0
  40f3b8:	3b f8                     cmp	edi, eax
  40f3ba:	0f 82 78 01 00 00         jb	40f538
  40f3c0:	f7 c7 03 00 00 00        >test	edi, 00000003h
  40f3c6:	75 14                     jnz	40f3dc
  40f3c8:	c1 e9 02                  shr	ecx, 02h
  40f3cb:	83 e2 03                  and	edx, 03h
  40f3ce:	83 f9 08                  cmp	ecx, 08h
  40f3d1:	72 29                     jb	40f3fc
  40f3d3:	f3 a5                     rep movsd
  40f3d5:	ff 24 95 e8 f4 40 00      jmp	dword [edx*4+0040F4E8h]
  40f3dc:	8b c7                    >mov	eax, edi
  40f3de:	ba 03 00 00 00            mov	edx, 00000003h
  40f3e3:	83 e9 04                  sub	ecx, 04h
  40f3e6:	72 0c                     jb	40f3f4
  40f3e8:	83 e0 03                  and	eax, 03h
  40f3eb:	03 c8                     add	ecx, eax
  40f3ed:	ff 24 85 00 f4 40 00      jmp	dword [eax*4+0040F400h]
  40f3f4:	ff 24 8d f8 f4 40 00     >jmp	dword [ecx*4+0040F4F8h]
     ...
  40f3fc:	ff 24 8d 7c f4 40 00     >jmp	dword [ecx*4+0040F47Ch]
     ...
  40f538:	8d 74 31 fc              >lea	esi, [ecx+esi*1-04h]
  40f53c:	8d 7c 39 fc               lea	edi, [ecx+edi*1-04h]
  40f540:	f7 c7 03 00 00 00         test	edi, 00000003h
  40f546:	75 24                     jnz	40f56c
  40f548:	c1 e9 02                  shr	ecx, 02h
  40f54b:	83 e2 03                  and	edx, 03h
  40f54e:	83 f9 08                  cmp	ecx, 08h
  40f551:	72 0d                     jb	40f560
  40f553:	fd                        std
  40f554:	f3 a5                     rep movsd
  40f556:	fc                        cld
  40f557:	ff 24 95 80 f6 40 00      jmp	dword [edx*4+0040F680h]
     ...
  40f560:	f7 d9                    >neg	ecx
  40f562:	ff 24 8d 30 f6 40 00      jmp	dword [ecx*4+0040F630h]
     ...
  40f56c:	8b c7                    >mov	eax, edi
  40f56e:	ba 03 00 00 00            mov	edx, 00000003h
  40f573:	83 f9 04                  cmp	ecx, 04h
  40f576:	72 0c                     jb	40f584
  40f578:	83 e0 03                  and	eax, 03h
  40f57b:	2b c8                     sub	ecx, eax
  40f57d:	ff 24 85 88 f5 40 00      jmp	dword [eax*4+0040F588h]
  40f584:	ff 24 8d 80 f6 40 00     >jmp	dword [ecx*4+0040F680h]
     ...

40f6e0 <no name>:
  40f6e0:	57                        push	edi
  40f6e1:	8b 7c 24 08               mov	edi, [esp+08h]
  40f6e5:	eb 6a                     jmp	40f751
     ...

40f6f0 <no name>:
  40f6f0:	8b 4c 24 04               mov	ecx, [esp+04h]
  40f6f4:	57                        push	edi
  40f6f5:	f7 c1 03 00 00 00         test	ecx, 00000003h
  40f6fb:	74 0f                     jz	40f70c
  40f6fd:	8a 01                    >mov	al, [ecx]
  40f6ff:	41                        inc	ecx
  40f700:	84 c0                     test	al, al
  40f702:	74 3b                     jz	40f73f
  40f704:	f7 c1 03 00 00 00         test	ecx, 00000003h
  40f70a:	75 f1                     jnz	40f6fd
  40f70c:	8b 01                    >mov	eax, [ecx]
  40f70e:	ba ff fe fe 7e            mov	edx, 7EFEFEFFh
  40f713:	03 d0                     add	edx, eax
  40f715:	83 f0 ff                  xor	eax, FFh
  40f718:	33 c2                     xor	eax, edx
  40f71a:	83 c1 04                  add	ecx, 04h
  40f71d:	a9 00 01 01 81            test	eax, 81010100h
  40f722:	74 e8                     jz	40f70c
  40f724:	8b 41 fc                  mov	eax, [ecx-04h]
  40f727:	84 c0                     test	al, al
  40f729:	74 23                     jz	40f74e
  40f72b:	84 e4                     test	ah, ah
  40f72d:	74 1a                     jz	40f749
  40f72f:	a9 00 00 ff 00            test	eax, 00FF0000h
  40f734:	74 0e                     jz	40f744
  40f736:	a9 00 00 00 ff            test	eax, FF000000h
  40f73b:	74 02                     jz	40f73f
  40f73d:	eb cd                     jmp	40f70c
  40f73f:	8d 79 ff                 >lea	edi, [ecx-01h]
  40f742:	eb 0d                     jmp	40f751
  40f744:	8d 79 fe                 >lea	edi, [ecx-02h]
  40f747:	eb 08                     jmp	40f751
  40f749:	8d 79 fd                 >lea	edi, [ecx-03h]
  40f74c:	eb 03                     jmp	40f751
  40f74e:	8d 79 fc                 >lea	edi, [ecx-04h]
  40f751:	8b 4c 24 0c              >mov	ecx, [esp+0Ch]
  40f755:	f7 c1 03 00 00 00         test	ecx, 00000003h
  40f75b:	74 19                     jz	40f776
  40f75d:	8a 11                    >mov	dl, [ecx]
  40f75f:	41                        inc	ecx
  40f760:	84 d2                     test	dl, dl
  40f762:	74 64                     jz	40f7c8
  40f764:	88 17                     mov	[edi], dl
  40f766:	47                        inc	edi
  40f767:	f7 c1 03 00 00 00         test	ecx, 00000003h
  40f76d:	75 ee                     jnz	40f75d
  40f76f:	eb 05                     jmp	40f776
  40f771:	89 17                    >mov	[edi], edx
  40f773:	83 c7 04                  add	edi, 04h
  40f776:	ba ff fe fe 7e           >mov	edx, 7EFEFEFFh
  40f77b:	8b 01                     mov	eax, [ecx]
  40f77d:	03 d0                     add	edx, eax
  40f77f:	83 f0 ff                  xor	eax, FFh
  40f782:	33 c2                     xor	eax, edx
  40f784:	8b 11                     mov	edx, [ecx]
  40f786:	83 c1 04                  add	ecx, 04h
  40f789:	a9 00 01 01 81            test	eax, 81010100h
  40f78e:	74 e1                     jz	40f771
  40f790:	84 d2                     test	dl, dl
  40f792:	74 34                     jz	40f7c8
  40f794:	84 f6                     test	dh, dh
  40f796:	74 27                     jz	40f7bf
  40f798:	f7 c2 00 00 ff 00         test	edx, 00FF0000h
  40f79e:	74 12                     jz	40f7b2
  40f7a0:	f7 c2 00 00 00 ff         test	edx, FF000000h
  40f7a6:	74 02                     jz	40f7aa
  40f7a8:	eb c7                     jmp	40f771
  40f7aa:	89 17                    >mov	[edi], edx
  40f7ac:	8b 44 24 08               mov	eax, [esp+08h]
  40f7b0:	5f                        pop	edi
  40f7b1:	c3                        ret
  40f7b2:	66 89 17                 >mov	[edi], dx
  40f7b5:	8b 44 24 08               mov	eax, [esp+08h]
  40f7b9:	c6 47 02 00               mov	byte [edi+02h], 00h
  40f7bd:	5f                        pop	edi
  40f7be:	c3                        ret
  40f7bf:	66 89 17                 >mov	[edi], dx
  40f7c2:	8b 44 24 08               mov	eax, [esp+08h]
  40f7c6:	5f                        pop	edi
  40f7c7:	c3                        ret
  40f7c8:	88 17                    >mov	[edi], dl
  40f7ca:	8b 44 24 08               mov	eax, [esp+08h]
  40f7ce:	5f                        pop	edi
  40f7cf:	c3                        ret
     ...

40fbc0 <no name>:
  40fbc0:	8b 4c 24 08               mov	ecx, [esp+08h]
  40fbc4:	57                        push	edi
  40fbc5:	53                        push	ebx
  40fbc6:	56                        push	esi
  40fbc7:	8a 11                     mov	dl, [ecx]
  40fbc9:	8b 7c 24 10               mov	edi, [esp+10h]
  40fbcd:	84 d2                     test	dl, dl
  40fbcf:	74 69                     jz	40fc3a
  40fbd1:	8a 71 01                  mov	dh, [ecx+01h]
  40fbd4:	84 f6                     test	dh, dh
  40fbd6:	74 4f                     jz	40fc27
  40fbd8:	8b f7                    >mov	esi, edi
  40fbda:	8b 4c 24 14               mov	ecx, [esp+14h]
  40fbde:	8a 07                     mov	al, [edi]
  40fbe0:	46                        inc	esi
  40fbe1:	38 d0                     cmp	al, dl
  40fbe3:	74 15                     jz	40fbfa
  40fbe5:	84 c0                     test	al, al
  40fbe7:	74 0b                     jz	40fbf4
  40fbe9:	8a 06                    >mov	al, [esi]
  40fbeb:	46                        inc	esi
  40fbec:	38 d0                    >cmp	al, dl
  40fbee:	74 0a                     jz	40fbfa
  40fbf0:	84 c0                     test	al, al
  40fbf2:	75 f5                     jnz	40fbe9
  40fbf4:	5e                       >pop	esi
  40fbf5:	5b                        pop	ebx
  40fbf6:	5f                        pop	edi
  40fbf7:	33 c0                     xor	eax, eax
  40fbf9:	c3                        ret
  40fbfa:	8a 06                    >mov	al, [esi]
  40fbfc:	46                        inc	esi
  40fbfd:	38 f0                     cmp	al, dh
  40fbff:	75 eb                     jnz	40fbec
  40fc01:	8d 7e ff                  lea	edi, [esi-01h]
  40fc04:	8a 61 02                 >mov	ah, [ecx+02h]
  40fc07:	84 e4                     test	ah, ah
  40fc09:	74 28                     jz	40fc33
  40fc0b:	8a 06                     mov	al, [esi]
  40fc0d:	83 c6 02                  add	esi, 02h
  40fc10:	38 e0                     cmp	al, ah
  40fc12:	75 c4                     jnz	40fbd8
  40fc14:	8a 41 03                  mov	al, [ecx+03h]
  40fc17:	84 c0                     test	al, al
  40fc19:	74 18                     jz	40fc33
  40fc1b:	8a 66 ff                  mov	ah, [esi-01h]
  40fc1e:	83 c1 02                  add	ecx, 02h
  40fc21:	38 e0                     cmp	al, ah
  40fc23:	74 df                     jz	40fc04
  40fc25:	eb b1                     jmp	40fbd8
  40fc27:	33 c0                    >xor	eax, eax
  40fc29:	5e                        pop	esi
  40fc2a:	5b                        pop	ebx
  40fc2b:	5f                        pop	edi
  40fc2c:	8a c2                     mov	al, dl
  40fc2e:	e9 c3 44 00 00            jmp	4140f6
  40fc33:	8d 47 ff                 >lea	eax, [edi-01h]
  40fc36:	5e                        pop	esi
  40fc37:	5b                        pop	ebx
  40fc38:	5f                        pop	edi
  40fc39:	c3                        ret
  40fc3a:	8b c7                    >mov	eax, edi
  40fc3c:	5e                        pop	esi
  40fc3d:	5b                        pop	ebx
  40fc3e:	5f                        pop	edi
  40fc3f:	c3                        ret

40fc40 <no name>:
  40fc40:	55                        push	ebp
  40fc41:	8b ec                     mov	ebp, esp
  40fc43:	57                        push	edi
  40fc44:	8b 7d 08                  mov	edi, [ebp+08h]
  40fc47:	33 c0                     xor	eax, eax
  40fc49:	83 c9 ff                  or	ecx, FFh
  40fc4c:	f2 ae                     repne scasb
  40fc4e:	41                        inc	ecx
  40fc4f:	f7 d9                     neg	ecx
  40fc51:	4f                        dec	edi
  40fc52:	8a 45 0c                  mov	al, [ebp+0Ch]
  40fc55:	fd                        std
  40fc56:	f2 ae                     repne scasb
  40fc58:	47                        inc	edi
  40fc59:	38 07                     cmp	[edi], al
  40fc5b:	74 04                     jz	40fc61
  40fc5d:	33 c0                     xor	eax, eax
  40fc5f:	eb 02                     jmp	40fc63
  40fc61:	8b c7                    >mov	eax, edi
  40fc63:	fc                       >cld
  40fc64:	5f                        pop	edi
  40fc65:	c9                        leave
  40fc66:	c3                        ret
     ...

40ff6a <no name>:
  40ff6a:	55                        push	ebp
  40ff6b:	8b ec                     mov	ebp, esp
  40ff6d:	83 ec 20                  sub	esp, 20h
  40ff70:	8b 45 08                  mov	eax, [ebp+08h]
  40ff73:	56                        push	esi
  40ff74:	57                        push	edi
  40ff75:	6a 08                     push	dword 00000008h
  40ff77:	59                        pop	ecx
  40ff78:	be e8 41 45 00            mov	esi, 004541E8h
  40ff7d:	8d 7d e0                  lea	edi, [ebp-20h]
  40ff80:	f3 a5                     rep movsd
  40ff82:	89 45 f8                  mov	[ebp-08h], eax
  40ff85:	8b 45 0c                  mov	eax, [ebp+0Ch]
  40ff88:	89 45 fc                  mov	[ebp-04h], eax
  40ff8b:	8d 45 f4                  lea	eax, [ebp-0Ch]
  40ff8e:	50                        push	eax
  40ff8f:	ff 75 f0                  push	dword [ebp-10h]
  40ff92:	ff 75 e4                  push	dword [ebp-1Ch]
  40ff95:	ff 75 e0                  push	dword [ebp-20h]
  40ff98:	ff 15 0c f2 44 00         call	dword [0044F20Ch]	; <RaiseException>
  40ff9e:	5f                        pop	edi
  40ff9f:	5e                        pop	esi
  40ffa0:	c9                        leave
  40ffa1:	c2 08 00                  ret	0008h

40ffa4 <no name>:
  40ffa4:	6a 00                     push	dword 00000000h
  40ffa6:	ff 74 24 10               push	dword [esp+10h]
  40ffaa:	ff 74 24 10               push	dword [esp+10h]
  40ffae:	ff 74 24 10               push	dword [esp+10h]
  40ffb2:	e8 04 00 00 00            call	40ffbb
  40ffb7:	83 c4 10                  add	esp, 10h
  40ffba:	c3                        ret

40ffbb <no name>:
  40ffbb:	55                        push	ebp
  40ffbc:	8b ec                     mov	ebp, esp
  40ffbe:	83 ec 0c                  sub	esp, 0Ch
  40ffc1:	53                        push	ebx
  40ffc2:	83 65 f8 00               and	dword [ebp-08h], 00h
  40ffc6:	56                        push	esi
  40ffc7:	57                        push	edi
  40ffc8:	8b 7d 08                  mov	edi, [ebp+08h]
  40ffcb:	8a 1f                     mov	bl, [edi]
  40ffcd:	8d 77 01                  lea	esi, [edi+01h]
  40ffd0:	89 75 fc                  mov	[ebp-04h], esi
  40ffd3:	83 3d 9c 4f 46 00 01     >cmp	dword [00464F9Ch], 01h
  40ffda:	7e 0f                     jle	40ffeb
  40ffdc:	0f b6 c3                  movzx	eax, bl
  40ffdf:	6a 08                     push	dword 00000008h
  40ffe1:	50                        push	eax
  40ffe2:	e8 6c 43 00 00            call	414353
  40ffe7:	59                        pop	ecx
  40ffe8:	59                        pop	ecx
  40ffe9:	eb 0f                     jmp	40fffa
  40ffeb:	8b 0d 90 4d 46 00        >mov	ecx, [00464D90h]
  40fff1:	0f b6 c3                  movzx	eax, bl
  40fff4:	8a 04 41                  mov	al, [ecx+eax*2]
  40fff7:	83 e0 08                  and	eax, 08h
  40fffa:	85 c0                    >test	eax, eax
  40fffc:	74 05                     jz	410003
  40fffe:	8a 1e                     mov	bl, [esi]
  410000:	46                        inc	esi
  410001:	eb d0                     jmp	40ffd3
  410003:	80 fb 2d                 >cmp	bl, 2Dh
  410006:	89 75 fc                  mov	[ebp-04h], esi
  410009:	75 06                     jnz	410011
  41000b:	83 4d 14 02               or	dword [ebp+14h], 02h
  41000f:	eb 05                     jmp	410016
  410011:	80 fb 2b                 >cmp	bl, 2Bh
  410014:	75 06                     jnz	41001c
  410016:	8a 1e                    >mov	bl, [esi]
  410018:	46                        inc	esi
  410019:	89 75 fc                  mov	[ebp-04h], esi
  41001c:	8b 45 10                 >mov	eax, [ebp+10h]
  41001f:	85 c0                     test	eax, eax
  410021:	0f 8c 89 01 00 00         jl	4101b0
  410027:	83 f8 01                  cmp	eax, 01h
  41002a:	0f 84 80 01 00 00         jz	4101b0
  410030:	83 f8 24                  cmp	eax, 24h
  410033:	0f 8f 77 01 00 00         jg	4101b0
  410039:	6a 10                     push	dword 00000010h
  41003b:	85 c0                     test	eax, eax
  41003d:	59                        pop	ecx
  41003e:	75 24                     jnz	410064
  410040:	80 fb 30                  cmp	bl, 30h
  410043:	74 09                     jz	41004e
  410045:	c7 45 10 0a 00 00 00      mov	dword [ebp+10h], 0000000Ah
  41004c:	eb 32                     jmp	410080
  41004e:	8a 06                    >mov	al, [esi]
  410050:	3c 78                     cmp	al, 78h
  410052:	74 0d                     jz	410061
  410054:	3c 58                     cmp	al, 58h
  410056:	74 09                     jz	410061
  410058:	c7 45 10 08 00 00 00      mov	dword [ebp+10h], 00000008h
  41005f:	eb 1f                     jmp	410080
  410061:	89 4d 10                 >mov	[ebp+10h], ecx
  410064:	39 4d 10                 >cmp	[ebp+10h], ecx
  410067:	75 17                     jnz	410080
  410069:	80 fb 30                  cmp	bl, 30h
  41006c:	75 12                     jnz	410080
  41006e:	8a 06                     mov	al, [esi]
  410070:	3c 78                     cmp	al, 78h
  410072:	74 04                     jz	410078
  410074:	3c 58                     cmp	al, 58h
  410076:	75 08                     jnz	410080
  410078:	8a 5e 01                 >mov	bl, [esi+01h]
  41007b:	46                        inc	esi
  41007c:	46                        inc	esi
  41007d:	89 75 fc                  mov	[ebp-04h], esi
  410080:	83 c8 ff                 >or	eax, FFh
  410083:	33 d2                     xor	edx, edx
  410085:	f7 75 10                  div	dword [ebp+10h]
  410088:	bf 03 01 00 00            mov	edi, 00000103h
  41008d:	89 45 f4                  mov	[ebp-0Ch], eax
  410090:	83 3d 9c 4f 46 00 01     >cmp	dword [00464F9Ch], 01h
  410097:	0f b6 f3                  movzx	esi, bl
  41009a:	7e 0c                     jle	4100a8
  41009c:	6a 04                     push	dword 00000004h
  41009e:	56                        push	esi
  41009f:	e8 af 42 00 00            call	414353
  4100a4:	59                        pop	ecx
  4100a5:	59                        pop	ecx
  4100a6:	eb 0b                     jmp	4100b3
  4100a8:	a1 90 4d 46 00           >mov	eax, [464D90h]
  4100ad:	8a 04 70                  mov	al, [eax+esi*2]
  4100b0:	83 e0 04                  and	eax, 04h
  4100b3:	85 c0                    >test	eax, eax
  4100b5:	74 08                     jz	4100bf
  4100b7:	0f be cb                  movsx	ecx, bl
  4100ba:	83 e9 30                  sub	ecx, 30h
  4100bd:	eb 32                     jmp	4100f1
  4100bf:	83 3d 9c 4f 46 00 01     >cmp	dword [00464F9Ch], 01h
  4100c6:	7e 0b                     jle	4100d3
  4100c8:	57                        push	edi
  4100c9:	56                        push	esi
  4100ca:	e8 84 42 00 00            call	414353
  4100cf:	59                        pop	ecx
  4100d0:	59                        pop	ecx
  4100d1:	eb 0b                     jmp	4100de
  4100d3:	a1 90 4d 46 00           >mov	eax, [464D90h]
  4100d8:	66 8b 04 70               mov	ax, [eax+esi*2]
  4100dc:	23 c7                     and	eax, edi
  4100de:	85 c0                    >test	eax, eax
  4100e0:	74 4a                     jz	41012c
  4100e2:	0f be c3                  movsx	eax, bl
  4100e5:	50                        push	eax
  4100e6:	e8 2d 41 00 00            call	414218
  4100eb:	59                        pop	ecx
  4100ec:	8b c8                     mov	ecx, eax
  4100ee:	83 e9 37                  sub	ecx, 37h
  4100f1:	3b 4d 10                 >cmp	ecx, [ebp+10h]
  4100f4:	73 36                     jae	41012c
  4100f6:	8b 75 f8                  mov	esi, [ebp-08h]
  4100f9:	83 4d 14 08               or	dword [ebp+14h], 08h
  4100fd:	3b 75 f4                  cmp	esi, [ebp-0Ch]
  410100:	72 14                     jb	410116
  410102:	75 0c                     jnz	410110
  410104:	83 c8 ff                  or	eax, FFh
  410107:	33 d2                     xor	edx, edx
  410109:	f7 75 10                  div	dword [ebp+10h]
  41010c:	3b ca                     cmp	ecx, edx
  41010e:	76 06                     jbe	410116
  410110:	83 4d 14 04              >or	dword [ebp+14h], 04h
  410114:	eb 09                     jmp	41011f
  410116:	0f af 75 10              >imul	esi, [ebp+10h]
  41011a:	03 f1                     add	esi, ecx
  41011c:	89 75 f8                  mov	[ebp-08h], esi
  41011f:	8b 45 fc                 >mov	eax, [ebp-04h]
  410122:	ff 45 fc                  inc	dword [ebp-04h]
  410125:	8a 18                     mov	bl, [eax]
  410127:	e9 64 ff ff ff            jmp	410090
  41012c:	8b 45 14                 >mov	eax, [ebp+14h]
  41012f:	ff 4d fc                  dec	dword [ebp-04h]
  410132:	8b 5d 0c                  mov	ebx, [ebp+0Ch]
  410135:	a8 08                     test	al, 08h
  410137:	75 10                     jnz	410149
  410139:	85 db                     test	ebx, ebx
  41013b:	74 06                     jz	410143
  41013d:	8b 45 08                  mov	eax, [ebp+08h]
  410140:	89 45 fc                  mov	[ebp-04h], eax
  410143:	83 65 f8 00              >and	dword [ebp-08h], 00h
  410147:	eb 4b                     jmp	410194
  410149:	a8 04                    >test	al, 04h
  41014b:	be ff ff ff 7f            mov	esi, 7FFFFFFFh
  410150:	75 1b                     jnz	41016d
  410152:	a8 01                     test	al, 01h
  410154:	75 3e                     jnz	410194
  410156:	83 e0 02                  and	eax, 02h
  410159:	74 09                     jz	410164
  41015b:	81 7d f8 00 00 00 80      cmp	dword [ebp-08h], 80000000h
  410162:	77 09                     ja	41016d
  410164:	85 c0                    >test	eax, eax
  410166:	75 2c                     jnz	410194
  410168:	39 75 f8                  cmp	[ebp-08h], esi
  41016b:	76 27                     jbe	410194
  41016d:	e8 d8 00 00 00           >call	41024a
  410172:	f6 45 14 01               test	byte [ebp+14h], 01h
  410176:	c7 00 22 00 00 00         mov	dword [eax], 00000022h
  41017c:	74 06                     jz	410184
  41017e:	83 4d f8 ff               or	dword [ebp-08h], FFh
  410182:	eb 10                     jmp	410194
  410184:	8b 45 14                 >mov	eax, [ebp+14h]
  410187:	24 02                     and	al, 02h
  410189:	f6 d8                     neg	al
  41018b:	1b c0                     sbb	eax, eax
  41018d:	f7 d8                     neg	eax
  41018f:	03 c6                     add	eax, esi
  410191:	89 45 f8                  mov	[ebp-08h], eax
  410194:	85 db                    >test	ebx, ebx
  410196:	74 05                     jz	41019d
  410198:	8b 45 fc                  mov	eax, [ebp-04h]
  41019b:	89 03                     mov	[ebx], eax
  41019d:	f6 45 14 02              >test	byte [ebp+14h], 02h
  4101a1:	74 08                     jz	4101ab
  4101a3:	8b 45 f8                  mov	eax, [ebp-08h]
  4101a6:	f7 d8                     neg	eax
  4101a8:	89 45 f8                  mov	[ebp-08h], eax
  4101ab:	8b 45 f8                 >mov	eax, [ebp-08h]
  4101ae:	eb 0b                     jmp	4101bb
  4101b0:	8b 45 0c                 >mov	eax, [ebp+0Ch]
  4101b3:	85 c0                     test	eax, eax
  4101b5:	74 02                     jz	4101b9
  4101b7:	89 38                     mov	[eax], edi
  4101b9:	33 c0                    >xor	eax, eax
  4101bb:	5f                       >pop	edi
  4101bc:	5e                        pop	esi
  4101bd:	5b                        pop	ebx
  4101be:	c9                        leave
  4101bf:	c3                        ret
     ...

41024a <no name>:
  41024a:	e8 b2 33 00 00            call	413601
  41024f:	83 c0 08                  add	eax, 08h
  410252:	c3                        ret
     ...

4102c2 <no name>:
  4102c2:	55                        push	ebp
  4102c3:	8b ec                     mov	ebp, esp
  4102c5:	6a ff                     push	dword FFFFFFFFh
  4102c7:	68 08 42 45 00            push	dword 00454208h
  4102cc:	68 50 63 41 00            push	dword 00416350h
  4102d1:	64 a1 00 00 00 00         mov	eax, [fs:0000h]
  4102d7:	50                        push	eax
  4102d8:	64 89 25 00 00 00 00      mov	[fs:00000000h], esp
  4102df:	83 ec 18                  sub	esp, 18h
  4102e2:	53                        push	ebx
  4102e3:	56                        push	esi
  4102e4:	57                        push	edi
  4102e5:	8b 75 08                  mov	esi, [ebp+08h]
  4102e8:	85 f6                     test	esi, esi
  4102ea:	0f 84 ac 00 00 00         jz	41039c
  4102f0:	a1 08 c8 46 00            mov	eax, [46C808h]
  4102f5:	83 f8 03                  cmp	eax, 03h
  4102f8:	75 3b                     jnz	410335
  4102fa:	6a 09                     push	dword 00000009h
  4102fc:	e8 a6 38 00 00            call	413ba7
  410301:	59                        pop	ecx
  410302:	83 65 fc 00               and	dword [ebp-04h], 00h
  410306:	56                        push	esi
  410307:	e8 ef 48 00 00            call	414bfb
  41030c:	59                        pop	ecx
  41030d:	89 45 e4                  mov	[ebp-1Ch], eax
  410310:	85 c0                     test	eax, eax
  410312:	74 09                     jz	41031d
  410314:	56                        push	esi
  410315:	50                        push	eax
  410316:	e8 0b 49 00 00            call	414c26
  41031b:	59                        pop	ecx
  41031c:	59                        pop	ecx
  41031d:	83 4d fc ff              >or	dword [ebp-04h], FFh
  410321:	e8 06 00 00 00            call	41032c
  410326:	83 7d e4 00               cmp	dword [ebp-1Ch], 00h
  41032a:	eb 51                     jmp	41037d

41032c <no name>:
  41032c:	6a 09                     push	dword 00000009h
  41032e:	e8 d5 38 00 00            call	413c08
  410333:	59                        pop	ecx
  410334:	c3                        ret
  410335:	83 f8 02                 >cmp	eax, 02h
  410338:	75 53                     jnz	41038d
  41033a:	6a 09                     push	dword 00000009h
  41033c:	e8 66 38 00 00            call	413ba7
  410341:	59                        pop	ecx
  410342:	c7 45 fc 01 00 00 00      mov	dword [ebp-04h], 00000001h
  410349:	8d 45 e0                  lea	eax, [ebp-20h]
  41034c:	50                        push	eax
  41034d:	8d 45 d8                  lea	eax, [ebp-28h]
  410350:	50                        push	eax
  410351:	56                        push	esi
  410352:	e8 21 5a 00 00            call	415d78
  410357:	83 c4 0c                  add	esp, 0Ch
  41035a:	89 45 dc                  mov	[ebp-24h], eax
  41035d:	85 c0                     test	eax, eax
  41035f:	74 0f                     jz	410370
  410361:	50                        push	eax
  410362:	ff 75 e0                  push	dword [ebp-20h]
  410365:	ff 75 d8                  push	dword [ebp-28h]
  410368:	e8 62 5a 00 00            call	415dcf
  41036d:	83 c4 0c                  add	esp, 0Ch
  410370:	83 4d fc ff              >or	dword [ebp-04h], FFh
  410374:	e8 0b 00 00 00            call	410384
  410379:	83 7d dc 00               cmp	dword [ebp-24h], 00h
  41037d:	75 1d                    >jnz	41039c
  41037f:	ff 75 08                  push	dword [ebp+08h]
  410382:	eb 0a                     jmp	41038e

410384 <no name>:
  410384:	6a 09                     push	dword 00000009h
  410386:	e8 7d 38 00 00            call	413c08
  41038b:	59                        pop	ecx
  41038c:	c3                        ret
  41038d:	56                       >push	esi
  41038e:	6a 00                    >push	dword 00000000h
  410390:	ff 35 04 c8 46 00         push	dword [0046C804h]
  410396:	ff 15 14 f2 44 00         call	dword [0044F214h]	; <HeapFree>
  41039c:	8b 4d f0                 >mov	ecx, [ebp-10h]
  41039f:	64 89 0d 00 00 00 00      mov	[fs:00000000h], ecx
  4103a6:	5f                        pop	edi
  4103a7:	5e                        pop	esi
  4103a8:	5b                        pop	ebx
  4103a9:	c9                        leave
  4103aa:	c3                        ret
     ...

410543 <no name>:
  410543:	55                        push	ebp
  410544:	8b ec                     mov	ebp, esp
  410546:	6a ff                     push	dword FFFFFFFFh
  410548:	68 20 42 45 00            push	dword 00454220h
  41054d:	68 50 63 41 00            push	dword 00416350h
  410552:	64 a1 00 00 00 00         mov	eax, [fs:0000h]
  410558:	50                        push	eax
  410559:	64 89 25 00 00 00 00      mov	[fs:00000000h], esp
  410560:	83 ec 58                  sub	esp, 58h
  410563:	53                        push	ebx
  410564:	56                        push	esi
  410565:	57                        push	edi
  410566:	89 65 e8                  mov	[ebp-18h], esp
  410569:	ff 15 dc f3 44 00         call	dword [0044F3DCh]	; <GetVersion>
  41056f:	33 d2                     xor	edx, edx
  410571:	8a d4                     mov	dl, ah
  410573:	89 15 80 ad 46 00         mov	[0046AD80h], edx
  410579:	8b c8                     mov	ecx, eax
  41057b:	81 e1 ff 00 00 00         and	ecx, 000000FFh
  410581:	89 0d 7c ad 46 00         mov	[0046AD7Ch], ecx
  410587:	c1 e1 08                  shl	ecx, 08h
  41058a:	03 ca                     add	ecx, edx
  41058c:	89 0d 78 ad 46 00         mov	[0046AD78h], ecx
  410592:	c1 e8 10                  shr	eax, 10h
  410595:	a3 74 ad 46 00            mov	[46AD74h], eax
  41059a:	6a 01                     push	dword 00000001h
  41059c:	e8 3b 44 00 00            call	4149dc
  4105a1:	59                        pop	ecx
  4105a2:	85 c0                     test	eax, eax
  4105a4:	75 08                     jnz	4105ae
  4105a6:	6a 1c                     push	dword 0000001Ch
  4105a8:	e8 c3 00 00 00            call	410670
  4105ad:	59                        pop	ecx
  4105ae:	e8 c9 2f 00 00           >call	41357c
  4105b3:	85 c0                     test	eax, eax
  4105b5:	75 08                     jnz	4105bf
  4105b7:	6a 10                     push	dword 00000010h
  4105b9:	e8 b2 00 00 00            call	410670
  4105be:	59                        pop	ecx
  4105bf:	33 f6                    >xor	esi, esi
  4105c1:	89 75 fc                  mov	[ebp-04h], esi
  4105c4:	e8 67 64 00 00            call	416a30
  4105c9:	ff 15 1c f2 44 00         call	dword [0044F21Ch]	; <GetCommandLineA>
  4105cf:	a3 58 ca 46 00            mov	[46CA58h], eax
  4105d4:	e8 25 63 00 00            call	4168fe
  4105d9:	a3 64 ad 46 00            mov	[46AD64h], eax
  4105de:	e8 ce 60 00 00            call	4166b1
  4105e3:	e8 10 60 00 00            call	4165f8
  4105e8:	e8 c1 04 00 00            call	410aae
  4105ed:	89 75 d0                  mov	[ebp-30h], esi
  4105f0:	8d 45 a4                  lea	eax, [ebp-5Ch]
  4105f3:	50                        push	eax
  4105f4:	ff 15 18 f2 44 00         call	dword [0044F218h]	; <GetStartupInfoA>
  4105fa:	e8 a1 5f 00 00            call	4165a0
  4105ff:	89 45 9c                  mov	[ebp-64h], eax
  410602:	f6 45 d0 01               test	byte [ebp-30h], 01h
  410606:	74 06                     jz	41060e
  410608:	0f b7 45 d4               movzx	eax, word [ebp-2Ch]
  41060c:	eb 03                     jmp	410611
  41060e:	6a 0a                    >push	dword 0000000Ah
  410610:	58                        pop	eax
  410611:	50                       >push	eax
  410612:	ff 75 9c                  push	dword [ebp-64h]
  410615:	56                        push	esi
  410616:	56                        push	esi
  410617:	ff 15 f8 f3 44 00         call	dword [0044F3F8h]	; <GetModuleHandleA>
  41061d:	50                        push	eax
  41061e:	e8 14 e9 01 00            call	42ef37
  410623:	89 45 a0                  mov	[ebp-60h], eax
  410626:	50                        push	eax
  410627:	e8 af 04 00 00            call	410adb
  41062c:	8b 45 ec                  mov	eax, [ebp-14h]
  41062f:	8b 08                     mov	ecx, [eax]
  410631:	8b 09                     mov	ecx, [ecx]
  410633:	89 4d 98                  mov	[ebp-68h], ecx
  410636:	50                        push	eax
  410637:	51                        push	ecx
  410638:	e8 eb 5d 00 00            call	416428
  41063d:	59                        pop	ecx
  41063e:	59                        pop	ecx
  41063f:	c3                        ret
     ...

41064b <no name>:
  41064b:	83 3d 6c ad 46 00 01      cmp	dword [0046AD6Ch], 01h
  410652:	75 05                     jnz	410659
  410654:	e8 e7 65 00 00            call	416c40
  410659:	ff 74 24 04              >push	dword [esp+04h]
  41065d:	e8 17 66 00 00            call	416c79
  410662:	68 ff 00 00 00            push	dword 000000FFh
  410667:	ff 15 fc 4a 46 00         call	dword [00464AFCh]
  41066d:	59                        pop	ecx
  41066e:	59                        pop	ecx
  41066f:	c3                        ret

410670 <no name>:
  410670:	83 3d 6c ad 46 00 01      cmp	dword [0046AD6Ch], 01h
  410677:	75 05                     jnz	41067e
  410679:	e8 c2 65 00 00            call	416c40
  41067e:	ff 74 24 04              >push	dword [esp+04h]
  410682:	e8 f2 65 00 00            call	416c79
  410687:	59                        pop	ecx
  410688:	68 ff 00 00 00            push	dword 000000FFh
  41068d:	ff 15 20 f2 44 00         call	dword [0044F220h]	; <ExitProcess>
  410693:	c3                        ret
     ...

41069f <no name>:
  41069f:	55                        push	ebp
  4106a0:	8b ec                     mov	ebp, esp
  4106a2:	83 3d 2c c8 46 00 00      cmp	dword [0046C82Ch], 00h
  4106a9:	53                        push	ebx
  4106aa:	56                        push	esi
  4106ab:	75 0f                     jnz	4106bc
  4106ad:	ff 75 0c                  push	dword [ebp+0Ch]
  4106b0:	ff 75 08                  push	dword [ebp+08h]
  4106b3:	e8 38 3a 00 00            call	4140f0
  4106b8:	59                        pop	ecx
  4106b9:	59                        pop	ecx
  4106ba:	eb 76                     jmp	410732
  4106bc:	6a 19                    >push	dword 00000019h
  4106be:	e8 e4 34 00 00            call	413ba7
  4106c3:	8b 75 08                  mov	esi, [ebp+08h]
  4106c6:	59                        pop	ecx
  4106c7:	66 0f b6 1e              >movzx	bx, byte [esi]
  4106cb:	66 85 db                  test	bx, bx
  4106ce:	74 4a                     jz	41071a
  4106d0:	0f b6 c3                  movzx	eax, bl
  4106d3:	f6 80 41 c9 46 00 04      test	byte [eax+0046C941h], 04h
  4106da:	74 1a                     jz	4106f6
  4106dc:	8a 46 01                  mov	al, [esi+01h]
  4106df:	46                        inc	esi
  4106e0:	84 c0                     test	al, al
  4106e2:	74 1d                     jz	410701
  4106e4:	0f b7 cb                  movzx	ecx, bx
  4106e7:	0f b6 c0                  movzx	eax, al
  4106ea:	c1 e1 08                  shl	ecx, 08h
  4106ed:	0b c8                     or	ecx, eax
  4106ef:	39 4d 0c                  cmp	[ebp+0Ch], ecx
  4106f2:	74 19                     jz	41070d
  4106f4:	eb 08                     jmp	4106fe
  4106f6:	0f b7 c3                 >movzx	eax, bx
  4106f9:	39 45 0c                  cmp	[ebp+0Ch], eax
  4106fc:	74 1c                     jz	41071a
  4106fe:	46                       >inc	esi
  4106ff:	eb c6                     jmp	4106c7
  410701:	6a 19                    >push	dword 00000019h
  410703:	e8 00 35 00 00            call	413c08
  410708:	59                        pop	ecx
  410709:	33 c0                     xor	eax, eax
  41070b:	eb 25                     jmp	410732
  41070d:	6a 19                    >push	dword 00000019h
  41070f:	e8 f4 34 00 00            call	413c08
  410714:	59                        pop	ecx
  410715:	8d 46 ff                  lea	eax, [esi-01h]
  410718:	eb 18                     jmp	410732
  41071a:	6a 19                    >push	dword 00000019h
  41071c:	e8 e7 34 00 00            call	413c08
  410721:	8b 45 0c                  mov	eax, [ebp+0Ch]
  410724:	59                        pop	ecx
  410725:	0f b7 cb                  movzx	ecx, bx
  410728:	2b c1                     sub	eax, ecx
  41072a:	f7 d8                     neg	eax
  41072c:	1b c0                     sbb	eax, eax
  41072e:	f7 d0                     not	eax
  410730:	23 c6                     and	eax, esi
  410732:	5e                       >pop	esi
  410733:	5b                        pop	ebx
  410734:	5d                        pop	ebp
  410735:	c3                        ret
     ...

410949 <no name>:
  410949:	ff 35 70 af 46 00         push	dword [0046AF70h]
  41094f:	ff 74 24 08               push	dword [esp+08h]
  410953:	e8 03 00 00 00            call	41095b
  410958:	59                        pop	ecx
  410959:	59                        pop	ecx
  41095a:	c3                        ret

41095b <no name>:
  41095b:	83 7c 24 04 e0            cmp	dword [esp+04h], E0h
  410960:	77 22                     ja	410984
  410962:	ff 74 24 04              >push	dword [esp+04h]
  410966:	e8 1c 00 00 00            call	410987
  41096b:	85 c0                     test	eax, eax
  41096d:	59                        pop	ecx
  41096e:	75 16                     jnz	410986
  410970:	39 44 24 08               cmp	[esp+08h], eax
  410974:	74 10                     jz	410986
  410976:	ff 74 24 04               push	dword [esp+04h]
  41097a:	e8 1b 65 00 00            call	416e9a
  41097f:	85 c0                     test	eax, eax
  410981:	59                        pop	ecx
  410982:	75 de                     jnz	410962
  410984:	33 c0                    >xor	eax, eax
  410986:	c3                       >ret

410987 <no name>:
  410987:	55                        push	ebp
  410988:	8b ec                     mov	ebp, esp
  41098a:	6a ff                     push	dword FFFFFFFFh
  41098c:	68 30 42 45 00            push	dword 00454230h
  410991:	68 50 63 41 00            push	dword 00416350h
  410996:	64 a1 00 00 00 00         mov	eax, [fs:0000h]
  41099c:	50                        push	eax
  41099d:	64 89 25 00 00 00 00      mov	[fs:00000000h], esp
  4109a4:	83 ec 0c                  sub	esp, 0Ch
  4109a7:	53                        push	ebx
  4109a8:	56                        push	esi
  4109a9:	57                        push	edi
  4109aa:	a1 08 c8 46 00            mov	eax, [46C808h]
  4109af:	83 f8 03                  cmp	eax, 03h
  4109b2:	75 43                     jnz	4109f7
  4109b4:	8b 75 08                  mov	esi, [ebp+08h]
  4109b7:	3b 35 00 c8 46 00         cmp	esi, [0046C800h]
  4109bd:	0f 87 93 00 00 00         ja	410a56
  4109c3:	6a 09                     push	dword 00000009h
  4109c5:	e8 dd 31 00 00            call	413ba7
  4109ca:	59                        pop	ecx
  4109cb:	83 65 fc 00               and	dword [ebp-04h], 00h
  4109cf:	56                        push	esi
  4109d0:	e8 7a 45 00 00            call	414f4f
  4109d5:	59                        pop	ecx
  4109d6:	89 45 e4                  mov	[ebp-1Ch], eax
  4109d9:	83 4d fc ff               or	dword [ebp-04h], FFh
  4109dd:	e8 0c 00 00 00            call	4109ee
  4109e2:	8b 45 e4                  mov	eax, [ebp-1Ch]
  4109e5:	85 c0                     test	eax, eax
  4109e7:	74 6d                     jz	410a56
  4109e9:	e9 86 00 00 00            jmp	410a74

4109ee <no name>:
  4109ee:	6a 09                     push	dword 00000009h
  4109f0:	e8 13 32 00 00            call	413c08
  4109f5:	59                        pop	ecx
  4109f6:	c3                        ret
  4109f7:	83 f8 02                 >cmp	eax, 02h
  4109fa:	75 5a                     jnz	410a56
  4109fc:	8b 45 08                  mov	eax, [ebp+08h]
  4109ff:	85 c0                     test	eax, eax
  410a01:	74 08                     jz	410a0b
  410a03:	8d 70 0f                  lea	esi, [eax+0Fh]
  410a06:	83 e6 f0                  and	esi, F0h
  410a09:	eb 03                     jmp	410a0e
  410a0b:	6a 10                    >push	dword 00000010h
  410a0d:	5e                        pop	esi
  410a0e:	89 75 08                 >mov	[ebp+08h], esi
  410a11:	3b 35 ec 6f 46 00         cmp	esi, [00466FECh]
  410a17:	77 2e                     ja	410a47
  410a19:	6a 09                     push	dword 00000009h
  410a1b:	e8 87 31 00 00            call	413ba7
  410a20:	59                        pop	ecx
  410a21:	c7 45 fc 01 00 00 00      mov	dword [ebp-04h], 00000001h
  410a28:	8b c6                     mov	eax, esi
  410a2a:	c1 e8 04                  shr	eax, 04h
  410a2d:	50                        push	eax
  410a2e:	e8 e1 53 00 00            call	415e14
  410a33:	59                        pop	ecx
  410a34:	89 45 e4                  mov	[ebp-1Ch], eax
  410a37:	83 4d fc ff               or	dword [ebp-04h], FFh
  410a3b:	e8 0d 00 00 00            call	410a4d
  410a40:	8b 45 e4                  mov	eax, [ebp-1Ch]
  410a43:	85 c0                     test	eax, eax
  410a45:	75 2d                     jnz	410a74
  410a47:	56                       >push	esi
  410a48:	eb 1c                     jmp	410a66
     ...

410a4d <no name>:
  410a4d:	6a 09                     push	dword 00000009h
  410a4f:	e8 b4 31 00 00            call	413c08
  410a54:	59                        pop	ecx
  410a55:	c3                        ret
  410a56:	8b 45 08                 >mov	eax, [ebp+08h]
  410a59:	85 c0                     test	eax, eax
  410a5b:	75 03                     jnz	410a60
  410a5d:	6a 01                     push	dword 00000001h
  410a5f:	58                        pop	eax
  410a60:	83 c0 0f                 >add	eax, 0Fh
  410a63:	24 f0                     and	al, F0h
  410a65:	50                        push	eax
  410a66:	6a 00                    >push	dword 00000000h
  410a68:	ff 35 04 c8 46 00         push	dword [0046C804h]
  410a6e:	ff 15 24 f2 44 00         call	dword [0044F224h]	; <HeapAlloc>
  410a74:	8b 4d f0                 >mov	ecx, [ebp-10h]
  410a77:	64 89 0d 00 00 00 00      mov	[fs:00000000h], ecx
  410a7e:	5f                        pop	edi
  410a7f:	5e                        pop	esi
  410a80:	5b                        pop	ebx
  410a81:	c9                        leave
  410a82:	c3                        ret

410a83 <no name>:
  410a83:	56                        push	esi
  410a84:	8b 74 24 08               mov	esi, [esp+08h]
  410a88:	85 f6                     test	esi, esi
  410a8a:	74 1e                     jz	410aaa
  410a8c:	56                        push	esi
  410a8d:	e8 4e e5 ff ff            call	40efe0
  410a92:	40                        inc	eax
  410a93:	50                        push	eax
  410a94:	e8 b0 fe ff ff            call	410949
  410a99:	59                        pop	ecx
  410a9a:	85 c0                     test	eax, eax
  410a9c:	59                        pop	ecx
  410a9d:	74 0b                     jz	410aaa
  410a9f:	56                        push	esi
  410aa0:	50                        push	eax
  410aa1:	e8 3a ec ff ff            call	40f6e0
  410aa6:	59                        pop	ecx
  410aa7:	59                        pop	ecx
  410aa8:	5e                        pop	esi
  410aa9:	c3                        ret
  410aaa:	33 c0                    >xor	eax, eax
  410aac:	5e                        pop	esi
  410aad:	c3                        ret

410aae <no name>:
  410aae:	a1 b0 4a 46 00            mov	eax, [464AB0h]
  410ab3:	85 c0                     test	eax, eax
  410ab5:	74 02                     jz	410ab9
  410ab7:	ff d0                     call	eax
  410ab9:	68 3c 31 46 00           >push	dword 0046313Ch
  410abe:	68 28 31 46 00            push	dword 00463128h
  410ac3:	e8 0a 01 00 00            call	410bd2
  410ac8:	68 24 31 46 00            push	dword 00463124h
  410acd:	68 00 30 46 00            push	dword 00463000h
  410ad2:	e8 fb 00 00 00            call	410bd2
  410ad7:	83 c4 10                  add	esp, 10h
  410ada:	c3                        ret

410adb <no name>:
  410adb:	6a 00                     push	dword 00000000h
  410add:	6a 00                     push	dword 00000000h
  410adf:	ff 74 24 0c               push	dword [esp+0Ch]
  410ae3:	e8 33 00 00 00            call	410b1b
  410ae8:	83 c4 0c                  add	esp, 0Ch
  410aeb:	c3                        ret
     ...

410b1b <no name>:
  410b1b:	57                        push	edi
  410b1c:	e8 9f 00 00 00            call	410bc0
  410b21:	6a 01                     push	dword 00000001h
  410b23:	5f                        pop	edi
  410b24:	39 3d b0 ad 46 00         cmp	[0046ADB0h], edi
  410b2a:	75 11                     jnz	410b3d
  410b2c:	ff 74 24 08               push	dword [esp+08h]
  410b30:	ff 15 54 f3 44 00         call	dword [0044F354h]	; <GetCurrentProcess>
  410b36:	50                        push	eax
  410b37:	ff 15 28 f2 44 00         call	dword [0044F228h]	; <TerminateProcess>
  410b3d:	83 7c 24 0c 00           >cmp	dword [esp+0Ch], 00h
  410b42:	53                        push	ebx
  410b43:	8b 5c 24 14               mov	ebx, [esp+14h]
  410b47:	89 3d ac ad 46 00         mov	[0046ADACh], edi
  410b4d:	88 1d a8 ad 46 00         mov	[0046ADA8h], bl
  410b53:	75 3c                     jnz	410b91
  410b55:	a1 54 ca 46 00            mov	eax, [46CA54h]
  410b5a:	85 c0                     test	eax, eax
  410b5c:	74 22                     jz	410b80
  410b5e:	8b 0d 50 ca 46 00         mov	ecx, [0046CA50h]
  410b64:	56                        push	esi
  410b65:	8d 71 fc                  lea	esi, [ecx-04h]
  410b68:	3b f0                     cmp	esi, eax
  410b6a:	72 13                     jb	410b7f
  410b6c:	8b 06                    >mov	eax, [esi]
  410b6e:	85 c0                     test	eax, eax
  410b70:	74 02                     jz	410b74
  410b72:	ff d0                     call	eax
  410b74:	83 ee 04                 >sub	esi, 04h
  410b77:	3b 35 54 ca 46 00         cmp	esi, [0046CA54h]
  410b7d:	73 ed                     jae	410b6c
  410b7f:	5e                       >pop	esi
  410b80:	68 48 31 46 00           >push	dword 00463148h
  410b85:	68 40 31 46 00            push	dword 00463140h
  410b8a:	e8 43 00 00 00            call	410bd2
  410b8f:	59                        pop	ecx
  410b90:	59                        pop	ecx
  410b91:	68 54 31 46 00           >push	dword 00463154h
  410b96:	68 4c 31 46 00            push	dword 0046314Ch
  410b9b:	e8 32 00 00 00            call	410bd2
  410ba0:	59                        pop	ecx
  410ba1:	59                        pop	ecx
  410ba2:	85 db                     test	ebx, ebx
  410ba4:	5b                        pop	ebx
  410ba5:	74 07                     jz	410bae
  410ba7:	e8 1d 00 00 00            call	410bc9
  410bac:	5f                        pop	edi
  410bad:	c3                        ret
  410bae:	ff 74 24 08              >push	dword [esp+08h]
  410bb2:	89 3d b0 ad 46 00         mov	[0046ADB0h], edi
  410bb8:	ff 15 20 f2 44 00         call	dword [0044F220h]	; <ExitProcess>
  410bbe:	5f                        pop	edi
  410bbf:	c3                        ret

410bc0 <no name>:
  410bc0:	6a 0d                     push	dword 0000000Dh
  410bc2:	e8 e0 2f 00 00            call	413ba7
  410bc7:	59                        pop	ecx
  410bc8:	c3                        ret

410bc9 <no name>:
  410bc9:	6a 0d                     push	dword 0000000Dh
  410bcb:	e8 38 30 00 00            call	413c08
  410bd0:	59                        pop	ecx
  410bd1:	c3                        ret

410bd2 <no name>:
  410bd2:	56                        push	esi
  410bd3:	8b 74 24 08               mov	esi, [esp+08h]
  410bd7:	3b 74 24 0c              >cmp	esi, [esp+0Ch]
  410bdb:	73 0d                     jae	410bea
  410bdd:	8b 06                     mov	eax, [esi]
  410bdf:	85 c0                     test	eax, eax
  410be1:	74 02                     jz	410be5
  410be3:	ff d0                     call	eax
  410be5:	83 c6 04                 >add	esi, 04h
  410be8:	eb ed                     jmp	410bd7
  410bea:	5e                       >pop	esi
  410beb:	c3                        ret
     ...

410d30 <no name>:
  410d30:	51                        push	ecx
  410d31:	3d 00 10 00 00            cmp	eax, 00001000h
  410d36:	8d 4c 24 08               lea	ecx, [esp+08h]
  410d3a:	72 14                     jb	410d50
  410d3c:	81 e9 00 10 00 00        >sub	ecx, 00001000h
  410d42:	2d 00 10 00 00            sub	eax, 00001000h
  410d47:	85 01                     test	[ecx], eax
  410d49:	3d 00 10 00 00            cmp	eax, 00001000h
  410d4e:	73 ec                     jae	410d3c
  410d50:	2b c8                    >sub	ecx, eax
  410d52:	8b c4                     mov	eax, esp
  410d54:	85 01                     test	[ecx], eax
  410d56:	8b e1                     mov	esp, ecx
  410d58:	8b 08                     mov	ecx, [eax]
  410d5a:	8b 40 04                  mov	eax, [eax+04h]
  410d5d:	50                        push	eax
  410d5e:	c3                        ret

410d5f <no name>:
  410d5f:	8b 44 24 04               mov	eax, [esp+04h]
  410d63:	0f b6 08                  movzx	ecx, byte [eax]
  410d66:	8a 89 41 c9 46 00         mov	cl, [ecx+0046C941h]
  410d6c:	80 e1 04                  and	cl, 04h
  410d6f:	40                        inc	eax
  410d70:	84 c9                     test	cl, cl
  410d72:	74 01                     jz	410d75
  410d74:	40                        inc	eax
  410d75:	c3                       >ret
     ...

410f0a <no name>:
  410f0a:	55                        push	ebp
  410f0b:	8b ec                     mov	ebp, esp
  410f0d:	56                        push	esi
  410f0e:	33 f6                     xor	esi, esi
  410f10:	39 35 2c c8 46 00         cmp	[0046C82Ch], esi
  410f16:	75 0f                     jnz	410f27
  410f18:	ff 75 0c                  push	dword [ebp+0Ch]
  410f1b:	ff 75 08                  push	dword [ebp+08h]
  410f1e:	e8 1d ed ff ff            call	40fc40
  410f23:	59                        pop	ecx
  410f24:	59                        pop	ecx
  410f25:	eb 52                     jmp	410f79
  410f27:	57                       >push	edi
  410f28:	6a 19                     push	dword 00000019h
  410f2a:	e8 78 2c 00 00            call	413ba7
  410f2f:	59                        pop	ecx
  410f30:	8b 4d 08                  mov	ecx, [ebp+08h]
  410f33:	8a 11                    >mov	dl, [ecx]
  410f35:	0f b6 c2                  movzx	eax, dl
  410f38:	0f b6 f8                  movzx	edi, al
  410f3b:	f6 87 41 c9 46 00 04      test	byte [edi+0046C941h], 04h
  410f42:	74 1e                     jz	410f62
  410f44:	8a 51 01                  mov	dl, [ecx+01h]
  410f47:	41                        inc	ecx
  410f48:	84 d2                     test	dl, dl
  410f4a:	74 12                     jz	410f5e
  410f4c:	0f b6 fa                  movzx	edi, dl
  410f4f:	c1 e0 08                  shl	eax, 08h
  410f52:	0b c7                     or	eax, edi
  410f54:	39 45 0c                  cmp	[ebp+0Ch], eax
  410f57:	75 10                     jnz	410f69
  410f59:	8d 71 ff                  lea	esi, [ecx-01h]
  410f5c:	eb 0b                     jmp	410f69
  410f5e:	85 f6                    >test	esi, esi
  410f60:	eb 03                     jmp	410f65
  410f62:	39 45 0c                 >cmp	[ebp+0Ch], eax
  410f65:	75 02                    >jnz	410f69
  410f67:	8b f1                     mov	esi, ecx
  410f69:	41                       >inc	ecx
  410f6a:	84 d2                     test	dl, dl
  410f6c:	75 c5                     jnz	410f33
  410f6e:	6a 19                     push	dword 00000019h
  410f70:	e8 93 2c 00 00            call	413c08
  410f75:	59                        pop	ecx
  410f76:	8b c6                     mov	eax, esi
  410f78:	5f                        pop	edi
  410f79:	5e                       >pop	esi
  410f7a:	5d                        pop	ebp
  410f7b:	c3                        ret
     ...

4115e4 <no name>:
  4115e4:	55                        push	ebp
  4115e5:	8b ec                     mov	ebp, esp
  4115e7:	83 ec 18                  sub	esp, 18h
  4115ea:	53                        push	ebx
  4115eb:	56                        push	esi
  4115ec:	57                        push	edi
  4115ed:	6a 19                     push	dword 00000019h
  4115ef:	e8 b3 25 00 00            call	413ba7
  4115f4:	ff 75 08                  push	dword [ebp+08h]
  4115f7:	e8 95 01 00 00            call	411791
  4115fc:	8b d8                     mov	ebx, eax
  4115fe:	59                        pop	ecx
  4115ff:	3b 1d 14 c8 46 00         cmp	ebx, [0046C814h]
  411605:	59                        pop	ecx
  411606:	89 5d 08                  mov	[ebp+08h], ebx
  411609:	75 07                     jnz	411612
  41160b:	33 f6                    >xor	esi, esi
  41160d:	e9 70 01 00 00            jmp	411782
  411612:	85 db                    >test	ebx, ebx
  411614:	0f 84 56 01 00 00         jz	411770
  41161a:	33 d2                     xor	edx, edx
  41161c:	b8 18 4b 46 00            mov	eax, 00464B18h
  411621:	39 18                    >cmp	[eax], ebx
  411623:	74 74                     jz	411699
  411625:	83 c0 30                  add	eax, 30h
  411628:	42                        inc	edx
  411629:	3d 08 4c 46 00            cmp	eax, 00464C08h
  41162e:	7c f1                     jl	411621
  411630:	8d 45 e8                  lea	eax, [ebp-18h]
  411633:	50                        push	eax
  411634:	53                        push	ebx
  411635:	ff 15 d4 f2 44 00         call	dword [0044F2D4h]	; <GetCPInfo>
  41163b:	6a 01                     push	dword 00000001h
  41163d:	5e                        pop	esi
  41163e:	3b c6                     cmp	eax, esi
  411640:	0f 85 21 01 00 00         jnz	411767
  411646:	6a 40                     push	dword 00000040h
  411648:	83 25 44 ca 46 00 00      and	dword [0046CA44h], 00h
  41164f:	59                        pop	ecx
  411650:	33 c0                     xor	eax, eax
  411652:	bf 40 c9 46 00            mov	edi, 0046C940h
  411657:	39 75 e8                  cmp	[ebp-18h], esi
  41165a:	f3 ab                     rep stosd
  41165c:	aa                        stosb
  41165d:	89 1d 14 c8 46 00         mov	[0046C814h], ebx
  411663:	0f 86 eb 00 00 00         jbe	411754
  411669:	80 7d ee 00               cmp	byte [ebp-12h], 00h
  41166d:	0f 84 bc 00 00 00         jz	41172f
  411673:	8d 4d ef                  lea	ecx, [ebp-11h]
  411676:	8a 11                    >mov	dl, [ecx]
  411678:	84 d2                     test	dl, dl
  41167a:	0f 84 af 00 00 00         jz	41172f
  411680:	0f b6 41 ff               movzx	eax, byte [ecx-01h]
  411684:	0f b6 d2                  movzx	edx, dl
  411687:	3b c2                    >cmp	eax, edx
  411689:	0f 87 94 00 00 00         ja	411723
  41168f:	80 88 41 c9 46 00 04      or	byte [eax+0046C941h], 04h
  411696:	40                        inc	eax
  411697:	eb ee                     jmp	411687
  411699:	83 65 fc 00              >and	dword [ebp-04h], 00h
  41169d:	6a 40                     push	dword 00000040h
  41169f:	59                        pop	ecx
  4116a0:	33 c0                     xor	eax, eax
  4116a2:	bf 40 c9 46 00            mov	edi, 0046C940h
  4116a7:	8d 34 52                  lea	esi, [edx+edx*2]
  4116aa:	f3 ab                     rep stosd
  4116ac:	c1 e6 04                  shl	esi, 04h
  4116af:	aa                        stosb
  4116b0:	8d 9e 28 4b 46 00         lea	ebx, [esi+00464B28h]
  4116b6:	80 3b 00                 >cmp	byte [ebx], 00h
  4116b9:	8b cb                     mov	ecx, ebx
  4116bb:	74 2c                     jz	4116e9
  4116bd:	8a 51 01                 >mov	dl, [ecx+01h]
  4116c0:	84 d2                     test	dl, dl
  4116c2:	74 25                     jz	4116e9
  4116c4:	0f b6 01                  movzx	eax, byte [ecx]
  4116c7:	0f b6 fa                  movzx	edi, dl
  4116ca:	3b c7                     cmp	eax, edi
  4116cc:	77 14                     ja	4116e2
  4116ce:	8b 55 fc                  mov	edx, [ebp-04h]
  4116d1:	8a 92 10 4b 46 00         mov	dl, [edx+00464B10h]
  4116d7:	08 90 41 c9 46 00        >or	[eax+0046C941h], dl
  4116dd:	40                        inc	eax
  4116de:	3b c7                     cmp	eax, edi
  4116e0:	76 f5                     jbe	4116d7
  4116e2:	41                       >inc	ecx
  4116e3:	41                        inc	ecx
  4116e4:	80 39 00                  cmp	byte [ecx], 00h
  4116e7:	75 d4                     jnz	4116bd
  4116e9:	ff 45 fc                 >inc	dword [ebp-04h]
  4116ec:	83 c3 08                  add	ebx, 08h
  4116ef:	83 7d fc 04               cmp	dword [ebp-04h], 04h
  4116f3:	72 c1                     jb	4116b6
  4116f5:	8b 45 08                  mov	eax, [ebp+08h]
  4116f8:	c7 05 2c c8 46 00 01      mov	dword [0046C82Ch], 00000001h
		00 00 00 
  411702:	50                        push	eax
  411703:	a3 14 c8 46 00            mov	[46C814h], eax
  411708:	e8 ce 00 00 00            call	4117db
  41170d:	8d b6 1c 4b 46 00         lea	esi, [esi+00464B1Ch]
  411713:	bf 20 c8 46 00            mov	edi, 0046C820h
  411718:	a5                        movsd
  411719:	a5                        movsd
  41171a:	59                        pop	ecx
  41171b:	a3 44 ca 46 00            mov	[46CA44h], eax
  411720:	a5                        movsd
  411721:	eb 52                     jmp	411775
  411723:	41                       >inc	ecx
  411724:	41                        inc	ecx
  411725:	80 79 ff 00               cmp	byte [ecx-01h], 00h
  411729:	0f 85 47 ff ff ff         jnz	411676
  41172f:	8b c6                    >mov	eax, esi
  411731:	80 88 41 c9 46 00 08     >or	byte [eax+0046C941h], 08h
  411738:	40                        inc	eax
  411739:	3d ff 00 00 00            cmp	eax, 000000FFh
  41173e:	72 f1                     jb	411731
  411740:	53                        push	ebx
  411741:	e8 95 00 00 00            call	4117db
  411746:	59                        pop	ecx
  411747:	a3 44 ca 46 00            mov	[46CA44h], eax
  41174c:	89 35 2c c8 46 00         mov	[0046C82Ch], esi
  411752:	eb 07                     jmp	41175b
  411754:	83 25 2c c8 46 00 00     >and	dword [0046C82Ch], 00h
  41175b:	33 c0                    >xor	eax, eax
  41175d:	bf 20 c8 46 00            mov	edi, 0046C820h
  411762:	ab                        stosd
  411763:	ab                        stosd
  411764:	ab                        stosd
  411765:	eb 0e                     jmp	411775
  411767:	83 3d b4 ad 46 00 00     >cmp	dword [0046ADB4h], 00h
  41176e:	74 0f                     jz	41177f
  411770:	e8 99 00 00 00           >call	41180e
  411775:	e8 bd 00 00 00           >call	411837
  41177a:	e9 8c fe ff ff            jmp	41160b
  41177f:	83 ce ff                 >or	esi, FFh
  411782:	6a 19                    >push	dword 00000019h
  411784:	e8 7f 24 00 00            call	413c08
  411789:	59                        pop	ecx
  41178a:	8b c6                     mov	eax, esi
  41178c:	5f                        pop	edi
  41178d:	5e                        pop	esi
  41178e:	5b                        pop	ebx
  41178f:	c9                        leave
  411790:	c3                        ret

411791 <no name>:
  411791:	8b 44 24 04               mov	eax, [esp+04h]
  411795:	83 25 b4 ad 46 00 00      and	dword [0046ADB4h], 00h
  41179c:	83 f8 fe                  cmp	eax, FEh
  41179f:	75 10                     jnz	4117b1
  4117a1:	c7 05 b4 ad 46 00 01      mov	dword [0046ADB4h], 00000001h
		00 00 00 
  4117ab:	ff 25 d0 f2 44 00         jmp	dword [0044F2D0h]	; <GetOEMCP>
  4117b1:	83 f8 fd                 >cmp	eax, FDh
  4117b4:	75 10                     jnz	4117c6
  4117b6:	c7 05 b4 ad 46 00 01      mov	dword [0046ADB4h], 00000001h
		00 00 00 
  4117c0:	ff 25 3c f2 44 00         jmp	dword [0044F23Ch]	; <GetACP>
  4117c6:	83 f8 fc                 >cmp	eax, FCh
  4117c9:	75 0f                     jnz	4117da
  4117cb:	a1 94 af 46 00            mov	eax, [46AF94h]
  4117d0:	c7 05 b4 ad 46 00 01      mov	dword [0046ADB4h], 00000001h
		00 00 00 
  4117da:	c3                       >ret

4117db <no name>:
  4117db:	8b 44 24 04               mov	eax, [esp+04h]
  4117df:	2d a4 03 00 00            sub	eax, 000003A4h
  4117e4:	74 22                     jz	411808
  4117e6:	83 e8 04                  sub	eax, 04h
  4117e9:	74 17                     jz	411802
  4117eb:	83 e8 0d                  sub	eax, 0Dh
  4117ee:	74 0c                     jz	4117fc
  4117f0:	48                        dec	eax
  4117f1:	74 03                     jz	4117f6
  4117f3:	33 c0                     xor	eax, eax
  4117f5:	c3                        ret
  4117f6:	b8 04 04 00 00           >mov	eax, 00000404h
  4117fb:	c3                        ret
  4117fc:	b8 12 04 00 00           >mov	eax, 00000412h
  411801:	c3                        ret
  411802:	b8 04 08 00 00           >mov	eax, 00000804h
  411807:	c3                        ret
  411808:	b8 11 04 00 00           >mov	eax, 00000411h
  41180d:	c3                        ret

41180e <no name>:
  41180e:	57                        push	edi
  41180f:	6a 40                     push	dword 00000040h
  411811:	59                        pop	ecx
  411812:	33 c0                     xor	eax, eax
  411814:	bf 40 c9 46 00            mov	edi, 0046C940h
  411819:	f3 ab                     rep stosd
  41181b:	aa                        stosb
  41181c:	33 c0                     xor	eax, eax
  41181e:	bf 20 c8 46 00            mov	edi, 0046C820h
  411823:	a3 14 c8 46 00            mov	[46C814h], eax
  411828:	a3 2c c8 46 00            mov	[46C82Ch], eax
  41182d:	a3 44 ca 46 00            mov	[46CA44h], eax
  411832:	ab                        stosd
  411833:	ab                        stosd
  411834:	ab                        stosd
  411835:	5f                        pop	edi
  411836:	c3                        ret

411837 <no name>:
  411837:	55                        push	ebp
  411838:	8b ec                     mov	ebp, esp
  41183a:	81 ec 14 05 00 00         sub	esp, 00000514h
  411840:	8d 45 ec                  lea	eax, [ebp-14h]
  411843:	56                        push	esi
  411844:	50                        push	eax
  411845:	ff 35 14 c8 46 00         push	dword [0046C814h]
  41184b:	ff 15 d4 f2 44 00         call	dword [0044F2D4h]	; <GetCPInfo>
  411851:	83 f8 01                  cmp	eax, 01h
  411854:	0f 85 16 01 00 00         jnz	411970
  41185a:	33 c0                     xor	eax, eax
  41185c:	be 00 01 00 00            mov	esi, 00000100h
  411861:	88 84 05 ec fe ff ff     >mov	[ebp+eax*1-00000114h], al
  411868:	40                        inc	eax
  411869:	3b c6                     cmp	eax, esi
  41186b:	72 f4                     jb	411861
  41186d:	8a 45 f2                  mov	al, [ebp-0Eh]
  411870:	c6 85 ec fe ff ff 20      mov	byte [ebp-00000114h], 20h
  411877:	84 c0                     test	al, al
  411879:	74 37                     jz	4118b2
  41187b:	53                        push	ebx
  41187c:	57                        push	edi
  41187d:	8d 55 f3                  lea	edx, [ebp-0Dh]
  411880:	0f b6 0a                 >movzx	ecx, byte [edx]
  411883:	0f b6 c0                  movzx	eax, al
  411886:	3b c1                     cmp	eax, ecx
  411888:	77 1d                     ja	4118a7
  41188a:	2b c8                     sub	ecx, eax
  41188c:	8d bc 05 ec fe ff ff      lea	edi, [ebp+eax*1-00000114h]
  411893:	41                        inc	ecx
  411894:	b8 20 20 20 20            mov	eax, 20202020h
  411899:	8b d9                     mov	ebx, ecx
  41189b:	c1 e9 02                  shr	ecx, 02h
  41189e:	f3 ab                     rep stosd
  4118a0:	8b cb                     mov	ecx, ebx
  4118a2:	83 e1 03                  and	ecx, 03h
  4118a5:	f3 aa                     rep stosb
  4118a7:	42                       >inc	edx
  4118a8:	42                        inc	edx
  4118a9:	8a 42 ff                  mov	al, [edx-01h]
  4118ac:	84 c0                     test	al, al
  4118ae:	75 d0                     jnz	411880
  4118b0:	5f                        pop	edi
  4118b1:	5b                        pop	ebx
  4118b2:	6a 00                    >push	dword 00000000h
  4118b4:	8d 85 ec fa ff ff         lea	eax, [ebp-00000514h]
  4118ba:	ff 35 44 ca 46 00         push	dword [0046CA44h]
  4118c0:	ff 35 14 c8 46 00         push	dword [0046C814h]
  4118c6:	50                        push	eax
  4118c7:	8d 85 ec fe ff ff         lea	eax, [ebp-00000114h]
  4118cd:	56                        push	esi
  4118ce:	50                        push	eax
  4118cf:	6a 01                     push	dword 00000001h
  4118d1:	e8 02 61 00 00            call	4179d8
  4118d6:	6a 00                     push	dword 00000000h
  4118d8:	8d 85 ec fd ff ff         lea	eax, [ebp-00000214h]
  4118de:	ff 35 14 c8 46 00         push	dword [0046C814h]
  4118e4:	56                        push	esi
  4118e5:	50                        push	eax
  4118e6:	8d 85 ec fe ff ff         lea	eax, [ebp-00000114h]
  4118ec:	56                        push	esi
  4118ed:	50                        push	eax
  4118ee:	56                        push	esi
  4118ef:	ff 35 44 ca 46 00         push	dword [0046CA44h]
  4118f5:	e8 ca 23 00 00            call	413cc4
  4118fa:	6a 00                     push	dword 00000000h
  4118fc:	8d 85 ec fc ff ff         lea	eax, [ebp-00000314h]
  411902:	ff 35 14 c8 46 00         push	dword [0046C814h]
  411908:	56                        push	esi
  411909:	50                        push	eax
  41190a:	8d 85 ec fe ff ff         lea	eax, [ebp-00000114h]
  411910:	56                        push	esi
  411911:	50                        push	eax
  411912:	68 00 02 00 00            push	dword 00000200h
  411917:	ff 35 44 ca 46 00         push	dword [0046CA44h]
  41191d:	e8 a2 23 00 00            call	413cc4
  411922:	83 c4 5c                  add	esp, 5Ch
  411925:	33 c0                     xor	eax, eax
  411927:	8d 8d ec fa ff ff         lea	ecx, [ebp-00000514h]
  41192d:	66 8b 11                 >mov	dx, [ecx]
  411930:	f6 c2 01                  test	dl, 01h
  411933:	74 16                     jz	41194b
  411935:	80 88 41 c9 46 00 10      or	byte [eax+0046C941h], 10h
  41193c:	8a 94 05 ec fd ff ff      mov	dl, [ebp+eax*1-00000214h]
  411943:	88 90 40 c8 46 00        >mov	[eax+0046C840h], dl
  411949:	eb 1c                     jmp	411967
  41194b:	f6 c2 02                 >test	dl, 02h
  41194e:	74 10                     jz	411960
  411950:	80 88 41 c9 46 00 20      or	byte [eax+0046C941h], 20h
  411957:	8a 94 05 ec fc ff ff      mov	dl, [ebp+eax*1-00000314h]
  41195e:	eb e3                     jmp	411943
  411960:	80 a0 40 c8 46 00 00     >and	byte [eax+0046C840h], 00h
  411967:	40                       >inc	eax
  411968:	41                        inc	ecx
  411969:	41                        inc	ecx
  41196a:	3b c6                     cmp	eax, esi
  41196c:	72 bf                     jb	41192d
  41196e:	eb 49                     jmp	4119b9
  411970:	33 c0                    >xor	eax, eax
  411972:	be 00 01 00 00            mov	esi, 00000100h
  411977:	83 f8 41                 >cmp	eax, 41h
  41197a:	72 19                     jb	411995
  41197c:	83 f8 5a                  cmp	eax, 5Ah
  41197f:	77 14                     ja	411995
  411981:	80 88 41 c9 46 00 10      or	byte [eax+0046C941h], 10h
  411988:	8a c8                     mov	cl, al
  41198a:	80 c1 20                  add	cl, 20h
  41198d:	88 88 40 c8 46 00        >mov	[eax+0046C840h], cl
  411993:	eb 1f                     jmp	4119b4
  411995:	83 f8 61                 >cmp	eax, 61h
  411998:	72 13                     jb	4119ad
  41199a:	83 f8 7a                  cmp	eax, 7Ah
  41199d:	77 0e                     ja	4119ad
  41199f:	80 88 41 c9 46 00 20      or	byte [eax+0046C941h], 20h
  4119a6:	8a c8                     mov	cl, al
  4119a8:	80 e9 20                  sub	cl, 20h
  4119ab:	eb e0                     jmp	41198d
  4119ad:	80 a0 40 c8 46 00 00     >and	byte [eax+0046C840h], 00h
  4119b4:	40                       >inc	eax
  4119b5:	3b c6                     cmp	eax, esi
  4119b7:	72 be                     jb	411977
  4119b9:	5e                       >pop	esi
  4119ba:	c9                        leave
  4119bb:	c3                        ret
     ...

4119cc <no name>:
  4119cc:	83 3d 4c ca 46 00 00      cmp	dword [0046CA4Ch], 00h
  4119d3:	75 12                     jnz	4119e7
  4119d5:	6a fd                     push	dword FFFFFFFDh
  4119d7:	e8 08 fc ff ff            call	4115e4
  4119dc:	59                        pop	ecx
  4119dd:	c7 05 4c ca 46 00 01      mov	dword [0046CA4Ch], 00000001h
		00 00 00 
  4119e7:	c3                       >ret
     ...

41357c <no name>:
  41357c:	56                        push	esi
  41357d:	e8 90 05 00 00            call	413b12
  413582:	ff 15 00 f3 44 00         call	dword [0044F300h]	; <TlsAlloc>
  413588:	83 f8 ff                  cmp	eax, FFh
  41358b:	a3 c0 4c 46 00            mov	[464CC0h], eax
  413590:	74 3a                     jz	4135cc
  413592:	6a 74                     push	dword 00000074h
  413594:	6a 01                     push	dword 00000001h
  413596:	e8 1a 39 00 00            call	416eb5
  41359b:	8b f0                     mov	esi, eax
  41359d:	59                        pop	ecx
  41359e:	85 f6                     test	esi, esi
  4135a0:	59                        pop	ecx
  4135a1:	74 29                     jz	4135cc
  4135a3:	56                        push	esi
  4135a4:	ff 35 c0 4c 46 00         push	dword [00464CC0h]
  4135aa:	ff 15 e4 f2 44 00         call	dword [0044F2E4h]	; <TlsSetValue>
  4135b0:	85 c0                     test	eax, eax
  4135b2:	74 18                     jz	4135cc
  4135b4:	56                        push	esi
  4135b5:	e8 34 00 00 00            call	4135ee
  4135ba:	59                        pop	ecx
  4135bb:	ff 15 e0 f3 44 00         call	dword [0044F3E0h]	; <GetCurrentThreadId>
  4135c1:	83 4e 04 ff               or	dword [esi+04h], FFh
  4135c5:	6a 01                     push	dword 00000001h
  4135c7:	89 06                     mov	[esi], eax
  4135c9:	58                        pop	eax
  4135ca:	5e                        pop	esi
  4135cb:	c3                        ret
  4135cc:	33 c0                    >xor	eax, eax
  4135ce:	5e                        pop	esi
  4135cf:	c3                        ret
     ...

4135ee <no name>:
  4135ee:	8b 44 24 04               mov	eax, [esp+04h]
  4135f2:	c7 40 50 f0 6f 46 00      mov	dword [eax+50h], 00466FF0h
  4135f9:	c7 40 14 01 00 00 00      mov	dword [eax+14h], 00000001h
  413600:	c3                        ret

413601 <no name>:
  413601:	56                        push	esi
  413602:	57                        push	edi
  413603:	ff 15 6c f3 44 00         call	dword [0044F36Ch]	; <GetLastError>
  413609:	ff 35 c0 4c 46 00         push	dword [00464CC0h]
  41360f:	8b f8                     mov	edi, eax
  413611:	ff 15 dc f2 44 00         call	dword [0044F2DCh]	; <TlsGetValue>
  413617:	8b f0                     mov	esi, eax
  413619:	85 f6                     test	esi, esi
  41361b:	75 3f                     jnz	41365c
  41361d:	6a 74                     push	dword 00000074h
  41361f:	6a 01                     push	dword 00000001h
  413621:	e8 8f 38 00 00            call	416eb5
  413626:	8b f0                     mov	esi, eax
  413628:	59                        pop	ecx
  413629:	85 f6                     test	esi, esi
  41362b:	59                        pop	ecx
  41362c:	74 26                     jz	413654
  41362e:	56                        push	esi
  41362f:	ff 35 c0 4c 46 00         push	dword [00464CC0h]
  413635:	ff 15 e4 f2 44 00         call	dword [0044F2E4h]	; <TlsSetValue>
  41363b:	85 c0                     test	eax, eax
  41363d:	74 15                     jz	413654
  41363f:	56                        push	esi
  413640:	e8 a9 ff ff ff            call	4135ee
  413645:	59                        pop	ecx
  413646:	ff 15 e0 f3 44 00         call	dword [0044F3E0h]	; <GetCurrentThreadId>
  41364c:	83 4e 04 ff               or	dword [esi+04h], FFh
  413650:	89 06                     mov	[esi], eax
  413652:	eb 08                     jmp	41365c
  413654:	6a 10                    >push	dword 00000010h
  413656:	e8 f0 cf ff ff            call	41064b
  41365b:	59                        pop	ecx
  41365c:	57                       >push	edi
  41365d:	ff 15 d0 f3 44 00         call	dword [0044F3D0h]	; <SetLastError>
  413663:	8b c6                     mov	eax, esi
  413665:	5f                        pop	edi
  413666:	5e                        pop	esi
  413667:	c3                        ret
     ...

413b12 <no name>:
  413b12:	56                        push	esi
  413b13:	8b 35 04 f3 44 00         mov	esi, [0044F304h]
  413b19:	ff 35 0c 4d 46 00         push	dword [00464D0Ch]
  413b1f:	ff d6                     call	esi
  413b21:	ff 35 fc 4c 46 00         push	dword [00464CFCh]
  413b27:	ff d6                     call	esi
  413b29:	ff 35 ec 4c 46 00         push	dword [00464CECh]
  413b2f:	ff d6                     call	esi
  413b31:	ff 35 cc 4c 46 00         push	dword [00464CCCh]
  413b37:	ff d6                     call	esi
  413b39:	5e                        pop	esi
  413b3a:	c3                        ret
     ...

413ba7 <no name>:
  413ba7:	55                        push	ebp
  413ba8:	8b ec                     mov	ebp, esp
  413baa:	8b 45 08                  mov	eax, [ebp+08h]
  413bad:	56                        push	esi
  413bae:	83 3c 85 c8 4c 46 00      cmp	dword [eax*4+00464CC8h], 00h
		00 
  413bb6:	8d 34 85 c8 4c 46 00      lea	esi, [eax*4+00464CC8h]
  413bbd:	75 3e                     jnz	413bfd
  413bbf:	57                        push	edi
  413bc0:	6a 18                     push	dword 00000018h
  413bc2:	e8 82 cd ff ff            call	410949
  413bc7:	8b f8                     mov	edi, eax
  413bc9:	59                        pop	ecx
  413bca:	85 ff                     test	edi, edi
  413bcc:	75 08                     jnz	413bd6
  413bce:	6a 11                     push	dword 00000011h
  413bd0:	e8 76 ca ff ff            call	41064b
  413bd5:	59                        pop	ecx
  413bd6:	6a 11                    >push	dword 00000011h
  413bd8:	e8 ca ff ff ff            call	413ba7
  413bdd:	83 3e 00                  cmp	dword [esi], 00h
  413be0:	59                        pop	ecx
  413be1:	57                        push	edi
  413be2:	75 0a                     jnz	413bee
  413be4:	ff 15 04 f3 44 00         call	dword [0044F304h]	; <InitializeCriticalSection>
  413bea:	89 3e                     mov	[esi], edi
  413bec:	eb 06                     jmp	413bf4
  413bee:	e8 cf c6 ff ff           >call	4102c2
  413bf3:	59                        pop	ecx
  413bf4:	6a 11                    >push	dword 00000011h
  413bf6:	e8 0d 00 00 00            call	413c08
  413bfb:	59                        pop	ecx
  413bfc:	5f                        pop	edi
  413bfd:	ff 36                    >push	dword [esi]
  413bff:	ff 15 e8 f2 44 00         call	dword [0044F2E8h]	; <EnterCriticalSection>
  413c05:	5e                        pop	esi
  413c06:	5d                        pop	ebp
  413c07:	c3                        ret

413c08 <no name>:
  413c08:	55                        push	ebp
  413c09:	8b ec                     mov	ebp, esp
  413c0b:	8b 45 08                  mov	eax, [ebp+08h]
  413c0e:	ff 34 85 c8 4c 46 00      push	dword [eax*4+00464CC8h]
  413c15:	ff 15 f0 f2 44 00         call	dword [0044F2F0h]	; <LeaveCriticalSection>
  413c1b:	5d                        pop	ebp
  413c1c:	c3                        ret
     ...

413cc4 <no name>:
  413cc4:	55                        push	ebp
  413cc5:	8b ec                     mov	ebp, esp
  413cc7:	6a ff                     push	dword FFFFFFFFh
  413cc9:	68 80 44 45 00            push	dword 00454480h
  413cce:	68 50 63 41 00            push	dword 00416350h
  413cd3:	64 a1 00 00 00 00         mov	eax, [fs:0000h]
  413cd9:	50                        push	eax
  413cda:	64 89 25 00 00 00 00      mov	[fs:00000000h], esp
  413ce1:	83 ec 1c                  sub	esp, 1Ch
  413ce4:	53                        push	ebx
  413ce5:	56                        push	esi
  413ce6:	57                        push	edi
  413ce7:	89 65 e8                  mov	[ebp-18h], esp
  413cea:	33 ff                     xor	edi, edi
  413cec:	39 3d 58 ae 46 00         cmp	[0046AE58h], edi
  413cf2:	75 46                     jnz	413d3a
  413cf4:	57                        push	edi
  413cf5:	57                        push	edi
  413cf6:	6a 01                     push	dword 00000001h
  413cf8:	5b                        pop	ebx
  413cf9:	53                        push	ebx
  413cfa:	68 7c 44 45 00            push	dword 0045447Ch
  413cff:	be 00 01 00 00            mov	esi, 00000100h
  413d04:	56                        push	esi
  413d05:	57                        push	edi
  413d06:	ff 15 54 f2 44 00         call	dword [0044F254h]	; <LCMapStringW>
  413d0c:	85 c0                     test	eax, eax
  413d0e:	74 08                     jz	413d18
  413d10:	89 1d 58 ae 46 00         mov	[0046AE58h], ebx
  413d16:	eb 22                     jmp	413d3a
  413d18:	57                       >push	edi
  413d19:	57                        push	edi
  413d1a:	53                        push	ebx
  413d1b:	68 78 44 45 00            push	dword 00454478h
  413d20:	56                        push	esi
  413d21:	57                        push	edi
  413d22:	ff 15 50 f2 44 00         call	dword [0044F250h]	; <LCMapStringA>
  413d28:	85 c0                     test	eax, eax
  413d2a:	0f 84 22 01 00 00         jz	413e52
  413d30:	c7 05 58 ae 46 00 02      mov	dword [0046AE58h], 00000002h
		00 00 00 
  413d3a:	39 7d 14                 >cmp	[ebp+14h], edi
  413d3d:	7e 10                     jle	413d4f
  413d3f:	ff 75 14                  push	dword [ebp+14h]
  413d42:	ff 75 10                  push	dword [ebp+10h]
  413d45:	e8 9e 01 00 00            call	413ee8
  413d4a:	59                        pop	ecx
  413d4b:	59                        pop	ecx
  413d4c:	89 45 14                  mov	[ebp+14h], eax
  413d4f:	a1 58 ae 46 00           >mov	eax, [46AE58h]
  413d54:	83 f8 02                  cmp	eax, 02h
  413d57:	75 1d                     jnz	413d76
  413d59:	ff 75 1c                  push	dword [ebp+1Ch]
  413d5c:	ff 75 18                  push	dword [ebp+18h]
  413d5f:	ff 75 14                  push	dword [ebp+14h]
  413d62:	ff 75 10                  push	dword [ebp+10h]
  413d65:	ff 75 0c                  push	dword [ebp+0Ch]
  413d68:	ff 75 08                  push	dword [ebp+08h]
  413d6b:	ff 15 50 f2 44 00         call	dword [0044F250h]	; <LCMapStringA>
  413d71:	e9 de 00 00 00            jmp	413e54
  413d76:	83 f8 01                 >cmp	eax, 01h
  413d79:	0f 85 d3 00 00 00         jnz	413e52
  413d7f:	39 7d 20                  cmp	[ebp+20h], edi
  413d82:	75 08                     jnz	413d8c
  413d84:	a1 94 af 46 00            mov	eax, [46AF94h]
  413d89:	89 45 20                  mov	[ebp+20h], eax
  413d8c:	57                       >push	edi
  413d8d:	57                        push	edi
  413d8e:	ff 75 14                  push	dword [ebp+14h]
  413d91:	ff 75 10                  push	dword [ebp+10h]
  413d94:	8b 45 24                  mov	eax, [ebp+24h]
  413d97:	f7 d8                     neg	eax
  413d99:	1b c0                     sbb	eax, eax
  413d9b:	83 e0 08                  and	eax, 08h
  413d9e:	40                        inc	eax
  413d9f:	50                        push	eax
  413da0:	ff 75 20                  push	dword [ebp+20h]
  413da3:	ff 15 34 f4 44 00         call	dword [0044F434h]	; <MultiByteToWideChar>
  413da9:	8b d8                     mov	ebx, eax
  413dab:	89 5d e4                  mov	[ebp-1Ch], ebx
  413dae:	3b df                     cmp	ebx, edi
  413db0:	0f 84 9c 00 00 00         jz	413e52
  413db6:	89 7d fc                  mov	[ebp-04h], edi
  413db9:	8d 04 1b                  lea	eax, [ebx+ebx*1]
  413dbc:	83 c0 03                  add	eax, 03h
  413dbf:	24 fc                     and	al, FCh
  413dc1:	e8 6a cf ff ff            call	410d30
  413dc6:	89 65 e8                  mov	[ebp-18h], esp
  413dc9:	8b c4                     mov	eax, esp
  413dcb:	89 45 dc                  mov	[ebp-24h], eax
  413dce:	83 4d fc ff               or	dword [ebp-04h], FFh
  413dd2:	eb 13                     jmp	413de7
     ...
  413de7:	39 7d dc                 >cmp	[ebp-24h], edi
  413dea:	74 66                     jz	413e52
  413dec:	53                        push	ebx
  413ded:	ff 75 dc                  push	dword [ebp-24h]
  413df0:	ff 75 14                  push	dword [ebp+14h]
  413df3:	ff 75 10                  push	dword [ebp+10h]
  413df6:	6a 01                     push	dword 00000001h
  413df8:	ff 75 20                  push	dword [ebp+20h]
  413dfb:	ff 15 34 f4 44 00         call	dword [0044F434h]	; <MultiByteToWideChar>
  413e01:	85 c0                     test	eax, eax
  413e03:	74 4d                     jz	413e52
  413e05:	57                        push	edi
  413e06:	57                        push	edi
  413e07:	53                        push	ebx
  413e08:	ff 75 dc                  push	dword [ebp-24h]
  413e0b:	ff 75 0c                  push	dword [ebp+0Ch]
  413e0e:	ff 75 08                  push	dword [ebp+08h]
  413e11:	ff 15 54 f2 44 00         call	dword [0044F254h]	; <LCMapStringW>
  413e17:	8b f0                     mov	esi, eax
  413e19:	89 75 d8                  mov	[ebp-28h], esi
  413e1c:	3b f7                     cmp	esi, edi
  413e1e:	74 32                     jz	413e52
  413e20:	f6 45 0d 04               test	byte [ebp+0Dh], 04h
  413e24:	74 40                     jz	413e66
  413e26:	39 7d 1c                  cmp	[ebp+1Ch], edi
  413e29:	0f 84 b2 00 00 00         jz	413ee1
  413e2f:	3b 75 1c                  cmp	esi, [ebp+1Ch]
  413e32:	7f 1e                     jg	413e52
  413e34:	ff 75 1c                  push	dword [ebp+1Ch]
  413e37:	ff 75 18                  push	dword [ebp+18h]
  413e3a:	53                        push	ebx
  413e3b:	ff 75 dc                  push	dword [ebp-24h]
  413e3e:	ff 75 0c                  push	dword [ebp+0Ch]
  413e41:	ff 75 08                  push	dword [ebp+08h]
  413e44:	ff 15 54 f2 44 00         call	dword [0044F254h]	; <LCMapStringW>
  413e4a:	85 c0                     test	eax, eax
  413e4c:	0f 85 8f 00 00 00         jnz	413ee1
  413e52:	33 c0                    >xor	eax, eax
  413e54:	8d 65 c8                 >lea	esp, [ebp-38h]
  413e57:	8b 4d f0                  mov	ecx, [ebp-10h]
  413e5a:	64 89 0d 00 00 00 00      mov	[fs:00000000h], ecx
  413e61:	5f                        pop	edi
  413e62:	5e                        pop	esi
  413e63:	5b                        pop	ebx
  413e64:	c9                        leave
  413e65:	c3                        ret
  413e66:	c7 45 fc 01 00 00 00     >mov	dword [ebp-04h], 00000001h
  413e6d:	8d 04 36                  lea	eax, [esi+esi*1]
  413e70:	83 c0 03                  add	eax, 03h
  413e73:	24 fc                     and	al, FCh
  413e75:	e8 b6 ce ff ff            call	410d30
  413e7a:	89 65 e8                  mov	[ebp-18h], esp
  413e7d:	8b dc                     mov	ebx, esp
  413e7f:	89 5d e0                  mov	[ebp-20h], ebx
  413e82:	83 4d fc ff               or	dword [ebp-04h], FFh
  413e86:	eb 12                     jmp	413e9a
     ...
  413e9a:	3b df                    >cmp	ebx, edi
  413e9c:	74 b4                     jz	413e52
  413e9e:	56                        push	esi
  413e9f:	53                        push	ebx
  413ea0:	ff 75 e4                  push	dword [ebp-1Ch]
  413ea3:	ff 75 dc                  push	dword [ebp-24h]
  413ea6:	ff 75 0c                  push	dword [ebp+0Ch]
  413ea9:	ff 75 08                  push	dword [ebp+08h]
  413eac:	ff 15 54 f2 44 00         call	dword [0044F254h]	; <LCMapStringW>
  413eb2:	85 c0                     test	eax, eax
  413eb4:	74 9c                     jz	413e52
  413eb6:	39 7d 1c                  cmp	[ebp+1Ch], edi
  413eb9:	57                        push	edi
  413eba:	57                        push	edi
  413ebb:	75 04                     jnz	413ec1
  413ebd:	57                        push	edi
  413ebe:	57                        push	edi
  413ebf:	eb 06                     jmp	413ec7
  413ec1:	ff 75 1c                 >push	dword [ebp+1Ch]
  413ec4:	ff 75 18                  push	dword [ebp+18h]
  413ec7:	56                       >push	esi
  413ec8:	53                        push	ebx
  413ec9:	68 20 02 00 00            push	dword 00000220h
  413ece:	ff 75 20                  push	dword [ebp+20h]
  413ed1:	ff 15 3c f4 44 00         call	dword [0044F43Ch]	; <WideCharToMultiByte>
  413ed7:	8b f0                     mov	esi, eax
  413ed9:	3b f7                     cmp	esi, edi
  413edb:	0f 84 71 ff ff ff         jz	413e52
  413ee1:	8b c6                    >mov	eax, esi
  413ee3:	e9 6c ff ff ff            jmp	413e54

413ee8 <no name>:
  413ee8:	8b 54 24 08               mov	edx, [esp+08h]
  413eec:	8b 44 24 04               mov	eax, [esp+04h]
  413ef0:	85 d2                     test	edx, edx
  413ef2:	56                        push	esi
  413ef3:	8d 4a ff                  lea	ecx, [edx-01h]
  413ef6:	74 0d                     jz	413f05
  413ef8:	80 38 00                 >cmp	byte [eax], 00h
  413efb:	74 08                     jz	413f05
  413efd:	40                        inc	eax
  413efe:	8b f1                     mov	esi, ecx
  413f00:	49                        dec	ecx
  413f01:	85 f6                     test	esi, esi
  413f03:	75 f3                     jnz	413ef8
  413f05:	80 38 00                 >cmp	byte [eax], 00h
  413f08:	5e                        pop	esi
  413f09:	75 05                     jnz	413f10
  413f0b:	2b 44 24 04               sub	eax, [esp+04h]
  413f0f:	c3                        ret
  413f10:	8b c2                    >mov	eax, edx
  413f12:	c3                        ret
     ...
  4140e0:	8d 42 ff                 >lea	eax, [edx-01h]
  4140e3:	5b                        pop	ebx
  4140e4:	c3                        ret
     ...

4140f0 <no name>:
  4140f0:	33 c0                     xor	eax, eax
  4140f2:	8a 44 24 08               mov	al, [esp+08h]
  4140f6:	53                       >push	ebx
  4140f7:	8b d8                     mov	ebx, eax
  4140f9:	c1 e0 08                  shl	eax, 08h
  4140fc:	8b 54 24 08               mov	edx, [esp+08h]
  414100:	f7 c2 03 00 00 00         test	edx, 00000003h
  414106:	74 13                     jz	41411b
  414108:	8a 0a                    >mov	cl, [edx]
  41410a:	42                        inc	edx
  41410b:	38 d9                     cmp	cl, bl
  41410d:	74 d1                     jz	4140e0
  41410f:	84 c9                     test	cl, cl
  414111:	74 51                     jz	414164
  414113:	f7 c2 03 00 00 00         test	edx, 00000003h
  414119:	75 ed                     jnz	414108
  41411b:	0b d8                    >or	ebx, eax
  41411d:	57                        push	edi
  41411e:	8b c3                     mov	eax, ebx
  414120:	c1 e3 10                  shl	ebx, 10h
  414123:	56                        push	esi
  414124:	0b d8                     or	ebx, eax
  414126:	8b 0a                    >mov	ecx, [edx]
  414128:	bf ff fe fe 7e            mov	edi, 7EFEFEFFh
  41412d:	8b c1                     mov	eax, ecx
  41412f:	8b f7                     mov	esi, edi
  414131:	33 cb                     xor	ecx, ebx
  414133:	03 f0                     add	esi, eax
  414135:	03 f9                     add	edi, ecx
  414137:	83 f1 ff                  xor	ecx, FFh
  41413a:	83 f0 ff                  xor	eax, FFh
  41413d:	33 cf                     xor	ecx, edi
  41413f:	33 c6                     xor	eax, esi
  414141:	83 c2 04                  add	edx, 04h
  414144:	81 e1 00 01 01 81         and	ecx, 81010100h
  41414a:	75 1c                     jnz	414168
  41414c:	25 00 01 01 81            and	eax, 81010100h
  414151:	74 d3                     jz	414126
  414153:	25 00 01 01 01            and	eax, 01010100h
  414158:	75 08                     jnz	414162
  41415a:	81 e6 00 00 00 80         and	esi, 80000000h
  414160:	75 c4                     jnz	414126
  414162:	5e                       >pop	esi
  414163:	5f                        pop	edi
  414164:	5b                       >pop	ebx
  414165:	33 c0                     xor	eax, eax
  414167:	c3                        ret
  414168:	8b 42 fc                 >mov	eax, [edx-04h]
  41416b:	38 d8                     cmp	al, bl
  41416d:	74 36                     jz	4141a5
  41416f:	84 c0                     test	al, al
  414171:	74 ef                     jz	414162
  414173:	38 dc                     cmp	ah, bl
  414175:	74 27                     jz	41419e
  414177:	84 e4                     test	ah, ah
  414179:	74 e7                     jz	414162
  41417b:	c1 e8 10                  shr	eax, 10h
  41417e:	38 d8                     cmp	al, bl
  414180:	74 15                     jz	414197
  414182:	84 c0                     test	al, al
  414184:	74 dc                     jz	414162
  414186:	38 dc                     cmp	ah, bl
  414188:	74 06                     jz	414190
  41418a:	84 e4                     test	ah, ah
  41418c:	74 d4                     jz	414162
  41418e:	eb 96                     jmp	414126
  414190:	5e                       >pop	esi
  414191:	5f                        pop	edi
  414192:	8d 42 ff                  lea	eax, [edx-01h]
  414195:	5b                        pop	ebx
  414196:	c3                        ret
  414197:	8d 42 fe                 >lea	eax, [edx-02h]
  41419a:	5e                        pop	esi
  41419b:	5f                        pop	edi
  41419c:	5b                        pop	ebx
  41419d:	c3                        ret
  41419e:	8d 42 fd                 >lea	eax, [edx-03h]
  4141a1:	5e                        pop	esi
  4141a2:	5f                        pop	edi
  4141a3:	5b                        pop	ebx
  4141a4:	c3                        ret
  4141a5:	8d 42 fc                 >lea	eax, [edx-04h]
  4141a8:	5e                        pop	esi
  4141a9:	5f                        pop	edi
  4141aa:	5b                        pop	ebx
  4141ab:	c3                        ret
     ...

414218 <no name>:
  414218:	53                        push	ebx
  414219:	33 db                     xor	ebx, ebx
  41421b:	39 1d 84 af 46 00         cmp	[0046AF84h], ebx
  414221:	75 13                     jnz	414236
  414223:	8b 44 24 08               mov	eax, [esp+08h]
  414227:	83 f8 61                  cmp	eax, 61h
  41422a:	7c 59                     jl	414285
  41422c:	83 f8 7a                  cmp	eax, 7Ah
  41422f:	7f 54                     jg	414285
  414231:	83 e8 20                  sub	eax, 20h
  414234:	5b                        pop	ebx
  414235:	c3                        ret
  414236:	56                       >push	esi
  414237:	be c8 c6 46 00            mov	esi, 0046C6C8h
  41423c:	57                        push	edi
  41423d:	56                        push	esi
  41423e:	ff 15 14 f4 44 00         call	dword [0044F414h]	; <InterlockedIncrement>
  414244:	39 1d c4 c6 46 00         cmp	[0046C6C4h], ebx
  41424a:	8b 3d 1c f4 44 00         mov	edi, [0044F41Ch]
  414250:	74 0e                     jz	414260
  414252:	56                        push	esi
  414253:	ff d7                     call	edi
  414255:	6a 13                     push	dword 00000013h
  414257:	e8 4b f9 ff ff            call	413ba7
  41425c:	59                        pop	ecx
  41425d:	6a 01                     push	dword 00000001h
  41425f:	5b                        pop	ebx
  414260:	ff 74 24 10              >push	dword [esp+10h]
  414264:	e8 1e 00 00 00            call	414287
  414269:	85 db                     test	ebx, ebx
  41426b:	59                        pop	ecx
  41426c:	89 44 24 10               mov	[esp+10h], eax
  414270:	74 0a                     jz	41427c
  414272:	6a 13                     push	dword 00000013h
  414274:	e8 8f f9 ff ff            call	413c08
  414279:	59                        pop	ecx
  41427a:	eb 03                     jmp	41427f
  41427c:	56                       >push	esi
  41427d:	ff d7                     call	edi
  41427f:	8b 44 24 10              >mov	eax, [esp+10h]
  414283:	5f                        pop	edi
  414284:	5e                        pop	esi
  414285:	5b                       >pop	ebx
  414286:	c3                        ret

414287 <no name>:
  414287:	55                        push	ebp
  414288:	8b ec                     mov	ebp, esp
  41428a:	51                        push	ecx
  41428b:	83 3d 84 af 46 00 00      cmp	dword [0046AF84h], 00h
  414292:	53                        push	ebx
  414293:	75 1d                     jnz	4142b2
  414295:	8b 45 08                  mov	eax, [ebp+08h]
  414298:	83 f8 61                  cmp	eax, 61h
  41429b:	0f 8c af 00 00 00         jl	414350
  4142a1:	83 f8 7a                  cmp	eax, 7Ah
  4142a4:	0f 8f a6 00 00 00         jg	414350
  4142aa:	83 e8 20                  sub	eax, 20h
  4142ad:	e9 9e 00 00 00            jmp	414350
  4142b2:	8b 5d 08                 >mov	ebx, [ebp+08h]
  4142b5:	81 fb 00 01 00 00         cmp	ebx, 00000100h
  4142bb:	7d 28                     jge	4142e5
  4142bd:	83 3d 9c 4f 46 00 01      cmp	dword [00464F9Ch], 01h
  4142c4:	7e 0c                     jle	4142d2
  4142c6:	6a 02                     push	dword 00000002h
  4142c8:	53                        push	ebx
  4142c9:	e8 85 00 00 00            call	414353
  4142ce:	59                        pop	ecx
  4142cf:	59                        pop	ecx
  4142d0:	eb 0b                     jmp	4142dd
  4142d2:	a1 90 4d 46 00           >mov	eax, [464D90h]
  4142d7:	8a 04 58                  mov	al, [eax+ebx*2]
  4142da:	83 e0 02                  and	eax, 02h
  4142dd:	85 c0                    >test	eax, eax
  4142df:	75 04                     jnz	4142e5
  4142e1:	8b c3                    >mov	eax, ebx
  4142e3:	eb 6b                     jmp	414350
  4142e5:	8b 15 90 4d 46 00        >mov	edx, [00464D90h]
  4142eb:	8b c3                     mov	eax, ebx
  4142ed:	c1 f8 08                  sar	eax, 08h
  4142f0:	0f b6 c8                  movzx	ecx, al
  4142f3:	f6 44 4a 01 80            test	byte [edx+ecx*2+01h], 80h
  4142f8:	74 0e                     jz	414308
  4142fa:	80 65 0a 00               and	byte [ebp+0Ah], 00h
  4142fe:	88 45 08                  mov	[ebp+08h], al
  414301:	88 5d 09                  mov	[ebp+09h], bl
  414304:	6a 02                     push	dword 00000002h
  414306:	eb 09                     jmp	414311
  414308:	80 65 09 00              >and	byte [ebp+09h], 00h
  41430c:	88 5d 08                  mov	[ebp+08h], bl
  41430f:	6a 01                     push	dword 00000001h
  414311:	58                       >pop	eax
  414312:	8d 4d fc                  lea	ecx, [ebp-04h]
  414315:	6a 01                     push	dword 00000001h
  414317:	6a 00                     push	dword 00000000h
  414319:	6a 03                     push	dword 00000003h
  41431b:	51                        push	ecx
  41431c:	50                        push	eax
  41431d:	8d 45 08                  lea	eax, [ebp+08h]
  414320:	50                        push	eax
  414321:	68 00 02 00 00            push	dword 00000200h
  414326:	ff 35 84 af 46 00         push	dword [0046AF84h]
  41432c:	e8 93 f9 ff ff            call	413cc4
  414331:	83 c4 20                  add	esp, 20h
  414334:	85 c0                     test	eax, eax
  414336:	74 a9                     jz	4142e1
  414338:	83 f8 01                  cmp	eax, 01h
  41433b:	75 06                     jnz	414343
  41433d:	0f b6 45 fc               movzx	eax, byte [ebp-04h]
  414341:	eb 0d                     jmp	414350
  414343:	0f b6 45 fd              >movzx	eax, byte [ebp-03h]
  414347:	0f b6 4d fc               movzx	ecx, byte [ebp-04h]
  41434b:	c1 e0 08                  shl	eax, 08h
  41434e:	0b c1                     or	eax, ecx
  414350:	5b                       >pop	ebx
  414351:	c9                        leave
  414352:	c3                        ret

414353 <no name>:
  414353:	55                        push	ebp
  414354:	8b ec                     mov	ebp, esp
  414356:	51                        push	ecx
  414357:	8b 45 08                  mov	eax, [ebp+08h]
  41435a:	8d 48 01                  lea	ecx, [eax+01h]
  41435d:	81 f9 00 01 00 00         cmp	ecx, 00000100h
  414363:	77 0c                     ja	414371
  414365:	8b 0d 90 4d 46 00         mov	ecx, [00464D90h]
  41436b:	0f b7 04 41               movzx	eax, word [ecx+eax*2]
  41436f:	eb 52                     jmp	4143c3
  414371:	8b c8                    >mov	ecx, eax
  414373:	56                        push	esi
  414374:	8b 35 90 4d 46 00         mov	esi, [00464D90h]
  41437a:	c1 f9 08                  sar	ecx, 08h
  41437d:	0f b6 d1                  movzx	edx, cl
  414380:	f6 44 56 01 80            test	byte [esi+edx*2+01h], 80h
  414385:	5e                        pop	esi
  414386:	74 0e                     jz	414396
  414388:	80 65 fe 00               and	byte [ebp-02h], 00h
  41438c:	88 4d fc                  mov	[ebp-04h], cl
  41438f:	88 45 fd                  mov	[ebp-03h], al
  414392:	6a 02                     push	dword 00000002h
  414394:	eb 09                     jmp	41439f
  414396:	80 65 fd 00              >and	byte [ebp-03h], 00h
  41439a:	88 45 fc                  mov	[ebp-04h], al
  41439d:	6a 01                     push	dword 00000001h
  41439f:	58                       >pop	eax
  4143a0:	8d 4d 0a                  lea	ecx, [ebp+0Ah]
  4143a3:	6a 01                     push	dword 00000001h
  4143a5:	6a 00                     push	dword 00000000h
  4143a7:	6a 00                     push	dword 00000000h
  4143a9:	51                        push	ecx
  4143aa:	50                        push	eax
  4143ab:	8d 45 fc                  lea	eax, [ebp-04h]
  4143ae:	50                        push	eax
  4143af:	6a 01                     push	dword 00000001h
  4143b1:	e8 22 36 00 00            call	4179d8
  4143b6:	83 c4 1c                  add	esp, 1Ch
  4143b9:	85 c0                     test	eax, eax
  4143bb:	75 02                     jnz	4143bf
  4143bd:	c9                        leave
  4143be:	c3                        ret
  4143bf:	0f b7 45 0a              >movzx	eax, word [ebp+0Ah]
  4143c3:	23 45 0c                 >and	eax, [ebp+0Ch]
  4143c6:	c9                        leave
  4143c7:	c3                        ret
     ...

414867 <no name>:
  414867:	56                        push	esi
  414868:	8b 74 24 08               mov	esi, [esp+08h]
  41486c:	6a 00                     push	dword 00000000h
  41486e:	83 26 00                  and	dword [esi], 00h
  414871:	ff 15 f8 f3 44 00         call	dword [0044F3F8h]	; <GetModuleHandleA>
  414877:	66 81 38 4d 5a            cmp	word [eax], 5A4Dh
  41487c:	75 14                     jnz	414892
  41487e:	8b 48 3c                  mov	ecx, [eax+3Ch]
  414881:	85 c9                     test	ecx, ecx
  414883:	74 0d                     jz	414892
  414885:	03 c1                     add	eax, ecx
  414887:	8a 48 1a                  mov	cl, [eax+1Ah]
  41488a:	88 0e                     mov	[esi], cl
  41488c:	8a 40 1b                  mov	al, [eax+1Bh]
  41488f:	88 46 01                  mov	[esi+01h], al
  414892:	5e                       >pop	esi
  414893:	c3                        ret

414894 <no name>:
  414894:	55                        push	ebp
  414895:	8b ec                     mov	ebp, esp
  414897:	b8 2c 12 00 00            mov	eax, 0000122Ch
  41489c:	e8 8f c4 ff ff            call	410d30
  4148a1:	8d 85 68 ff ff ff         lea	eax, [ebp-00000098h]
  4148a7:	53                        push	ebx
  4148a8:	50                        push	eax
  4148a9:	c7 85 68 ff ff ff 94      mov	dword [ebp-00000098h], 00000094h
		00 00 00 
  4148b3:	ff 15 4c f4 44 00         call	dword [0044F44Ch]	; <GetVersionExA>
  4148b9:	85 c0                     test	eax, eax
  4148bb:	74 1a                     jz	4148d7
  4148bd:	83 bd 78 ff ff ff 02      cmp	dword [ebp-00000088h], 02h
  4148c4:	75 11                     jnz	4148d7
  4148c6:	83 bd 6c ff ff ff 05      cmp	dword [ebp-00000094h], 05h
  4148cd:	72 08                     jb	4148d7
  4148cf:	6a 01                     push	dword 00000001h
  4148d1:	58                        pop	eax
  4148d2:	e9 02 01 00 00            jmp	4149d9
  4148d7:	8d 85 d4 ed ff ff        >lea	eax, [ebp-0000122Ch]
  4148dd:	68 90 10 00 00            push	dword 00001090h
  4148e2:	50                        push	eax
  4148e3:	68 f8 44 45 00            push	dword 004544F8h
  4148e8:	ff 15 5c f2 44 00         call	dword [0044F25Ch]	; <GetEnvironmentVariableA>
  4148ee:	85 c0                     test	eax, eax
  4148f0:	0f 84 d0 00 00 00         jz	4149c6
  4148f6:	33 db                     xor	ebx, ebx
  4148f8:	8d 8d d4 ed ff ff         lea	ecx, [ebp-0000122Ch]
  4148fe:	38 9d d4 ed ff ff         cmp	[ebp-0000122Ch], bl
  414904:	74 13                     jz	414919
  414906:	8a 01                    >mov	al, [ecx]
  414908:	3c 61                     cmp	al, 61h
  41490a:	7c 08                     jl	414914
  41490c:	3c 7a                     cmp	al, 7Ah
  41490e:	7f 04                     jg	414914
  414910:	2c 20                     sub	al, 20h
  414912:	88 01                     mov	[ecx], al
  414914:	41                       >inc	ecx
  414915:	38 19                     cmp	[ecx], bl
  414917:	75 ed                     jnz	414906
  414919:	8d 85 d4 ed ff ff        >lea	eax, [ebp-0000122Ch]
  41491f:	6a 16                     push	dword 00000016h
  414921:	50                        push	eax
  414922:	68 e0 44 45 00            push	dword 004544E0h
  414927:	e8 74 30 00 00            call	4179a0
  41492c:	83 c4 0c                  add	esp, 0Ch
  41492f:	85 c0                     test	eax, eax
  414931:	75 08                     jnz	41493b
  414933:	8d 85 d4 ed ff ff         lea	eax, [ebp-0000122Ch]
  414939:	eb 49                     jmp	414984
  41493b:	8d 85 64 fe ff ff        >lea	eax, [ebp-0000019Ch]
  414941:	68 04 01 00 00            push	dword 00000104h
  414946:	50                        push	eax
  414947:	53                        push	ebx
  414948:	ff 15 68 f3 44 00         call	dword [0044F368h]	; <GetModuleFileNameA>
  41494e:	38 9d 64 fe ff ff         cmp	[ebp-0000019Ch], bl
  414954:	8d 8d 64 fe ff ff         lea	ecx, [ebp-0000019Ch]
  41495a:	74 13                     jz	41496f
  41495c:	8a 01                    >mov	al, [ecx]
  41495e:	3c 61                     cmp	al, 61h
  414960:	7c 08                     jl	41496a
  414962:	3c 7a                     cmp	al, 7Ah
  414964:	7f 04                     jg	41496a
  414966:	2c 20                     sub	al, 20h
  414968:	88 01                     mov	[ecx], al
  41496a:	41                       >inc	ecx
  41496b:	38 19                     cmp	[ecx], bl
  41496d:	75 ed                     jnz	41495c
  41496f:	8d 85 64 fe ff ff        >lea	eax, [ebp-0000019Ch]
  414975:	50                        push	eax
  414976:	8d 85 d4 ed ff ff         lea	eax, [ebp-0000122Ch]
  41497c:	50                        push	eax
  41497d:	e8 3e b2 ff ff            call	40fbc0
  414982:	59                        pop	ecx
  414983:	59                        pop	ecx
  414984:	3b c3                    >cmp	eax, ebx
  414986:	74 3e                     jz	4149c6
  414988:	6a 2c                     push	dword 0000002Ch
  41498a:	50                        push	eax
  41498b:	e8 60 f7 ff ff            call	4140f0
  414990:	59                        pop	ecx
  414991:	3b c3                     cmp	eax, ebx
  414993:	59                        pop	ecx
  414994:	74 30                     jz	4149c6
  414996:	40                        inc	eax
  414997:	8b c8                     mov	ecx, eax
  414999:	38 18                     cmp	[eax], bl
  41499b:	74 0e                     jz	4149ab
  41499d:	80 39 3b                 >cmp	byte [ecx], 3Bh
  4149a0:	75 04                     jnz	4149a6
  4149a2:	88 19                     mov	[ecx], bl
  4149a4:	eb 01                     jmp	4149a7
  4149a6:	41                       >inc	ecx
  4149a7:	38 19                    >cmp	[ecx], bl
  4149a9:	75 f2                     jnz	41499d
  4149ab:	6a 0a                    >push	dword 0000000Ah
  4149ad:	53                        push	ebx
  4149ae:	50                        push	eax
  4149af:	e8 f0 b5 ff ff            call	40ffa4
  4149b4:	83 c4 0c                  add	esp, 0Ch
  4149b7:	83 f8 02                  cmp	eax, 02h
  4149ba:	74 1d                     jz	4149d9
  4149bc:	83 f8 03                  cmp	eax, 03h
  4149bf:	74 18                     jz	4149d9
  4149c1:	83 f8 01                  cmp	eax, 01h
  4149c4:	74 13                     jz	4149d9
  4149c6:	8d 45 fc                 >lea	eax, [ebp-04h]
  4149c9:	50                        push	eax
  4149ca:	e8 98 fe ff ff            call	414867
  4149cf:	80 7d fc 06               cmp	byte [ebp-04h], 06h
  4149d3:	59                        pop	ecx
  4149d4:	1b c0                     sbb	eax, eax
  4149d6:	83 c0 03                  add	eax, 03h
  4149d9:	5b                       >pop	ebx
  4149da:	c9                        leave
  4149db:	c3                        ret

4149dc <no name>:
  4149dc:	33 c0                     xor	eax, eax
  4149de:	6a 00                     push	dword 00000000h
  4149e0:	39 44 24 08               cmp	[esp+08h], eax
  4149e4:	68 00 10 00 00            push	dword 00001000h
  4149e9:	0f 94 c0                  setz	al
  4149ec:	50                        push	eax
  4149ed:	ff 15 b0 f3 44 00         call	dword [0044F3B0h]	; <HeapCreate>
  4149f3:	85 c0                     test	eax, eax
  4149f5:	a3 04 c8 46 00            mov	[46C804h], eax
  4149fa:	74 36                     jz	414a32
  4149fc:	e8 93 fe ff ff            call	414894
  414a01:	83 f8 03                  cmp	eax, 03h
  414a04:	a3 08 c8 46 00            mov	[46C808h], eax
  414a09:	75 0d                     jnz	414a18
  414a0b:	68 f8 03 00 00            push	dword 000003F8h
  414a10:	e8 9e 01 00 00            call	414bb3
  414a15:	59                        pop	ecx
  414a16:	eb 0a                     jmp	414a22
  414a18:	83 f8 02                 >cmp	eax, 02h
  414a1b:	75 18                     jnz	414a35
  414a1d:	e8 fa 10 00 00            call	415b1c
  414a22:	85 c0                    >test	eax, eax
  414a24:	75 0f                     jnz	414a35
  414a26:	ff 35 04 c8 46 00         push	dword [0046C804h]
  414a2c:	ff 15 60 f3 44 00         call	dword [0044F360h]	; <HeapDestroy>
  414a32:	33 c0                    >xor	eax, eax
  414a34:	c3                        ret
  414a35:	6a 01                    >push	dword 00000001h
  414a37:	58                        pop	eax
  414a38:	c3                        ret
     ...

414bb3 <no name>:
  414bb3:	68 40 01 00 00            push	dword 00000140h
  414bb8:	6a 00                     push	dword 00000000h
  414bba:	ff 35 04 c8 46 00         push	dword [0046C804h]
  414bc0:	ff 15 24 f2 44 00         call	dword [0044F224h]	; <HeapAlloc>
  414bc6:	85 c0                     test	eax, eax
  414bc8:	a3 fc c7 46 00            mov	[46C7FCh], eax
  414bcd:	75 01                     jnz	414bd0
  414bcf:	c3                        ret
  414bd0:	8b 4c 24 04              >mov	ecx, [esp+04h]
  414bd4:	83 25 f4 c7 46 00 00      and	dword [0046C7F4h], 00h
  414bdb:	83 25 f8 c7 46 00 00      and	dword [0046C7F8h], 00h
  414be2:	6a 01                     push	dword 00000001h
  414be4:	a3 ec c7 46 00            mov	[46C7ECh], eax
  414be9:	89 0d 00 c8 46 00         mov	[0046C800h], ecx
  414bef:	c7 05 e4 c7 46 00 10      mov	dword [0046C7E4h], 00000010h
		00 00 00 
  414bf9:	58                        pop	eax
  414bfa:	c3                        ret

414bfb <no name>:
  414bfb:	a1 f8 c7 46 00            mov	eax, [46C7F8h]
  414c00:	8d 0c 80                  lea	ecx, [eax+eax*4]
  414c03:	a1 fc c7 46 00            mov	eax, [46C7FCh]
  414c08:	8d 0c 88                  lea	ecx, [eax+ecx*4]
  414c0b:	3b c1                    >cmp	eax, ecx
  414c0d:	73 14                     jae	414c23
  414c0f:	8b 54 24 04               mov	edx, [esp+04h]
  414c13:	2b 50 0c                  sub	edx, [eax+0Ch]
  414c16:	81 fa 00 00 10 00         cmp	edx, 00100000h
  414c1c:	72 07                     jb	414c25
  414c1e:	83 c0 14                  add	eax, 14h
  414c21:	eb e8                     jmp	414c0b
  414c23:	33 c0                    >xor	eax, eax
  414c25:	c3                       >ret

414c26 <no name>:
  414c26:	55                        push	ebp
  414c27:	8b ec                     mov	ebp, esp
  414c29:	83 ec 10                  sub	esp, 10h
  414c2c:	8b 4d 08                  mov	ecx, [ebp+08h]
  414c2f:	53                        push	ebx
  414c30:	56                        push	esi
  414c31:	8b 75 0c                  mov	esi, [ebp+0Ch]
  414c34:	8b 41 10                  mov	eax, [ecx+10h]
  414c37:	57                        push	edi
  414c38:	8b fe                     mov	edi, esi
  414c3a:	83 c6 fc                  add	esi, FCh
  414c3d:	2b 79 0c                  sub	edi, [ecx+0Ch]
  414c40:	c1 ef 0f                  shr	edi, 0Fh
  414c43:	8b cf                     mov	ecx, edi
  414c45:	69 c9 04 02 00 00         imul	ecx, ecx, 00000204h
  414c4b:	8d 8c 01 44 01 00 00      lea	ecx, [ecx+eax*1+00000144h]
  414c52:	89 4d f0                  mov	[ebp-10h], ecx
  414c55:	8b 0e                     mov	ecx, [esi]
  414c57:	49                        dec	ecx
  414c58:	f6 c1 01                  test	cl, 01h
  414c5b:	89 4d fc                  mov	[ebp-04h], ecx
  414c5e:	0f 85 e6 02 00 00         jnz	414f4a
  414c64:	8b 14 31                  mov	edx, [ecx+esi*1]
  414c67:	8d 1c 31                  lea	ebx, [ecx+esi*1]
  414c6a:	89 55 f4                  mov	[ebp-0Ch], edx
  414c6d:	8b 56 fc                  mov	edx, [esi-04h]
  414c70:	89 55 f8                  mov	[ebp-08h], edx
  414c73:	8b 55 f4                  mov	edx, [ebp-0Ch]
  414c76:	f6 c2 01                  test	dl, 01h
  414c79:	89 5d 0c                  mov	[ebp+0Ch], ebx
  414c7c:	75 7e                     jnz	414cfc
  414c7e:	c1 fa 04                  sar	edx, 04h
  414c81:	4a                        dec	edx
  414c82:	83 fa 3f                  cmp	edx, 3Fh
  414c85:	76 03                     jbe	414c8a
  414c87:	6a 3f                     push	dword 0000003Fh
  414c89:	5a                        pop	edx
  414c8a:	8b 4b 04                 >mov	ecx, [ebx+04h]
  414c8d:	3b 4b 08                  cmp	ecx, [ebx+08h]
  414c90:	75 4c                     jnz	414cde
  414c92:	83 fa 20                  cmp	edx, 20h
  414c95:	73 1e                     jae	414cb5
  414c97:	bb 00 00 00 80            mov	ebx, 80000000h
  414c9c:	8b ca                     mov	ecx, edx
  414c9e:	d3 eb                     shr	ebx, cl
  414ca0:	8d 4c 02 04               lea	ecx, [edx+eax*1+04h]
  414ca4:	f7 d3                     not	ebx
  414ca6:	21 5c b8 44               and	[eax+edi*4+44h], ebx
  414caa:	fe 09                     dec	byte [ecx]
  414cac:	75 28                     jnz	414cd6
  414cae:	8b 4d 08                  mov	ecx, [ebp+08h]
  414cb1:	21 19                     and	[ecx], ebx
  414cb3:	eb 21                     jmp	414cd6
  414cb5:	8d 4a e0                 >lea	ecx, [edx-20h]
  414cb8:	bb 00 00 00 80            mov	ebx, 80000000h
  414cbd:	d3 eb                     shr	ebx, cl
  414cbf:	8d 4c 02 04               lea	ecx, [edx+eax*1+04h]
  414cc3:	f7 d3                     not	ebx
  414cc5:	21 9c b8 c4 00 00 00      and	[eax+edi*4+000000C4h], ebx
  414ccc:	fe 09                     dec	byte [ecx]
  414cce:	75 06                     jnz	414cd6
  414cd0:	8b 4d 08                  mov	ecx, [ebp+08h]
  414cd3:	21 59 04                  and	[ecx+04h], ebx
  414cd6:	8b 4d fc                 >mov	ecx, [ebp-04h]
  414cd9:	8b 5d 0c                  mov	ebx, [ebp+0Ch]
  414cdc:	eb 03                     jmp	414ce1
  414cde:	8b 4d fc                 >mov	ecx, [ebp-04h]
  414ce1:	8b 53 08                 >mov	edx, [ebx+08h]
  414ce4:	8b 5b 04                  mov	ebx, [ebx+04h]
  414ce7:	03 4d f4                  add	ecx, [ebp-0Ch]
  414cea:	89 5a 04                  mov	[edx+04h], ebx
  414ced:	8b 55 0c                  mov	edx, [ebp+0Ch]
  414cf0:	89 4d fc                  mov	[ebp-04h], ecx
  414cf3:	8b 5a 04                  mov	ebx, [edx+04h]
  414cf6:	8b 52 08                  mov	edx, [edx+08h]
  414cf9:	89 53 08                  mov	[ebx+08h], edx
  414cfc:	8b d1                    >mov	edx, ecx
  414cfe:	c1 fa 04                  sar	edx, 04h
  414d01:	4a                        dec	edx
  414d02:	83 fa 3f                  cmp	edx, 3Fh
  414d05:	76 03                     jbe	414d0a
  414d07:	6a 3f                     push	dword 0000003Fh
  414d09:	5a                        pop	edx
  414d0a:	8b 5d f8                 >mov	ebx, [ebp-08h]
  414d0d:	83 e3 01                  and	ebx, 01h
  414d10:	89 5d f4                  mov	[ebp-0Ch], ebx
  414d13:	0f 85 94 00 00 00         jnz	414dad
  414d19:	2b 75 f8                  sub	esi, [ebp-08h]
  414d1c:	8b 5d f8                  mov	ebx, [ebp-08h]
  414d1f:	c1 fb 04                  sar	ebx, 04h
  414d22:	6a 3f                     push	dword 0000003Fh
  414d24:	89 75 0c                  mov	[ebp+0Ch], esi
  414d27:	4b                        dec	ebx
  414d28:	5e                        pop	esi
  414d29:	3b de                     cmp	ebx, esi
  414d2b:	76 02                     jbe	414d2f
  414d2d:	8b de                     mov	ebx, esi
  414d2f:	03 4d f8                 >add	ecx, [ebp-08h]
  414d32:	8b d1                     mov	edx, ecx
  414d34:	89 4d fc                  mov	[ebp-04h], ecx
  414d37:	c1 fa 04                  sar	edx, 04h
  414d3a:	4a                        dec	edx
  414d3b:	3b d6                     cmp	edx, esi
  414d3d:	76 02                     jbe	414d41
  414d3f:	8b d6                     mov	edx, esi
  414d41:	3b da                    >cmp	ebx, edx
  414d43:	74 63                     jz	414da8
  414d45:	8b 4d 0c                  mov	ecx, [ebp+0Ch]
  414d48:	8b 71 04                  mov	esi, [ecx+04h]
  414d4b:	3b 71 08                  cmp	esi, [ecx+08h]
  414d4e:	75 40                     jnz	414d90
  414d50:	83 fb 20                  cmp	ebx, 20h
  414d53:	73 1c                     jae	414d71
  414d55:	be 00 00 00 80            mov	esi, 80000000h
  414d5a:	8b cb                     mov	ecx, ebx
  414d5c:	d3 ee                     shr	esi, cl
  414d5e:	f7 d6                     not	esi
  414d60:	21 74 b8 44               and	[eax+edi*4+44h], esi
  414d64:	fe 4c 03 04               dec	byte [ebx+eax*1+04h]
  414d68:	75 26                     jnz	414d90
  414d6a:	8b 4d 08                  mov	ecx, [ebp+08h]
  414d6d:	21 31                     and	[ecx], esi
  414d6f:	eb 1f                     jmp	414d90
  414d71:	8d 4b e0                 >lea	ecx, [ebx-20h]
  414d74:	be 00 00 00 80            mov	esi, 80000000h
  414d79:	d3 ee                     shr	esi, cl
  414d7b:	f7 d6                     not	esi
  414d7d:	21 b4 b8 c4 00 00 00      and	[eax+edi*4+000000C4h], esi
  414d84:	fe 4c 03 04               dec	byte [ebx+eax*1+04h]
  414d88:	75 06                     jnz	414d90
  414d8a:	8b 4d 08                  mov	ecx, [ebp+08h]
  414d8d:	21 71 04                  and	[ecx+04h], esi
  414d90:	8b 4d 0c                 >mov	ecx, [ebp+0Ch]
  414d93:	8b 71 08                  mov	esi, [ecx+08h]
  414d96:	8b 49 04                  mov	ecx, [ecx+04h]
  414d99:	89 4e 04                  mov	[esi+04h], ecx
  414d9c:	8b 4d 0c                  mov	ecx, [ebp+0Ch]
  414d9f:	8b 71 04                  mov	esi, [ecx+04h]
  414da2:	8b 49 08                  mov	ecx, [ecx+08h]
  414da5:	89 4e 08                  mov	[esi+08h], ecx
  414da8:	8b 75 0c                 >mov	esi, [ebp+0Ch]
  414dab:	eb 03                     jmp	414db0
  414dad:	8b 5d 08                 >mov	ebx, [ebp+08h]
  414db0:	83 7d f4 00              >cmp	dword [ebp-0Ch], 00h
  414db4:	75 08                     jnz	414dbe
  414db6:	3b da                     cmp	ebx, edx
  414db8:	0f 84 81 00 00 00         jz	414e3f
  414dbe:	8b 4d f0                 >mov	ecx, [ebp-10h]
  414dc1:	8b 5c d1 04               mov	ebx, [ecx+edx*8+04h]
  414dc5:	8d 0c d1                  lea	ecx, [ecx+edx*8]
  414dc8:	89 5e 04                  mov	[esi+04h], ebx
  414dcb:	89 4e 08                  mov	[esi+08h], ecx
  414dce:	89 71 04                  mov	[ecx+04h], esi
  414dd1:	8b 4e 04                  mov	ecx, [esi+04h]
  414dd4:	89 71 08                  mov	[ecx+08h], esi
  414dd7:	8b 4e 04                  mov	ecx, [esi+04h]
  414dda:	3b 4e 08                  cmp	ecx, [esi+08h]
  414ddd:	75 60                     jnz	414e3f
  414ddf:	8a 4c 02 04               mov	cl, [edx+eax*1+04h]
  414de3:	83 fa 20                  cmp	edx, 20h
  414de6:	88 4d 0f                  mov	[ebp+0Fh], cl
  414de9:	fe c1                     inc	cl
  414deb:	88 4c 02 04               mov	[edx+eax*1+04h], cl
  414def:	73 25                     jae	414e16
  414df1:	80 7d 0f 00               cmp	byte [ebp+0Fh], 00h
  414df5:	75 0e                     jnz	414e05
  414df7:	bb 00 00 00 80            mov	ebx, 80000000h
  414dfc:	8b ca                     mov	ecx, edx
  414dfe:	d3 eb                     shr	ebx, cl
  414e00:	8b 4d 08                  mov	ecx, [ebp+08h]
  414e03:	09 19                     or	[ecx], ebx
  414e05:	bb 00 00 00 80           >mov	ebx, 80000000h
  414e0a:	8b ca                     mov	ecx, edx
  414e0c:	d3 eb                     shr	ebx, cl
  414e0e:	8d 44 b8 44               lea	eax, [eax+edi*4+44h]
  414e12:	09 18                     or	[eax], ebx
  414e14:	eb 29                     jmp	414e3f
  414e16:	80 7d 0f 00              >cmp	byte [ebp+0Fh], 00h
  414e1a:	75 10                     jnz	414e2c
  414e1c:	8d 4a e0                  lea	ecx, [edx-20h]
  414e1f:	bb 00 00 00 80            mov	ebx, 80000000h
  414e24:	d3 eb                     shr	ebx, cl
  414e26:	8b 4d 08                  mov	ecx, [ebp+08h]
  414e29:	09 59 04                  or	[ecx+04h], ebx
  414e2c:	8d 4a e0                 >lea	ecx, [edx-20h]
  414e2f:	ba 00 00 00 80            mov	edx, 80000000h
  414e34:	d3 ea                     shr	edx, cl
  414e36:	8d 84 b8 c4 00 00 00      lea	eax, [eax+edi*4+000000C4h]
  414e3d:	09 10                     or	[eax], edx
  414e3f:	8b 45 fc                 >mov	eax, [ebp-04h]
  414e42:	89 06                     mov	[esi], eax
  414e44:	89 44 30 fc               mov	[eax+esi*1-04h], eax
  414e48:	8b 45 f0                  mov	eax, [ebp-10h]
  414e4b:	ff 08                     dec	dword [eax]
  414e4d:	0f 85 f7 00 00 00         jnz	414f4a
  414e53:	a1 f4 c7 46 00            mov	eax, [46C7F4h]
  414e58:	85 c0                     test	eax, eax
  414e5a:	0f 84 dc 00 00 00         jz	414f3c
  414e60:	8b 0d e8 c7 46 00         mov	ecx, [0046C7E8h]
  414e66:	8b 35 b4 f3 44 00         mov	esi, [0044F3B4h]
  414e6c:	c1 e1 0f                  shl	ecx, 0Fh
  414e6f:	03 48 0c                  add	ecx, [eax+0Ch]
  414e72:	bb 00 80 00 00            mov	ebx, 00008000h
  414e77:	68 00 40 00 00            push	dword 00004000h
  414e7c:	53                        push	ebx
  414e7d:	51                        push	ecx
  414e7e:	ff d6                     call	esi
  414e80:	8b 0d e8 c7 46 00         mov	ecx, [0046C7E8h]
  414e86:	a1 f4 c7 46 00            mov	eax, [46C7F4h]
  414e8b:	ba 00 00 00 80            mov	edx, 80000000h
  414e90:	d3 ea                     shr	edx, cl
  414e92:	09 50 08                  or	[eax+08h], edx
  414e95:	a1 f4 c7 46 00            mov	eax, [46C7F4h]
  414e9a:	8b 0d e8 c7 46 00         mov	ecx, [0046C7E8h]
  414ea0:	8b 40 10                  mov	eax, [eax+10h]
  414ea3:	83 a4 88 c4 00 00 00      and	dword [eax+ecx*4+000000C4h], 00h
		00 
  414eab:	a1 f4 c7 46 00            mov	eax, [46C7F4h]
  414eb0:	8b 40 10                  mov	eax, [eax+10h]
  414eb3:	fe 48 43                  dec	byte [eax+43h]
  414eb6:	a1 f4 c7 46 00            mov	eax, [46C7F4h]
  414ebb:	8b 48 10                  mov	ecx, [eax+10h]
  414ebe:	80 79 43 00               cmp	byte [ecx+43h], 00h
  414ec2:	75 09                     jnz	414ecd
  414ec4:	83 60 04 fe               and	dword [eax+04h], FEh
  414ec8:	a1 f4 c7 46 00            mov	eax, [46C7F4h]
  414ecd:	83 78 08 ff              >cmp	dword [eax+08h], FFh
  414ed1:	75 69                     jnz	414f3c
  414ed3:	53                        push	ebx
  414ed4:	6a 00                     push	dword 00000000h
  414ed6:	ff 70 0c                  push	dword [eax+0Ch]
  414ed9:	ff d6                     call	esi
  414edb:	a1 f4 c7 46 00            mov	eax, [46C7F4h]
  414ee0:	ff 70 10                  push	dword [eax+10h]
  414ee3:	6a 00                     push	dword 00000000h
  414ee5:	ff 35 04 c8 46 00         push	dword [0046C804h]
  414eeb:	ff 15 14 f2 44 00         call	dword [0044F214h]	; <HeapFree>
  414ef1:	a1 f8 c7 46 00            mov	eax, [46C7F8h]
  414ef6:	8b 15 fc c7 46 00         mov	edx, [0046C7FCh]
  414efc:	8d 04 80                  lea	eax, [eax+eax*4]
  414eff:	c1 e0 02                  shl	eax, 02h
  414f02:	8b c8                     mov	ecx, eax
  414f04:	a1 f4 c7 46 00            mov	eax, [46C7F4h]
  414f09:	2b c8                     sub	ecx, eax
  414f0b:	8d 4c 11 ec               lea	ecx, [ecx+edx*1-14h]
  414f0f:	51                        push	ecx
  414f10:	8d 48 14                  lea	ecx, [eax+14h]
  414f13:	51                        push	ecx
  414f14:	50                        push	eax
  414f15:	e8 86 a4 ff ff            call	40f3a0
  414f1a:	8b 45 08                  mov	eax, [ebp+08h]
  414f1d:	83 c4 0c                  add	esp, 0Ch
  414f20:	ff 0d f8 c7 46 00         dec	dword [0046C7F8h]
  414f26:	3b 05 f4 c7 46 00         cmp	eax, [0046C7F4h]
  414f2c:	76 04                     jbe	414f32
  414f2e:	83 6d 08 14               sub	dword [ebp+08h], 14h
  414f32:	a1 fc c7 46 00           >mov	eax, [46C7FCh]
  414f37:	a3 ec c7 46 00            mov	[46C7ECh], eax
  414f3c:	8b 45 08                 >mov	eax, [ebp+08h]
  414f3f:	89 3d e8 c7 46 00         mov	[0046C7E8h], edi
  414f45:	a3 f4 c7 46 00            mov	[46C7F4h], eax
  414f4a:	5f                       >pop	edi
  414f4b:	5e                        pop	esi
  414f4c:	5b                        pop	ebx
  414f4d:	c9                        leave
  414f4e:	c3                        ret

414f4f <no name>:
  414f4f:	55                        push	ebp
  414f50:	8b ec                     mov	ebp, esp
  414f52:	83 ec 14                  sub	esp, 14h
  414f55:	a1 f8 c7 46 00            mov	eax, [46C7F8h]
  414f5a:	8b 15 fc c7 46 00         mov	edx, [0046C7FCh]
  414f60:	53                        push	ebx
  414f61:	56                        push	esi
  414f62:	8d 04 80                  lea	eax, [eax+eax*4]
  414f65:	57                        push	edi
  414f66:	8d 3c 82                  lea	edi, [edx+eax*4]
  414f69:	8b 45 08                  mov	eax, [ebp+08h]
  414f6c:	89 7d fc                  mov	[ebp-04h], edi
  414f6f:	8d 48 17                  lea	ecx, [eax+17h]
  414f72:	83 e1 f0                  and	ecx, F0h
  414f75:	89 4d f0                  mov	[ebp-10h], ecx
  414f78:	c1 f9 04                  sar	ecx, 04h
  414f7b:	49                        dec	ecx
  414f7c:	83 f9 20                  cmp	ecx, 20h
  414f7f:	7d 0e                     jge	414f8f
  414f81:	83 ce ff                  or	esi, FFh
  414f84:	d3 ee                     shr	esi, cl
  414f86:	83 4d f8 ff               or	dword [ebp-08h], FFh
  414f8a:	89 75 f4                  mov	[ebp-0Ch], esi
  414f8d:	eb 10                     jmp	414f9f
  414f8f:	83 c1 e0                 >add	ecx, E0h
  414f92:	83 c8 ff                  or	eax, FFh
  414f95:	33 f6                     xor	esi, esi
  414f97:	d3 e8                     shr	eax, cl
  414f99:	89 75 f4                  mov	[ebp-0Ch], esi
  414f9c:	89 45 f8                  mov	[ebp-08h], eax
  414f9f:	a1 ec c7 46 00           >mov	eax, [46C7ECh]
  414fa4:	8b d8                     mov	ebx, eax
  414fa6:	3b df                     cmp	ebx, edi
  414fa8:	89 5d 08                  mov	[ebp+08h], ebx
  414fab:	73 19                     jae	414fc6
  414fad:	8b 4b 04                 >mov	ecx, [ebx+04h]
  414fb0:	8b 3b                     mov	edi, [ebx]
  414fb2:	23 4d f8                  and	ecx, [ebp-08h]
  414fb5:	23 fe                     and	edi, esi
  414fb7:	0b cf                     or	ecx, edi
  414fb9:	75 0b                     jnz	414fc6
  414fbb:	83 c3 14                  add	ebx, 14h
  414fbe:	3b 5d fc                  cmp	ebx, [ebp-04h]
  414fc1:	89 5d 08                  mov	[ebp+08h], ebx
  414fc4:	72 e7                     jb	414fad
  414fc6:	3b 5d fc                 >cmp	ebx, [ebp-04h]
  414fc9:	75 79                     jnz	415044
  414fcb:	8b da                     mov	ebx, edx
  414fcd:	3b d8                    >cmp	ebx, eax
  414fcf:	89 5d 08                  mov	[ebp+08h], ebx
  414fd2:	73 15                     jae	414fe9
  414fd4:	8b 4b 04                  mov	ecx, [ebx+04h]
  414fd7:	8b 3b                     mov	edi, [ebx]
  414fd9:	23 4d f8                  and	ecx, [ebp-08h]
  414fdc:	23 fe                     and	edi, esi
  414fde:	0b cf                     or	ecx, edi
  414fe0:	75 05                     jnz	414fe7
  414fe2:	83 c3 14                  add	ebx, 14h
  414fe5:	eb e6                     jmp	414fcd
  414fe7:	3b d8                    >cmp	ebx, eax
  414fe9:	75 59                    >jnz	415044
  414feb:	3b 5d fc                 >cmp	ebx, [ebp-04h]
  414fee:	73 11                     jae	415001
  414ff0:	83 7b 08 00               cmp	dword [ebx+08h], 00h
  414ff4:	75 08                     jnz	414ffe
  414ff6:	83 c3 14                  add	ebx, 14h
  414ff9:	89 5d 08                  mov	[ebp+08h], ebx
  414ffc:	eb ed                     jmp	414feb
  414ffe:	3b 5d fc                 >cmp	ebx, [ebp-04h]
  415001:	75 26                    >jnz	415029
  415003:	8b da                     mov	ebx, edx
  415005:	3b d8                    >cmp	ebx, eax
  415007:	89 5d 08                  mov	[ebp+08h], ebx
  41500a:	73 0d                     jae	415019
  41500c:	83 7b 08 00               cmp	dword [ebx+08h], 00h
  415010:	75 05                     jnz	415017
  415012:	83 c3 14                  add	ebx, 14h
  415015:	eb ee                     jmp	415005
  415017:	3b d8                    >cmp	ebx, eax
  415019:	75 0e                    >jnz	415029
  41501b:	e8 38 02 00 00            call	415258
  415020:	8b d8                     mov	ebx, eax
  415022:	85 db                     test	ebx, ebx
  415024:	89 5d 08                  mov	[ebp+08h], ebx
  415027:	74 14                     jz	41503d
  415029:	53                       >push	ebx
  41502a:	e8 da 02 00 00            call	415309
  41502f:	59                        pop	ecx
  415030:	8b 4b 10                  mov	ecx, [ebx+10h]
  415033:	89 01                     mov	[ecx], eax
  415035:	8b 43 10                  mov	eax, [ebx+10h]
  415038:	83 38 ff                  cmp	dword [eax], FFh
  41503b:	75 07                     jnz	415044
  41503d:	33 c0                    >xor	eax, eax
  41503f:	e9 0f 02 00 00            jmp	415253
  415044:	89 1d ec c7 46 00        >mov	[0046C7ECh], ebx
  41504a:	8b 43 10                  mov	eax, [ebx+10h]
  41504d:	8b 10                     mov	edx, [eax]
  41504f:	83 fa ff                  cmp	edx, FFh
  415052:	89 55 fc                  mov	[ebp-04h], edx
  415055:	74 14                     jz	41506b
  415057:	8b 8c 90 c4 00 00 00      mov	ecx, [eax+edx*4+000000C4h]
  41505e:	8b 7c 90 44               mov	edi, [eax+edx*4+44h]
  415062:	23 4d f8                  and	ecx, [ebp-08h]
  415065:	23 fe                     and	edi, esi
  415067:	0b cf                     or	ecx, edi
  415069:	75 37                     jnz	4150a2
  41506b:	8b 90 c4 00 00 00        >mov	edx, [eax+000000C4h]
  415071:	8b 70 44                  mov	esi, [eax+44h]
  415074:	23 55 f8                  and	edx, [ebp-08h]
  415077:	23 75 f4                  and	esi, [ebp-0Ch]
  41507a:	83 65 fc 00               and	dword [ebp-04h], 00h
  41507e:	8d 48 44                  lea	ecx, [eax+44h]
  415081:	0b d6                     or	edx, esi
  415083:	8b 75 f4                  mov	esi, [ebp-0Ch]
  415086:	75 17                     jnz	41509f
  415088:	8b 91 84 00 00 00        >mov	edx, [ecx+00000084h]
  41508e:	ff 45 fc                  inc	dword [ebp-04h]
  415091:	23 55 f8                  and	edx, [ebp-08h]
  415094:	83 c1 04                  add	ecx, 04h
  415097:	8b fe                     mov	edi, esi
  415099:	23 39                     and	edi, [ecx]
  41509b:	0b d7                     or	edx, edi
  41509d:	74 e9                     jz	415088
  41509f:	8b 55 fc                 >mov	edx, [ebp-04h]
  4150a2:	8b ca                    >mov	ecx, edx
  4150a4:	33 ff                     xor	edi, edi
  4150a6:	69 c9 04 02 00 00         imul	ecx, ecx, 00000204h
  4150ac:	8d 8c 01 44 01 00 00      lea	ecx, [ecx+eax*1+00000144h]
  4150b3:	89 4d f4                  mov	[ebp-0Ch], ecx
  4150b6:	8b 4c 90 44               mov	ecx, [eax+edx*4+44h]
  4150ba:	23 ce                     and	ecx, esi
  4150bc:	75 0d                     jnz	4150cb
  4150be:	8b 8c 90 c4 00 00 00      mov	ecx, [eax+edx*4+000000C4h]
  4150c5:	6a 20                     push	dword 00000020h
  4150c7:	23 4d f8                  and	ecx, [ebp-08h]
  4150ca:	5f                        pop	edi
  4150cb:	85 c9                    >test	ecx, ecx
  4150cd:	7c 05                     jl	4150d4
  4150cf:	d1 e1                     shl	ecx, 1h
  4150d1:	47                        inc	edi
  4150d2:	eb f7                     jmp	4150cb
  4150d4:	8b 4d f4                 >mov	ecx, [ebp-0Ch]
  4150d7:	8b 54 f9 04               mov	edx, [ecx+edi*8+04h]
  4150db:	8b 0a                     mov	ecx, [edx]
  4150dd:	2b 4d f0                  sub	ecx, [ebp-10h]
  4150e0:	8b f1                     mov	esi, ecx
  4150e2:	89 4d f8                  mov	[ebp-08h], ecx
  4150e5:	c1 fe 04                  sar	esi, 04h
  4150e8:	4e                        dec	esi
  4150e9:	83 fe 3f                  cmp	esi, 3Fh
  4150ec:	7e 03                     jle	4150f1
  4150ee:	6a 3f                     push	dword 0000003Fh
  4150f0:	5e                        pop	esi
  4150f1:	3b f7                    >cmp	esi, edi
  4150f3:	0f 84 0d 01 00 00         jz	415206
  4150f9:	8b 4a 04                  mov	ecx, [edx+04h]
  4150fc:	3b 4a 08                  cmp	ecx, [edx+08h]
  4150ff:	75 61                     jnz	415162
  415101:	83 ff 20                  cmp	edi, 20h
  415104:	7d 2b                     jge	415131
  415106:	bb 00 00 00 80            mov	ebx, 80000000h
  41510b:	8b cf                     mov	ecx, edi
  41510d:	d3 eb                     shr	ebx, cl
  41510f:	8b 4d fc                  mov	ecx, [ebp-04h]
  415112:	8d 7c 38 04               lea	edi, [eax+edi*1+04h]
  415116:	f7 d3                     not	ebx
  415118:	89 5d ec                  mov	[ebp-14h], ebx
  41511b:	23 5c 88 44               and	ebx, [eax+ecx*4+44h]
  41511f:	89 5c 88 44               mov	[eax+ecx*4+44h], ebx
  415123:	fe 0f                     dec	byte [edi]
  415125:	75 38                     jnz	41515f
  415127:	8b 5d 08                  mov	ebx, [ebp+08h]
  41512a:	8b 4d ec                  mov	ecx, [ebp-14h]
  41512d:	21 0b                     and	[ebx], ecx
  41512f:	eb 31                     jmp	415162
  415131:	8d 4f e0                 >lea	ecx, [edi-20h]
  415134:	bb 00 00 00 80            mov	ebx, 80000000h
  415139:	d3 eb                     shr	ebx, cl
  41513b:	8b 4d fc                  mov	ecx, [ebp-04h]
  41513e:	8d 7c 38 04               lea	edi, [eax+edi*1+04h]
  415142:	8d 8c 88 c4 00 00 00      lea	ecx, [eax+ecx*4+000000C4h]
  415149:	f7 d3                     not	ebx
  41514b:	21 19                     and	[ecx], ebx
  41514d:	fe 0f                     dec	byte [edi]
  41514f:	89 5d ec                  mov	[ebp-14h], ebx
  415152:	75 0b                     jnz	41515f
  415154:	8b 5d 08                  mov	ebx, [ebp+08h]
  415157:	8b 4d ec                  mov	ecx, [ebp-14h]
  41515a:	21 4b 04                  and	[ebx+04h], ecx
  41515d:	eb 03                     jmp	415162
  41515f:	8b 5d 08                 >mov	ebx, [ebp+08h]
  415162:	8b 4a 08                 >mov	ecx, [edx+08h]
  415165:	8b 7a 04                  mov	edi, [edx+04h]
  415168:	83 7d f8 00               cmp	dword [ebp-08h], 00h
  41516c:	89 79 04                  mov	[ecx+04h], edi
  41516f:	8b 4a 04                  mov	ecx, [edx+04h]
  415172:	8b 7a 08                  mov	edi, [edx+08h]
  415175:	89 79 08                  mov	[ecx+08h], edi
  415178:	0f 84 94 00 00 00         jz	415212
  41517e:	8b 4d f4                  mov	ecx, [ebp-0Ch]
  415181:	8b 7c f1 04               mov	edi, [ecx+esi*8+04h]
  415185:	8d 0c f1                  lea	ecx, [ecx+esi*8]
  415188:	89 7a 04                  mov	[edx+04h], edi
  41518b:	89 4a 08                  mov	[edx+08h], ecx
  41518e:	89 51 04                  mov	[ecx+04h], edx
  415191:	8b 4a 04                  mov	ecx, [edx+04h]
  415194:	89 51 08                  mov	[ecx+08h], edx
  415197:	8b 4a 04                  mov	ecx, [edx+04h]
  41519a:	3b 4a 08                  cmp	ecx, [edx+08h]
  41519d:	75 64                     jnz	415203
  41519f:	8a 4c 06 04               mov	cl, [esi+eax*1+04h]
  4151a3:	83 fe 20                  cmp	esi, 20h
  4151a6:	88 4d 0b                  mov	[ebp+0Bh], cl
  4151a9:	7d 29                     jge	4151d4
  4151ab:	fe c1                     inc	cl
  4151ad:	80 7d 0b 00               cmp	byte [ebp+0Bh], 00h
  4151b1:	88 4c 06 04               mov	[esi+eax*1+04h], cl
  4151b5:	75 0b                     jnz	4151c2
  4151b7:	bf 00 00 00 80            mov	edi, 80000000h
  4151bc:	8b ce                     mov	ecx, esi
  4151be:	d3 ef                     shr	edi, cl
  4151c0:	09 3b                     or	[ebx], edi
  4151c2:	bf 00 00 00 80           >mov	edi, 80000000h
  4151c7:	8b ce                     mov	ecx, esi
  4151c9:	d3 ef                     shr	edi, cl
  4151cb:	8b 4d fc                  mov	ecx, [ebp-04h]
  4151ce:	09 7c 88 44               or	[eax+ecx*4+44h], edi
  4151d2:	eb 2f                     jmp	415203
  4151d4:	fe c1                    >inc	cl
  4151d6:	80 7d 0b 00               cmp	byte [ebp+0Bh], 00h
  4151da:	88 4c 06 04               mov	[esi+eax*1+04h], cl
  4151de:	75 0d                     jnz	4151ed
  4151e0:	8d 4e e0                  lea	ecx, [esi-20h]
  4151e3:	bf 00 00 00 80            mov	edi, 80000000h
  4151e8:	d3 ef                     shr	edi, cl
  4151ea:	09 7b 04                  or	[ebx+04h], edi
  4151ed:	8b 4d fc                 >mov	ecx, [ebp-04h]
  4151f0:	8d bc 88 c4 00 00 00      lea	edi, [eax+ecx*4+000000C4h]
  4151f7:	8d 4e e0                  lea	ecx, [esi-20h]
  4151fa:	be 00 00 00 80            mov	esi, 80000000h
  4151ff:	d3 ee                     shr	esi, cl
  415201:	09 37                     or	[edi], esi
  415203:	8b 4d f8                 >mov	ecx, [ebp-08h]
  415206:	85 c9                    >test	ecx, ecx
  415208:	74 0b                     jz	415215
  41520a:	89 0a                     mov	[edx], ecx
  41520c:	89 4c 11 fc               mov	[ecx+edx*1-04h], ecx
  415210:	eb 03                     jmp	415215
  415212:	8b 4d f8                 >mov	ecx, [ebp-08h]
  415215:	8b 75 f0                 >mov	esi, [ebp-10h]
  415218:	03 d1                     add	edx, ecx
  41521a:	8d 4e 01                  lea	ecx, [esi+01h]
  41521d:	89 0a                     mov	[edx], ecx
  41521f:	89 4c 32 fc               mov	[edx+esi*1-04h], ecx
  415223:	8b 75 f4                  mov	esi, [ebp-0Ch]
  415226:	8b 0e                     mov	ecx, [esi]
  415228:	85 c9                     test	ecx, ecx
  41522a:	8d 79 01                  lea	edi, [ecx+01h]
  41522d:	89 3e                     mov	[esi], edi
  41522f:	75 1a                     jnz	41524b
  415231:	3b 1d f4 c7 46 00         cmp	ebx, [0046C7F4h]
  415237:	75 12                     jnz	41524b
  415239:	8b 4d fc                  mov	ecx, [ebp-04h]
  41523c:	3b 0d e8 c7 46 00         cmp	ecx, [0046C7E8h]
  415242:	75 07                     jnz	41524b
  415244:	83 25 f4 c7 46 00 00      and	dword [0046C7F4h], 00h
  41524b:	8b 4d fc                 >mov	ecx, [ebp-04h]
  41524e:	89 08                     mov	[eax], ecx
  415250:	8d 42 04                  lea	eax, [edx+04h]
  415253:	5f                       >pop	edi
  415254:	5e                        pop	esi
  415255:	5b                        pop	ebx
  415256:	c9                        leave
  415257:	c3                        ret

415258 <no name>:
  415258:	a1 f8 c7 46 00            mov	eax, [46C7F8h]
  41525d:	8b 0d e4 c7 46 00         mov	ecx, [0046C7E4h]
  415263:	56                        push	esi
  415264:	57                        push	edi
  415265:	33 ff                     xor	edi, edi
  415267:	3b c1                     cmp	eax, ecx
  415269:	75 30                     jnz	41529b
  41526b:	8d 44 89 50               lea	eax, [ecx+ecx*4+50h]
  41526f:	c1 e0 02                  shl	eax, 02h
  415272:	50                        push	eax
  415273:	ff 35 fc c7 46 00         push	dword [0046C7FCh]
  415279:	57                        push	edi
  41527a:	ff 35 04 c8 46 00         push	dword [0046C804h]
  415280:	ff 15 68 f2 44 00         call	dword [0044F268h]	; <HeapReAlloc>
  415286:	3b c7                     cmp	eax, edi
  415288:	74 61                     jz	4152eb
  41528a:	83 05 e4 c7 46 00 10      add	dword [0046C7E4h], 10h
  415291:	a3 fc c7 46 00            mov	[46C7FCh], eax
  415296:	a1 f8 c7 46 00            mov	eax, [46C7F8h]
  41529b:	8b 0d fc c7 46 00        >mov	ecx, [0046C7FCh]
  4152a1:	68 c4 41 00 00            push	dword 000041C4h
  4152a6:	6a 08                     push	dword 00000008h
  4152a8:	8d 04 80                  lea	eax, [eax+eax*4]
  4152ab:	ff 35 04 c8 46 00         push	dword [0046C804h]
  4152b1:	8d 34 81                  lea	esi, [ecx+eax*4]
  4152b4:	ff 15 24 f2 44 00         call	dword [0044F224h]	; <HeapAlloc>
  4152ba:	3b c7                     cmp	eax, edi
  4152bc:	89 46 10                  mov	[esi+10h], eax
  4152bf:	74 2a                     jz	4152eb
  4152c1:	6a 04                     push	dword 00000004h
  4152c3:	68 00 20 00 00            push	dword 00002000h
  4152c8:	68 00 00 10 00            push	dword 00100000h
  4152cd:	57                        push	edi
  4152ce:	ff 15 20 f4 44 00         call	dword [0044F420h]	; <VirtualAlloc>
  4152d4:	3b c7                     cmp	eax, edi
  4152d6:	89 46 0c                  mov	[esi+0Ch], eax
  4152d9:	75 14                     jnz	4152ef
  4152db:	ff 76 10                  push	dword [esi+10h]
  4152de:	57                        push	edi
  4152df:	ff 35 04 c8 46 00         push	dword [0046C804h]
  4152e5:	ff 15 14 f2 44 00         call	dword [0044F214h]	; <HeapFree>
  4152eb:	33 c0                    >xor	eax, eax
  4152ed:	eb 17                     jmp	415306
  4152ef:	83 4e 08 ff              >or	dword [esi+08h], FFh
  4152f3:	89 3e                     mov	[esi], edi
  4152f5:	89 7e 04                  mov	[esi+04h], edi
  4152f8:	ff 05 f8 c7 46 00         inc	dword [0046C7F8h]
  4152fe:	8b 46 10                  mov	eax, [esi+10h]
  415301:	83 08 ff                  or	dword [eax], FFh
  415304:	8b c6                     mov	eax, esi
  415306:	5f                       >pop	edi
  415307:	5e                        pop	esi
  415308:	c3                        ret

415309 <no name>:
  415309:	55                        push	ebp
  41530a:	8b ec                     mov	ebp, esp
  41530c:	51                        push	ecx
  41530d:	8b 4d 08                  mov	ecx, [ebp+08h]
  415310:	53                        push	ebx
  415311:	56                        push	esi
  415312:	57                        push	edi
  415313:	8b 71 10                  mov	esi, [ecx+10h]
  415316:	8b 41 08                  mov	eax, [ecx+08h]
  415319:	33 db                     xor	ebx, ebx
  41531b:	85 c0                    >test	eax, eax
  41531d:	7c 05                     jl	415324
  41531f:	d1 e0                     shl	eax, 1h
  415321:	43                        inc	ebx
  415322:	eb f7                     jmp	41531b
  415324:	8b c3                    >mov	eax, ebx
  415326:	6a 3f                     push	dword 0000003Fh
  415328:	69 c0 04 02 00 00         imul	eax, eax, 00000204h
  41532e:	5a                        pop	edx
  41532f:	8d 84 30 44 01 00 00      lea	eax, [eax+esi*1+00000144h]
  415336:	89 45 fc                  mov	[ebp-04h], eax
  415339:	89 40 08                 >mov	[eax+08h], eax
  41533c:	89 40 04                  mov	[eax+04h], eax
  41533f:	83 c0 08                  add	eax, 08h
  415342:	4a                        dec	edx
  415343:	75 f4                     jnz	415339
  415345:	8b fb                     mov	edi, ebx
  415347:	6a 04                     push	dword 00000004h
  415349:	c1 e7 0f                  shl	edi, 0Fh
  41534c:	03 79 0c                  add	edi, [ecx+0Ch]
  41534f:	68 00 10 00 00            push	dword 00001000h
  415354:	68 00 80 00 00            push	dword 00008000h
  415359:	57                        push	edi
  41535a:	ff 15 20 f4 44 00         call	dword [0044F420h]	; <VirtualAlloc>
  415360:	85 c0                     test	eax, eax
  415362:	75 08                     jnz	41536c
  415364:	83 c8 ff                  or	eax, FFh
  415367:	e9 93 00 00 00            jmp	4153ff
  41536c:	8d 97 00 70 00 00        >lea	edx, [edi+00007000h]
  415372:	3b fa                     cmp	edi, edx
  415374:	77 3c                     ja	4153b2
  415376:	8d 47 10                  lea	eax, [edi+10h]
  415379:	83 48 f8 ff              >or	dword [eax-08h], FFh
  41537d:	83 88 ec 0f 00 00 ff      or	dword [eax+00000FECh], FFh
  415384:	8d 88 fc 0f 00 00         lea	ecx, [eax+00000FFCh]
  41538a:	c7 40 fc f0 0f 00 00      mov	dword [eax-04h], 00000FF0h
  415391:	89 08                     mov	[eax], ecx
  415393:	8d 88 fc ef ff ff         lea	ecx, [eax-00001004h]
  415399:	89 48 04                  mov	[eax+04h], ecx
  41539c:	c7 80 e8 0f 00 00 f0      mov	dword [eax+00000FE8h], 00000FF0h
		0f 00 00 
  4153a6:	05 00 10 00 00            add	eax, 00001000h
  4153ab:	8d 48 f0                  lea	ecx, [eax-10h]
  4153ae:	3b ca                     cmp	ecx, edx
  4153b0:	76 c7                     jbe	415379
  4153b2:	8b 45 fc                 >mov	eax, [ebp-04h]
  4153b5:	8d 4f 0c                  lea	ecx, [edi+0Ch]
  4153b8:	05 f8 01 00 00            add	eax, 000001F8h
  4153bd:	6a 01                     push	dword 00000001h
  4153bf:	5f                        pop	edi
  4153c0:	89 48 04                  mov	[eax+04h], ecx
  4153c3:	89 41 08                  mov	[ecx+08h], eax
  4153c6:	8d 4a 0c                  lea	ecx, [edx+0Ch]
  4153c9:	89 48 08                  mov	[eax+08h], ecx
  4153cc:	89 41 04                  mov	[ecx+04h], eax
  4153cf:	83 64 9e 44 00            and	dword [esi+ebx*4+44h], 00h
  4153d4:	89 bc 9e c4 00 00 00      mov	[esi+ebx*4+000000C4h], edi
  4153db:	8a 46 43                  mov	al, [esi+43h]
  4153de:	8a c8                     mov	cl, al
  4153e0:	fe c1                     inc	cl
  4153e2:	84 c0                     test	al, al
  4153e4:	8b 45 08                  mov	eax, [ebp+08h]
  4153e7:	88 4e 43                  mov	[esi+43h], cl
  4153ea:	75 03                     jnz	4153ef
  4153ec:	09 78 04                  or	[eax+04h], edi
  4153ef:	ba 00 00 00 80           >mov	edx, 80000000h
  4153f4:	8b cb                     mov	ecx, ebx
  4153f6:	d3 ea                     shr	edx, cl
  4153f8:	f7 d2                     not	edx
  4153fa:	21 50 08                  and	[eax+08h], edx
  4153fd:	8b c3                     mov	eax, ebx
  4153ff:	5f                       >pop	edi
  415400:	5e                        pop	esi
  415401:	5b                        pop	ebx
  415402:	c9                        leave
  415403:	c3                        ret
     ...

415b1c <no name>:
  415b1c:	83 3d d8 4f 46 00 ff      cmp	dword [00464FD8h], FFh
  415b23:	53                        push	ebx
  415b24:	55                        push	ebp
  415b25:	56                        push	esi
  415b26:	57                        push	edi
  415b27:	75 07                     jnz	415b30
  415b29:	be c8 4f 46 00            mov	esi, 00464FC8h
  415b2e:	eb 1d                     jmp	415b4d
  415b30:	68 20 20 00 00           >push	dword 00002020h
  415b35:	6a 00                     push	dword 00000000h
  415b37:	ff 35 04 c8 46 00         push	dword [0046C804h]
  415b3d:	ff 15 24 f2 44 00         call	dword [0044F224h]	; <HeapAlloc>
  415b43:	8b f0                     mov	esi, eax
  415b45:	85 f6                     test	esi, esi
  415b47:	0f 84 0c 01 00 00         jz	415c59
  415b4d:	8b 2d 20 f4 44 00        >mov	ebp, [0044F420h]
  415b53:	6a 04                     push	dword 00000004h
  415b55:	68 00 20 00 00            push	dword 00002000h
  415b5a:	68 00 00 40 00            push	dword 00400000h
  415b5f:	6a 00                     push	dword 00000000h
  415b61:	ff d5                     call	ebp
  415b63:	8b f8                     mov	edi, eax
  415b65:	85 ff                     test	edi, edi
  415b67:	0f 84 d5 00 00 00         jz	415c42
  415b6d:	6a 04                     push	dword 00000004h
  415b6f:	bb 00 00 01 00            mov	ebx, 00010000h
  415b74:	68 00 10 00 00            push	dword 00001000h
  415b79:	53                        push	ebx
  415b7a:	57                        push	edi
  415b7b:	ff d5                     call	ebp
  415b7d:	85 c0                     test	eax, eax
  415b7f:	0f 84 af 00 00 00         jz	415c34
  415b85:	b8 c8 4f 46 00            mov	eax, 00464FC8h
  415b8a:	3b f0                     cmp	esi, eax
  415b8c:	75 1e                     jnz	415bac
  415b8e:	83 3d c8 4f 46 00 00      cmp	dword [00464FC8h], 00h
  415b95:	75 05                     jnz	415b9c
  415b97:	a3 c8 4f 46 00            mov	[464FC8h], eax
  415b9c:	83 3d cc 4f 46 00 00     >cmp	dword [00464FCCh], 00h
  415ba3:	75 1c                     jnz	415bc1
  415ba5:	a3 cc 4f 46 00            mov	[464FCCh], eax
  415baa:	eb 15                     jmp	415bc1
  415bac:	89 06                    >mov	[esi], eax
  415bae:	a1 cc 4f 46 00            mov	eax, [464FCCh]
  415bb3:	89 46 04                  mov	[esi+04h], eax
  415bb6:	89 35 cc 4f 46 00         mov	[00464FCCh], esi
  415bbc:	8b 46 04                  mov	eax, [esi+04h]
  415bbf:	89 30                     mov	[eax], esi
  415bc1:	8d 87 00 00 40 00        >lea	eax, [edi+00400000h]
  415bc7:	8d 8e 98 00 00 00         lea	ecx, [esi+00000098h]
  415bcd:	89 46 14                  mov	[esi+14h], eax
  415bd0:	8d 46 18                  lea	eax, [esi+18h]
  415bd3:	89 4e 0c                  mov	[esi+0Ch], ecx
  415bd6:	89 7e 10                  mov	[esi+10h], edi
  415bd9:	89 46 08                  mov	[esi+08h], eax
  415bdc:	33 ed                     xor	ebp, ebp
  415bde:	b9 f1 00 00 00            mov	ecx, 000000F1h
  415be3:	33 d2                    >xor	edx, edx
  415be5:	83 fd 10                  cmp	ebp, 10h
  415be8:	0f 9d c2                  setge	dl
  415beb:	4a                        dec	edx
  415bec:	23 d1                     and	edx, ecx
  415bee:	4a                        dec	edx
  415bef:	45                        inc	ebp
  415bf0:	89 10                     mov	[eax], edx
  415bf2:	89 48 04                  mov	[eax+04h], ecx
  415bf5:	83 c0 08                  add	eax, 08h
  415bf8:	81 fd 00 04 00 00         cmp	ebp, 00000400h
  415bfe:	7c e3                     jl	415be3
  415c00:	53                        push	ebx
  415c01:	6a 00                     push	dword 00000000h
  415c03:	57                        push	edi
  415c04:	e8 77 93 ff ff            call	40ef80
  415c09:	83 c4 0c                  add	esp, 0Ch
  415c0c:	8b 46 10                 >mov	eax, [esi+10h]
  415c0f:	03 c3                     add	eax, ebx
  415c11:	3b f8                     cmp	edi, eax
  415c13:	73 1b                     jae	415c30
  415c15:	80 8f f8 00 00 00 ff      or	byte [edi+000000F8h], FFh
  415c1c:	8d 47 08                  lea	eax, [edi+08h]
  415c1f:	89 07                     mov	[edi], eax
  415c21:	c7 47 04 f0 00 00 00      mov	dword [edi+04h], 000000F0h
  415c28:	81 c7 00 10 00 00         add	edi, 00001000h
  415c2e:	eb dc                     jmp	415c0c
  415c30:	8b c6                    >mov	eax, esi
  415c32:	eb 27                     jmp	415c5b
  415c34:	68 00 80 00 00           >push	dword 00008000h
  415c39:	6a 00                     push	dword 00000000h
  415c3b:	57                        push	edi
  415c3c:	ff 15 b4 f3 44 00         call	dword [0044F3B4h]	; <VirtualFree>
  415c42:	81 fe c8 4f 46 00        >cmp	esi, 00464FC8h
  415c48:	74 0f                     jz	415c59
  415c4a:	56                        push	esi
  415c4b:	6a 00                     push	dword 00000000h
  415c4d:	ff 35 04 c8 46 00         push	dword [0046C804h]
  415c53:	ff 15 14 f2 44 00         call	dword [0044F214h]	; <HeapFree>
  415c59:	33 c0                    >xor	eax, eax
  415c5b:	5f                       >pop	edi
  415c5c:	5e                        pop	esi
  415c5d:	5d                        pop	ebp
  415c5e:	5b                        pop	ebx
  415c5f:	c3                        ret

415c60 <no name>:
  415c60:	56                        push	esi
  415c61:	8b 74 24 08               mov	esi, [esp+08h]
  415c65:	68 00 80 00 00            push	dword 00008000h
  415c6a:	6a 00                     push	dword 00000000h
  415c6c:	ff 76 10                  push	dword [esi+10h]
  415c6f:	ff 15 b4 f3 44 00         call	dword [0044F3B4h]	; <VirtualFree>
  415c75:	39 35 e8 6f 46 00         cmp	[00466FE8h], esi
  415c7b:	75 08                     jnz	415c85
  415c7d:	8b 46 04                  mov	eax, [esi+04h]
  415c80:	a3 e8 6f 46 00            mov	[466FE8h], eax
  415c85:	81 fe c8 4f 46 00        >cmp	esi, 00464FC8h
  415c8b:	74 20                     jz	415cad
  415c8d:	8b 46 04                  mov	eax, [esi+04h]
  415c90:	8b 0e                     mov	ecx, [esi]
  415c92:	56                        push	esi
  415c93:	6a 00                     push	dword 00000000h
  415c95:	89 08                     mov	[eax], ecx
  415c97:	8b 06                     mov	eax, [esi]
  415c99:	8b 4e 04                  mov	ecx, [esi+04h]
  415c9c:	89 48 04                  mov	[eax+04h], ecx
  415c9f:	ff 35 04 c8 46 00         push	dword [0046C804h]
  415ca5:	ff 15 14 f2 44 00         call	dword [0044F214h]	; <HeapFree>
  415cab:	5e                        pop	esi
  415cac:	c3                        ret
  415cad:	83 0d d8 4f 46 00 ff     >or	dword [00464FD8h], FFh
  415cb4:	5e                        pop	esi
  415cb5:	c3                        ret

415cb6 <no name>:
  415cb6:	55                        push	ebp
  415cb7:	8b ec                     mov	ebp, esp
  415cb9:	51                        push	ecx
  415cba:	53                        push	ebx
  415cbb:	56                        push	esi
  415cbc:	8b 35 cc 4f 46 00         mov	esi, [00464FCCh]
  415cc2:	57                        push	edi
  415cc3:	83 7e 10 ff              >cmp	dword [esi+10h], FFh
  415cc7:	0f 84 94 00 00 00         jz	415d61
  415ccd:	83 65 fc 00               and	dword [ebp-04h], 00h
  415cd1:	8d be 10 20 00 00         lea	edi, [esi+00002010h]
  415cd7:	bb 00 f0 3f 00            mov	ebx, 003FF000h
  415cdc:	81 3f f0 00 00 00        >cmp	dword [edi], 000000F0h
  415ce2:	75 39                     jnz	415d1d
  415ce4:	8b c3                     mov	eax, ebx
  415ce6:	68 00 40 00 00            push	dword 00004000h
  415ceb:	03 46 10                  add	eax, [esi+10h]
  415cee:	68 00 10 00 00            push	dword 00001000h
  415cf3:	50                        push	eax
  415cf4:	ff 15 b4 f3 44 00         call	dword [0044F3B4h]	; <VirtualFree>
  415cfa:	85 c0                     test	eax, eax
  415cfc:	74 1f                     jz	415d1d
  415cfe:	83 0f ff                  or	dword [edi], FFh
  415d01:	ff 0d 60 ae 46 00         dec	dword [0046AE60h]
  415d07:	8b 46 0c                  mov	eax, [esi+0Ch]
  415d0a:	85 c0                     test	eax, eax
  415d0c:	74 04                     jz	415d12
  415d0e:	3b c7                     cmp	eax, edi
  415d10:	76 03                     jbe	415d15
  415d12:	89 7e 0c                 >mov	[esi+0Ch], edi
  415d15:	ff 45 fc                 >inc	dword [ebp-04h]
  415d18:	ff 4d 08                  dec	dword [ebp+08h]
  415d1b:	74 0d                     jz	415d2a
  415d1d:	81 eb 00 10 00 00        >sub	ebx, 00001000h
  415d23:	83 ef 08                  sub	edi, 08h
  415d26:	85 db                     test	ebx, ebx
  415d28:	7d b2                     jge	415cdc
  415d2a:	83 7d fc 00              >cmp	dword [ebp-04h], 00h
  415d2e:	8b ce                     mov	ecx, esi
  415d30:	8b 76 04                  mov	esi, [esi+04h]
  415d33:	74 2c                     jz	415d61
  415d35:	83 79 18 ff               cmp	dword [ecx+18h], FFh
  415d39:	75 26                     jnz	415d61
  415d3b:	6a 01                     push	dword 00000001h
  415d3d:	8d 41 20                  lea	eax, [ecx+20h]
  415d40:	5a                        pop	edx
  415d41:	83 38 ff                 >cmp	dword [eax], FFh
  415d44:	75 0c                     jnz	415d52
  415d46:	42                        inc	edx
  415d47:	83 c0 08                  add	eax, 08h
  415d4a:	81 fa 00 04 00 00         cmp	edx, 00000400h
  415d50:	7c ef                     jl	415d41
  415d52:	81 fa 00 04 00 00        >cmp	edx, 00000400h
  415d58:	75 07                     jnz	415d61
  415d5a:	51                        push	ecx
  415d5b:	e8 00 ff ff ff            call	415c60
  415d60:	59                        pop	ecx
  415d61:	3b 35 cc 4f 46 00        >cmp	esi, [00464FCCh]
  415d67:	74 0a                     jz	415d73
  415d69:	83 7d 08 00               cmp	dword [ebp+08h], 00h
  415d6d:	0f 8f 50 ff ff ff         jg	415cc3
  415d73:	5f                       >pop	edi
  415d74:	5e                        pop	esi
  415d75:	5b                        pop	ebx
  415d76:	c9                        leave
  415d77:	c3                        ret

415d78 <no name>:
  415d78:	8b 44 24 04               mov	eax, [esp+04h]
  415d7c:	ba c8 4f 46 00            mov	edx, 00464FC8h
  415d81:	56                        push	esi
  415d82:	8b ca                     mov	ecx, edx
  415d84:	3b 41 10                 >cmp	eax, [ecx+10h]
  415d87:	76 05                     jbe	415d8e
  415d89:	3b 41 14                  cmp	eax, [ecx+14h]
  415d8c:	72 08                     jb	415d96
  415d8e:	8b 09                    >mov	ecx, [ecx]
  415d90:	3b ca                     cmp	ecx, edx
  415d92:	74 37                     jz	415dcb
  415d94:	eb ee                     jmp	415d84
  415d96:	a8 0f                    >test	al, 0Fh
  415d98:	75 31                     jnz	415dcb
  415d9a:	8b f0                     mov	esi, eax
  415d9c:	ba 00 01 00 00            mov	edx, 00000100h
  415da1:	81 e6 ff 0f 00 00         and	esi, 00000FFFh
  415da7:	3b f2                     cmp	esi, edx
  415da9:	72 20                     jb	415dcb
  415dab:	8b 74 24 0c               mov	esi, [esp+0Ch]
  415daf:	89 0e                     mov	[esi], ecx
  415db1:	8b 74 24 10               mov	esi, [esp+10h]
  415db5:	8b c8                     mov	ecx, eax
  415db7:	66 81 e1 00 f0            and	cx, F000h
  415dbc:	2b c1                     sub	eax, ecx
  415dbe:	89 0e                     mov	[esi], ecx
  415dc0:	2b c2                     sub	eax, edx
  415dc2:	5e                        pop	esi
  415dc3:	c1 f8 04                  sar	eax, 04h
  415dc6:	8d 44 08 08               lea	eax, [eax+ecx*1+08h]
  415dca:	c3                        ret
  415dcb:	33 c0                    >xor	eax, eax
  415dcd:	5e                        pop	esi
  415dce:	c3                        ret

415dcf <no name>:
  415dcf:	8b 44 24 04               mov	eax, [esp+04h]
  415dd3:	8b 4c 24 08               mov	ecx, [esp+08h]
  415dd7:	2b 48 10                  sub	ecx, [eax+10h]
  415dda:	c1 f9 0c                  sar	ecx, 0Ch
  415ddd:	8d 44 c8 18               lea	eax, [eax+ecx*8+18h]
  415de1:	8b 4c 24 0c               mov	ecx, [esp+0Ch]
  415de5:	0f b6 11                  movzx	edx, byte [ecx]
  415de8:	01 10                     add	[eax], edx
  415dea:	80 21 00                  and	byte [ecx], 00h
  415ded:	81 38 f0 00 00 00         cmp	dword [eax], 000000F0h
  415df3:	c7 40 04 f1 00 00 00      mov	dword [eax+04h], 000000F1h
  415dfa:	75 17                     jnz	415e13
  415dfc:	ff 05 60 ae 46 00         inc	dword [0046AE60h]
  415e02:	83 3d 60 ae 46 00 20      cmp	dword [0046AE60h], 20h
  415e09:	75 08                     jnz	415e13
  415e0b:	6a 10                     push	dword 00000010h
  415e0d:	e8 a4 fe ff ff            call	415cb6
  415e12:	59                        pop	ecx
  415e13:	c3                       >ret

415e14 <no name>:
  415e14:	55                        push	ebp
  415e15:	8b ec                     mov	ebp, esp
  415e17:	51                        push	ecx
  415e18:	51                        push	ecx
  415e19:	53                        push	ebx
  415e1a:	56                        push	esi
  415e1b:	8b 35 e8 6f 46 00         mov	esi, [00466FE8h]
  415e21:	57                        push	edi
  415e22:	8b 56 10                 >mov	edx, [esi+10h]
  415e25:	83 fa ff                  cmp	edx, FFh
  415e28:	0f 84 9f 00 00 00         jz	415ecd
  415e2e:	8b 7e 08                  mov	edi, [esi+08h]
  415e31:	8d 8e 18 20 00 00         lea	ecx, [esi+00002018h]
  415e37:	8b c7                     mov	eax, edi
  415e39:	2b c6                     sub	eax, esi
  415e3b:	83 e8 18                  sub	eax, 18h
  415e3e:	c1 f8 03                  sar	eax, 03h
  415e41:	c1 e0 0c                  shl	eax, 0Ch
  415e44:	03 c2                     add	eax, edx
  415e46:	3b f9                     cmp	edi, ecx
  415e48:	89 45 fc                  mov	[ebp-04h], eax
  415e4b:	73 3a                     jae	415e87
  415e4d:	8b 0f                    >mov	ecx, [edi]
  415e4f:	8b 5d 08                  mov	ebx, [ebp+08h]
  415e52:	3b cb                     cmp	ecx, ebx
  415e54:	7c 1a                     jl	415e70
  415e56:	39 5f 04                  cmp	[edi+04h], ebx
  415e59:	76 15                     jbe	415e70
  415e5b:	53                        push	ebx
  415e5c:	51                        push	ecx
  415e5d:	50                        push	eax
  415e5e:	e8 b9 01 00 00            call	41601c
  415e63:	83 c4 0c                  add	esp, 0Ch
  415e66:	85 c0                     test	eax, eax
  415e68:	75 75                     jnz	415edf
  415e6a:	8b 45 fc                  mov	eax, [ebp-04h]
  415e6d:	89 5f 04                  mov	[edi+04h], ebx
  415e70:	83 c7 08                 >add	edi, 08h
  415e73:	8d 8e 18 20 00 00         lea	ecx, [esi+00002018h]
  415e79:	05 00 10 00 00            add	eax, 00001000h
  415e7e:	3b f9                     cmp	edi, ecx
  415e80:	89 45 fc                  mov	[ebp-04h], eax
  415e83:	72 c8                     jb	415e4d
  415e85:	eb 03                     jmp	415e8a
  415e87:	8b 5d 08                 >mov	ebx, [ebp+08h]
  415e8a:	8b 46 08                 >mov	eax, [esi+08h]
  415e8d:	8b 4e 10                  mov	ecx, [esi+10h]
  415e90:	8d 7e 18                  lea	edi, [esi+18h]
  415e93:	89 45 f8                  mov	[ebp-08h], eax
  415e96:	3b f8                     cmp	edi, eax
  415e98:	89 4d fc                  mov	[ebp-04h], ecx
  415e9b:	73 33                     jae	415ed0
  415e9d:	8b 07                    >mov	eax, [edi]
  415e9f:	3b c3                     cmp	eax, ebx
  415ea1:	7c 19                     jl	415ebc
  415ea3:	39 5f 04                  cmp	[edi+04h], ebx
  415ea6:	76 14                     jbe	415ebc
  415ea8:	53                        push	ebx
  415ea9:	50                        push	eax
  415eaa:	ff 75 fc                  push	dword [ebp-04h]
  415ead:	e8 6a 01 00 00            call	41601c
  415eb2:	83 c4 0c                  add	esp, 0Ch
  415eb5:	85 c0                     test	eax, eax
  415eb7:	75 26                     jnz	415edf
  415eb9:	89 5f 04                  mov	[edi+04h], ebx
  415ebc:	81 45 fc 00 10 00 00     >add	dword [ebp-04h], 00001000h
  415ec3:	83 c7 08                  add	edi, 08h
  415ec6:	3b 7d f8                  cmp	edi, [ebp-08h]
  415ec9:	72 d2                     jb	415e9d
  415ecb:	eb 03                     jmp	415ed0
  415ecd:	8b 5d 08                 >mov	ebx, [ebp+08h]
  415ed0:	8b 36                    >mov	esi, [esi]
  415ed2:	3b 35 e8 6f 46 00         cmp	esi, [00466FE8h]
  415ed8:	74 15                     jz	415eef
  415eda:	e9 43 ff ff ff            jmp	415e22
  415edf:	89 35 e8 6f 46 00        >mov	[00466FE8h], esi
  415ee5:	29 1f                     sub	[edi], ebx
  415ee7:	89 7e 08                  mov	[esi+08h], edi
  415eea:	e9 28 01 00 00            jmp	416017
  415eef:	b8 c8 4f 46 00           >mov	eax, 00464FC8h
  415ef4:	8b f8                     mov	edi, eax
  415ef6:	83 7f 10 ff              >cmp	dword [edi+10h], FFh
  415efa:	74 06                     jz	415f02
  415efc:	83 7f 0c 00               cmp	dword [edi+0Ch], 00h
  415f00:	75 0c                     jnz	415f0e
  415f02:	8b 3f                    >mov	edi, [edi]
  415f04:	3b f8                     cmp	edi, eax
  415f06:	0f 84 d7 00 00 00         jz	415fe3
  415f0c:	eb e8                     jmp	415ef6
  415f0e:	8b 5f 0c                 >mov	ebx, [edi+0Ch]
  415f11:	83 65 fc 00               and	dword [ebp-04h], 00h
  415f15:	8b f3                     mov	esi, ebx
  415f17:	8b c3                     mov	eax, ebx
  415f19:	2b f7                     sub	esi, edi
  415f1b:	83 ee 18                  sub	esi, 18h
  415f1e:	c1 fe 03                  sar	esi, 03h
  415f21:	c1 e6 0c                  shl	esi, 0Ch
  415f24:	03 77 10                  add	esi, [edi+10h]
  415f27:	83 3b ff                  cmp	dword [ebx], FFh
  415f2a:	75 11                     jnz	415f3d
  415f2c:	83 7d fc 10              >cmp	dword [ebp-04h], 10h
  415f30:	7d 0b                     jge	415f3d
  415f32:	83 c0 08                  add	eax, 08h
  415f35:	ff 45 fc                  inc	dword [ebp-04h]
  415f38:	83 38 ff                  cmp	dword [eax], FFh
  415f3b:	74 ef                     jz	415f2c
  415f3d:	8b 45 fc                 >mov	eax, [ebp-04h]
  415f40:	6a 04                     push	dword 00000004h
  415f42:	c1 e0 0c                  shl	eax, 0Ch
  415f45:	68 00 10 00 00            push	dword 00001000h
  415f4a:	50                        push	eax
  415f4b:	56                        push	esi
  415f4c:	89 45 f8                  mov	[ebp-08h], eax
  415f4f:	ff 15 20 f4 44 00         call	dword [0044F420h]	; <VirtualAlloc>
  415f55:	3b c6                     cmp	eax, esi
  415f57:	0f 85 b8 00 00 00         jnz	416015
  415f5d:	6a 00                     push	dword 00000000h
  415f5f:	ff 75 f8                  push	dword [ebp-08h]
  415f62:	56                        push	esi
  415f63:	e8 18 90 ff ff            call	40ef80
  415f68:	8b 55 fc                  mov	edx, [ebp-04h]
  415f6b:	83 c4 0c                  add	esp, 0Ch
  415f6e:	85 d2                     test	edx, edx
  415f70:	8b cb                     mov	ecx, ebx
  415f72:	7e 30                     jle	415fa4
  415f74:	8d 46 04                  lea	eax, [esi+04h]
  415f77:	89 55 fc                  mov	[ebp-04h], edx
  415f7a:	80 88 f4 00 00 00 ff     >or	byte [eax+000000F4h], FFh
  415f81:	8d 50 04                  lea	edx, [eax+04h]
  415f84:	89 50 fc                  mov	[eax-04h], edx
  415f87:	ba f0 00 00 00            mov	edx, 000000F0h
  415f8c:	89 10                     mov	[eax], edx
  415f8e:	89 11                     mov	[ecx], edx
  415f90:	c7 41 04 f1 00 00 00      mov	dword [ecx+04h], 000000F1h
  415f97:	05 00 10 00 00            add	eax, 00001000h
  415f9c:	83 c1 08                  add	ecx, 08h
  415f9f:	ff 4d fc                  dec	dword [ebp-04h]
  415fa2:	75 d6                     jnz	415f7a
  415fa4:	89 3d e8 6f 46 00        >mov	[00466FE8h], edi
  415faa:	8d 87 18 20 00 00         lea	eax, [edi+00002018h]
  415fb0:	3b c8                    >cmp	ecx, eax
  415fb2:	73 0c                     jae	415fc0
  415fb4:	83 39 ff                  cmp	dword [ecx], FFh
  415fb7:	74 05                     jz	415fbe
  415fb9:	83 c1 08                  add	ecx, 08h
  415fbc:	eb f2                     jmp	415fb0
  415fbe:	3b c8                    >cmp	ecx, eax
  415fc0:	1b c0                    >sbb	eax, eax
  415fc2:	23 c1                     and	eax, ecx
  415fc4:	89 47 0c                  mov	[edi+0Ch], eax
  415fc7:	8b 45 08                  mov	eax, [ebp+08h]
  415fca:	88 46 08                  mov	[esi+08h], al
  415fcd:	89 5f 08                  mov	[edi+08h], ebx
  415fd0:	29 03                     sub	[ebx], eax
  415fd2:	29 46 04                  sub	[esi+04h], eax
  415fd5:	8d 4c 06 08               lea	ecx, [esi+eax*1+08h]
  415fd9:	8d 86 00 01 00 00         lea	eax, [esi+00000100h]
  415fdf:	89 0e                     mov	[esi], ecx
  415fe1:	eb 34                     jmp	416017
  415fe3:	e8 34 fb ff ff           >call	415b1c
  415fe8:	85 c0                     test	eax, eax
  415fea:	74 29                     jz	416015
  415fec:	8b 48 10                  mov	ecx, [eax+10h]
  415fef:	88 59 08                  mov	[ecx+08h], bl
  415ff2:	8d 54 19 08               lea	edx, [ecx+ebx*1+08h]
  415ff6:	a3 e8 6f 46 00            mov	[466FE8h], eax
  415ffb:	89 11                     mov	[ecx], edx
  415ffd:	ba f0 00 00 00            mov	edx, 000000F0h
  416002:	2b d3                     sub	edx, ebx
  416004:	89 51 04                  mov	[ecx+04h], edx
  416007:	0f b6 d3                  movzx	edx, bl
  41600a:	29 50 18                  sub	[eax+18h], edx
  41600d:	8d 81 00 01 00 00         lea	eax, [ecx+00000100h]
  416013:	eb 02                     jmp	416017
  416015:	33 c0                    >xor	eax, eax
  416017:	5f                       >pop	edi
  416018:	5e                        pop	esi
  416019:	5b                        pop	ebx
  41601a:	c9                        leave
  41601b:	c3                        ret

41601c <no name>:
  41601c:	55                        push	ebp
  41601d:	8b ec                     mov	ebp, esp
  41601f:	51                        push	ecx
  416020:	8b 4d 08                  mov	ecx, [ebp+08h]
  416023:	8b 55 10                  mov	edx, [ebp+10h]
  416026:	53                        push	ebx
  416027:	56                        push	esi
  416028:	8b 71 04                  mov	esi, [ecx+04h]
  41602b:	57                        push	edi
  41602c:	8b 39                     mov	edi, [ecx]
  41602e:	8d 99 f8 00 00 00         lea	ebx, [ecx+000000F8h]
  416034:	3b f2                     cmp	esi, edx
  416036:	89 7d fc                  mov	[ebp-04h], edi
  416039:	8b c7                     mov	eax, edi
  41603b:	89 5d 08                  mov	[ebp+08h], ebx
  41603e:	72 21                     jb	416061
  416040:	8d 04 17                  lea	eax, [edi+edx*1]
  416043:	88 17                     mov	[edi], dl
  416045:	3b c3                     cmp	eax, ebx
  416047:	73 07                     jae	416050
  416049:	01 11                     add	[ecx], edx
  41604b:	29 51 04                  sub	[ecx+04h], edx
  41604e:	eb 09                     jmp	416059
  416050:	83 61 04 00              >and	dword [ecx+04h], 00h
  416054:	8d 41 08                  lea	eax, [ecx+08h]
  416057:	89 01                     mov	[ecx], eax
  416059:	8d 47 08                 >lea	eax, [edi+08h]
  41605c:	e9 ce 00 00 00            jmp	41612f
  416061:	03 f7                    >add	esi, edi
  416063:	80 3e 00                  cmp	byte [esi], 00h
  416066:	74 02                     jz	41606a
  416068:	8b c6                     mov	eax, esi
  41606a:	8d 34 10                 >lea	esi, [eax+edx*1]
  41606d:	3b f3                     cmp	esi, ebx
  41606f:	73 43                     jae	4160b4
  416071:	8a 18                    >mov	bl, [eax]
  416073:	84 db                     test	bl, bl
  416075:	75 30                     jnz	4160a7
  416077:	6a 01                     push	dword 00000001h
  416079:	8d 58 01                  lea	ebx, [eax+01h]
  41607c:	5e                        pop	esi
  41607d:	80 3b 00                 >cmp	byte [ebx], 00h
  416080:	75 04                     jnz	416086
  416082:	43                        inc	ebx
  416083:	46                        inc	esi
  416084:	eb f7                     jmp	41607d
  416086:	3b f2                    >cmp	esi, edx
  416088:	73 4e                     jae	4160d8
  41608a:	3b 45 fc                  cmp	eax, [ebp-04h]
  41608d:	75 05                     jnz	416094
  41608f:	89 71 04                  mov	[ecx+04h], esi
  416092:	eb 0c                     jmp	4160a0
  416094:	29 75 0c                 >sub	[ebp+0Ch], esi
  416097:	39 55 0c                  cmp	[ebp+0Ch], edx
  41609a:	0f 82 99 00 00 00         jb	416139
  4160a0:	8b 7d fc                 >mov	edi, [ebp-04h]
  4160a3:	8b c3                     mov	eax, ebx
  4160a5:	eb 05                     jmp	4160ac
  4160a7:	0f b6 f3                 >movzx	esi, bl
  4160aa:	03 c6                     add	eax, esi
  4160ac:	8d 34 10                 >lea	esi, [eax+edx*1]
  4160af:	3b 75 08                  cmp	esi, [ebp+08h]
  4160b2:	72 bd                     jb	416071
  4160b4:	8d 71 08                 >lea	esi, [ecx+08h]
  4160b7:	3b f7                    >cmp	esi, edi
  4160b9:	73 7e                     jae	416139
  4160bb:	8d 04 16                  lea	eax, [esi+edx*1]
  4160be:	3b 45 08                  cmp	eax, [ebp+08h]
  4160c1:	73 76                     jae	416139
  4160c3:	8a 06                     mov	al, [esi]
  4160c5:	84 c0                     test	al, al
  4160c7:	75 40                     jnz	416109
  4160c9:	6a 01                     push	dword 00000001h
  4160cb:	8d 5e 01                  lea	ebx, [esi+01h]
  4160ce:	58                        pop	eax
  4160cf:	80 3b 00                 >cmp	byte [ebx], 00h
  4160d2:	75 25                     jnz	4160f9
  4160d4:	43                        inc	ebx
  4160d5:	40                        inc	eax
  4160d6:	eb f7                     jmp	4160cf
  4160d8:	8d 1c 10                 >lea	ebx, [eax+edx*1]
  4160db:	3b 5d 08                  cmp	ebx, [ebp+08h]
  4160de:	73 09                     jae	4160e9
  4160e0:	2b f2                     sub	esi, edx
  4160e2:	89 19                     mov	[ecx], ebx
  4160e4:	89 71 04                  mov	[ecx+04h], esi
  4160e7:	eb 09                     jmp	4160f2
  4160e9:	83 61 04 00              >and	dword [ecx+04h], 00h
  4160ed:	8d 71 08                  lea	esi, [ecx+08h]
  4160f0:	89 31                     mov	[ecx], esi
  4160f2:	88 10                    >mov	[eax], dl
  4160f4:	83 c0 08                  add	eax, 08h
  4160f7:	eb 36                     jmp	41612f
  4160f9:	3b c2                    >cmp	eax, edx
  4160fb:	73 13                     jae	416110
  4160fd:	29 45 0c                  sub	[ebp+0Ch], eax
  416100:	39 55 0c                  cmp	[ebp+0Ch], edx
  416103:	72 34                     jb	416139
  416105:	8b f3                     mov	esi, ebx
  416107:	eb ae                     jmp	4160b7
  416109:	0f b6 c0                 >movzx	eax, al
  41610c:	03 f0                     add	esi, eax
  41610e:	eb a7                     jmp	4160b7
  416110:	8d 1c 16                 >lea	ebx, [esi+edx*1]
  416113:	3b 5d 08                  cmp	ebx, [ebp+08h]
  416116:	73 09                     jae	416121
  416118:	2b c2                     sub	eax, edx
  41611a:	89 19                     mov	[ecx], ebx
  41611c:	89 41 04                  mov	[ecx+04h], eax
  41611f:	eb 09                     jmp	41612a
  416121:	83 61 04 00              >and	dword [ecx+04h], 00h
  416125:	8d 41 08                  lea	eax, [ecx+08h]
  416128:	89 01                     mov	[ecx], eax
  41612a:	88 16                    >mov	[esi], dl
  41612c:	8d 46 08                  lea	eax, [esi+08h]
  41612f:	6b c9 0f                 >imul	ecx, ecx, 0Fh
  416132:	c1 e0 04                  shl	eax, 04h
  416135:	2b c1                     sub	eax, ecx
  416137:	eb 02                     jmp	41613b
  416139:	33 c0                    >xor	eax, eax
  41613b:	5f                       >pop	edi
  41613c:	5e                        pop	esi
  41613d:	5b                        pop	ebx
  41613e:	c9                        leave
  41613f:	c3                        ret
     ...

416428 <no name>:
  416428:	55                        push	ebp
  416429:	8b ec                     mov	ebp, esp
  41642b:	51                        push	ecx
  41642c:	53                        push	ebx
  41642d:	56                        push	esi
  41642e:	e8 ce d1 ff ff            call	413601
  416433:	8b f0                     mov	esi, eax
  416435:	ff 76 50                  push	dword [esi+50h]
  416438:	ff 75 08                  push	dword [ebp+08h]
  41643b:	e8 26 01 00 00            call	416566
  416440:	59                        pop	ecx
  416441:	85 c0                     test	eax, eax
  416443:	59                        pop	ecx
  416444:	0f 84 0f 01 00 00         jz	416559
  41644a:	8b 58 08                  mov	ebx, [eax+08h]
  41644d:	85 db                     test	ebx, ebx
  41644f:	89 5d 08                  mov	[ebp+08h], ebx
  416452:	0f 84 01 01 00 00         jz	416559
  416458:	83 fb 05                  cmp	ebx, 05h
  41645b:	75 0c                     jnz	416469
  41645d:	83 60 08 00               and	dword [eax+08h], 00h
  416461:	6a 01                     push	dword 00000001h
  416463:	58                        pop	eax
  416464:	e9 f9 00 00 00            jmp	416562
  416469:	83 fb 01                 >cmp	ebx, 01h
  41646c:	0f 84 e2 00 00 00         jz	416554
  416472:	8b 4e 54                  mov	ecx, [esi+54h]
  416475:	89 4d fc                  mov	[ebp-04h], ecx
  416478:	8b 4d 0c                  mov	ecx, [ebp+0Ch]
  41647b:	89 4e 54                  mov	[esi+54h], ecx
  41647e:	8b 48 04                  mov	ecx, [eax+04h]
  416481:	83 f9 08                  cmp	ecx, 08h
  416484:	0f 85 bc 00 00 00         jnz	416546
  41648a:	8b 15 68 70 46 00         mov	edx, [00467068h]
  416490:	8b 0d 6c 70 46 00         mov	ecx, [0046706Ch]
  416496:	03 ca                     add	ecx, edx
  416498:	57                        push	edi
  416499:	3b d1                     cmp	edx, ecx
  41649b:	7d 27                     jge	4164c4
  41649d:	8d 0c 52                  lea	ecx, [edx+edx*2]
  4164a0:	c1 e1 02                  shl	ecx, 02h
  4164a3:	8b 7e 50                 >mov	edi, [esi+50h]
  4164a6:	83 c1 0c                  add	ecx, 0Ch
  4164a9:	83 64 39 fc 00            and	dword [ecx+edi*1-04h], 00h
  4164ae:	8b 3d 68 70 46 00         mov	edi, [00467068h]
  4164b4:	8b 1d 6c 70 46 00         mov	ebx, [0046706Ch]
  4164ba:	42                        inc	edx
  4164bb:	03 df                     add	ebx, edi
  4164bd:	3b d3                     cmp	edx, ebx
  4164bf:	7c e2                     jl	4164a3
  4164c1:	8b 5d 08                  mov	ebx, [ebp+08h]
  4164c4:	8b 00                    >mov	eax, [eax]
  4164c6:	8b 7e 58                  mov	edi, [esi+58h]
  4164c9:	3d 8e 00 00 c0            cmp	eax, C000008Eh
  4164ce:	75 09                     jnz	4164d9
  4164d0:	c7 46 58 83 00 00 00      mov	dword [esi+58h], 00000083h
  4164d7:	eb 5e                     jmp	416537
  4164d9:	3d 90 00 00 c0           >cmp	eax, C0000090h
  4164de:	75 09                     jnz	4164e9
  4164e0:	c7 46 58 81 00 00 00      mov	dword [esi+58h], 00000081h
  4164e7:	eb 4e                     jmp	416537
  4164e9:	3d 91 00 00 c0           >cmp	eax, C0000091h
  4164ee:	75 09                     jnz	4164f9
  4164f0:	c7 46 58 84 00 00 00      mov	dword [esi+58h], 00000084h
  4164f7:	eb 3e                     jmp	416537
  4164f9:	3d 93 00 00 c0           >cmp	eax, C0000093h
  4164fe:	75 09                     jnz	416509
  416500:	c7 46 58 85 00 00 00      mov	dword [esi+58h], 00000085h
  416507:	eb 2e                     jmp	416537
  416509:	3d 8d 00 00 c0           >cmp	eax, C000008Dh
  41650e:	75 09                     jnz	416519
  416510:	c7 46 58 82 00 00 00      mov	dword [esi+58h], 00000082h
  416517:	eb 1e                     jmp	416537
  416519:	3d 8f 00 00 c0           >cmp	eax, C000008Fh
  41651e:	75 09                     jnz	416529
  416520:	c7 46 58 86 00 00 00      mov	dword [esi+58h], 00000086h
  416527:	eb 0e                     jmp	416537
  416529:	3d 92 00 00 c0           >cmp	eax, C0000092h
  41652e:	75 07                     jnz	416537
  416530:	c7 46 58 8a 00 00 00      mov	dword [esi+58h], 0000008Ah
  416537:	ff 76 58                 >push	dword [esi+58h]
  41653a:	6a 08                     push	dword 00000008h
  41653c:	ff d3                     call	ebx
  41653e:	59                        pop	ecx
  41653f:	89 7e 58                  mov	[esi+58h], edi
  416542:	59                        pop	ecx
  416543:	5f                        pop	edi
  416544:	eb 08                     jmp	41654e
  416546:	83 60 08 00              >and	dword [eax+08h], 00h
  41654a:	51                        push	ecx
  41654b:	ff d3                     call	ebx
  41654d:	59                        pop	ecx
  41654e:	8b 45 fc                 >mov	eax, [ebp-04h]
  416551:	89 46 54                  mov	[esi+54h], eax
  416554:	83 c8 ff                 >or	eax, FFh
  416557:	eb 09                     jmp	416562
  416559:	ff 75 0c                 >push	dword [ebp+0Ch]
  41655c:	ff 15 74 f2 44 00         call	dword [0044F274h]	; <UnhandledExceptionFilter>
  416562:	5e                       >pop	esi
  416563:	5b                        pop	ebx
  416564:	c9                        leave
  416565:	c3                        ret

416566 <no name>:
  416566:	8b 54 24 08               mov	edx, [esp+08h]
  41656a:	8b 0d 74 70 46 00         mov	ecx, [00467074h]
  416570:	56                        push	esi
  416571:	8b 74 24 08               mov	esi, [esp+08h]
  416575:	39 32                     cmp	[edx], esi
  416577:	57                        push	edi
  416578:	8b c2                     mov	eax, edx
  41657a:	74 11                     jz	41658d
  41657c:	8d 3c 49                  lea	edi, [ecx+ecx*2]
  41657f:	8d 3c ba                  lea	edi, [edx+edi*4]
  416582:	83 c0 0c                 >add	eax, 0Ch
  416585:	3b c7                     cmp	eax, edi
  416587:	73 04                     jae	41658d
  416589:	39 30                     cmp	[eax], esi
  41658b:	75 f5                     jnz	416582
  41658d:	8d 0c 49                 >lea	ecx, [ecx+ecx*2]
  416590:	8d 0c 8a                  lea	ecx, [edx+ecx*4]
  416593:	3b c1                     cmp	eax, ecx
  416595:	73 04                     jae	41659b
  416597:	39 30                     cmp	[eax], esi
  416599:	74 02                     jz	41659d
  41659b:	33 c0                    >xor	eax, eax
  41659d:	5f                       >pop	edi
  41659e:	5e                        pop	esi
  41659f:	c3                        ret

4165a0 <no name>:
  4165a0:	83 3d 4c ca 46 00 00      cmp	dword [0046CA4Ch], 00h
  4165a7:	75 05                     jnz	4165ae
  4165a9:	e8 1e b4 ff ff            call	4119cc
  4165ae:	56                       >push	esi
  4165af:	8b 35 58 ca 46 00         mov	esi, [0046CA58h]
  4165b5:	8a 06                     mov	al, [esi]
  4165b7:	3c 22                     cmp	al, 22h
  4165b9:	75 25                     jnz	4165e0
  4165bb:	8a 46 01                 >mov	al, [esi+01h]
  4165be:	46                        inc	esi
  4165bf:	3c 22                     cmp	al, 22h
  4165c1:	74 15                     jz	4165d8
  4165c3:	84 c0                     test	al, al
  4165c5:	74 11                     jz	4165d8
  4165c7:	0f b6 c0                  movzx	eax, al
  4165ca:	50                        push	eax
  4165cb:	e8 f7 2c 00 00            call	4192c7
  4165d0:	85 c0                     test	eax, eax
  4165d2:	59                        pop	ecx
  4165d3:	74 e6                     jz	4165bb
  4165d5:	46                        inc	esi
  4165d6:	eb e3                     jmp	4165bb
  4165d8:	80 3e 22                 >cmp	byte [esi], 22h
  4165db:	75 0d                     jnz	4165ea
  4165dd:	46                       >inc	esi
  4165de:	eb 0a                     jmp	4165ea
  4165e0:	3c 20                    >cmp	al, 20h
  4165e2:	76 06                     jbe	4165ea
  4165e4:	46                       >inc	esi
  4165e5:	80 3e 20                  cmp	byte [esi], 20h
  4165e8:	77 fa                     ja	4165e4
  4165ea:	8a 06                    >mov	al, [esi]
  4165ec:	84 c0                     test	al, al
  4165ee:	74 04                     jz	4165f4
  4165f0:	3c 20                     cmp	al, 20h
  4165f2:	76 e9                     jbe	4165dd
  4165f4:	8b c6                    >mov	eax, esi
  4165f6:	5e                        pop	esi
  4165f7:	c3                        ret

4165f8 <no name>:
  4165f8:	53                        push	ebx
  4165f9:	33 db                     xor	ebx, ebx
  4165fb:	39 1d 4c ca 46 00         cmp	[0046CA4Ch], ebx
  416601:	56                        push	esi
  416602:	57                        push	edi
  416603:	75 05                     jnz	41660a
  416605:	e8 c2 b3 ff ff            call	4119cc
  41660a:	8b 35 64 ad 46 00        >mov	esi, [0046AD64h]
  416610:	33 ff                     xor	edi, edi
  416612:	8a 06                    >mov	al, [esi]
  416614:	3a c3                     cmp	al, bl
  416616:	74 12                     jz	41662a
  416618:	3c 3d                     cmp	al, 3Dh
  41661a:	74 01                     jz	41661d
  41661c:	47                        inc	edi
  41661d:	56                       >push	esi
  41661e:	e8 bd 89 ff ff            call	40efe0
  416623:	59                        pop	ecx
  416624:	8d 74 06 01               lea	esi, [esi+eax*1+01h]
  416628:	eb e8                     jmp	416612
  41662a:	8d 04 bd 04 00 00 00     >lea	eax, [edi*4+00000004h]
  416631:	50                        push	eax
  416632:	e8 12 a3 ff ff            call	410949
  416637:	8b f0                     mov	esi, eax
  416639:	59                        pop	ecx
  41663a:	3b f3                     cmp	esi, ebx
  41663c:	89 35 90 ad 46 00         mov	[0046AD90h], esi
  416642:	75 08                     jnz	41664c
  416644:	6a 09                     push	dword 00000009h
  416646:	e8 00 a0 ff ff            call	41064b
  41664b:	59                        pop	ecx
  41664c:	8b 3d 64 ad 46 00        >mov	edi, [0046AD64h]
  416652:	38 1f                     cmp	[edi], bl
  416654:	74 39                     jz	41668f
  416656:	55                        push	ebp
  416657:	57                       >push	edi
  416658:	e8 83 89 ff ff            call	40efe0
  41665d:	8b e8                     mov	ebp, eax
  41665f:	59                        pop	ecx
  416660:	45                        inc	ebp
  416661:	80 3f 3d                  cmp	byte [edi], 3Dh
  416664:	74 22                     jz	416688
  416666:	55                        push	ebp
  416667:	e8 dd a2 ff ff            call	410949
  41666c:	3b c3                     cmp	eax, ebx
  41666e:	59                        pop	ecx
  41666f:	89 06                     mov	[esi], eax
  416671:	75 08                     jnz	41667b
  416673:	6a 09                     push	dword 00000009h
  416675:	e8 d1 9f ff ff            call	41064b
  41667a:	59                        pop	ecx
  41667b:	57                       >push	edi
  41667c:	ff 36                     push	dword [esi]
  41667e:	e8 5d 90 ff ff            call	40f6e0
  416683:	59                        pop	ecx
  416684:	83 c6 04                  add	esi, 04h
  416687:	59                        pop	ecx
  416688:	03 fd                    >add	edi, ebp
  41668a:	38 1f                     cmp	[edi], bl
  41668c:	75 c9                     jnz	416657
  41668e:	5d                        pop	ebp
  41668f:	ff 35 64 ad 46 00        >push	dword [0046AD64h]
  416695:	e8 28 9c ff ff            call	4102c2
  41669a:	59                        pop	ecx
  41669b:	89 1d 64 ad 46 00         mov	[0046AD64h], ebx
  4166a1:	89 1e                     mov	[esi], ebx
  4166a3:	5f                        pop	edi
  4166a4:	5e                        pop	esi
  4166a5:	c7 05 48 ca 46 00 01      mov	dword [0046CA48h], 00000001h
		00 00 00 
  4166af:	5b                        pop	ebx
  4166b0:	c3                        ret

4166b1 <no name>:
  4166b1:	55                        push	ebp
  4166b2:	8b ec                     mov	ebp, esp
  4166b4:	51                        push	ecx
  4166b5:	51                        push	ecx
  4166b6:	53                        push	ebx
  4166b7:	33 db                     xor	ebx, ebx
  4166b9:	39 1d 4c ca 46 00         cmp	[0046CA4Ch], ebx
  4166bf:	56                        push	esi
  4166c0:	57                        push	edi
  4166c1:	75 05                     jnz	4166c8
  4166c3:	e8 04 b3 ff ff            call	4119cc
  4166c8:	be 64 ae 46 00           >mov	esi, 0046AE64h
  4166cd:	68 04 01 00 00            push	dword 00000104h
  4166d2:	56                        push	esi
  4166d3:	53                        push	ebx
  4166d4:	ff 15 68 f3 44 00         call	dword [0044F368h]	; <GetModuleFileNameA>
  4166da:	a1 58 ca 46 00            mov	eax, [46CA58h]
  4166df:	89 35 a0 ad 46 00         mov	[0046ADA0h], esi
  4166e5:	8b fe                     mov	edi, esi
  4166e7:	38 18                     cmp	[eax], bl
  4166e9:	74 02                     jz	4166ed
  4166eb:	8b f8                     mov	edi, eax
  4166ed:	8d 45 f8                 >lea	eax, [ebp-08h]
  4166f0:	50                        push	eax
  4166f1:	8d 45 fc                  lea	eax, [ebp-04h]
  4166f4:	50                        push	eax
  4166f5:	53                        push	ebx
  4166f6:	53                        push	ebx
  4166f7:	57                        push	edi
  4166f8:	e8 4d 00 00 00            call	41674a
  4166fd:	8b 45 f8                  mov	eax, [ebp-08h]
  416700:	8b 4d fc                  mov	ecx, [ebp-04h]
  416703:	8d 04 88                  lea	eax, [eax+ecx*4]
  416706:	50                        push	eax
  416707:	e8 3d a2 ff ff            call	410949
  41670c:	8b f0                     mov	esi, eax
  41670e:	83 c4 18                  add	esp, 18h
  416711:	3b f3                     cmp	esi, ebx
  416713:	75 08                     jnz	41671d
  416715:	6a 08                     push	dword 00000008h
  416717:	e8 2f 9f ff ff            call	41064b
  41671c:	59                        pop	ecx
  41671d:	8d 45 f8                 >lea	eax, [ebp-08h]
  416720:	50                        push	eax
  416721:	8d 45 fc                  lea	eax, [ebp-04h]
  416724:	50                        push	eax
  416725:	8b 45 fc                  mov	eax, [ebp-04h]
  416728:	8d 04 86                  lea	eax, [esi+eax*4]
  41672b:	50                        push	eax
  41672c:	56                        push	esi
  41672d:	57                        push	edi
  41672e:	e8 17 00 00 00            call	41674a
  416733:	8b 45 fc                  mov	eax, [ebp-04h]
  416736:	83 c4 14                  add	esp, 14h
  416739:	48                        dec	eax
  41673a:	89 35 88 ad 46 00         mov	[0046AD88h], esi
  416740:	5f                        pop	edi
  416741:	5e                        pop	esi
  416742:	a3 84 ad 46 00            mov	[46AD84h], eax
  416747:	5b                        pop	ebx
  416748:	c9                        leave
  416749:	c3                        ret

41674a <no name>:
  41674a:	55                        push	ebp
  41674b:	8b ec                     mov	ebp, esp
  41674d:	8b 4d 18                  mov	ecx, [ebp+18h]
  416750:	8b 45 14                  mov	eax, [ebp+14h]
  416753:	53                        push	ebx
  416754:	56                        push	esi
  416755:	83 21 00                  and	dword [ecx], 00h
  416758:	8b 75 10                  mov	esi, [ebp+10h]
  41675b:	57                        push	edi
  41675c:	8b 7d 0c                  mov	edi, [ebp+0Ch]
  41675f:	c7 00 01 00 00 00         mov	dword [eax], 00000001h
  416765:	8b 45 08                  mov	eax, [ebp+08h]
  416768:	85 ff                     test	edi, edi
  41676a:	74 08                     jz	416774
  41676c:	89 37                     mov	[edi], esi
  41676e:	83 c7 04                  add	edi, 04h
  416771:	89 7d 0c                  mov	[ebp+0Ch], edi
  416774:	80 38 22                 >cmp	byte [eax], 22h
  416777:	75 44                     jnz	4167bd
  416779:	8a 50 01                 >mov	dl, [eax+01h]
  41677c:	40                        inc	eax
  41677d:	80 fa 22                  cmp	dl, 22h
  416780:	74 29                     jz	4167ab
  416782:	84 d2                     test	dl, dl
  416784:	74 25                     jz	4167ab
  416786:	0f b6 d2                  movzx	edx, dl
  416789:	f6 82 41 c9 46 00 04      test	byte [edx+0046C941h], 04h
  416790:	74 0c                     jz	41679e
  416792:	ff 01                     inc	dword [ecx]
  416794:	85 f6                     test	esi, esi
  416796:	74 06                     jz	41679e
  416798:	8a 10                     mov	dl, [eax]
  41679a:	88 16                     mov	[esi], dl
  41679c:	46                        inc	esi
  41679d:	40                        inc	eax
  41679e:	ff 01                    >inc	dword [ecx]
  4167a0:	85 f6                     test	esi, esi
  4167a2:	74 d5                     jz	416779
  4167a4:	8a 10                     mov	dl, [eax]
  4167a6:	88 16                     mov	[esi], dl
  4167a8:	46                        inc	esi
  4167a9:	eb ce                     jmp	416779
  4167ab:	ff 01                    >inc	dword [ecx]
  4167ad:	85 f6                     test	esi, esi
  4167af:	74 04                     jz	4167b5
  4167b1:	80 26 00                  and	byte [esi], 00h
  4167b4:	46                        inc	esi
  4167b5:	80 38 22                 >cmp	byte [eax], 22h
  4167b8:	75 46                     jnz	416800
  4167ba:	40                        inc	eax
  4167bb:	eb 43                     jmp	416800
  4167bd:	ff 01                    >inc	dword [ecx]
  4167bf:	85 f6                     test	esi, esi
  4167c1:	74 05                     jz	4167c8
  4167c3:	8a 10                     mov	dl, [eax]
  4167c5:	88 16                     mov	[esi], dl
  4167c7:	46                        inc	esi
  4167c8:	8a 10                    >mov	dl, [eax]
  4167ca:	40                        inc	eax
  4167cb:	0f b6 da                  movzx	ebx, dl
  4167ce:	f6 83 41 c9 46 00 04      test	byte [ebx+0046C941h], 04h
  4167d5:	74 0c                     jz	4167e3
  4167d7:	ff 01                     inc	dword [ecx]
  4167d9:	85 f6                     test	esi, esi
  4167db:	74 05                     jz	4167e2
  4167dd:	8a 18                     mov	bl, [eax]
  4167df:	88 1e                     mov	[esi], bl
  4167e1:	46                        inc	esi
  4167e2:	40                       >inc	eax
  4167e3:	80 fa 20                 >cmp	dl, 20h
  4167e6:	74 09                     jz	4167f1
  4167e8:	84 d2                     test	dl, dl
  4167ea:	74 09                     jz	4167f5
  4167ec:	80 fa 09                  cmp	dl, 09h
  4167ef:	75 cc                     jnz	4167bd
  4167f1:	84 d2                    >test	dl, dl
  4167f3:	75 03                     jnz	4167f8
  4167f5:	48                       >dec	eax
  4167f6:	eb 08                     jmp	416800
  4167f8:	85 f6                    >test	esi, esi
  4167fa:	74 04                     jz	416800
  4167fc:	80 66 ff 00               and	byte [esi-01h], 00h
  416800:	83 65 18 00              >and	dword [ebp+18h], 00h
  416804:	80 38 00                 >cmp	byte [eax], 00h
  416807:	0f 84 e0 00 00 00         jz	4168ed
  41680d:	8a 10                    >mov	dl, [eax]
  41680f:	80 fa 20                  cmp	dl, 20h
  416812:	74 05                     jz	416819
  416814:	80 fa 09                  cmp	dl, 09h
  416817:	75 03                     jnz	41681c
  416819:	40                       >inc	eax
  41681a:	eb f1                     jmp	41680d
  41681c:	80 38 00                 >cmp	byte [eax], 00h
  41681f:	0f 84 c8 00 00 00         jz	4168ed
  416825:	85 ff                     test	edi, edi
  416827:	74 08                     jz	416831
  416829:	89 37                     mov	[edi], esi
  41682b:	83 c7 04                  add	edi, 04h
  41682e:	89 7d 0c                  mov	[ebp+0Ch], edi
  416831:	8b 55 14                 >mov	edx, [ebp+14h]
  416834:	ff 02                     inc	dword [edx]
  416836:	c7 45 08 01 00 00 00     >mov	dword [ebp+08h], 00000001h
  41683d:	33 db                     xor	ebx, ebx
  41683f:	80 38 5c                 >cmp	byte [eax], 5Ch
  416842:	75 04                     jnz	416848
  416844:	40                        inc	eax
  416845:	43                        inc	ebx
  416846:	eb f7                     jmp	41683f
  416848:	80 38 22                 >cmp	byte [eax], 22h
  41684b:	75 2c                     jnz	416879
  41684d:	f6 c3 01                  test	bl, 01h
  416850:	75 25                     jnz	416877
  416852:	33 ff                     xor	edi, edi
  416854:	39 7d 18                  cmp	[ebp+18h], edi
  416857:	74 0d                     jz	416866
  416859:	80 78 01 22               cmp	byte [eax+01h], 22h
  41685d:	8d 50 01                  lea	edx, [eax+01h]
  416860:	75 04                     jnz	416866
  416862:	8b c2                     mov	eax, edx
  416864:	eb 03                     jmp	416869
  416866:	89 7d 08                 >mov	[ebp+08h], edi
  416869:	8b 7d 0c                 >mov	edi, [ebp+0Ch]
  41686c:	33 d2                     xor	edx, edx
  41686e:	39 55 18                  cmp	[ebp+18h], edx
  416871:	0f 94 c2                  setz	dl
  416874:	89 55 18                  mov	[ebp+18h], edx
  416877:	d1 eb                    >shr	ebx, 1h
  416879:	8b d3                    >mov	edx, ebx
  41687b:	4b                        dec	ebx
  41687c:	85 d2                     test	edx, edx
  41687e:	74 0e                     jz	41688e
  416880:	43                        inc	ebx
  416881:	85 f6                    >test	esi, esi
  416883:	74 04                     jz	416889
  416885:	c6 06 5c                  mov	byte [esi], 5Ch
  416888:	46                        inc	esi
  416889:	ff 01                    >inc	dword [ecx]
  41688b:	4b                        dec	ebx
  41688c:	75 f3                     jnz	416881
  41688e:	8a 10                    >mov	dl, [eax]
  416890:	84 d2                     test	dl, dl
  416892:	74 4a                     jz	4168de
  416894:	83 7d 18 00               cmp	dword [ebp+18h], 00h
  416898:	75 0a                     jnz	4168a4
  41689a:	80 fa 20                  cmp	dl, 20h
  41689d:	74 3f                     jz	4168de
  41689f:	80 fa 09                  cmp	dl, 09h
  4168a2:	74 3a                     jz	4168de
  4168a4:	83 7d 08 00              >cmp	dword [ebp+08h], 00h
  4168a8:	74 2e                     jz	4168d8
  4168aa:	85 f6                     test	esi, esi
  4168ac:	74 19                     jz	4168c7
  4168ae:	0f b6 da                  movzx	ebx, dl
  4168b1:	f6 83 41 c9 46 00 04      test	byte [ebx+0046C941h], 04h
  4168b8:	74 06                     jz	4168c0
  4168ba:	88 16                     mov	[esi], dl
  4168bc:	46                        inc	esi
  4168bd:	40                        inc	eax
  4168be:	ff 01                     inc	dword [ecx]
  4168c0:	8a 10                    >mov	dl, [eax]
  4168c2:	88 16                     mov	[esi], dl
  4168c4:	46                        inc	esi
  4168c5:	eb 0f                     jmp	4168d6
  4168c7:	0f b6 d2                 >movzx	edx, dl
  4168ca:	f6 82 41 c9 46 00 04      test	byte [edx+0046C941h], 04h
  4168d1:	74 03                     jz	4168d6
  4168d3:	40                        inc	eax
  4168d4:	ff 01                     inc	dword [ecx]
  4168d6:	ff 01                    >inc	dword [ecx]
  4168d8:	40                       >inc	eax
  4168d9:	e9 58 ff ff ff            jmp	416836
  4168de:	85 f6                    >test	esi, esi
  4168e0:	74 04                     jz	4168e6
  4168e2:	80 26 00                  and	byte [esi], 00h
  4168e5:	46                        inc	esi
  4168e6:	ff 01                    >inc	dword [ecx]
  4168e8:	e9 17 ff ff ff            jmp	416804
  4168ed:	85 ff                    >test	edi, edi
  4168ef:	74 03                     jz	4168f4
  4168f1:	83 27 00                  and	dword [edi], 00h
  4168f4:	8b 45 14                 >mov	eax, [ebp+14h]
  4168f7:	5f                        pop	edi
  4168f8:	5e                        pop	esi
  4168f9:	5b                        pop	ebx
  4168fa:	ff 00                     inc	dword [eax]
  4168fc:	5d                        pop	ebp
  4168fd:	c3                        ret

4168fe <no name>:
  4168fe:	51                        push	ecx
  4168ff:	51                        push	ecx
  416900:	a1 68 af 46 00            mov	eax, [46AF68h]
  416905:	53                        push	ebx
  416906:	55                        push	ebp
  416907:	8b 2d 84 f2 44 00         mov	ebp, [0044F284h]
  41690d:	56                        push	esi
  41690e:	57                        push	edi
  41690f:	33 db                     xor	ebx, ebx
  416911:	33 f6                     xor	esi, esi
  416913:	33 ff                     xor	edi, edi
  416915:	3b c3                     cmp	eax, ebx
  416917:	75 33                     jnz	41694c
  416919:	ff d5                     call	ebp
  41691b:	8b f0                     mov	esi, eax
  41691d:	3b f3                     cmp	esi, ebx
  41691f:	74 0c                     jz	41692d
  416921:	c7 05 68 af 46 00 01      mov	dword [0046AF68h], 00000001h
		00 00 00 
  41692b:	eb 28                     jmp	416955
  41692d:	ff 15 80 f2 44 00        >call	dword [0044F280h]	; <GetEnvironmentStrings>
  416933:	8b f8                     mov	edi, eax
  416935:	3b fb                     cmp	edi, ebx
  416937:	0f 84 ea 00 00 00         jz	416a27
  41693d:	c7 05 68 af 46 00 02      mov	dword [0046AF68h], 00000002h
		00 00 00 
  416947:	e9 8f 00 00 00            jmp	4169db
  41694c:	83 f8 01                 >cmp	eax, 01h
  41694f:	0f 85 81 00 00 00         jnz	4169d6
  416955:	3b f3                    >cmp	esi, ebx
  416957:	75 0c                     jnz	416965
  416959:	ff d5                     call	ebp
  41695b:	8b f0                     mov	esi, eax
  41695d:	3b f3                     cmp	esi, ebx
  41695f:	0f 84 c2 00 00 00         jz	416a27
  416965:	66 39 1e                 >cmp	[esi], bx
  416968:	8b c6                     mov	eax, esi
  41696a:	74 0e                     jz	41697a
  41696c:	40                       >inc	eax
  41696d:	40                        inc	eax
  41696e:	66 39 18                  cmp	[eax], bx
  416971:	75 f9                     jnz	41696c
  416973:	40                        inc	eax
  416974:	40                        inc	eax
  416975:	66 39 18                  cmp	[eax], bx
  416978:	75 f2                     jnz	41696c
  41697a:	2b c6                    >sub	eax, esi
  41697c:	8b 3d 3c f4 44 00         mov	edi, [0044F43Ch]
  416982:	d1 f8                     sar	eax, 1h
  416984:	53                        push	ebx
  416985:	53                        push	ebx
  416986:	40                        inc	eax
  416987:	53                        push	ebx
  416988:	53                        push	ebx
  416989:	50                        push	eax
  41698a:	56                        push	esi
  41698b:	53                        push	ebx
  41698c:	53                        push	ebx
  41698d:	89 44 24 34               mov	[esp+34h], eax
  416991:	ff d7                     call	edi
  416993:	8b e8                     mov	ebp, eax
  416995:	3b eb                     cmp	ebp, ebx
  416997:	74 32                     jz	4169cb
  416999:	55                        push	ebp
  41699a:	e8 aa 9f ff ff            call	410949
  41699f:	3b c3                     cmp	eax, ebx
  4169a1:	59                        pop	ecx
  4169a2:	89 44 24 10               mov	[esp+10h], eax
  4169a6:	74 23                     jz	4169cb
  4169a8:	53                        push	ebx
  4169a9:	53                        push	ebx
  4169aa:	55                        push	ebp
  4169ab:	50                        push	eax
  4169ac:	ff 74 24 24               push	dword [esp+24h]
  4169b0:	56                        push	esi
  4169b1:	53                        push	ebx
  4169b2:	53                        push	ebx
  4169b3:	ff d7                     call	edi
  4169b5:	85 c0                     test	eax, eax
  4169b7:	75 0e                     jnz	4169c7
  4169b9:	ff 74 24 10               push	dword [esp+10h]
  4169bd:	e8 00 99 ff ff            call	4102c2
  4169c2:	59                        pop	ecx
  4169c3:	89 5c 24 10               mov	[esp+10h], ebx
  4169c7:	8b 5c 24 10              >mov	ebx, [esp+10h]
  4169cb:	56                       >push	esi
  4169cc:	ff 15 7c f2 44 00         call	dword [0044F27Ch]	; <FreeEnvironmentStringsW>
  4169d2:	8b c3                     mov	eax, ebx
  4169d4:	eb 53                     jmp	416a29
  4169d6:	83 f8 02                 >cmp	eax, 02h
  4169d9:	75 4c                     jnz	416a27
  4169db:	3b fb                    >cmp	edi, ebx
  4169dd:	75 0c                     jnz	4169eb
  4169df:	ff 15 80 f2 44 00         call	dword [0044F280h]	; <GetEnvironmentStrings>
  4169e5:	8b f8                     mov	edi, eax
  4169e7:	3b fb                     cmp	edi, ebx
  4169e9:	74 3c                     jz	416a27
  4169eb:	38 1f                    >cmp	[edi], bl
  4169ed:	8b c7                     mov	eax, edi
  4169ef:	74 0a                     jz	4169fb
  4169f1:	40                       >inc	eax
  4169f2:	38 18                     cmp	[eax], bl
  4169f4:	75 fb                     jnz	4169f1
  4169f6:	40                        inc	eax
  4169f7:	38 18                     cmp	[eax], bl
  4169f9:	75 f6                     jnz	4169f1
  4169fb:	2b c7                    >sub	eax, edi
  4169fd:	40                        inc	eax
  4169fe:	8b e8                     mov	ebp, eax
  416a00:	55                        push	ebp
  416a01:	e8 43 9f ff ff            call	410949
  416a06:	8b f0                     mov	esi, eax
  416a08:	59                        pop	ecx
  416a09:	3b f3                     cmp	esi, ebx
  416a0b:	75 04                     jnz	416a11
  416a0d:	33 f6                     xor	esi, esi
  416a0f:	eb 0b                     jmp	416a1c
  416a11:	55                       >push	ebp
  416a12:	57                        push	edi
  416a13:	56                        push	esi
  416a14:	e8 47 86 ff ff            call	40f060
  416a19:	83 c4 0c                  add	esp, 0Ch
  416a1c:	57                       >push	edi
  416a1d:	ff 15 78 f2 44 00         call	dword [0044F278h]	; <FreeEnvironmentStringsA>
  416a23:	8b c6                     mov	eax, esi
  416a25:	eb 02                     jmp	416a29
  416a27:	33 c0                    >xor	eax, eax
  416a29:	5f                       >pop	edi
  416a2a:	5e                        pop	esi
  416a2b:	5d                        pop	ebp
  416a2c:	5b                        pop	ebx
  416a2d:	59                        pop	ecx
  416a2e:	59                        pop	ecx
  416a2f:	c3                        ret

416a30 <no name>:
  416a30:	55                        push	ebp
  416a31:	8b ec                     mov	ebp, esp
  416a33:	83 ec 48                  sub	esp, 48h
  416a36:	53                        push	ebx
  416a37:	56                        push	esi
  416a38:	57                        push	edi
  416a39:	68 80 04 00 00            push	dword 00000480h
  416a3e:	e8 06 9f ff ff            call	410949
  416a43:	8b f0                     mov	esi, eax
  416a45:	59                        pop	ecx
  416a46:	85 f6                     test	esi, esi
  416a48:	75 08                     jnz	416a52
  416a4a:	6a 1b                     push	dword 0000001Bh
  416a4c:	e8 fa 9b ff ff            call	41064b
  416a51:	59                        pop	ecx
  416a52:	89 35 e0 c6 46 00        >mov	[0046C6E0h], esi
  416a58:	c7 05 e0 c7 46 00 20      mov	dword [0046C7E0h], 00000020h
		00 00 00 
  416a62:	8d 86 80 04 00 00         lea	eax, [esi+00000480h]
  416a68:	3b f0                    >cmp	esi, eax
  416a6a:	73 1e                     jae	416a8a
  416a6c:	80 66 04 00               and	byte [esi+04h], 00h
  416a70:	83 0e ff                  or	dword [esi], FFh
  416a73:	83 66 08 00               and	dword [esi+08h], 00h
  416a77:	c6 46 05 0a               mov	byte [esi+05h], 0Ah
  416a7b:	a1 e0 c6 46 00            mov	eax, [46C6E0h]
  416a80:	83 c6 24                  add	esi, 24h
  416a83:	05 80 04 00 00            add	eax, 00000480h
  416a88:	eb de                     jmp	416a68
  416a8a:	8d 45 b8                 >lea	eax, [ebp-48h]
  416a8d:	50                        push	eax
  416a8e:	ff 15 18 f2 44 00         call	dword [0044F218h]	; <GetStartupInfoA>
  416a94:	66 83 7d ea 00            cmp	word [ebp-16h], 00h
  416a99:	0f 84 d1 00 00 00         jz	416b70
  416a9f:	8b 45 ec                  mov	eax, [ebp-14h]
  416aa2:	85 c0                     test	eax, eax
  416aa4:	0f 84 c6 00 00 00         jz	416b70
  416aaa:	8b 38                     mov	edi, [eax]
  416aac:	8d 58 04                  lea	ebx, [eax+04h]
  416aaf:	8d 04 3b                  lea	eax, [ebx+edi*1]
  416ab2:	89 45 fc                  mov	[ebp-04h], eax
  416ab5:	b8 00 08 00 00            mov	eax, 00000800h
  416aba:	3b f8                     cmp	edi, eax
  416abc:	7c 02                     jl	416ac0
  416abe:	8b f8                     mov	edi, eax
  416ac0:	39 3d e0 c7 46 00        >cmp	[0046C7E0h], edi
  416ac6:	7d 56                     jge	416b1e
  416ac8:	be e4 c6 46 00            mov	esi, 0046C6E4h
  416acd:	68 80 04 00 00           >push	dword 00000480h
  416ad2:	e8 72 9e ff ff            call	410949
  416ad7:	85 c0                     test	eax, eax
  416ad9:	59                        pop	ecx
  416ada:	74 3c                     jz	416b18
  416adc:	83 05 e0 c7 46 00 20      add	dword [0046C7E0h], 20h
  416ae3:	89 06                     mov	[esi], eax
  416ae5:	8d 88 80 04 00 00         lea	ecx, [eax+00000480h]
  416aeb:	3b c1                    >cmp	eax, ecx
  416aed:	73 1c                     jae	416b0b
  416aef:	80 60 04 00               and	byte [eax+04h], 00h
  416af3:	83 08 ff                  or	dword [eax], FFh
  416af6:	83 60 08 00               and	dword [eax+08h], 00h
  416afa:	c6 40 05 0a               mov	byte [eax+05h], 0Ah
  416afe:	8b 0e                     mov	ecx, [esi]
  416b00:	83 c0 24                  add	eax, 24h
  416b03:	81 c1 80 04 00 00         add	ecx, 00000480h
  416b09:	eb e0                     jmp	416aeb
  416b0b:	83 c6 04                 >add	esi, 04h
  416b0e:	39 3d e0 c7 46 00         cmp	[0046C7E0h], edi
  416b14:	7c b7                     jl	416acd
  416b16:	eb 06                     jmp	416b1e
  416b18:	8b 3d e0 c7 46 00        >mov	edi, [0046C7E0h]
  416b1e:	33 f6                    >xor	esi, esi
  416b20:	85 ff                     test	edi, edi
  416b22:	7e 4c                     jle	416b70
  416b24:	8b 45 fc                 >mov	eax, [ebp-04h]
  416b27:	8b 08                     mov	ecx, [eax]
  416b29:	83 f9 ff                  cmp	ecx, FFh
  416b2c:	74 38                     jz	416b66
  416b2e:	8a 03                     mov	al, [ebx]
  416b30:	a8 01                     test	al, 01h
  416b32:	74 32                     jz	416b66
  416b34:	a8 08                     test	al, 08h
  416b36:	75 0b                     jnz	416b43
  416b38:	51                        push	ecx
  416b39:	ff 15 90 f2 44 00         call	dword [0044F290h]	; <GetFileType>
  416b3f:	85 c0                     test	eax, eax
  416b41:	74 23                     jz	416b66
  416b43:	8b ce                    >mov	ecx, esi
  416b45:	8b c6                     mov	eax, esi
  416b47:	c1 f9 05                  sar	ecx, 05h
  416b4a:	83 e0 1f                  and	eax, 1Fh
  416b4d:	8b 0c 8d e0 c6 46 00      mov	ecx, [ecx*4+0046C6E0h]
  416b54:	8d 04 c0                  lea	eax, [eax+eax*8]
  416b57:	8d 04 81                  lea	eax, [ecx+eax*4]
  416b5a:	8b 4d fc                  mov	ecx, [ebp-04h]
  416b5d:	8b 09                     mov	ecx, [ecx]
  416b5f:	89 08                     mov	[eax], ecx
  416b61:	8a 0b                     mov	cl, [ebx]
  416b63:	88 48 04                  mov	[eax+04h], cl
  416b66:	83 45 fc 04              >add	dword [ebp-04h], 04h
  416b6a:	46                        inc	esi
  416b6b:	43                        inc	ebx
  416b6c:	3b f7                     cmp	esi, edi
  416b6e:	7c b4                     jl	416b24
  416b70:	33 db                    >xor	ebx, ebx
  416b72:	8b 0d e0 c6 46 00        >mov	ecx, [0046C6E0h]
  416b78:	8d 04 db                  lea	eax, [ebx+ebx*8]
  416b7b:	83 3c 81 ff               cmp	dword [ecx+eax*4], FFh
  416b7f:	8d 34 81                  lea	esi, [ecx+eax*4]
  416b82:	75 4d                     jnz	416bd1
  416b84:	85 db                     test	ebx, ebx
  416b86:	c6 46 04 81               mov	byte [esi+04h], 81h
  416b8a:	75 05                     jnz	416b91
  416b8c:	6a f6                     push	dword FFFFFFF6h
  416b8e:	58                        pop	eax
  416b8f:	eb 0a                     jmp	416b9b
  416b91:	8b c3                    >mov	eax, ebx
  416b93:	48                        dec	eax
  416b94:	f7 d8                     neg	eax
  416b96:	1b c0                     sbb	eax, eax
  416b98:	83 c0 f5                  add	eax, F5h
  416b9b:	50                       >push	eax
  416b9c:	ff 15 8c f2 44 00         call	dword [0044F28Ch]	; <GetStdHandle>
  416ba2:	8b f8                     mov	edi, eax
  416ba4:	83 ff ff                  cmp	edi, FFh
  416ba7:	74 17                     jz	416bc0
  416ba9:	57                        push	edi
  416baa:	ff 15 90 f2 44 00         call	dword [0044F290h]	; <GetFileType>
  416bb0:	85 c0                     test	eax, eax
  416bb2:	74 0c                     jz	416bc0
  416bb4:	25 ff 00 00 00            and	eax, 000000FFh
  416bb9:	89 3e                     mov	[esi], edi
  416bbb:	83 f8 02                  cmp	eax, 02h
  416bbe:	75 06                     jnz	416bc6
  416bc0:	80 4e 04 40              >or	byte [esi+04h], 40h
  416bc4:	eb 0f                     jmp	416bd5
  416bc6:	83 f8 03                 >cmp	eax, 03h
  416bc9:	75 0a                     jnz	416bd5
  416bcb:	80 4e 04 08               or	byte [esi+04h], 08h
  416bcf:	eb 04                     jmp	416bd5
  416bd1:	80 4e 04 80              >or	byte [esi+04h], 80h
  416bd5:	43                       >inc	ebx
  416bd6:	83 fb 03                  cmp	ebx, 03h
  416bd9:	7c 97                     jl	416b72
  416bdb:	ff 35 e0 c7 46 00         push	dword [0046C7E0h]
  416be1:	ff 15 88 f2 44 00         call	dword [0044F288h]	; <SetHandleCount>
  416be7:	5f                        pop	edi
  416be8:	5e                        pop	esi
  416be9:	5b                        pop	ebx
  416bea:	c9                        leave
  416beb:	c3                        ret
     ...

416c40 <no name>:
  416c40:	a1 6c ad 46 00            mov	eax, [46AD6Ch]
  416c45:	83 f8 01                  cmp	eax, 01h
  416c48:	74 0d                     jz	416c57
  416c4a:	85 c0                     test	eax, eax
  416c4c:	75 2a                     jnz	416c78
  416c4e:	83 3d 00 4b 46 00 01      cmp	dword [00464B00h], 01h
  416c55:	75 21                     jnz	416c78
  416c57:	68 fc 00 00 00           >push	dword 000000FCh
  416c5c:	e8 18 00 00 00            call	416c79
  416c61:	a1 6c af 46 00            mov	eax, [46AF6Ch]
  416c66:	59                        pop	ecx
  416c67:	85 c0                     test	eax, eax
  416c69:	74 02                     jz	416c6d
  416c6b:	ff d0                     call	eax
  416c6d:	68 ff 00 00 00           >push	dword 000000FFh
  416c72:	e8 02 00 00 00            call	416c79
  416c77:	59                        pop	ecx
  416c78:	c3                       >ret

416c79 <no name>:
  416c79:	55                        push	ebp
  416c7a:	8b ec                     mov	ebp, esp
  416c7c:	81 ec a4 01 00 00         sub	esp, 000001A4h
  416c82:	8b 55 08                  mov	edx, [ebp+08h]
  416c85:	33 c9                     xor	ecx, ecx
  416c87:	b8 a0 70 46 00            mov	eax, 004670A0h
  416c8c:	3b 10                    >cmp	edx, [eax]
  416c8e:	74 0b                     jz	416c9b
  416c90:	83 c0 08                  add	eax, 08h
  416c93:	41                        inc	ecx
  416c94:	3d 30 71 46 00            cmp	eax, 00467130h
  416c99:	7c f1                     jl	416c8c
  416c9b:	56                       >push	esi
  416c9c:	8b f1                     mov	esi, ecx
  416c9e:	c1 e6 03                  shl	esi, 03h
  416ca1:	3b 96 a0 70 46 00         cmp	edx, [esi+004670A0h]
  416ca7:	0f 85 1c 01 00 00         jnz	416dc9
  416cad:	a1 6c ad 46 00            mov	eax, [46AD6Ch]
  416cb2:	83 f8 01                  cmp	eax, 01h
  416cb5:	0f 84 e8 00 00 00         jz	416da3
  416cbb:	85 c0                     test	eax, eax
  416cbd:	75 0d                     jnz	416ccc
  416cbf:	83 3d 00 4b 46 00 01      cmp	dword [00464B00h], 01h
  416cc6:	0f 84 d7 00 00 00         jz	416da3
  416ccc:	81 fa fc 00 00 00        >cmp	edx, 000000FCh
  416cd2:	0f 84 f1 00 00 00         jz	416dc9
  416cd8:	8d 85 5c fe ff ff         lea	eax, [ebp-000001A4h]
  416cde:	68 04 01 00 00            push	dword 00000104h
  416ce3:	50                        push	eax
  416ce4:	6a 00                     push	dword 00000000h
  416ce6:	ff 15 68 f3 44 00         call	dword [0044F368h]	; <GetModuleFileNameA>
  416cec:	85 c0                     test	eax, eax
  416cee:	75 13                     jnz	416d03
  416cf0:	8d 85 5c fe ff ff         lea	eax, [ebp-000001A4h]
  416cf6:	68 e4 47 45 00            push	dword 004547E4h
  416cfb:	50                        push	eax
  416cfc:	e8 df 89 ff ff            call	40f6e0
  416d01:	59                        pop	ecx
  416d02:	59                        pop	ecx
  416d03:	8d 85 5c fe ff ff        >lea	eax, [ebp-000001A4h]
  416d09:	57                        push	edi
  416d0a:	50                        push	eax
  416d0b:	8d bd 5c fe ff ff         lea	edi, [ebp-000001A4h]
  416d11:	e8 ca 82 ff ff            call	40efe0
  416d16:	40                        inc	eax
  416d17:	59                        pop	ecx
  416d18:	83 f8 3c                  cmp	eax, 3Ch
  416d1b:	76 29                     jbe	416d46
  416d1d:	8d 85 5c fe ff ff         lea	eax, [ebp-000001A4h]
  416d23:	50                        push	eax
  416d24:	e8 b7 82 ff ff            call	40efe0
  416d29:	8b f8                     mov	edi, eax
  416d2b:	8d 85 5c fe ff ff         lea	eax, [ebp-000001A4h]
  416d31:	83 e8 3b                  sub	eax, 3Bh
  416d34:	6a 03                     push	dword 00000003h
  416d36:	03 f8                     add	edi, eax
  416d38:	68 e0 47 45 00            push	dword 004547E0h
  416d3d:	57                        push	edi
  416d3e:	e8 8d 26 00 00            call	4193d0
  416d43:	83 c4 10                  add	esp, 10h
  416d46:	8d 85 60 ff ff ff        >lea	eax, [ebp-000000A0h]
  416d4c:	68 c4 47 45 00            push	dword 004547C4h
  416d51:	50                        push	eax
  416d52:	e8 89 89 ff ff            call	40f6e0
  416d57:	8d 85 60 ff ff ff         lea	eax, [ebp-000000A0h]
  416d5d:	57                        push	edi
  416d5e:	50                        push	eax
  416d5f:	e8 8c 89 ff ff            call	40f6f0
  416d64:	8d 85 60 ff ff ff         lea	eax, [ebp-000000A0h]
  416d6a:	68 c0 47 45 00            push	dword 004547C0h
  416d6f:	50                        push	eax
  416d70:	e8 7b 89 ff ff            call	40f6f0
  416d75:	ff b6 a4 70 46 00         push	dword [esi+004670A4h]
  416d7b:	8d 85 60 ff ff ff         lea	eax, [ebp-000000A0h]
  416d81:	50                        push	eax
  416d82:	e8 69 89 ff ff            call	40f6f0
  416d87:	68 10 20 01 00            push	dword 00012010h
  416d8c:	8d 85 60 ff ff ff         lea	eax, [ebp-000000A0h]
  416d92:	68 98 47 45 00            push	dword 00454798h
  416d97:	50                        push	eax
  416d98:	e8 a4 25 00 00            call	419341
  416d9d:	83 c4 2c                  add	esp, 2Ch
  416da0:	5f                        pop	edi
  416da1:	eb 26                     jmp	416dc9
  416da3:	8d 45 08                 >lea	eax, [ebp+08h]
  416da6:	8d b6 a4 70 46 00         lea	esi, [esi+004670A4h]
  416dac:	6a 00                     push	dword 00000000h
  416dae:	50                        push	eax
  416daf:	ff 36                     push	dword [esi]
  416db1:	e8 2a 82 ff ff            call	40efe0
  416db6:	59                        pop	ecx
  416db7:	50                        push	eax
  416db8:	ff 36                     push	dword [esi]
  416dba:	6a f4                     push	dword FFFFFFF4h
  416dbc:	ff 15 8c f2 44 00         call	dword [0044F28Ch]	; <GetStdHandle>
  416dc2:	50                        push	eax
  416dc3:	ff 15 48 f3 44 00         call	dword [0044F348h]	; <WriteFile>
  416dc9:	5e                       >pop	esi
  416dca:	c9                        leave
  416dcb:	c3                        ret
     ...

416e9a <no name>:
  416e9a:	a1 74 af 46 00            mov	eax, [46AF74h]
  416e9f:	85 c0                     test	eax, eax
  416ea1:	74 0f                     jz	416eb2
  416ea3:	ff 74 24 04               push	dword [esp+04h]
  416ea7:	ff d0                     call	eax
  416ea9:	85 c0                     test	eax, eax
  416eab:	59                        pop	ecx
  416eac:	74 04                     jz	416eb2
  416eae:	6a 01                     push	dword 00000001h
  416eb0:	58                        pop	eax
  416eb1:	c3                        ret
  416eb2:	33 c0                    >xor	eax, eax
  416eb4:	c3                        ret

416eb5 <no name>:
  416eb5:	55                        push	ebp
  416eb6:	8b ec                     mov	ebp, esp
  416eb8:	6a ff                     push	dword FFFFFFFFh
  416eba:	68 00 48 45 00            push	dword 00454800h
  416ebf:	68 50 63 41 00            push	dword 00416350h
  416ec4:	64 a1 00 00 00 00         mov	eax, [fs:0000h]
  416eca:	50                        push	eax
  416ecb:	64 89 25 00 00 00 00      mov	[fs:00000000h], esp
  416ed2:	83 ec 18                  sub	esp, 18h
  416ed5:	53                        push	ebx
  416ed6:	56                        push	esi
  416ed7:	57                        push	edi
  416ed8:	8b 75 08                  mov	esi, [ebp+08h]
  416edb:	0f af 75 0c               imul	esi, [ebp+0Ch]
  416edf:	89 75 0c                  mov	[ebp+0Ch], esi
  416ee2:	89 75 e4                  mov	[ebp-1Ch], esi
  416ee5:	83 fe e0                  cmp	esi, E0h
  416ee8:	77 14                     ja	416efe
  416eea:	33 db                     xor	ebx, ebx
  416eec:	3b f3                     cmp	esi, ebx
  416eee:	75 03                     jnz	416ef3
  416ef0:	6a 01                     push	dword 00000001h
  416ef2:	5e                        pop	esi
  416ef3:	83 c6 0f                 >add	esi, 0Fh
  416ef6:	83 e6 f0                  and	esi, F0h
  416ef9:	89 75 0c                  mov	[ebp+0Ch], esi
  416efc:	eb 02                     jmp	416f00
  416efe:	33 db                    >xor	ebx, ebx
  416f00:	89 5d e0                 >mov	[ebp-20h], ebx
  416f03:	83 fe e0                  cmp	esi, E0h
  416f06:	0f 87 a8 00 00 00         ja	416fb4
  416f0c:	a1 08 c8 46 00            mov	eax, [46C808h]
  416f11:	83 f8 03                  cmp	eax, 03h
  416f14:	75 41                     jnz	416f57
  416f16:	8b 7d e4                  mov	edi, [ebp-1Ch]
  416f19:	3b 3d 00 c8 46 00         cmp	edi, [0046C800h]
  416f1f:	77 7c                     ja	416f9d
  416f21:	6a 09                     push	dword 00000009h
  416f23:	e8 7f cc ff ff            call	413ba7
  416f28:	59                        pop	ecx
  416f29:	89 5d fc                  mov	[ebp-04h], ebx
  416f2c:	57                        push	edi
  416f2d:	e8 1d e0 ff ff            call	414f4f
  416f32:	59                        pop	ecx
  416f33:	89 45 e0                  mov	[ebp-20h], eax
  416f36:	83 4d fc ff               or	dword [ebp-04h], FFh
  416f3a:	e8 0f 00 00 00            call	416f4e
  416f3f:	39 5d e0                  cmp	[ebp-20h], ebx
  416f42:	74 5e                     jz	416fa2
  416f44:	ff 75 e4                  push	dword [ebp-1Ch]
  416f47:	eb 48                     jmp	416f91
     ...

416f4e <no name>:
  416f4e:	6a 09                     push	dword 00000009h
  416f50:	e8 b3 cc ff ff            call	413c08
  416f55:	59                        pop	ecx
  416f56:	c3                        ret
  416f57:	83 f8 02                 >cmp	eax, 02h
  416f5a:	75 41                     jnz	416f9d
  416f5c:	3b 35 ec 6f 46 00         cmp	esi, [00466FECh]
  416f62:	77 39                     ja	416f9d
  416f64:	6a 09                     push	dword 00000009h
  416f66:	e8 3c cc ff ff            call	413ba7
  416f6b:	59                        pop	ecx
  416f6c:	c7 45 fc 01 00 00 00      mov	dword [ebp-04h], 00000001h
  416f73:	8b c6                     mov	eax, esi
  416f75:	c1 e8 04                  shr	eax, 04h
  416f78:	50                        push	eax
  416f79:	e8 96 ee ff ff            call	415e14
  416f7e:	59                        pop	ecx
  416f7f:	89 45 e0                  mov	[ebp-20h], eax
  416f82:	83 4d fc ff               or	dword [ebp-04h], FFh
  416f86:	e8 4c 00 00 00            call	416fd7
  416f8b:	39 5d e0                  cmp	[ebp-20h], ebx
  416f8e:	74 12                     jz	416fa2
  416f90:	56                        push	esi
  416f91:	53                       >push	ebx
  416f92:	ff 75 e0                  push	dword [ebp-20h]
  416f95:	e8 e6 7f ff ff            call	40ef80
  416f9a:	83 c4 0c                  add	esp, 0Ch
  416f9d:	39 5d e0                 >cmp	[ebp-20h], ebx
  416fa0:	75 3e                     jnz	416fe0
  416fa2:	56                       >push	esi
  416fa3:	6a 08                     push	dword 00000008h
  416fa5:	ff 35 04 c8 46 00         push	dword [0046C804h]
  416fab:	ff 15 24 f2 44 00         call	dword [0044F224h]	; <HeapAlloc>
  416fb1:	89 45 e0                  mov	[ebp-20h], eax
  416fb4:	39 5d e0                 >cmp	[ebp-20h], ebx
  416fb7:	75 27                     jnz	416fe0
  416fb9:	39 1d 70 af 46 00         cmp	[0046AF70h], ebx
  416fbf:	74 1f                     jz	416fe0
  416fc1:	56                        push	esi
  416fc2:	e8 d3 fe ff ff            call	416e9a
  416fc7:	59                        pop	ecx
  416fc8:	85 c0                     test	eax, eax
  416fca:	0f 85 30 ff ff ff         jnz	416f00
  416fd0:	eb 11                     jmp	416fe3
     ...

416fd7 <no name>:
  416fd7:	6a 09                     push	dword 00000009h
  416fd9:	e8 2a cc ff ff            call	413c08
  416fde:	59                        pop	ecx
  416fdf:	c3                        ret
  416fe0:	8b 45 e0                 >mov	eax, [ebp-20h]
  416fe3:	8b 4d f0                 >mov	ecx, [ebp-10h]
  416fe6:	64 89 0d 00 00 00 00      mov	[fs:00000000h], ecx
  416fed:	5f                        pop	edi
  416fee:	5e                        pop	esi
  416fef:	5b                        pop	ebx
  416ff0:	c9                        leave
  416ff1:	c3                        ret
     ...

4179a0 <no name>:
  4179a0:	55                        push	ebp
  4179a1:	8b ec                     mov	ebp, esp
  4179a3:	57                        push	edi
  4179a4:	56                        push	esi
  4179a5:	53                        push	ebx
  4179a6:	8b 4d 10                  mov	ecx, [ebp+10h]
  4179a9:	e3 26                     jcxz	4179d1
  4179ab:	8b d9                     mov	ebx, ecx
  4179ad:	8b 7d 08                  mov	edi, [ebp+08h]
  4179b0:	8b f7                     mov	esi, edi
  4179b2:	33 c0                     xor	eax, eax
  4179b4:	f2 ae                     repne scasb
  4179b6:	f7 d9                     neg	ecx
  4179b8:	03 cb                     add	ecx, ebx
  4179ba:	8b fe                     mov	edi, esi
  4179bc:	8b 75 0c                  mov	esi, [ebp+0Ch]
  4179bf:	f3 a6                     repe cmpsb
  4179c1:	8a 46 ff                  mov	al, [esi-01h]
  4179c4:	33 c9                     xor	ecx, ecx
  4179c6:	3a 47 ff                  cmp	al, [edi-01h]
  4179c9:	77 04                     ja	4179cf
  4179cb:	74 04                     jz	4179d1
  4179cd:	49                        dec	ecx
  4179ce:	49                        dec	ecx
  4179cf:	f7 d1                    >not	ecx
  4179d1:	8b c1                    >mov	eax, ecx
  4179d3:	5b                        pop	ebx
  4179d4:	5e                        pop	esi
  4179d5:	5f                        pop	edi
  4179d6:	c9                        leave
  4179d7:	c3                        ret

4179d8 <no name>:
  4179d8:	55                        push	ebp
  4179d9:	8b ec                     mov	ebp, esp
  4179db:	6a ff                     push	dword FFFFFFFFh
  4179dd:	68 90 48 45 00            push	dword 00454890h
  4179e2:	68 50 63 41 00            push	dword 00416350h
  4179e7:	64 a1 00 00 00 00         mov	eax, [fs:0000h]
  4179ed:	50                        push	eax
  4179ee:	64 89 25 00 00 00 00      mov	[fs:00000000h], esp
  4179f5:	83 ec 18                  sub	esp, 18h
  4179f8:	53                        push	ebx
  4179f9:	56                        push	esi
  4179fa:	57                        push	edi
  4179fb:	89 65 e8                  mov	[ebp-18h], esp
  4179fe:	a1 78 af 46 00            mov	eax, [46AF78h]
  417a03:	33 db                     xor	ebx, ebx
  417a05:	3b c3                     cmp	eax, ebx
  417a07:	75 3e                     jnz	417a47
  417a09:	8d 45 e4                  lea	eax, [ebp-1Ch]
  417a0c:	50                        push	eax
  417a0d:	6a 01                     push	dword 00000001h
  417a0f:	5e                        pop	esi
  417a10:	56                        push	esi
  417a11:	68 7c 44 45 00            push	dword 0045447Ch
  417a16:	56                        push	esi
  417a17:	ff 15 98 f2 44 00         call	dword [0044F298h]	; <GetStringTypeW>
  417a1d:	85 c0                     test	eax, eax
  417a1f:	74 04                     jz	417a25
  417a21:	8b c6                     mov	eax, esi
  417a23:	eb 1d                     jmp	417a42
  417a25:	8d 45 e4                 >lea	eax, [ebp-1Ch]
  417a28:	50                        push	eax
  417a29:	56                        push	esi
  417a2a:	68 78 44 45 00            push	dword 00454478h
  417a2f:	56                        push	esi
  417a30:	53                        push	ebx
  417a31:	ff 15 94 f2 44 00         call	dword [0044F294h]	; <GetStringTypeA>
  417a37:	85 c0                     test	eax, eax
  417a39:	0f 84 ce 00 00 00         jz	417b0d
  417a3f:	6a 02                     push	dword 00000002h
  417a41:	58                        pop	eax
  417a42:	a3 78 af 46 00           >mov	[46AF78h], eax
  417a47:	83 f8 02                 >cmp	eax, 02h
  417a4a:	75 24                     jnz	417a70
  417a4c:	8b 45 1c                  mov	eax, [ebp+1Ch]
  417a4f:	3b c3                     cmp	eax, ebx
  417a51:	75 05                     jnz	417a58
  417a53:	a1 84 af 46 00            mov	eax, [46AF84h]
  417a58:	ff 75 14                 >push	dword [ebp+14h]
  417a5b:	ff 75 10                  push	dword [ebp+10h]
  417a5e:	ff 75 0c                  push	dword [ebp+0Ch]
  417a61:	ff 75 08                  push	dword [ebp+08h]
  417a64:	50                        push	eax
  417a65:	ff 15 94 f2 44 00         call	dword [0044F294h]	; <GetStringTypeA>
  417a6b:	e9 9f 00 00 00            jmp	417b0f
  417a70:	83 f8 01                 >cmp	eax, 01h
  417a73:	0f 85 94 00 00 00         jnz	417b0d
  417a79:	39 5d 18                  cmp	[ebp+18h], ebx
  417a7c:	75 08                     jnz	417a86
  417a7e:	a1 94 af 46 00            mov	eax, [46AF94h]
  417a83:	89 45 18                  mov	[ebp+18h], eax
  417a86:	53                       >push	ebx
  417a87:	53                        push	ebx
  417a88:	ff 75 10                  push	dword [ebp+10h]
  417a8b:	ff 75 0c                  push	dword [ebp+0Ch]
  417a8e:	8b 45 20                  mov	eax, [ebp+20h]
  417a91:	f7 d8                     neg	eax
  417a93:	1b c0                     sbb	eax, eax
  417a95:	83 e0 08                  and	eax, 08h
  417a98:	40                        inc	eax
  417a99:	50                        push	eax
  417a9a:	ff 75 18                  push	dword [ebp+18h]
  417a9d:	ff 15 34 f4 44 00         call	dword [0044F434h]	; <MultiByteToWideChar>
  417aa3:	89 45 e0                  mov	[ebp-20h], eax
  417aa6:	3b c3                     cmp	eax, ebx
  417aa8:	74 63                     jz	417b0d
  417aaa:	89 5d fc                  mov	[ebp-04h], ebx
  417aad:	8d 3c 00                  lea	edi, [eax+eax*1]
  417ab0:	8b c7                     mov	eax, edi
  417ab2:	83 c0 03                  add	eax, 03h
  417ab5:	24 fc                     and	al, FCh
  417ab7:	e8 74 92 ff ff            call	410d30
  417abc:	89 65 e8                  mov	[ebp-18h], esp
  417abf:	8b f4                     mov	esi, esp
  417ac1:	89 75 dc                  mov	[ebp-24h], esi
  417ac4:	57                        push	edi
  417ac5:	53                        push	ebx
  417ac6:	56                        push	esi
  417ac7:	e8 b4 74 ff ff            call	40ef80
  417acc:	83 c4 0c                  add	esp, 0Ch
  417acf:	eb 0b                     jmp	417adc
     ...
  417adc:	83 4d fc ff              >or	dword [ebp-04h], FFh
  417ae0:	3b f3                     cmp	esi, ebx
  417ae2:	74 29                     jz	417b0d
  417ae4:	ff 75 e0                  push	dword [ebp-20h]
  417ae7:	56                        push	esi
  417ae8:	ff 75 10                  push	dword [ebp+10h]
  417aeb:	ff 75 0c                  push	dword [ebp+0Ch]
  417aee:	6a 01                     push	dword 00000001h
  417af0:	ff 75 18                  push	dword [ebp+18h]
  417af3:	ff 15 34 f4 44 00         call	dword [0044F434h]	; <MultiByteToWideChar>
  417af9:	3b c3                     cmp	eax, ebx
  417afb:	74 10                     jz	417b0d
  417afd:	ff 75 14                  push	dword [ebp+14h]
  417b00:	50                        push	eax
  417b01:	56                        push	esi
  417b02:	ff 75 08                  push	dword [ebp+08h]
  417b05:	ff 15 98 f2 44 00         call	dword [0044F298h]	; <GetStringTypeW>
  417b0b:	eb 02                     jmp	417b0f
  417b0d:	33 c0                    >xor	eax, eax
  417b0f:	8d 65 cc                 >lea	esp, [ebp-34h]
  417b12:	8b 4d f0                  mov	ecx, [ebp-10h]
  417b15:	64 89 0d 00 00 00 00      mov	[fs:00000000h], ecx
  417b1c:	5f                        pop	edi
  417b1d:	5e                        pop	esi
  417b1e:	5b                        pop	ebx
  417b1f:	c9                        leave
  417b20:	c3                        ret
     ...

4192c7 <no name>:
  4192c7:	6a 04                     push	dword 00000004h
  4192c9:	6a 00                     push	dword 00000000h
  4192cb:	ff 74 24 0c               push	dword [esp+0Ch]
  4192cf:	e8 3c 00 00 00            call	419310
  4192d4:	83 c4 0c                  add	esp, 0Ch
  4192d7:	c3                        ret
     ...

419310 <no name>:
  419310:	0f b6 44 24 04            movzx	eax, byte [esp+04h]
  419315:	8a 4c 24 0c               mov	cl, [esp+0Ch]
  419319:	84 88 41 c9 46 00         test	[eax+0046C941h], cl
  41931f:	75 1c                     jnz	41933d
  419321:	83 7c 24 08 00            cmp	dword [esp+08h], 00h
  419326:	74 0e                     jz	419336
  419328:	0f b7 04 45 9a 4d 46      movzx	eax, word [eax*2+00464D9Ah]
		00 
  419330:	23 44 24 08               and	eax, [esp+08h]
  419334:	eb 02                     jmp	419338
  419336:	33 c0                    >xor	eax, eax
  419338:	85 c0                    >test	eax, eax
  41933a:	75 01                     jnz	41933d
  41933c:	c3                        ret
  41933d:	6a 01                    >push	dword 00000001h
  41933f:	58                        pop	eax
  419340:	c3                        ret

419341 <no name>:
  419341:	53                        push	ebx
  419342:	33 db                     xor	ebx, ebx
  419344:	39 1d 68 b0 46 00         cmp	[0046B068h], ebx
  41934a:	56                        push	esi
  41934b:	57                        push	edi
  41934c:	75 42                     jnz	419390
  41934e:	68 60 49 45 00            push	dword 00454960h
  419353:	ff 15 d4 f3 44 00         call	dword [0044F3D4h]	; <LoadLibraryA>
  419359:	8b f8                     mov	edi, eax
  41935b:	3b fb                     cmp	edi, ebx
  41935d:	74 67                     jz	4193c6
  41935f:	8b 35 f0 f3 44 00         mov	esi, [0044F3F0h]
  419365:	68 54 49 45 00            push	dword 00454954h
  41936a:	57                        push	edi
  41936b:	ff d6                     call	esi
  41936d:	85 c0                     test	eax, eax
  41936f:	a3 68 b0 46 00            mov	[46B068h], eax
  419374:	74 50                     jz	4193c6
  419376:	68 44 49 45 00            push	dword 00454944h
  41937b:	57                        push	edi
  41937c:	ff d6                     call	esi
  41937e:	68 30 49 45 00            push	dword 00454930h
  419383:	57                        push	edi
  419384:	a3 6c b0 46 00            mov	[46B06Ch], eax
  419389:	ff d6                     call	esi
  41938b:	a3 70 b0 46 00            mov	[46B070h], eax
  419390:	a1 6c b0 46 00           >mov	eax, [46B06Ch]
  419395:	85 c0                     test	eax, eax
  419397:	74 16                     jz	4193af
  419399:	ff d0                     call	eax
  41939b:	8b d8                     mov	ebx, eax
  41939d:	85 db                     test	ebx, ebx
  41939f:	74 0e                     jz	4193af
  4193a1:	a1 70 b0 46 00            mov	eax, [46B070h]
  4193a6:	85 c0                     test	eax, eax
  4193a8:	74 05                     jz	4193af
  4193aa:	53                        push	ebx
  4193ab:	ff d0                     call	eax
  4193ad:	8b d8                     mov	ebx, eax
  4193af:	ff 74 24 18              >push	dword [esp+18h]
