File: Mindstation/LeapFrog/MS2002.exe
Module type: PE (Portable Executable)

Flags: 0x010f (relocations stripped, executable, line numbers stripped, local symbols stripped, 32-bit)
Image type: 32-bit
File version: 0.0
Linker version: 6.0
Program entry point: 0x410543
Base of code section: 0x1000
Base of data section: 0x4f000
Preferred base address: 0x400000
Required OS version: 4.0
Subsystem: GUI
Subsystem version: 4.0
DLL flags: 0x0000 ()
Stack size (reserve): 1048576 bytes
Stack size (commit): 4096 bytes
Heap size (reserve): 1048576 bytes
Heap size (commit): 4096 bytes

No export table

Imported modules:
	WINMM.dll
	Engine.dll
	Utils.dll
	KERNEL32.dll
	USER32.dll
	GDI32.dll
	comdlg32.dll
	WINSPOOL.DRV
	ADVAPI32.dll
	SHELL32.dll
	COMCTL32.dll
	ole32.dll
	VERSION.dll

Imported functions:
	WINMM.dll:
		PlaySoundA
	Engine.dll:
		?NoActionStartup@CEngine@@QAEXXZ
		?AddChipSelect@MSCommandLine@@QAEXH@Z
		?getDevHelpFile@CEngine@@QAEHPAVFileLocation@@@Z
		?WebUpdate@CEngine@@QAEXXZ
		?get@MSCommandLine@@SAPAV1@XZ
		?ReclaimParams@CEngine@@SAXPAX@Z
		?LBKConvert@CEngine@@QAEXABVFileLocation@@@Z
		?RunACPDisk@CEngine@@QAEXABVFileLocation@@0@Z
		?RunACP@CEngine@@QAEXABVFileLocation@@@Z
		?RunDiag@CEngine@@QAEXXZ
		?GoToURL@CEngine@@QAEXPBD@Z
		?LBKVerify@CEngine@@QAEXABVFileLocation@@@Z
		?LBKRestore@CEngine@@QAEXABVFileLocation@@@Z
		?LBKSave@CEngine@@QAEXABVFileLocation@@@Z
		?QuitAppReq@CEngine@@QAEXXZ
		??1CEngine@@QAE@XZ
		??0CEngine@@QAE@PAVCLogger@@PAVMSCommandLine@@P6AHHPAX@Z@Z
	Utils.dll:
		??1FileLocation@@QAE@XZ
		??1CLogger@@QAE@XZ
		?HasInternetConnection@InetChecker@@SA_NPBD@Z
		?getDirectoryValue@configEngine@@QAEHPBDPAVFileLocation@@@Z
		??0FileLocation@@QAE@XZ
		?SerializedReference@FileManager@@SA?AV?$basic_string@DU?$char_traits@D@std@@V?$allocator@D@2@@std@@ABVFileLocation@@@Z
		??0CLogger@@QAE@PBDP6AXPAD@Z22@Z
		?SetDebugLevel@CLogger@@QAEHH@Z
		?Shutdown@CLogger@@QAEXXZ
		?Message@CLogger@@QAAXPBDZZ
		?makeLocation@FileManager@@SA?AVFileLocation@@PBD@Z
		?getValue@configEngine@@QAEHPBDAAV?$basic_string@DU?$char_traits@D@std@@V?$allocator@D@2@@std@@@Z
		?main@config@@SAAAVconfigEngine@@XZ
	KERNEL32.dll:
		FileTimeToSystemTime
		FileTimeToLocalFileTime
		RtlUnwind
		RaiseException
		SetErrorMode
		HeapFree
		GetStartupInfoA
		GetCommandLineA
		ExitProcess
		HeapAlloc
		TerminateProcess
		CreateThread
		SystemTimeToFileTime
		SetFileAttributesA
		HeapSize
		GetACP
		GetTimeZoneInformation
		GetSystemTime
		GetLocalTime
		FatalAppExitA
		LCMapStringA
		LCMapStringW
		SetUnhandledExceptionFilter
		GetEnvironmentVariableA
		GetFileSize
		LocalFileTimeToFileTime
		HeapReAlloc
		ExitThread
		GetCurrentDirectoryA
		UnhandledExceptionFilter
		FreeEnvironmentStringsA
		FreeEnvironmentStringsW
		GetEnvironmentStrings
		GetEnvironmentStringsW
		SetHandleCount
		GetStdHandle
		GetFileType
		GetStringTypeA
		GetStringTypeW
		IsBadReadPtr
		IsBadCodePtr
		IsValidLocale
		IsValidCodePage
		GetLocaleInfoA
		EnumSystemLocalesA
		GetUserDefaultLCID
		SetConsoleCtrlHandler
		SetStdHandle
		CompareStringA
		CompareStringW
		SetEnvironmentVariableA
		GetLocaleInfoW
		GetOEMCP
		GetCPInfo
		GetProcessVersion
		TlsGetValue
		LocalReAlloc
		TlsSetValue
		EnterCriticalSection
		GlobalReAlloc
		LeaveCriticalSection
		TlsFree
		GlobalHandle
		DeleteCriticalSection
		TlsAlloc
		InitializeCriticalSection
		LocalAlloc
		SizeofResource
		GlobalFlags
		GetShortPathNameA
		GetThreadLocale
		GetStringTypeExA
		GetVolumeInformationA
		FindFirstFileA
		FindClose
		DeleteFileA
		MoveFileA
		SetEndOfFile
		UnlockFile
		LockFile
		FlushFileBuffers
		SetFilePointer
		WriteFile
		ReadFile
		CreateFileA
		GetCurrentProcess
		DuplicateHandle
		GetDiskFreeSpaceA
		HeapDestroy
		FormatMessageA
		GetModuleFileNameA
		GetLastError
		LocalFree
		GetFullPathNameA
		GetFileTime
		SetFileTime
		WritePrivateProfileStringA
		GetTempFileNameA
		GetFileAttributesA
		CreateEventA
		GetPrivateProfileStringA
		GetPrivateProfileIntA
		ResumeThread
		SuspendThread
		SetThreadPriority
		lstrcmpA
		SetEvent
		GlobalAlloc
		HeapCreate
		VirtualFree
		MulDiv
		InterlockedExchange
		GetTickCount
		GetCurrentThread
		lstrcpynA
		FreeLibrary
		SetLastError
		LoadLibraryA
		GlobalGetAtomNameA
		GetVersion
		GetCurrentThreadId
		GlobalFindAtomA
		lstrcmpiA
		GlobalAddAtomA
		GetProcAddress
		GlobalDeleteAtom
		GetModuleHandleA
		GlobalFree
		GlobalLock
		GlobalUnlock
		LoadResource
		LockResource
		FindResourceA
		InterlockedIncrement
		WaitForSingleObject
		InterlockedDecrement
		VirtualAlloc
		IsBadWritePtr
		GetProfileStringA
		lstrcatA
		lstrcpyA
		MultiByteToWideChar
		Sleep
		WideCharToMultiByte
		CloseHandle
		CreateProcessA
		lstrlenA
		GetVersionExA
	USER32.dll:
		ClientToScreen
		GetDC
		GetMenuCheckMarkDimensions
		ReleaseDC
		GetWindowDC
		BeginPaint
		EndPaint
		TabbedTextOutA
		DrawTextA
		GrayStringA
		CheckDlgButton
		CheckRadioButton
		GetDlgItemInt
		GetDlgItemTextA
		ModifyMenuA
		GetMenuState
		IsDlgButtonChecked
		SetDlgItemTextA
		IsDialogMessageA
		SetWindowTextA
		MoveWindow
		ShowWindow
		CharToOemA
		OemToCharA
		wvsprintfA
		InflateRect
		SetRectEmpty
		LoadAcceleratorsA
		TranslateAcceleratorA
		ReleaseCapture
		SetCursor
		SetDlgItemInt
		ScrollWindowEx
		LoadMenuA
		SetMenu
		ReuseDDElParam
		UnpackDDElParam
		BringWindowToTop
		GetDesktopWindow
		GetCursorPos
		ValidateRect
		GetMessageA
		CharUpperA
		FillRect
		IsRectEmpty
		GetClassNameA
		GetDialogBaseUnits
		GetSysColorBrush
		LoadStringA
		DestroyIcon
		InsertMenuA
		GetMenuStringA
		EndDeferWindowPos
		IsWindowVisible
		ScrollWindow
		GetScrollInfo
		SetScrollInfo
		ShowScrollBar
		GetScrollRange
		SetScrollRange
		GetScrollPos
		SetScrollPos
		GetTopWindow
		MessageBoxA
		IsChild
		DestroyMenu
		ShowOwnedPopups
		GetClassInfoA
		RegisterClassA
		GetSubMenu
		SendDlgItemMessageA
		TrackPopupMenu
		SetWindowPlacement
		GetWindowTextLengthA
		GetWindowTextA
		GetDlgCtrlID
		GetKeyState
		CreateWindowExA
		EnableMenuItem
		SetPropA
		UnhookWindowsHookEx
		GetPropA
		CallWindowProcA
		RemovePropA
		GetMessageTime
		GetMessagePos
		GetForegroundWindow
		GetWindow
		SetWindowLongA
		SetWindowPos
		RegisterWindowMessageA
		IntersectRect
		SystemParametersInfoA
		GetWindowPlacement
		GetNextDlgTabItem
		EndDialog
		GetActiveWindow
		GetSystemMetrics
		CreateDialogIndirectParamA
		GetParent
		GetWindowLongA
		GetDlgItem
		IsWindowEnabled
		PeekMessageA
		MsgWaitForMultipleObjects
		TranslateMessage
		DispatchMessageA
		wsprintfA
		LoadBitmapA
		RedrawWindow
		GetMenu
		GetMenuItemCount
		DeleteMenu
		DrawMenuBar
		DestroyWindow
		PostMessageA
		UnregisterClassA
		FindWindowA
		GetLastActivePopup
		IsIconic
		SetForegroundWindow
		DefWindowProcA
		LoadIconA
		LoadCursorA
		UpdateWindow
		PostQuitMessage
		KillTimer
		SetTimer
		PtInRect
		EnableWindow
		GetClientRect
		InvalidateRect
		SendMessageA
		GetWindowRect
		OffsetRect
		SetMenuItemBitmaps
		CheckMenuItem
		BeginDeferWindowPos
		DeferWindowPos
		GetMenuItemID
		MapWindowPoints
		GetSysColor
		GetFocus
		SetFocus
		AdjustWindowRectEx
		ScreenToClient
		EqualRect
		GetCapture
		CopyRect
		WinHelpA
		CallNextHookEx
		SetWindowsHookExA
		SetActiveWindow
		IsWindow
		GetClassLongA
		HideCaret
		ShowCaret
		ExcludeUpdateRgn
		DrawFocusRect
		DefDlgProcA
		CharNextA
		IsWindowUnicode
	GDI32.dll:
		GetTextExtentPointA
		CreateDIBitmap
		RoundRect
		CreatePen
		CreateFontA
		SelectObject
		BitBlt
		Rectangle
		GetTextExtentPoint32A
		StretchBlt
		CreateCompatibleDC
		GetClipBox
		SetTextColor
		GetDCOrgEx
		GetObjectA
		CreateBitmap
		SetBkColor
		StartDocA
		SaveDC
		DeleteDC
		GetStockObject
		SelectPalette
		RestoreDC
		SetPolyFillMode
		SetROP2
		SetBkMode
		OffsetViewportOrgEx
		SetViewportExtEx
		SetViewportOrgEx
		SetWindowOrgEx
		OffsetWindowOrgEx
		ScaleViewportExtEx
		ScaleWindowExtEx
		SelectClipRgn
		SetWindowExtEx
		IntersectClipRect
		OffsetClipRgn
		ExcludeClipRect
		LineTo
		SetTextAlign
		MoveToEx
		SetTextCharacterExtra
		SetMapperFlags
		SetTextJustification
		ArcTo
		SetArcDirection
		PolyDraw
		PolylineTo
		SetColorAdjustment
		PolyBezierTo
		DeleteObject
		GetClipRgn
		CreateRectRgn
		SelectClipPath
		ExtSelectClipRgn
		PlayMetaFileRecord
		GetObjectType
		EnumMetaFile
		PlayMetaFile
		GetDeviceCaps
		GetViewportExtEx
		GetWindowExtEx
		ExtCreatePen
		CreateSolidBrush
		CreateHatchBrush
		CreatePatternBrush
		CreateDIBPatternBrushPt
		PtVisible
		RectVisible
		TextOutA
		ExtTextOutA
		Escape
		GetMapMode
		PatBlt
		SetRectRgn
		CombineRgn
		CreateRectRgnIndirect
		CreateFontIndirectA
		DPtoLP
		LPtoDP
		GetTextMetricsA
		SetStretchBltMode
		SetMapMode
		GetCurrentPositionEx
	comdlg32.dll:
		GetSaveFileNameA
		GetFileTitleA
		GetOpenFileNameA
	WINSPOOL.DRV:
		OpenPrinterA
		DocumentPropertiesA
		ClosePrinter
	ADVAPI32.dll:
		GetFileSecurityA
		SetFileSecurityA
		RegOpenKeyExA
		RegSetValueA
		RegCreateKeyA
		RegCloseKey
		RegQueryValueExA
		RegSetValueExA
		RegQueryValueA
		RegEnumKeyA
		RegOpenKeyA
		RegDeleteKeyA
		RegDeleteValueA
		RegCreateKeyExA
	SHELL32.dll:
		DragAcceptFiles
		DragFinish
		ShellExecuteA
		DragQueryFileA
		SHGetFileInfoA
		ExtractIconA
	COMCTL32.dll:
		<ordinal 14>
		ImageList_Write
		<ordinal 13>
		ImageList_Read
		<ordinal 17>
		ImageList_Merge
		ImageList_Create
		ImageList_LoadImageA
		ImageList_Destroy
	ole32.dll:
		CoInitialize
		CoUninitialize
		CoCreateInstance
	VERSION.dll:
		GetFileVersionInfoSizeA
		GetFileVersionInfoA
		VerQueryValueA

Section .text (start = 0x1000, length = 0x4e000, minimum allocation = 0x4db06):
    Address: 1000
    Flags: 0x60000020 (code, executable, readable)
    Alignment: 1 (2**0)
     ...

40ee98 <no name>:
  40ee98:	6a ff                     push	dword FFFFFFFFh
  40ee9a:	50                        push	eax
  40ee9b:	64 a1 00 00 00 00         mov	eax, [fs:0000h]
  40eea1:	50                        push	eax
  40eea2:	8b 44 24 0c               mov	eax, [esp+0Ch]
  40eea6:	64 89 25 00 00 00 00      mov	[fs:00000000h], esp
  40eead:	89 6c 24 0c               mov	[esp+0Ch], ebp
  40eeb1:	8d 6c 24 0c               lea	ebp, [esp+0Ch]
  40eeb5:	50                        push	eax
  40eeb6:	c3                        ret
     ...

40ef80 <no name>:
  40ef80:	8b 54 24 0c               mov	edx, [esp+0Ch]
  40ef84:	8b 4c 24 04               mov	ecx, [esp+04h]
  40ef88:	85 d2                     test	edx, edx
  40ef8a:	74 47                     jz	40efd3
  40ef8c:	33 c0                     xor	eax, eax
  40ef8e:	8a 44 24 08               mov	al, [esp+08h]
  40ef92:	57                        push	edi
  40ef93:	8b f9                     mov	edi, ecx
  40ef95:	83 fa 04                  cmp	edx, 04h
  40ef98:	72 2d                     jb	40efc7
  40ef9a:	f7 d9                     neg	ecx
  40ef9c:	83 e1 03                  and	ecx, 03h
  40ef9f:	74 08                     jz	40efa9
  40efa1:	2b d1                     sub	edx, ecx
  40efa3:	88 07                    >mov	[edi], al
  40efa5:	47                        inc	edi
  40efa6:	49                        dec	ecx
  40efa7:	75 fa                     jnz	40efa3
  40efa9:	8b c8                    >mov	ecx, eax
  40efab:	c1 e0 08                  shl	eax, 08h
  40efae:	03 c1                     add	eax, ecx
  40efb0:	8b c8                     mov	ecx, eax
  40efb2:	c1 e0 10                  shl	eax, 10h
  40efb5:	03 c1                     add	eax, ecx
  40efb7:	8b ca                     mov	ecx, edx
  40efb9:	83 e2 03                  and	edx, 03h
  40efbc:	c1 e9 02                  shr	ecx, 02h
  40efbf:	74 06                     jz	40efc7
  40efc1:	f3 ab                     rep stosd
  40efc3:	85 d2                     test	edx, edx
  40efc5:	74 06                     jz	40efcd
  40efc7:	88 07                    >mov	[edi], al
  40efc9:	47                        inc	edi
  40efca:	4a                        dec	edx
  40efcb:	75 fa                     jnz	40efc7
  40efcd:	8b 44 24 08              >mov	eax, [esp+08h]
  40efd1:	5f                        pop	edi
  40efd2:	c3                        ret
  40efd3:	8b 44 24 04              >mov	eax, [esp+04h]
  40efd7:	c3                        ret
     ...

40efe0 <no name>:
  40efe0:	8b 4c 24 04               mov	ecx, [esp+04h]
  40efe4:	f7 c1 03 00 00 00         test	ecx, 00000003h
  40efea:	74 14                     jz	40f000
  40efec:	8a 01                    >mov	al, [ecx]
  40efee:	41                        inc	ecx
  40efef:	84 c0                     test	al, al
  40eff1:	74 40                     jz	40f033
  40eff3:	f7 c1 03 00 00 00         test	ecx, 00000003h
  40eff9:	75 f1                     jnz	40efec
  40effb:	05 00 00 00 00            add	eax, 00000000h
  40f000:	8b 01                    >mov	eax, [ecx]
  40f002:	ba ff fe fe 7e            mov	edx, 7EFEFEFFh
  40f007:	03 d0                     add	edx, eax
  40f009:	83 f0 ff                  xor	eax, FFh
  40f00c:	33 c2                     xor	eax, edx
  40f00e:	83 c1 04                  add	ecx, 04h
  40f011:	a9 00 01 01 81            test	eax, 81010100h
  40f016:	74 e8                     jz	40f000
  40f018:	8b 41 fc                  mov	eax, [ecx-04h]
  40f01b:	84 c0                     test	al, al
  40f01d:	74 32                     jz	40f051
  40f01f:	84 e4                     test	ah, ah
  40f021:	74 24                     jz	40f047
  40f023:	a9 00 00 ff 00            test	eax, 00FF0000h
  40f028:	74 13                     jz	40f03d
  40f02a:	a9 00 00 00 ff            test	eax, FF000000h
  40f02f:	74 02                     jz	40f033
  40f031:	eb cd                     jmp	40f000
  40f033:	8d 41 ff                 >lea	eax, [ecx-01h]
  40f036:	8b 4c 24 04               mov	ecx, [esp+04h]
  40f03a:	2b c1                     sub	eax, ecx
  40f03c:	c3                        ret
  40f03d:	8d 41 fe                 >lea	eax, [ecx-02h]
  40f040:	8b 4c 24 04               mov	ecx, [esp+04h]
  40f044:	2b c1                     sub	eax, ecx
  40f046:	c3                        ret
  40f047:	8d 41 fd                 >lea	eax, [ecx-03h]
  40f04a:	8b 4c 24 04               mov	ecx, [esp+04h]
  40f04e:	2b c1                     sub	eax, ecx
  40f050:	c3                        ret
  40f051:	8d 41 fc                 >lea	eax, [ecx-04h]
  40f054:	8b 4c 24 04               mov	ecx, [esp+04h]
  40f058:	2b c1                     sub	eax, ecx
  40f05a:	c3                        ret
     ...

40f060 <no name>:
  40f060:	55                        push	ebp
  40f061:	8b ec                     mov	ebp, esp
  40f063:	57                        push	edi
  40f064:	56                        push	esi
  40f065:	8b 75 0c                  mov	esi, [ebp+0Ch]
  40f068:	8b 4d 10                  mov	ecx, [ebp+10h]
  40f06b:	8b 7d 08                  mov	edi, [ebp+08h]
  40f06e:	8b c1                     mov	eax, ecx
  40f070:	8b d1                     mov	edx, ecx
  40f072:	03 c6                     add	eax, esi
  40f074:	3b fe                     cmp	edi, esi
  40f076:	76 08                     jbe	40f080
  40f078:	3b f8                     cmp	edi, eax
  40f07a:	0f 82 78 01 00 00         jb	40f1f8
  40f080:	f7 c7 03 00 00 00        >test	edi, 00000003h
  40f086:	75 14                     jnz	40f09c
  40f088:	c1 e9 02                  shr	ecx, 02h
  40f08b:	83 e2 03                  and	edx, 03h
  40f08e:	83 f9 08                  cmp	ecx, 08h
  40f091:	72 29                     jb	40f0bc
  40f093:	f3 a5                     rep movsd
  40f095:	ff 24 95 a8 f1 40 00      jmp	dword [edx*4+0040F1A8h]
  40f09c:	8b c7                    >mov	eax, edi
  40f09e:	ba 03 00 00 00            mov	edx, 00000003h
  40f0a3:	83 e9 04                  sub	ecx, 04h
  40f0a6:	72 0c                     jb	40f0b4
  40f0a8:	83 e0 03                  and	eax, 03h
  40f0ab:	03 c8                     add	ecx, eax
  40f0ad:	ff 24 85 c0 f0 40 00      jmp	dword [eax*4+0040F0C0h]
  40f0b4:	ff 24 8d b8 f1 40 00     >jmp	dword [ecx*4+0040F1B8h]
     ...
  40f0bc:	ff 24 8d 3c f1 40 00     >jmp	dword [ecx*4+0040F13Ch]
     ...
  40f1f8:	8d 74 31 fc              >lea	esi, [ecx+esi*1-04h]
  40f1fc:	8d 7c 39 fc               lea	edi, [ecx+edi*1-04h]
  40f200:	f7 c7 03 00 00 00         test	edi, 00000003h
  40f206:	75 24                     jnz	40f22c
  40f208:	c1 e9 02                  shr	ecx, 02h
  40f20b:	83 e2 03                  and	edx, 03h
  40f20e:	83 f9 08                  cmp	ecx, 08h
  40f211:	72 0d                     jb	40f220
  40f213:	fd                        std
  40f214:	f3 a5                     rep movsd
  40f216:	fc                        cld
  40f217:	ff 24 95 40 f3 40 00      jmp	dword [edx*4+0040F340h]
     ...
  40f220:	f7 d9                    >neg	ecx
  40f222:	ff 24 8d f0 f2 40 00      jmp	dword [ecx*4+0040F2F0h]
     ...
  40f22c:	8b c7                    >mov	eax, edi
  40f22e:	ba 03 00 00 00            mov	edx, 00000003h
  40f233:	83 f9 04                  cmp	ecx, 04h
  40f236:	72 0c                     jb	40f244
  40f238:	83 e0 03                  and	eax, 03h
  40f23b:	2b c8                     sub	ecx, eax
  40f23d:	ff 24 85 48 f2 40 00      jmp	dword [eax*4+0040F248h]
  40f244:	ff 24 8d 40 f3 40 00     >jmp	dword [ecx*4+0040F340h]
     ...

40f3a0 <no name>:
  40f3a0:	55                        push	ebp
  40f3a1:	8b ec                     mov	ebp, esp
  40f3a3:	57                        push	edi
  40f3a4:	56                        push	esi
  40f3a5:	8b 75 0c                  mov	esi, [ebp+0Ch]
  40f3a8:	8b 4d 10                  mov	ecx, [ebp+10h]
  40f3ab:	8b 7d 08                  mov	edi, [ebp+08h]
  40f3ae:	8b c1                     mov	eax, ecx
  40f3b0:	8b d1                     mov	edx, ecx
  40f3b2:	03 c6                     add	eax, esi
  40f3b4:	3b fe                     cmp	edi, esi
  40f3b6:	76 08                     jbe	40f3c0
  40f3b8:	3b f8                     cmp	edi, eax
  40f3ba:	0f 82 78 01 00 00         jb	40f538
  40f3c0:	f7 c7 03 00 00 00        >test	edi, 00000003h
  40f3c6:	75 14                     jnz	40f3dc
  40f3c8:	c1 e9 02                  shr	ecx, 02h
  40f3cb:	83 e2 03                  and	edx, 03h
  40f3ce:	83 f9 08                  cmp	ecx, 08h
  40f3d1:	72 29                     jb	40f3fc
  40f3d3:	f3 a5                     rep movsd
  40f3d5:	ff 24 95 e8 f4 40 00      jmp	dword [edx*4+0040F4E8h]
  40f3dc:	8b c7                    >mov	eax, edi
  40f3de:	ba 03 00 00 00            mov	edx, 00000003h
  40f3e3:	83 e9 04                  sub	ecx, 04h
  40f3e6:	72 0c                     jb	40f3f4
  40f3e8:	83 e0 03                  and	eax, 03h
  40f3eb:	03 c8                     add	ecx, eax
  40f3ed:	ff 24 85 00 f4 40 00      jmp	dword [eax*4+0040F400h]
  40f3f4:	ff 24 8d f8 f4 40 00     >jmp	dword [ecx*4+0040F4F8h]
     ...
  40f3fc:	ff 24 8d 7c f4 40 00     >jmp	dword [ecx*4+0040F47Ch]
     ...
  40f538:	8d 74 31 fc              >lea	esi, [ecx+esi*1-04h]
  40f53c:	8d 7c 39 fc               lea	edi, [ecx+edi*1-04h]
  40f540:	f7 c7 03 00 00 00         test	edi, 00000003h
  40f546:	75 24                     jnz	40f56c
  40f548:	c1 e9 02                  shr	ecx, 02h
  40f54b:	83 e2 03                  and	edx, 03h
  40f54e:	83 f9 08                  cmp	ecx, 08h
  40f551:	72 0d                     jb	40f560
  40f553:	fd                        std
  40f554:	f3 a5                     rep movsd
  40f556:	fc                        cld
  40f557:	ff 24 95 80 f6 40 00      jmp	dword [edx*4+0040F680h]
     ...
  40f560:	f7 d9                    >neg	ecx
  40f562:	ff 24 8d 30 f6 40 00      jmp	dword [ecx*4+0040F630h]
     ...
  40f56c:	8b c7                    >mov	eax, edi
  40f56e:	ba 03 00 00 00            mov	edx, 00000003h
  40f573:	83 f9 04                  cmp	ecx, 04h
  40f576:	72 0c                     jb	40f584
  40f578:	83 e0 03                  and	eax, 03h
  40f57b:	2b c8                     sub	ecx, eax
  40f57d:	ff 24 85 88 f5 40 00      jmp	dword [eax*4+0040F588h]
  40f584:	ff 24 8d 80 f6 40 00     >jmp	dword [ecx*4+0040F680h]
     ...

40f6e0 <no name>:
  40f6e0:	57                        push	edi
  40f6e1:	8b 7c 24 08               mov	edi, [esp+08h]
  40f6e5:	eb 6a                     jmp	40f751
     ...

40f6f0 <no name>:
  40f6f0:	8b 4c 24 04               mov	ecx, [esp+04h]
  40f6f4:	57                        push	edi
  40f6f5:	f7 c1 03 00 00 00         test	ecx, 00000003h
  40f6fb:	74 0f                     jz	40f70c
  40f6fd:	8a 01                    >mov	al, [ecx]
  40f6ff:	41                        inc	ecx
  40f700:	84 c0                     test	al, al
  40f702:	74 3b                     jz	40f73f
  40f704:	f7 c1 03 00 00 00         test	ecx, 00000003h
  40f70a:	75 f1                     jnz	40f6fd
  40f70c:	8b 01                    >mov	eax, [ecx]
  40f70e:	ba ff fe fe 7e            mov	edx, 7EFEFEFFh
  40f713:	03 d0                     add	edx, eax
  40f715:	83 f0 ff                  xor	eax, FFh
  40f718:	33 c2                     xor	eax, edx
  40f71a:	83 c1 04                  add	ecx, 04h
  40f71d:	a9 00 01 01 81            test	eax, 81010100h
  40f722:	74 e8                     jz	40f70c
  40f724:	8b 41 fc                  mov	eax, [ecx-04h]
  40f727:	84 c0                     test	al, al
  40f729:	74 23                     jz	40f74e
  40f72b:	84 e4                     test	ah, ah
  40f72d:	74 1a                     jz	40f749
  40f72f:	a9 00 00 ff 00            test	eax, 00FF0000h
  40f734:	74 0e                     jz	40f744
  40f736:	a9 00 00 00 ff            test	eax, FF000000h
  40f73b:	74 02                     jz	40f73f
  40f73d:	eb cd                     jmp	40f70c
  40f73f:	8d 79 ff                 >lea	edi, [ecx-01h]
  40f742:	eb 0d                     jmp	40f751
  40f744:	8d 79 fe                 >lea	edi, [ecx-02h]
  40f747:	eb 08                     jmp	40f751
  40f749:	8d 79 fd                 >lea	edi, [ecx-03h]
  40f74c:	eb 03                     jmp	40f751
  40f74e:	8d 79 fc                 >lea	edi, [ecx-04h]
  40f751:	8b 4c 24 0c              >mov	ecx, [esp+0Ch]
  40f755:	f7 c1 03 00 00 00         test	ecx, 00000003h
  40f75b:	74 19                     jz	40f776
  40f75d:	8a 11                    >mov	dl, [ecx]
  40f75f:	41                        inc	ecx
  40f760:	84 d2                     test	dl, dl
  40f762:	74 64                     jz	40f7c8
  40f764:	88 17                     mov	[edi], dl
  40f766:	47                        inc	edi
  40f767:	f7 c1 03 00 00 00         test	ecx, 00000003h
  40f76d:	75 ee                     jnz	40f75d
  40f76f:	eb 05                     jmp	40f776
  40f771:	89 17                    >mov	[edi], edx
  40f773:	83 c7 04                  add	edi, 04h
  40f776:	ba ff fe fe 7e           >mov	edx, 7EFEFEFFh
  40f77b:	8b 01                     mov	eax, [ecx]
  40f77d:	03 d0                     add	edx, eax
  40f77f:	83 f0 ff                  xor	eax, FFh
  40f782:	33 c2                     xor	eax, edx
  40f784:	8b 11                     mov	edx, [ecx]
  40f786:	83 c1 04                  add	ecx, 04h
  40f789:	a9 00 01 01 81            test	eax, 81010100h
  40f78e:	74 e1                     jz	40f771
  40f790:	84 d2                     test	dl, dl
  40f792:	74 34                     jz	40f7c8
  40f794:	84 f6                     test	dh, dh
  40f796:	74 27                     jz	40f7bf
  40f798:	f7 c2 00 00 ff 00         test	edx, 00FF0000h
  40f79e:	74 12                     jz	40f7b2
  40f7a0:	f7 c2 00 00 00 ff         test	edx, FF000000h
  40f7a6:	74 02                     jz	40f7aa
  40f7a8:	eb c7                     jmp	40f771
  40f7aa:	89 17                    >mov	[edi], edx
  40f7ac:	8b 44 24 08               mov	eax, [esp+08h]
  40f7b0:	5f                        pop	edi
  40f7b1:	c3                        ret
  40f7b2:	66 89 17                 >mov	[edi], dx
  40f7b5:	8b 44 24 08               mov	eax, [esp+08h]
  40f7b9:	c6 47 02 00               mov	byte [edi+02h], 00h
  40f7bd:	5f                        pop	edi
  40f7be:	c3                        ret
  40f7bf:	66 89 17                 >mov	[edi], dx
  40f7c2:	8b 44 24 08               mov	eax, [esp+08h]
  40f7c6:	5f                        pop	edi
  40f7c7:	c3                        ret
  40f7c8:	88 17                    >mov	[edi], dl
  40f7ca:	8b 44 24 08               mov	eax, [esp+08h]
  40f7ce:	5f                        pop	edi
  40f7cf:	c3                        ret
     ...

40fbc0 <no name>:
  40fbc0:	8b 4c 24 08               mov	ecx, [esp+08h]
  40fbc4:	57                        push	edi
  40fbc5:	53                        push	ebx
  40fbc6:	56                        push	esi
  40fbc7:	8a 11                     mov	dl, [ecx]
  40fbc9:	8b 7c 24 10               mov	edi, [esp+10h]
  40fbcd:	84 d2                     test	dl, dl
  40fbcf:	74 69                     jz	40fc3a
  40fbd1:	8a 71 01                  mov	dh, [ecx+01h]
  40fbd4:	84 f6                     test	dh, dh
  40fbd6:	74 4f                     jz	40fc27
  40fbd8:	8b f7                    >mov	esi, edi
  40fbda:	8b 4c 24 14               mov	ecx, [esp+14h]
  40fbde:	8a 07                     mov	al, [edi]
  40fbe0:	46                        inc	esi
  40fbe1:	38 d0                     cmp	al, dl
  40fbe3:	74 15                     jz	40fbfa
  40fbe5:	84 c0                     test	al, al
  40fbe7:	74 0b                     jz	40fbf4
  40fbe9:	8a 06                    >mov	al, [esi]
  40fbeb:	46                        inc	esi
  40fbec:	38 d0                    >cmp	al, dl
  40fbee:	74 0a                     jz	40fbfa
  40fbf0:	84 c0                     test	al, al
  40fbf2:	75 f5                     jnz	40fbe9
  40fbf4:	5e                       >pop	esi
  40fbf5:	5b                        pop	ebx
  40fbf6:	5f                        pop	edi
  40fbf7:	33 c0                     xor	eax, eax
  40fbf9:	c3                        ret
  40fbfa:	8a 06                    >mov	al, [esi]
  40fbfc:	46                        inc	esi
  40fbfd:	38 f0                     cmp	al, dh
  40fbff:	75 eb                     jnz	40fbec
  40fc01:	8d 7e ff                  lea	edi, [esi-01h]
  40fc04:	8a 61 02                 >mov	ah, [ecx+02h]
  40fc07:	84 e4                     test	ah, ah
  40fc09:	74 28                     jz	40fc33
  40fc0b:	8a 06                     mov	al, [esi]
  40fc0d:	83 c6 02                  add	esi, 02h
  40fc10:	38 e0                     cmp	al, ah
  40fc12:	75 c4                     jnz	40fbd8
  40fc14:	8a 41 03                  mov	al, [ecx+03h]
  40fc17:	84 c0                     test	al, al
  40fc19:	74 18                     jz	40fc33
  40fc1b:	8a 66 ff                  mov	ah, [esi-01h]
  40fc1e:	83 c1 02                  add	ecx, 02h
  40fc21:	38 e0                     cmp	al, ah
  40fc23:	74 df                     jz	40fc04
  40fc25:	eb b1                     jmp	40fbd8
  40fc27:	33 c0                    >xor	eax, eax
  40fc29:	5e                        pop	esi
  40fc2a:	5b                        pop	ebx
  40fc2b:	5f                        pop	edi
  40fc2c:	8a c2                     mov	al, dl
  40fc2e:	e9 c3 44 00 00            jmp	4140f6
  40fc33:	8d 47 ff                 >lea	eax, [edi-01h]
  40fc36:	5e                        pop	esi
  40fc37:	5b                        pop	ebx
  40fc38:	5f                        pop	edi
  40fc39:	c3                        ret
  40fc3a:	8b c7                    >mov	eax, edi
  40fc3c:	5e                        pop	esi
  40fc3d:	5b                        pop	ebx
  40fc3e:	5f                        pop	edi
  40fc3f:	c3                        ret

40fc40 <no name>:
  40fc40:	55                        push	ebp
  40fc41:	8b ec                     mov	ebp, esp
  40fc43:	57                        push	edi
  40fc44:	8b 7d 08                  mov	edi, [ebp+08h]
  40fc47:	33 c0                     xor	eax, eax
  40fc49:	83 c9 ff                  or	ecx, FFh
  40fc4c:	f2 ae                     repne scasb
  40fc4e:	41                        inc	ecx
  40fc4f:	f7 d9                     neg	ecx
  40fc51:	4f                        dec	edi
  40fc52:	8a 45 0c                  mov	al, [ebp+0Ch]
  40fc55:	fd                        std
  40fc56:	f2 ae                     repne scasb
  40fc58:	47                        inc	edi
  40fc59:	38 07                     cmp	[edi], al
  40fc5b:	74 04                     jz	40fc61
  40fc5d:	33 c0                     xor	eax, eax
  40fc5f:	eb 02                     jmp	40fc63
  40fc61:	8b c7                    >mov	eax, edi
  40fc63:	fc                       >cld
  40fc64:	5f                        pop	edi
  40fc65:	c9                        leave
  40fc66:	c3                        ret
     ...

40ff6a <no name>:
  40ff6a:	55                        push	ebp
  40ff6b:	8b ec                     mov	ebp, esp
  40ff6d:	83 ec 20                  sub	esp, 20h
  40ff70:	8b 45 08                  mov	eax, [ebp+08h]
  40ff73:	56                        push	esi
  40ff74:	57                        push	edi
  40ff75:	6a 08                     push	dword 00000008h
  40ff77:	59                        pop	ecx
  40ff78:	be e8 41 45 00            mov	esi, 004541E8h
  40ff7d:	8d 7d e0                  lea	edi, [ebp-20h]
  40ff80:	f3 a5                     rep movsd
  40ff82:	89 45 f8                  mov	[ebp-08h], eax
  40ff85:	8b 45 0c                  mov	eax, [ebp+0Ch]
  40ff88:	89 45 fc                  mov	[ebp-04h], eax
  40ff8b:	8d 45 f4                  lea	eax, [ebp-0Ch]
  40ff8e:	50                        push	eax
  40ff8f:	ff 75 f0                  push	dword [ebp-10h]
  40ff92:	ff 75 e4                  push	dword [ebp-1Ch]
  40ff95:	ff 75 e0                  push	dword [ebp-20h]
  40ff98:	ff 15 0c f2 44 00         call	dword [0044F20Ch]	; <RaiseException>
  40ff9e:	5f                        pop	edi
  40ff9f:	5e                        pop	esi
  40ffa0:	c9                        leave
  40ffa1:	c2 08 00                  ret	0008h

40ffa4 <no name>:
  40ffa4:	6a 00                     push	dword 00000000h
  40ffa6:	ff 74 24 10               push	dword [esp+10h]
  40ffaa:	ff 74 24 10               push	dword [esp+10h]
  40ffae:	ff 74 24 10               push	dword [esp+10h]
  40ffb2:	e8 04 00 00 00            call	40ffbb
  40ffb7:	83 c4 10                  add	esp, 10h
  40ffba:	c3                        ret

40ffbb <no name>:
  40ffbb:	55                        push	ebp
  40ffbc:	8b ec                     mov	ebp, esp
  40ffbe:	83 ec 0c                  sub	esp, 0Ch
  40ffc1:	53                        push	ebx
  40ffc2:	83 65 f8 00               and	dword [ebp-08h], 00h
  40ffc6:	56                        push	esi
  40ffc7:	57                        push	edi
  40ffc8:	8b 7d 08                  mov	edi, [ebp+08h]
  40ffcb:	8a 1f                     mov	bl, [edi]
  40ffcd:	8d 77 01                  lea	esi, [edi+01h]
  40ffd0:	89 75 fc                  mov	[ebp-04h], esi
  40ffd3:	83 3d 9c 4f 46 00 01     >cmp	dword [00464F9Ch], 01h
  40ffda:	7e 0f                     jle	40ffeb
  40ffdc:	0f b6 c3                  movzx	eax, bl
  40ffdf:	6a 08                     push	dword 00000008h
  40ffe1:	50                        push	eax
  40ffe2:	e8 6c 43 00 00            call	414353
  40ffe7:	59                        pop	ecx
  40ffe8:	59                        pop	ecx
  40ffe9:	eb 0f                     jmp	40fffa
  40ffeb:	8b 0d 90 4d 46 00        >mov	ecx, [00464D90h]
  40fff1:	0f b6 c3                  movzx	eax, bl
  40fff4:	8a 04 41                  mov	al, [ecx+eax*2]
  40fff7:	83 e0 08                  and	eax, 08h
  40fffa:	85 c0                    >test	eax, eax
  40fffc:	74 05                     jz	410003
  40fffe:	8a 1e                     mov	bl, [esi]
  410000:	46                        inc	esi
  410001:	eb d0                     jmp	40ffd3
  410003:	80 fb 2d                 >cmp	bl, 2Dh
  410006:	89 75 fc                  mov	[ebp-04h], esi
  410009:	75 06                     jnz	410011
  41000b:	83 4d 14 02               or	dword [ebp+14h], 02h
  41000f:	eb 05                     jmp	410016
  410011:	80 fb 2b                 >cmp	bl, 2Bh
  410014:	75 06                     jnz	41001c
  410016:	8a 1e                    >mov	bl, [esi]
  410018:	46                        inc	esi
  410019:	89 75 fc                  mov	[ebp-04h], esi
  41001c:	8b 45 10                 >mov	eax, [ebp+10h]
  41001f:	85 c0                     test	eax, eax
  410021:	0f 8c 89 01 00 00         jl	4101b0
  410027:	83 f8 01                  cmp	eax, 01h
  41002a:	0f 84 80 01 00 00         jz	4101b0
  410030:	83 f8 24                  cmp	eax, 24h
  410033:	0f 8f 77 01 00 00         jg	4101b0
  410039:	6a 10                     push	dword 00000010h
  41003b:	85 c0                     test	eax, eax
  41003d:	59                        pop	ecx
  41003e:	75 24                     jnz	410064
  410040:	80 fb 30                  cmp	bl, 30h
  410043:	74 09                     jz	41004e
  410045:	c7 45 10 0a 00 00 00      mov	dword [ebp+10h], 0000000Ah
  41004c:	eb 32                     jmp	410080
  41004e:	8a 06                    >mov	al, [esi]
  410050:	3c 78                     cmp	al, 78h
  410052:	74 0d                     jz	410061
  410054:	3c 58                     cmp	al, 58h
  410056:	74 09                     jz	410061
  410058:	c7 45 10 08 00 00 00      mov	dword [ebp+10h], 00000008h
  41005f:	eb 1f                     jmp	410080
  410061:	89 4d 10                 >mov	[ebp+10h], ecx
  410064:	39 4d 10                 >cmp	[ebp+10h], ecx
  410067:	75 17                     jnz	410080
  410069:	80 fb 30                  cmp	bl, 30h
  41006c:	75 12                     jnz	410080
  41006e:	8a 06                     mov	al, [esi]
  410070:	3c 78                     cmp	al, 78h
  410072:	74 04                     jz	410078
  410074:	3c 58                     cmp	al, 58h
  410076:	75 08                     jnz	410080
  410078:	8a 5e 01                 >mov	bl, [esi+01h]
  41007b:	46                        inc	esi
  41007c:	46                        inc	esi
  41007d:	89 75 fc                  mov	[ebp-04h], esi
  410080:	83 c8 ff                 >or	eax, FFh
  410083:	33 d2                     xor	edx, edx
  410085:	f7 75 10                  div	dword [ebp+10h]
  410088:	bf 03 01 00 00            mov	edi, 00000103h
  41008d:	89 45 f4                  mov	[ebp-0Ch], eax
  410090:	83 3d 9c 4f 46 00 01     >cmp	dword [00464F9Ch], 01h
  410097:	0f b6 f3                  movzx	esi, bl
  41009a:	7e 0c                     jle	4100a8
  41009c:	6a 04                     push	dword 00000004h
  41009e:	56                        push	esi
  41009f:	e8 af 42 00 00            call	414353
  4100a4:	59                        pop	ecx
  4100a5:	59                        pop	ecx
  4100a6:	eb 0b                     jmp	4100b3
  4100a8:	a1 90 4d 46 00           >mov	eax, [464D90h]
  4100ad:	8a 04 70                  mov	al, [eax+esi*2]
  4100b0:	83 e0 04                  and	eax, 04h
  4100b3:	85 c0                    >test	eax, eax
  4100b5:	74 08                     jz	4100bf
  4100b7:	0f be cb                  movsx	ecx, bl
  4100ba:	83 e9 30                  sub	ecx, 30h
  4100bd:	eb 32                     jmp	4100f1
  4100bf:	83 3d 9c 4f 46 00 01     >cmp	dword [00464F9Ch], 01h
  4100c6:	7e 0b                     jle	4100d3
  4100c8:	57                        push	edi
  4100c9:	56                        push	esi
  4100ca:	e8 84 42 00 00            call	414353
  4100cf:	59                        pop	ecx
  4100d0:	59                        pop	ecx
  4100d1:	eb 0b                     jmp	4100de
  4100d3:	a1 90 4d 46 00           >mov	eax, [464D90h]
  4100d8:	66 8b 04 70               mov	ax, [eax+esi*2]
  4100dc:	23 c7                     and	eax, edi
  4100de:	85 c0                    >test	eax, eax
  4100e0:	74 4a                     jz	41012c
  4100e2:	0f be c3                  movsx	eax, bl
  4100e5:	50                        push	eax
  4100e6:	e8 2d 41 00 00            call	414218
  4100eb:	59                        pop	ecx
  4100ec:	8b c8                     mov	ecx, eax
  4100ee:	83 e9 37                  sub	ecx, 37h
  4100f1:	3b 4d 10                 >cmp	ecx, [ebp+10h]
  4100f4:	73 36                     jae	41012c
  4100f6:	8b 75 f8                  mov	esi, [ebp-08h]
  4100f9:	83 4d 14 08               or	dword [ebp+14h], 08h
  4100fd:	3b 75 f4                  cmp	esi, [ebp-0Ch]
  410100:	72 14                     jb	410116
  410102:	75 0c                     jnz	410110
  410104:	83 c8 ff                  or	eax, FFh
  410107:	33 d2                     xor	edx, edx
  410109:	f7 75 10                  div	dword [ebp+10h]
  41010c:	3b ca                     cmp	ecx, edx
  41010e:	76 06                     jbe	410116
  410110:	83 4d 14 04              >or	dword [ebp+14h], 04h
  410114:	eb 09                     jmp	41011f
  410116:	0f af 75 10              >imul	esi, [ebp+10h]
  41011a:	03 f1                     add	esi, ecx
  41011c:	89 75 f8                  mov	[ebp-08h], esi
  41011f:	8b 45 fc                 >mov	eax, [ebp-04h]
  410122:	ff 45 fc                  inc	dword [ebp-04h]
  410125:	8a 18                     mov	bl, [eax]
  410127:	e9 64 ff ff ff            jmp	410090
  41012c:	8b 45 14                 >mov	eax, [ebp+14h]
  41012f:	ff 4d fc                  dec	dword [ebp-04h]
  410132:	8b 5d 0c                  mov	ebx, [ebp+0Ch]
  410135:	a8 08                     test	al, 08h
  410137:	75 10                     jnz	410149
  410139:	85 db                     test	ebx, ebx
  41013b:	74 06                     jz	410143
  41013d:	8b 45 08                  mov	eax, [ebp+08h]
  410140:	89 45 fc                  mov	[ebp-04h], eax
  410143:	83 65 f8 00              >and	dword [ebp-08h], 00h
  410147:	eb 4b                     jmp	410194
  410149:	a8 04                    >test	al, 04h
  41014b:	be ff ff ff 7f            mov	esi, 7FFFFFFFh
  410150:	75 1b                     jnz	41016d
  410152:	a8 01                     test	al, 01h
  410154:	75 3e                     jnz	410194
  410156:	83 e0 02                  and	eax, 02h
  410159:	74 09                     jz	410164
  41015b:	81 7d f8 00 00 00 80      cmp	dword [ebp-08h], 80000000h
  410162:	77 09                     ja	41016d
  410164:	85 c0                    >test	eax, eax
  410166:	75 2c                     jnz	410194
  410168:	39 75 f8                  cmp	[ebp-08h], esi
  41016b:	76 27                     jbe	410194
  41016d:	e8 d8 00 00 00           >call	41024a
  410172:	f6 45 14 01               test	byte [ebp+14h], 01h
  410176:	c7 00 22 00 00 00         mov	dword [eax], 00000022h
  41017c:	74 06                     jz	410184
  41017e:	83 4d f8 ff               or	dword [ebp-08h], FFh
  410182:	eb 10                     jmp	410194
  410184:	8b 45 14                 >mov	eax, [ebp+14h]
  410187:	24 02                     and	al, 02h
  410189:	f6 d8                     neg	al
  41018b:	1b c0                     sbb	eax, eax
  41018d:	f7 d8                     neg	eax
  41018f:	03 c6                     add	eax, esi
  410191:	89 45 f8                  mov	[ebp-08h], eax
  410194:	85 db                    >test	ebx, ebx
  410196:	74 05                     jz	41019d
  410198:	8b 45 fc                  mov	eax, [ebp-04h]
  41019b:	89 03                     mov	[ebx], eax
  41019d:	f6 45 14 02              >test	byte [ebp+14h], 02h
  4101a1:	74 08                     jz	4101ab
  4101a3:	8b 45 f8                  mov	eax, [ebp-08h]
  4101a6:	f7 d8                     neg	eax
  4101a8:	89 45 f8                  mov	[ebp-08h], eax
  4101ab:	8b 45 f8                 >mov	eax, [ebp-08h]
  4101ae:	eb 0b                     jmp	4101bb
  4101b0:	8b 45 0c                 >mov	eax, [ebp+0Ch]
  4101b3:	85 c0                     test	eax, eax
  4101b5:	74 02                     jz	4101b9
  4101b7:	89 38                     mov	[eax], edi
  4101b9:	33 c0                    >xor	eax, eax
  4101bb:	5f                       >pop	edi
  4101bc:	5e                        pop	esi
  4101bd:	5b                        pop	ebx
  4101be:	c9                        leave
  4101bf:	c3                        ret
     ...

41024a <no name>:
  41024a:	e8 b2 33 00 00            call	413601
  41024f:	83 c0 08                  add	eax, 08h
  410252:	c3                        ret
     ...

4102c2 <no name>:
  4102c2:	55                        push	ebp
  4102c3:	8b ec                     mov	ebp, esp
  4102c5:	6a ff                     push	dword FFFFFFFFh
  4102c7:	68 08 42 45 00            push	dword 00454208h
  4102cc:	68 50 63 41 00            push	dword 00416350h
  4102d1:	64 a1 00 00 00 00         mov	eax, [fs:0000h]
  4102d7:	50                        push	eax
  4102d8:	64 89 25 00 00 00 00      mov	[fs:00000000h], esp
  4102df:	83 ec 18                  sub	esp, 18h
  4102e2:	53                        push	ebx
  4102e3:	56                        push	esi
  4102e4:	57                        push	edi
  4102e5:	8b 75 08                  mov	esi, [ebp+08h]
  4102e8:	85 f6                     test	esi, esi
  4102ea:	0f 84 ac 00 00 00         jz	41039c
  4102f0:	a1 08 c8 46 00            mov	eax, [46C808h]
  4102f5:	83 f8 03                  cmp	eax, 03h
  4102f8:	75 3b                     jnz	410335
  4102fa:	6a 09                     push	dword 00000009h
  4102fc:	e8 a6 38 00 00            call	413ba7
  410301:	59                        pop	ecx
  410302:	83 65 fc 00               and	dword [ebp-04h], 00h
  410306:	56                        push	esi
  410307:	e8 ef 48 00 00            call	414bfb
  41030c:	59                        pop	ecx
  41030d:	89 45 e4                  mov	[ebp-1Ch], eax
  410310:	85 c0                     test	eax, eax
  410312:	74 09                     jz	41031d
  410314:	56                        push	esi
  410315:	50                        push	eax
  410316:	e8 0b 49 00 00            call	414c26
  41031b:	59                        pop	ecx
  41031c:	59                        pop	ecx
  41031d:	83 4d fc ff              >or	dword [ebp-04h], FFh
  410321:	e8 06 00 00 00            call	41032c
  410326:	83 7d e4 00               cmp	dword [ebp-1Ch], 00h
  41032a:	eb 51                     jmp	41037d

41032c <no name>:
  41032c:	6a 09                     push	dword 00000009h
  41032e:	e8 d5 38 00 00            call	413c08
  410333:	59                        pop	ecx
  410334:	c3                        ret
  410335:	83 f8 02                 >cmp	eax, 02h
  410338:	75 53                     jnz	41038d
  41033a:	6a 09                     push	dword 00000009h
  41033c:	e8 66 38 00 00            call	413ba7
  410341:	59                        pop	ecx
  410342:	c7 45 fc 01 00 00 00      mov	dword [ebp-04h], 00000001h
  410349:	8d 45 e0                  lea	eax, [ebp-20h]
  41034c:	50                        push	eax
  41034d:	8d 45 d8                  lea	eax, [ebp-28h]
  410350:	50                        push	eax
  410351:	56                        push	esi
  410352:	e8 21 5a 00 00            call	415d78
  410357:	83 c4 0c                  add	esp, 0Ch
  41035a:	89 45 dc                  mov	[ebp-24h], eax
  41035d:	85 c0                     test	eax, eax
  41035f:	74 0f                     jz	410370
  410361:	50                        push	eax
  410362:	ff 75 e0                  push	dword [ebp-20h]
  410365:	ff 75 d8                  push	dword [ebp-28h]
  410368:	e8 62 5a 00 00            call	415dcf
  41036d:	83 c4 0c                  add	esp, 0Ch
  410370:	83 4d fc ff              >or	dword [ebp-04h], FFh
  410374:	e8 0b 00 00 00            call	410384
  410379:	83 7d dc 00               cmp	dword [ebp-24h], 00h
  41037d:	75 1d                    >jnz	41039c
  41037f:	ff 75 08                  push	dword [ebp+08h]
  410382:	eb 0a                     jmp	41038e

410384 <no name>:
  410384:	6a 09                     push	dword 00000009h
  410386:	e8 7d 38 00 00            call	413c08
  41038b:	59                        pop	ecx
  41038c:	c3                        ret
  41038d:	56                       >push	esi
  41038e:	6a 00                    >push	dword 00000000h
  410390:	ff 35 04 c8 46 00         push	dword [0046C804h]
  410396:	ff 15 14 f2 44 00         call	dword [0044F214h]	; <HeapFree>
  41039c:	8b 4d f0                 >mov	ecx, [ebp-10h]
  41039f:	64 89 0d 00 00 00 00      mov	[fs:00000000h], ecx
  4103a6:	5f                        pop	edi
  4103a7:	5e                        pop	esi
  4103a8:	5b                        pop	ebx
  4103a9:	c9                        leave
  4103aa:	c3                        ret
     ...

410543 <no name>:
  410543:	55                        push	ebp
  410544:	8b ec                     mov	ebp, esp
  410546:	6a ff                     push	dword FFFFFFFFh
  410548:	68 20 42 45 00            push	dword 00454220h
  41054d:	68 50 63 41 00            push	dword 00416350h
  410552:	64 a1 00 00 00 00         mov	eax, [fs:0000h]
  410558:	50                        push	eax
  410559:	64 89 25 00 00 00 00      mov	[fs:00000000h], esp
  410560:	83 ec 58                  sub	esp, 58h
  410563:	53                        push	ebx
  410564:	56                        push	esi
  410565:	57                        push	edi
  410566:	89 65 e8                  mov	[ebp-18h], esp
  410569:	ff 15 dc f3 44 00         call	dword [0044F3DCh]	; <GetVersion>
  41056f:	33 d2                     xor	edx, edx
  410571:	8a d4                     mov	dl, ah
  410573:	89 15 80 ad 46 00         mov	[0046AD80h], edx
  410579:	8b c8                     mov	ecx, eax
  41057b:	81 e1 ff 00 00 00         and	ecx, 000000FFh
  410581:	89 0d 7c ad 46 00         mov	[0046AD7Ch], ecx
  410587:	c1 e1 08                  shl	ecx, 08h
  41058a:	03 ca                     add	ecx, edx
  41058c:	89 0d 78 ad 46 00         mov	[0046AD78h], ecx
  410592:	c1 e8 10                  shr	eax, 10h
  410595:	a3 74 ad 46 00            mov	[46AD74h], eax
  41059a:	6a 01                     push	dword 00000001h
  41059c:	e8 3b 44 00 00            call	4149dc
  4105a1:	59                        pop	ecx
  4105a2:	85 c0                     test	eax, eax
  4105a4:	75 08                     jnz	4105ae
  4105a6:	6a 1c                     push	dword 0000001Ch
  4105a8:	e8 c3 00 00 00            call	410670
  4105ad:	59                        pop	ecx
  4105ae:	e8 c9 2f 00 00           >call	41357c
  4105b3:	85 c0                     test	eax, eax
  4105b5:	75 08                     jnz	4105bf
  4105b7:	6a 10                     push	dword 00000010h
  4105b9:	e8 b2 00 00 00            call	410670
  4105be:	59                        pop	ecx
  4105bf:	33 f6                    >xor	esi, esi
  4105c1:	89 75 fc                  mov	[ebp-04h], esi
  4105c4:	e8 67 64 00 00            call	416a30
  4105c9:	ff 15 1c f2 44 00         call	dword [0044F21Ch]	; <GetCommandLineA>
  4105cf:	a3 58 ca 46 00            mov	[46CA58h], eax
  4105d4:	e8 25 63 00 00            call	4168fe
  4105d9:	a3 64 ad 46 00            mov	[46AD64h], eax
  4105de:	e8 ce 60 00 00            call	4166b1
  4105e3:	e8 10 60 00 00            call	4165f8
  4105e8:	e8 c1 04 00 00            call	410aae
  4105ed:	89 75 d0                  mov	[ebp-30h], esi
  4105f0:	8d 45 a4                  lea	eax, [ebp-5Ch]
  4105f3:	50                        push	eax
  4105f4:	ff 15 18 f2 44 00         call	dword [0044F218h]	; <GetStartupInfoA>
  4105fa:	e8 a1 5f 00 00            call	4165a0
  4105ff:	89 45 9c                  mov	[ebp-64h], eax
  410602:	f6 45 d0 01               test	byte [ebp-30h], 01h
  410606:	74 06                     jz	41060e
  410608:	0f b7 45 d4               movzx	eax, word [ebp-2Ch]
  41060c:	eb 03                     jmp	410611
  41060e:	6a 0a                    >push	dword 0000000Ah
  410610:	58                        pop	eax
  410611:	50                       >push	eax
  410612:	ff 75 9c                  push	dword [ebp-64h]
  410615:	56                        push	esi
  410616:	56                        push	esi
  410617:	ff 15 f8 f3 44 00         call	dword [0044F3F8h]	; <GetModuleHandleA>
  41061d:	50                        push	eax
  41061e:	e8 14 e9 01 00            call	42ef37
  410623:	89 45 a0                  mov	[ebp-60h], eax
  410626:	50                        push	eax
  410627:	e8 af 04 00 00            call	410adb
  41062c:	8b 45 ec                  mov	eax, [ebp-14h]
  41062f:	8b 08                     mov	ecx, [eax]
  410631:	8b 09                     mov	ecx, [ecx]
  410633:	89 4d 98                  mov	[ebp-68h], ecx
  410636:	50                        push	eax
  410637:	51                        push	ecx
  410638:	e8 eb 5d 00 00            call	416428
  41063d:	59                        pop	ecx
  41063e:	59                        pop	ecx
  41063f:	c3                        ret
     ...

41064b <no name>:
  41064b:	83 3d 6c ad 46 00 01      cmp	dword [0046AD6Ch], 01h
  410652:	75 05                     jnz	410659
  410654:	e8 e7 65 00 00            call	416c40
  410659:	ff 74 24 04              >push	dword [esp+04h]
  41065d:	e8 17 66 00 00            call	416c79
  410662:	68 ff 00 00 00            push	dword 000000FFh
  410667:	ff 15 fc 4a 46 00         call	dword [00464AFCh]
  41066d:	59                        pop	ecx
  41066e:	59                        pop	ecx
  41066f:	c3                        ret

410670 <no name>:
  410670:	83 3d 6c ad 46 00 01      cmp	dword [0046AD6Ch], 01h
  410677:	75 05                     jnz	41067e
  410679:	e8 c2 65 00 00            call	416c40
  41067e:	ff 74 24 04              >push	dword [esp+04h]
  410682:	e8 f2 65 00 00            call	416c79
  410687:	59                        pop	ecx
  410688:	68 ff 00 00 00            push	dword 000000FFh
  41068d:	ff 15 20 f2 44 00         call	dword [0044F220h]	; <ExitProcess>
  410693:	c3                        ret
     ...

41069f <no name>:
  41069f:	55                        push	ebp
  4106a0:	8b ec                     mov	ebp, esp
  4106a2:	83 3d 2c c8 46 00 00      cmp	dword [0046C82Ch], 00h
  4106a9:	53                        push	ebx
  4106aa:	56                        push	esi
  4106ab:	75 0f                     jnz	4106bc
  4106ad:	ff 75 0c                  push	dword [ebp+0Ch]
  4106b0:	ff 75 08                  push	dword [ebp+08h]
  4106b3:	e8 38 3a 00 00            call	4140f0
  4106b8:	59                        pop	ecx
  4106b9:	59                        pop	ecx
  4106ba:	eb 76                     jmp	410732
  4106bc:	6a 19                    >push	dword 00000019h
  4106be:	e8 e4 34 00 00            call	413ba7
  4106c3:	8b 75 08                  mov	esi, [ebp+08h]
  4106c6:	59                        pop	ecx
  4106c7:	66 0f b6 1e              >movzx	bx, byte [esi]
  4106cb:	66 85 db                  test	bx, bx
  4106ce:	74 4a                     jz	41071a
  4106d0:	0f b6 c3                  movzx	eax, bl
  4106d3:	f6 80 41 c9 46 00 04      test	byte [eax+0046C941h], 04h
  4106da:	74 1a                     jz	4106f6
  4106dc:	8a 46 01                  mov	al, [esi+01h]
  4106df:	46                        inc	esi
  4106e0:	84 c0                     test	al, al
  4106e2:	74 1d                     jz	410701
  4106e4:	0f b7 cb                  movzx	ecx, bx
  4106e7:	0f b6 c0                  movzx	eax, al
  4106ea:	c1 e1 08                  shl	ecx, 08h
  4106ed:	0b c8                     or	ecx, eax
  4106ef:	39 4d 0c                  cmp	[ebp+0Ch], ecx
  4106f2:	74 19                     jz	41070d
  4106f4:	eb 08                     jmp	4106fe
  4106f6:	0f b7 c3                 >movzx	eax, bx
  4106f9:	39 45 0c                  cmp	[ebp+0Ch], eax
  4106fc:	74 1c                     jz	41071a
  4106fe:	46                       >inc	esi
  4106ff:	eb c6                     jmp	4106c7
  410701:	6a 19                    >push	dword 00000019h
  410703:	e8 00 35 00 00            call	413c08
  410708:	59                        pop	ecx
  410709:	33 c0                     xor	eax, eax
  41070b:	eb 25                     jmp	410732
  41070d:	6a 19                    >push	dword 00000019h
  41070f:	e8 f4 34 00 00            call	413c08
  410714:	59                        pop	ecx
  410715:	8d 46 ff                  lea	eax, [esi-01h]
  410718:	eb 18                     jmp	410732
  41071a:	6a 19                    >push	dword 00000019h
  41071c:	e8 e7 34 00 00            call	413c08
  410721:	8b 45 0c                  mov	eax, [ebp+0Ch]
  410724:	59                        pop	ecx
  410725:	0f b7 cb                  movzx	ecx, bx
  410728:	2b c1                     sub	eax, ecx
  41072a:	f7 d8                     neg	eax
  41072c:	1b c0                     sbb	eax, eax
  41072e:	f7 d0                     not	eax
  410730:	23 c6                     and	eax, esi
  410732:	5e                       >pop	esi
  410733:	5b                        pop	ebx
  410734:	5d                        pop	ebp
  410735:	c3                        ret
     ...

410949 <no name>:
  410949:	ff 35 70 af 46 00         push	dword [0046AF70h]
  41094f:	ff 74 24 08               push	dword [esp+08h]
  410953:	e8 03 00 00 00            call	41095b
  410958:	59                        pop	ecx
  410959:	59                        pop	ecx
  41095a:	c3                        ret

41095b <no name>:
  41095b:	83 7c 24 04 e0            cmp	dword [esp+04h], E0h
  410960:	77 22                     ja	410984
  410962:	ff 74 24 04              >push	dword [esp+04h]
  410966:	e8 1c 00 00 00            call	410987
  41096b:	85 c0                     test	eax, eax
  41096d:	59                        pop	ecx
  41096e:	75 16                     jnz	410986
  410970:	39 44 24 08               cmp	[esp+08h], eax
  410974:	74 10                     jz	410986
  410976:	ff 74 24 04               push	dword [esp+04h]
  41097a:	e8 1b 65 00 00            call	416e9a
  41097f:	85 c0                     test	eax, eax
  410981:	59                        pop	ecx
  410982:	75 de                     jnz	410962
  410984:	33 c0                    >xor	eax, eax
  410986:	c3                       >ret

410987 <no name>:
  410987:	55                        push	ebp
  410988:	8b ec                     mov	ebp, esp
  41098a:	6a ff                     push	dword FFFFFFFFh
  41098c:	68 30 42 45 00            push	dword 00454230h
  410991:	68 50 63 41 00            push	dword 00416350h
  410996:	64 a1 00 00 00 00         mov	eax, [fs:0000h]
  41099c:	50                        push	eax
  41099d:	64 89 25 00 00 00 00      mov	[fs:00000000h], esp
  4109a4:	83 ec 0c                  sub	esp, 0Ch
  4109a7:	53                        push	ebx
  4109a8:	56                        push	esi
  4109a9:	57                        push	edi
  4109aa:	a1 08 c8 46 00            mov	eax, [46C808h]
  4109af:	83 f8 03                  cmp	eax, 03h
  4109b2:	75 43                     jnz	4109f7
  4109b4:	8b 75 08                  mov	esi, [ebp+08h]
  4109b7:	3b 35 00 c8 46 00         cmp	esi, [0046C800h]
  4109bd:	0f 87 93 00 00 00         ja	410a56
  4109c3:	6a 09                     push	dword 00000009h
  4109c5:	e8 dd 31 00 00            call	413ba7
  4109ca:	59                        pop	ecx
  4109cb:	83 65 fc 00               and	dword [ebp-04h], 00h
  4109cf:	56                        push	esi
  4109d0:	e8 7a 45 00 00            call	414f4f
  4109d5:	59                        pop	ecx
  4109d6:	89 45 e4                  mov	[ebp-1Ch], eax
  4109d9:	83 4d fc ff               or	dword [ebp-04h], FFh
  4109dd:	e8 0c 00 00 00            call	4109ee
  4109e2:	8b 45 e4                  mov	eax, [ebp-1Ch]
  4109e5:	85 c0                     test	eax, eax
  4109e7:	74 6d                     jz	410a56
  4109e9:	e9 86 00 00 00            jmp	410a74

4109ee <no name>:
  4109ee:	6a 09                     push	dword 00000009h
  4109f0:	e8 13 32 00 00            call	413c08
  4109f5:	59                        pop	ecx
  4109f6:	c3                        ret
  4109f7:	83 f8 02                 >cmp	eax, 02h
  4109fa:	75 5a                     jnz	410a56
  4109fc:	8b 45 08                  mov	eax, [ebp+08h]
  4109ff:	85 c0                     test	eax, eax
  410a01:	74 08                     jz	410a0b
  410a03:	8d 70 0f                  lea	esi, [eax+0Fh]
  410a06:	83 e6 f0                  and	esi, F0h
  410a09:	eb 03                     jmp	410a0e
  410a0b:	6a 10                    >push	dword 00000010h
  410a0d:	5e                        pop	esi
  410a0e:	89 75 08                 >mov	[ebp+08h], esi
  410a11:	3b 35 ec 6f 46 00         cmp	esi, [00466FECh]
  410a17:	77 2e                     ja	410a47
  410a19:	6a 09                     push	dword 00000009h
  410a1b:	e8 87 31 00 00            call	413ba7
  410a20:	59                        pop	ecx
  410a21:	c7 45 fc 01 00 00 00      mov	dword [ebp-04h], 00000001h
  410a28:	8b c6                     mov	eax, esi
  410a2a:	c1 e8 04                  shr	eax, 04h
  410a2d:	50                        push	eax
  410a2e:	e8 e1 53 00 00            call	415e14
  410a33:	59                        pop	ecx
  410a34:	89 45 e4                  mov	[ebp-1Ch], eax
  410a37:	83 4d fc ff               or	dword [ebp-04h], FFh
  410a3b:	e8 0d 00 00 00            call	410a4d
  410a40:	8b 45 e4                  mov	eax, [ebp-1Ch]
  410a43:	85 c0                     test	eax, eax
  410a45:	75 2d                     jnz	410a74
  410a47:	56                       >push	esi
  410a48:	eb 1c                     jmp	410a66
     ...

410a4d <no name>:
  410a4d:	6a 09                     push	dword 00000009h
  410a4f:	e8 b4 31 00 00            call	413c08
  410a54:	59                        pop	ecx
  410a55:	c3                        ret
  410a56:	8b 45 08                 >mov	eax, [ebp+08h]
  410a59:	85 c0                     test	eax, eax
  410a5b:	75 03                     jnz	410a60
  410a5d:	6a 01                     push	dword 00000001h
  410a5f:	58                        pop	eax
  410a60:	83 c0 0f                 >add	eax, 0Fh
  410a63:	24 f0                     and	al, F0h
  410a65:	50                        push	eax
  410a66:	6a 00                    >push	dword 00000000h
  410a68:	ff 35 04 c8 46 00         push	dword [0046C804h]
  410a6e:	ff 15 24 f2 44 00         call	dword [0044F224h]	; <HeapAlloc>
  410a74:	8b 4d f0                 >mov	ecx, [ebp-10h]
  410a77:	64 89 0d 00 00 00 00      mov	[fs:00000000h], ecx
  410a7e:	5f                        pop	edi
  410a7f:	5e                        pop	esi
  410a80:	5b                        pop	ebx
  410a81:	c9                        leave
  410a82:	c3                        ret

410a83 <no name>:
  410a83:	56                        push	esi
  410a84:	8b 74 24 08               mov	esi, [esp+08h]
  410a88:	85 f6                     test	esi, esi
  410a8a:	74 1e                     jz	410aaa
  410a8c:	56                        push	esi
  410a8d:	e8 4e e5 ff ff            call	40efe0
  410a92:	40                        inc	eax
  410a93:	50                        push	eax
  410a94:	e8 b0 fe ff ff            call	410949
  410a99:	59                        pop	ecx
  410a9a:	85 c0                     test	eax, eax
  410a9c:	59                        pop	ecx
  410a9d:	74 0b                     jz	410aaa
  410a9f:	56                        push	esi
  410aa0:	50                        push	eax
  410aa1:	e8 3a ec ff ff            call	40f6e0
  410aa6:	59                        pop	ecx
  410aa7:	59                        pop	ecx
  410aa8:	5e                        pop	esi
  410aa9:	c3                        ret
  410aaa:	33 c0                    >xor	eax, eax
  410aac:	5e                        pop	esi
  410aad:	c3                        ret

410aae <no name>:
  410aae:	a1 b0 4a 46 00            mov	eax, [464AB0h]
  410ab3:	85 c0                     test	eax, eax
  410ab5:	74 02                     jz	410ab9
  410ab7:	ff d0                     call	eax
  410ab9:	68 3c 31 46 00           >push	dword 0046313Ch
  410abe:	68 28 31 46 00            push	dword 00463128h
  410ac3:	e8 0a 01 00 00            call	410bd2
  410ac8:	68 24 31 46 00            push	dword 00463124h
  410acd:	68 00 30 46 00            push	dword 00463000h
  410ad2:	e8 fb 00 00 00            call	410bd2
  410ad7:	83 c4 10                  add	esp, 10h
  410ada:	c3                        ret

410adb <no name>:
  410adb:	6a 00                     push	dword 00000000h
  410add:	6a 00                     push	dword 00000000h
  410adf:	ff 74 24 0c               push	dword [esp+0Ch]
  410ae3:	e8 33 00 00 00            call	410b1b
  410ae8:	83 c4 0c                  add	esp, 0Ch
  410aeb:	c3                        ret
     ...

410b1b <no name>:
  410b1b:	57                        push	edi
  410b1c:	e8 9f 00 00 00            call	410bc0
  410b21:	6a 01                     push	dword 00000001h
  410b23:	5f                        pop	edi
  410b24:	39 3d b0 ad 46 00         cmp	[0046ADB0h], edi
  410b2a:	75 11                     jnz	410b3d
  410b2c:	ff 74 24 08               push	dword [esp+08h]
  410b30:	ff 15 54 f3 44 00         call	dword [0044F354h]	; <GetCurrentProcess>
  410b36:	50                        push	eax
  410b37:	ff 15 28 f2 44 00         call	dword [0044F228h]	; <TerminateProcess>
  410b3d:	83 7c 24 0c 00           >cmp	dword [esp+0Ch], 00h
  410b42:	53                        push	ebx
  410b43:	8b 5c 24 14               mov	ebx, [esp+14h]
  410b47:	89 3d ac ad 46 00         mov	[0046ADACh], edi
  410b4d:	88 1d a8 ad 46 00         mov	[0046ADA8h], bl
  410b53:	75 3c                     jnz	410b91
  410b55:	a1 54 ca 46 00            mov	eax, [46CA54h]
  410b5a:	85 c0                     test	eax, eax
  410b5c:	74 22                     jz	410b80
  410b5e:	8b 0d 50 ca 46 00         mov	ecx, [0046CA50h]
  410b64:	56                        push	esi
  410b65:	8d 71 fc                  lea	esi, [ecx-04h]
  410b68:	3b f0                     cmp	esi, eax
  410b6a:	72 13                     jb	410b7f
  410b6c:	8b 06                    >mov	eax, [esi]
  410b6e:	85 c0                     test	eax, eax
  410b70:	74 02                     jz	410b74
  410b72:	ff d0                     call	eax
  410b74:	83 ee 04                 >sub	esi, 04h
  410b77:	3b 35 54 ca 46 00         cmp	esi, [0046CA54h]
  410b7d:	73 ed                     jae	410b6c
  410b7f:	5e                       >pop	esi
  410b80:	68 48 31 46 00           >push	dword 00463148h
  410b85:	68 40 31 46 00            push	dword 00463140h
  410b8a:	e8 43 00 00 00            call	410bd2
  410b8f:	59                        pop	ecx
  410b90:	59                        pop	ecx
  410b91:	68 54 31 46 00           >push	dword 00463154h
  410b96:	68 4c 31 46 00            push	dword 0046314Ch
  410b9b:	e8 32 00 00 00            call	410bd2
  410ba0:	59                        pop	ecx
  410ba1:	59                        pop	ecx
  410ba2:	85 db                     test	ebx, ebx
  410ba4:	5b                        pop	ebx
  410ba5:	74 07                     jz	410bae
  410ba7:	e8 1d 00 00 00            call	410bc9
  410bac:	5f                        pop	edi
  410bad:	c3                        ret
  410bae:	ff 74 24 08              >push	dword [esp+08h]
  410bb2:	89 3d b0 ad 46 00         mov	[0046ADB0h], edi
  410bb8:	ff 15 20 f2 44 00         call	dword [0044F220h]	; <ExitProcess>
  410bbe:	5f                        pop	edi
  410bbf:	c3                        ret

410bc0 <no name>:
  410bc0:	6a 0d                     push	dword 0000000Dh
  410bc2:	e8 e0 2f 00 00            call	413ba7
  410bc7:	59                        pop	ecx
  410bc8:	c3                        ret

410bc9 <no name>:
  410bc9:	6a 0d                     push	dword 0000000Dh
  410bcb:	e8 38 30 00 00            call	413c08
  410bd0:	59                        pop	ecx
  410bd1:	c3                        ret

410bd2 <no name>:
  410bd2:	56                        push	esi
  410bd3:	8b 74 24 08               mov	esi, [esp+08h]
  410bd7:	3b 74 24 0c              >cmp	esi, [esp+0Ch]
  410bdb:	73 0d                     jae	410bea
  410bdd:	8b 06                     mov	eax, [esi]
  410bdf:	85 c0                     test	eax, eax
  410be1:	74 02                     jz	410be5
  410be3:	ff d0                     call	eax
  410be5:	83 c6 04                 >add	esi, 04h
  410be8:	eb ed                     jmp	410bd7
  410bea:	5e                       >pop	esi
  410beb:	c3                        ret
     ...

410d30 <no name>:
  410d30:	51                        push	ecx
  410d31:	3d 00 10 00 00            cmp	eax, 00001000h
  410d36:	8d 4c 24 08               lea	ecx, [esp+08h]
  410d3a:	72 14                     jb	410d50
  410d3c:	81 e9 00 10 00 00        >sub	ecx, 00001000h
  410d42:	2d 00 10 00 00            sub	eax, 00001000h
  410d47:	85 01                     test	[ecx], eax
  410d49:	3d 00 10 00 00            cmp	eax, 00001000h
  410d4e:	73 ec                     jae	410d3c
  410d50:	2b c8                    >sub	ecx, eax
  410d52:	8b c4                     mov	eax, esp
  410d54:	85 01                     test	[ecx], eax
  410d56:	8b e1                     mov	esp, ecx
  410d58:	8b 08                     mov	ecx, [eax]
  410d5a:	8b 40 04                  mov	eax, [eax+04h]
  410d5d:	50                        push	eax
  410d5e:	c3                        ret

410d5f <no name>:
  410d5f:	8b 44 24 04               mov	eax, [esp+04h]
  410d63:	0f b6 08                  movzx	ecx, byte [eax]
  410d66:	8a 89 41 c9 46 00         mov	cl, [ecx+0046C941h]
  410d6c:	80 e1 04                  and	cl, 04h
  410d6f:	40                        inc	eax
  410d70:	84 c9                     test	cl, cl
  410d72:	74 01                     jz	410d75
  410d74:	40                        inc	eax
  410d75:	c3                       >ret
     ...

410f0a <no name>:
  410f0a:	55                        push	ebp
  410f0b:	8b ec                     mov	ebp, esp
  410f0d:	56                        push	esi
  410f0e:	33 f6                     xor	esi, esi
  410f10:	39 35 2c c8 46 00         cmp	[0046C82Ch], esi
  410f16:	75 0f                     jnz	410f27
  410f18:	ff 75 0c                  push	dword [ebp+0Ch]
  410f1b:	ff 75 08                  push	dword [ebp+08h]
  410f1e:	e8 1d ed ff ff            call	40fc40
  410f23:	59                        pop	ecx
  410f24:	59                        pop	ecx
  410f25:	eb 52                     jmp	410f79
  410f27:	57                       >push	edi
  410f28:	6a 19                     push	dword 00000019h
  410f2a:	e8 78 2c 00 00            call	413ba7
  410f2f:	59                        pop	ecx
  410f30:	8b 4d 08                  mov	ecx, [ebp+08h]
  410f33:	8a 11                    >mov	dl, [ecx]
  410f35:	0f b6 c2                  movzx	eax, dl
  410f38:	0f b6 f8                  movzx	edi, al
  410f3b:	f6 87 41 c9 46 00 04      test	byte [edi+0046C941h], 04h
  410f42:	74 1e                     jz	410f62
  410f44:	8a 51 01                  mov	dl, [ecx+01h]
  410f47:	41                        inc	ecx
  410f48:	84 d2                     test	dl, dl
  410f4a:	74 12                     jz	410f5e
  410f4c:	0f b6 fa                  movzx	edi, dl
  410f4f:	c1 e0 08                  shl	eax, 08h
  410f52:	0b c7                     or	eax, edi
  410f54:	39 45 0c                  cmp	[ebp+0Ch], eax
  410f57:	75 10                     jnz	410f69
  410f59:	8d 71 ff                  lea	esi, [ecx-01h]
  410f5c:	eb 0b                     jmp	410f69
  410f5e:	85 f6                    >test	esi, esi
  410f60:	eb 03                     jmp	410f65
  410f62:	39 45 0c                 >cmp	[ebp+0Ch], eax
  410f65:	75 02                    >jnz	410f69
  410f67:	8b f1                     mov	esi, ecx
  410f69:	41                       >inc	ecx
  410f6a:	84 d2                     test	dl, dl
  410f6c:	75 c5                     jnz	410f33
  410f6e:	6a 19                     push	dword 00000019h
  410f70:	e8 93 2c 00 00            call	413c08
  410f75:	59                        pop	ecx
  410f76:	8b c6                     mov	eax, esi
  410f78:	5f                        pop	edi
  410f79:	5e                       >pop	esi
  410f7a:	5d                        pop	ebp
  410f7b:	c3                        ret
     ...

4115e4 <no name>:
  4115e4:	55                        push	ebp
  4115e5:	8b ec                     mov	ebp, esp
  4115e7:	83 ec 18                  sub	esp, 18h
  4115ea:	53                        push	ebx
  4115eb:	56                        push	esi
  4115ec:	57                        push	edi
  4115ed:	6a 19                     push	dword 00000019h
  4115ef:	e8 b3 25 00 00            call	413ba7
  4115f4:	ff 75 08                  push	dword [ebp+08h]
  4115f7:	e8 95 01 00 00            call	411791
  4115fc:	8b d8                     mov	ebx, eax
  4115fe:	59                        pop	ecx
  4115ff:	3b 1d 14 c8 46 00         cmp	ebx, [0046C814h]
  411605:	59                        pop	ecx
  411606:	89 5d 08                  mov	[ebp+08h], ebx
  411609:	75 07                     jnz	411612
  41160b:	33 f6                    >xor	esi, esi
  41160d:	e9 70 01 00 00            jmp	411782
  411612:	85 db                    >test	ebx, ebx
  411614:	0f 84 56 01 00 00         jz	411770
  41161a:	33 d2                     xor	edx, edx
  41161c:	b8 18 4b 46 00            mov	eax, 00464B18h
  411621:	39 18                    >cmp	[eax], ebx
  411623:	74 74                     jz	411699
  411625:	83 c0 30                  add	eax, 30h
  411628:	42                        inc	edx
  411629:	3d 08 4c 46 00            cmp	eax, 00464C08h
  41162e:	7c f1                     jl	411621
  411630:	8d 45 e8                  lea	eax, [ebp-18h]
  411633:	50                        push	eax
  411634:	53                        push	ebx
  411635:	ff 15 d4 f2 44 00         call	dword [0044F2D4h]	; <GetCPInfo>
  41163b:	6a 01                     push	dword 00000001h
  41163d:	5e                        pop	esi
  41163e:	3b c6                     cmp	eax, esi
  411640:	0f 85 21 01 00 00         jnz	411767
  411646:	6a 40                     push	dword 00000040h
  411648:	83 25 44 ca 46 00 00      and	dword [0046CA44h], 00h
  41164f:	59                        pop	ecx
  411650:	33 c0                     xor	eax, eax
  411652:	bf 40 c9 46 00            mov	edi, 0046C940h
  411657:	39 75 e8                  cmp	[ebp-18h], esi
  41165a:	f3 ab                     rep stosd
  41165c:	aa                        stosb
  41165d:	89 1d 14 c8 46 00         mov	[0046C814h], ebx
  411663:	0f 86 eb 00 00 00         jbe	411754
  411669:	80 7d ee 00               cmp	byte [ebp-12h], 00h
  41166d:	0f 84 bc 00 00 00         jz	41172f
  411673:	8d 4d ef                  lea	ecx, [ebp-11h]
  411676:	8a 11                    >mov	dl, [ecx]
  411678:	84 d2                     test	dl, dl
  41167a:	0f 84 af 00 00 00         jz	41172f
  411680:	0f b6 41 ff               movzx	eax, byte [ecx-01h]
  411684:	0f b6 d2                  movzx	edx, dl
  411687:	3b c2                    >cmp	eax, edx
  411689:	0f 87 94 00 00 00         ja	411723
  41168f:	80 88 41 c9 46 00 04      or	byte [eax+0046C941h], 04h
  411696:	40                        inc	eax
  411697:	eb ee                     jmp	411687
  411699:	83 65 fc 00              >and	dword [ebp-04h], 00h
  41169d:	6a 40                     push	dword 00000040h
  41169f:	59                        pop	ecx
  4116a0:	33 c0                     xor	eax, eax
  4116a2:	bf 40 c9 46 00            mov	edi, 0046C940h
  4116a7:	8d 34 52                  lea	esi, [edx+edx*2]
  4116aa:	f3 ab                     rep stosd
  4116ac:	c1 e6 04                  shl	esi, 04h
  4116af:	aa                        stosb
  4116b0:	8d 9e 28 4b 46 00         lea	ebx, [esi+00464B28h]
  4116b6:	80 3b 00                 >cmp	byte [ebx], 00h
  4116b9:	8b cb                     mov	ecx, ebx
  4116bb:	74 2c                     jz	4116e9
  4116bd:	8a 51 01                 >mov	dl, [ecx+01h]
  4116c0:	84 d2                     test	dl, dl
  4116c2:	74 25                     jz	4116e9
  4116c4:	0f b6 01                  movzx	eax, byte [ecx]
  4116c7:	0f b6 fa                  movzx	edi, dl
  4116ca:	3b c7                     cmp	eax, edi
  4116cc:	77 14                     ja	4116e2
  4116ce:	8b 55 fc                  mov	edx, [ebp-04h]
  4116d1:	8a 92 10 4b 46 00         mov	dl, [edx+00464B10h]
  4116d7:	08 90 41 c9 46 00        >or	[eax+0046C941h], dl
  4116dd:	40                        inc	eax
  4116de:	3b c7                     cmp	eax, edi
  4116e0:	76 f5                     jbe	4116d7
  4116e2:	41                       >inc	ecx
  4116e3:	41                        inc	ecx
  4116e4:	80 39 00                  cmp	byte [ecx], 00h
  4116e7:	75 d4                     jnz	4116bd
  4116e9:	ff 45 fc                 >inc	dword [ebp-04h]
  4116ec:	83 c3 08                  add	ebx, 08h
  4116ef:	83 7d fc 04               cmp	dword [ebp-04h], 04h
  4116f3:	72 c1                     jb	4116b6
  4116f5:	8b 45 08                  mov	eax, [ebp+08h]
  4116f8:	c7 05 2c c8 46 00 01      mov	dword [0046C82Ch], 00000001h
		00 00 00 
  411702:	50                        push	eax
  411703:	a3 14 c8 46 00            mov	[46C814h], eax
  411708:	e8 ce 00 00 00            call	4117db
  41170d:	8d b6 1c 4b 46 00         lea	esi, [esi+00464B1Ch]
  411713:	bf 20 c8 46 00            mov	edi, 0046C820h
  411718:	a5                        movsd
  411719:	a5                        movsd
  41171a:	59                        pop	ecx
  41171b:	a3 44 ca 46 00            mov	[46CA44h], eax
  411720:	a5                        movsd
  411721:	eb 52                     jmp	411775
  411723:	41                       >inc	ecx
  411724:	41                        inc	ecx
  411725:	80 79 ff 00               cmp	byte [ecx-01h], 00h
  411729:	0f 85 47 ff ff ff         jnz	411676
  41172f:	8b c6                    >mov	eax, esi
  411731:	80 88 41 c9 46 00 08     >or	byte [eax+0046C941h], 08h
  411738:	40                        inc	eax
  411739:	3d ff 00 00 00            cmp	eax, 000000FFh
  41173e:	72 f1                     jb	411731
  411740:	53                        push	ebx
  411741:	e8 95 00 00 00            call	4117db
  411746:	59                        pop	ecx
  411747:	a3 44 ca 46 00            mov	[46CA44h], eax
  41174c:	89 35 2c c8 46 00         mov	[0046C82Ch], esi
  411752:	eb 07                     jmp	41175b
  411754:	83 25 2c c8 46 00 00     >and	dword [0046C82Ch], 00h
  41175b:	33 c0                    >xor	eax, eax
  41175d:	bf 20 c8 46 00            mov	edi, 0046C820h
  411762:	ab                        stosd
  411763:	ab                        stosd
  411764:	ab                        stosd
  411765:	eb 0e                     jmp	411775
  411767:	83 3d b4 ad 46 00 00     >cmp	dword [0046ADB4h], 00h
  41176e:	74 0f                     jz	41177f
  411770:	e8 99 00 00 00           >call	41180e
  411775:	e8 bd 00 00 00           >call	411837
  41177a:	e9 8c fe ff ff            jmp	41160b
  41177f:	83 ce ff                 >or	esi, FFh
  411782:	6a 19                    >push	dword 00000019h
  411784:	e8 7f 24 00 00            call	413c08
  411789:	59                        pop	ecx
  41178a:	8b c6                     mov	eax, esi
  41178c:	5f                        pop	edi
  41178d:	5e                        pop	esi
  41178e:	5b                        pop	ebx
  41178f:	c9                        leave
  411790:	c3                        ret

411791 <no name>:
  411791:	8b 44 24 04               mov	eax, [esp+04h]
  411795:	83 25 b4 ad 46 00 00      and	dword [0046ADB4h], 00h
  41179c:	83 f8 fe                  cmp	eax, FEh
  41179f:	75 10                     jnz	4117b1
  4117a1:	c7 05 b4 ad 46 00 01      mov	dword [0046ADB4h], 00000001h
		00 00 00 
  4117ab:	ff 25 d0 f2 44 00         jmp	dword [0044F2D0h]	; <GetOEMCP>
  4117b1:	83 f8 fd                 >cmp	eax, FDh
  4117b4:	75 10                     jnz	4117c6
  4117b6:	c7 05 b4 ad 46 00 01      mov	dword [0046ADB4h], 00000001h
		00 00 00 
  4117c0:	ff 25 3c f2 44 00         jmp	dword [0044F23Ch]	; <GetACP>
  4117c6:	83 f8 fc                 >cmp	eax, FCh
  4117c9:	75 0f                     jnz	4117da
  4117cb:	a1 94 af 46 00            mov	eax, [46AF94h]
  4117d0:	c7 05 b4 ad 46 00 01      mov	dword [0046ADB4h], 00000001h
		00 00 00 
  4117da:	c3                       >ret

4117db <no name>:
  4117db:	8b 44 24 04               mov	eax, [esp+04h]
  4117df:	2d a4 03 00 00            sub	eax, 000003A4h
  4117e4:	74 22                     jz	411808
  4117e6:	83 e8 04                  sub	eax, 04h
  4117e9:	74 17                     jz	411802
  4117eb:	83 e8 0d                  sub	eax, 0Dh
  4117ee:	74 0c                     jz	4117fc
  4117f0:	48                        dec	eax
  4117f1:	74 03                     jz	4117f6
  4117f3:	33 c0                     xor	eax, eax
  4117f5:	c3                        ret
  4117f6:	b8 04 04 00 00           >mov	eax, 00000404h
  4117fb:	c3                        ret
  4117fc:	b8 12 04 00 00           >mov	eax, 00000412h
  411801:	c3                        ret
  411802:	b8 04 08 00 00           >mov	eax, 00000804h
  411807:	c3                        ret
  411808:	b8 11 04 00 00           >mov	eax, 00000411h
  41180d:	c3                        ret

41180e <no name>:
  41180e:	57                        push	edi
  41180f:	6a 40                     push	dword 00000040h
  411811:	59                        pop	ecx
  411812:	33 c0                     xor	eax, eax
  411814:	bf 40 c9 46 00            mov	edi, 0046C940h
  411819:	f3 ab                     rep stosd
  41181b:	aa                        stosb
  41181c:	33 c0                     xor	eax, eax
  41181e:	bf 20 c8 46 00            mov	edi, 0046C820h
  411823:	a3 14 c8 46 00            mov	[46C814h], eax
  411828:	a3 2c c8 46 00            mov	[46C82Ch], eax
  41182d:	a3 44 ca 46 00            mov	[46CA44h], eax
  411832:	ab                        stosd
  411833:	ab                        stosd
  411834:	ab                        stosd
  411835:	5f                        pop	edi
  411836:	c3                        ret

411837 <no name>:
  411837:	55                        push	ebp
  411838:	8b ec                     mov	ebp, esp
  41183a:	81 ec 14 05 00 00         sub	esp, 00000514h
  411840:	8d 45 ec                  lea	eax, [ebp-14h]
  411843:	56                        push	esi
  411844:	50                        push	eax
  411845:	ff 35 14 c8 46 00         push	dword [0046C814h]
  41184b:	ff 15 d4 f2 44 00         call	dword [0044F2D4h]	; <GetCPInfo>
  411851:	83 f8 01                  cmp	eax, 01h
  411854:	0f 85 16 01 00 00         jnz	411970
  41185a:	33 c0                     xor	eax, eax
  41185c:	be 00 01 00 00            mov	esi, 00000100h
  411861:	88 84 05 ec fe ff ff     >mov	[ebp+eax*1-00000114h], al
  411868:	40                        inc	eax
  411869:	3b c6                     cmp	eax, esi
  41186b:	72 f4                     jb	411861
  41186d:	8a 45 f2                  mov	al, [ebp-0Eh]
  411870:	c6 85 ec fe ff ff 20      mov	byte [ebp-00000114h], 20h
  411877:	84 c0                     test	al, al
  411879:	74 37                     jz	4118b2
  41187b:	53                        push	ebx
  41187c:	57                        push	edi
  41187d:	8d 55 f3                  lea	edx, [ebp-0Dh]
  411880:	0f b6 0a                 >movzx	ecx, byte [edx]
  411883:	0f b6 c0                  movzx	eax, al
  411886:	3b c1                     cmp	eax, ecx
  411888:	77 1d                     ja	4118a7
  41188a:	2b c8                     sub	ecx, eax
  41188c:	8d bc 05 ec fe ff ff      lea	edi, [ebp+eax*1-00000114h]
  411893:	41                        inc	ecx
  411894:	b8 20 20 20 20            mov	eax, 20202020h
  411899:	8b d9                     mov	ebx, ecx
  41189b:	c1 e9 02                  shr	ecx, 02h
  41189e:	f3 ab                     rep stosd
  4118a0:	8b cb                     mov	ecx, ebx
  4118a2:	83 e1 03                  and	ecx, 03h
  4118a5:	f3 aa                     rep stosb
  4118a7:	42                       >inc	edx
  4118a8:	42                        inc	edx
  4118a9:	8a 42 ff                  mov	al, [edx-01h]
  4118ac:	84 c0                     test	al, al
  4118ae:	75 d0                     jnz	411880
  4118b0:	5f                        pop	edi
  4118b1:	5b                        pop	ebx
  4118b2:	6a 00                    >push	dword 00000000h
  4118b4:	8d 85 ec fa ff ff         lea	eax, [ebp-00000514h]
  4118ba:	ff 35 44 ca 46 00         push	dword [0046CA44h]
  4118c0:	ff 35 14 c8 46 00         push	dword [0046C814h]
  4118c6:	50                        push	eax
  4118c7:	8d 85 ec fe ff ff         lea	eax, [ebp-00000114h]
  4118cd:	56                        push	esi
  4118ce:	50                        push	eax
  4118cf:	6a 01                     push	dword 00000001h
  4118d1:	e8 02 61 00 00            call	4179d8
  4118d6:	6a 00                     push	dword 00000000h
  4118d8:	8d 85 ec fd ff ff         lea	eax, [ebp-00000214h]
  4118de:	ff 35 14 c8 46 00         push	dword [0046C814h]
  4118e4:	56                        push	esi
  4118e5:	50                        push	eax
  4118e6:	8d 85 ec fe ff ff         lea	eax, [ebp-00000114h]
  4118ec:	56                        push	esi
  4118ed:	50                        push	eax
  4118ee:	56                        push	esi
  4118ef:	ff 35 44 ca 46 00         push	dword [0046CA44h]
  4118f5:	e8 ca 23 00 00            call	413cc4
  4118fa:	6a 00                     push	dword 00000000h
  4118fc:	8d 85 ec fc ff ff         lea	eax, [ebp-00000314h]
  411902:	ff 35 14 c8 46 00         push	dword [0046C814h]
  411908:	56                        push	esi
  411909:	50                        push	eax
  41190a:	8d 85 ec fe ff ff         lea	eax, [ebp-00000114h]
  411910:	56                        push	esi
  411911:	50                        push	eax
  411912:	68 00 02 00 00            push	dword 00000200h
  411917:	ff 35 44 ca 46 00         push	dword [0046CA44h]
  41191d:	e8 a2 23 00 00            call	413cc4
  411922:	83 c4 5c                  add	esp, 5Ch
  411925:	33 c0                     xor	eax, eax
  411927:	8d 8d ec fa ff ff         lea	ecx, [ebp-00000514h]
  41192d:	66 8b 11                 >mov	dx, [ecx]
  411930:	f6 c2 01                  test	dl, 01h
  411933:	74 16                     jz	41194b
  411935:	80 88 41 c9 46 00 10      or	byte [eax+0046C941h], 10h
  41193c:	8a 94 05 ec fd ff ff      mov	dl, [ebp+eax*1-00000214h]
  411943:	88 90 40 c8 46 00        >mov	[eax+0046C840h], dl
  411949:	eb 1c                     jmp	411967
  41194b:	f6 c2 02                 >test	dl, 02h
  41194e:	74 10                     jz	411960
  411950:	80 88 41 c9 46 00 20      or	byte [eax+0046C941h], 20h
  411957:	8a 94 05 ec fc ff ff      mov	dl, [ebp+eax*1-00000314h]
  41195e:	eb e3                     jmp	411943
  411960:	80 a0 40 c8 46 00 00     >and	byte [eax+0046C840h], 00h
  411967:	40                       >inc	eax
  411968:	41                        inc	ecx
  411969:	41                        inc	ecx
  41196a:	3b c6                     cmp	eax, esi
  41196c:	72 bf                     jb	41192d
  41196e:	eb 49                     jmp	4119b9
  411970:	33 c0                    >xor	eax, eax
  411972:	be 00 01 00 00            mov	esi, 00000100h
  411977:	83 f8 41                 >cmp	eax, 41h
  41197a:	72 19                     jb	411995
  41197c:	83 f8 5a                  cmp	eax, 5Ah
  41197f:	77 14                     ja	411995
  411981:	80 88 41 c9 46 00 10      or	byte [eax+0046C941h], 10h
  411988:	8a c8                     mov	cl, al
  41198a:	80 c1 20                  add	cl, 20h
  41198d:	88 88 40 c8 46 00        >mov	[eax+0046C840h], cl
  411993:	eb 1f                     jmp	4119b4
  411995:	83 f8 61                 >cmp	eax, 61h
  411998:	72 13                     jb	4119ad
  41199a:	83 f8 7a                  cmp	eax, 7Ah
  41199d:	77 0e                     ja	4119ad
  41199f:	80 88 41 c9 46 00 20      or	byte [eax+0046C941h], 20h
  4119a6:	8a c8                     mov	cl, al
  4119a8:	80 e9 20                  sub	cl, 20h
  4119ab:	eb e0                     jmp	41198d
  4119ad:	80 a0 40 c8 46 00 00     >and	byte [eax+0046C840h], 00h
  4119b4:	40                       >inc	eax
  4119b5:	3b c6                     cmp	eax, esi
  4119b7:	72 be                     jb	411977
  4119b9:	5e                       >pop	esi
  4119ba:	c9                        leave
  4119bb:	c3                        ret
     ...

4119cc <no name>:
  4119cc:	83 3d 4c ca 46 00 00      cmp	dword [0046CA4Ch], 00h
  4119d3:	75 12                     jnz	4119e7
  4119d5:	6a fd                     push	dword FFFFFFFDh
  4119d7:	e8 08 fc ff ff            call	4115e4
  4119dc:	59                        pop	ecx
  4119dd:	c7 05 4c ca 46 00 01      mov	dword [0046CA4Ch], 00000001h
		00 00 00 
  4119e7:	c3                       >ret
     ...

41357c <no name>:
  41357c:	56                        push	esi
  41357d:	e8 90 05 00 00            call	413b12
  413582:	ff 15 00 f3 44 00         call	dword [0044F300h]	; <TlsAlloc>
  413588:	83 f8 ff                  cmp	eax, FFh
  41358b:	a3 c0 4c 46 00            mov	[464CC0h], eax
  413590:	74 3a                     jz	4135cc
  413592:	6a 74                     push	dword 00000074h
  413594:	6a 01                     push	dword 00000001h
  413596:	e8 1a 39 00 00            call	416eb5
  41359b:	8b f0                     mov	esi, eax
  41359d:	59                        pop	ecx
  41359e:	85 f6                     test	esi, esi
  4135a0:	59                        pop	ecx
  4135a1:	74 29                     jz	4135cc
  4135a3:	56                        push	esi
  4135a4:	ff 35 c0 4c 46 00         push	dword [00464CC0h]
  4135aa:	ff 15 e4 f2 44 00         call	dword [0044F2E4h]	; <TlsSetValue>
  4135b0:	85 c0                     test	eax, eax
  4135b2:	74 18                     jz	4135cc
  4135b4:	56                        push	esi
  4135b5:	e8 34 00 00 00            call	4135ee
  4135ba:	59                        pop	ecx
  4135bb:	ff 15 e0 f3 44 00         call	dword [0044F3E0h]	; <GetCurrentThreadId>
  4135c1:	83 4e 04 ff               or	dword [esi+04h], FFh
  4135c5:	6a 01                     push	dword 00000001h
  4135c7:	89 06                     mov	[esi], eax
  4135c9:	58                        pop	eax
  4135ca:	5e                        pop	esi
  4135cb:	c3                        ret
  4135cc:	33 c0                    >xor	eax, eax
  4135ce:	5e                        pop	esi
  4135cf:	c3                        ret
     ...

4135ee <no name>:
  4135ee:	8b 44 24 04               mov	eax, [esp+04h]
  4135f2:	c7 40 50 f0 6f 46 00      mov	dword [eax+50h], 00466FF0h
  4135f9:	c7 40 14 01 00 00 00      mov	dword [eax+14h], 00000001h
  413600:	c3                        ret

413601 <no name>:
  413601:	56                        push	esi
  413602:	57                        push	edi
  413603:	ff 15 6c f3 44 00         call	dword [0044F36Ch]	; <GetLastError>
  413609:	ff 35 c0 4c 46 00         push	dword [00464CC0h]
  41360f:	8b f8                     mov	edi, eax
  413611:	ff 15 dc f2 44 00         call	dword [0044F2DCh]	; <TlsGetValue>
  413617:	8b f0                     mov	esi, eax
  413619:	85 f6                     test	esi, esi
  41361b:	75 3f                     jnz	41365c
  41361d:	6a 74                     push	dword 00000074h
  41361f:	6a 01                     push	dword 00000001h
  413621:	e8 8f 38 00 00            call	416eb5
  413626:	8b f0                     mov	esi, eax
  413628:	59                        pop	ecx
  413629:	85 f6                     test	esi, esi
  41362b:	59                        pop	ecx
  41362c:	74 26                     jz	413654
  41362e:	56                        push	esi
  41362f:	ff 35 c0 4c 46 00         push	dword [00464CC0h]
  413635:	ff 15 e4 f2 44 00         call	dword [0044F2E4h]	; <TlsSetValue>
  41363b:	85 c0                     test	eax, eax
  41363d:	74 15                     jz	413654
  41363f:	56                        push	esi
  413640:	e8 a9 ff ff ff            call	4135ee
  413645:	59                        pop	ecx
  413646:	ff 15 e0 f3 44 00         call	dword [0044F3E0h]	; <GetCurrentThreadId>
  41364c:	83 4e 04 ff               or	dword [esi+04h], FFh
  413650:	89 06                     mov	[esi], eax
  413652:	eb 08                     jmp	41365c
  413654:	6a 10                    >push	dword 00000010h
  413656:	e8 f0 cf ff ff            call	41064b
  41365b:	59                        pop	ecx
  41365c:	57                       >push	edi
  41365d:	ff 15 d0 f3 44 00         call	dword [0044F3D0h]	; <SetLastError>
  413663:	8b c6                     mov	eax, esi
  413665:	5f                        pop	edi
  413666:	5e                        pop	esi
  413667:	c3                        ret
     ...

413b12 <no name>:
  413b12:	56                        push	esi
  413b13:	8b 35 04 f3 44 00         mov	esi, [0044F304h]
  413b19:	ff 35 0c 4d 46 00         push	dword [00464D0Ch]
  413b1f:	ff d6                     call	esi
  413b21:	ff 35 fc 4c 46 00         push	dword [00464CFCh]
  413b27:	ff d6                     call	esi
  413b29:	ff 35 ec 4c 46 00         push	dword [00464CECh]
  413b2f:	ff d6                     call	esi
  413b31:	ff 35 cc 4c 46 00         push	dword [00464CCCh]
  413b37:	ff d6                     call	esi
  413b39:	5e                        pop	esi
  413b3a:	c3                        ret
     ...

413ba7 <no name>:
  413ba7:	55                        push	ebp
  413ba8:	8b ec                     mov	ebp, esp
  413baa:	8b 45 08                  mov	eax, [ebp+08h]
  413bad:	56                        push	esi
  413bae:	83 3c 85 c8 4c 46 00      cmp	dword [eax*4+00464CC8h], 00h
		00 
  413bb6:	8d 34 85 c8 4c 46 00      lea	esi, [eax*4+00464CC8h]
  413bbd:	75 3e                     jnz	413bfd
  413bbf:	57                        push	edi
  413bc0:	6a 18                     push	dword 00000018h
  413bc2:	e8 82 cd ff ff            call	410949
  413bc7:	8b f8                     mov	edi, eax
  413bc9:	59                        pop	ecx
  413bca:	85 ff                     test	edi, edi
  413bcc:	75 08                     jnz	413bd6
  413bce:	6a 11                     push	dword 00000011h
  413bd0:	e8 76 ca ff ff            call	41064b
  413bd5:	59                        pop	ecx
  413bd6:	6a 11                    >push	dword 00000011h
  413bd8:	e8 ca ff ff ff            call	413ba7
  413bdd:	83 3e 00                  cmp	dword [esi], 00h
  413be0:	59                        pop	ecx
  413be1:	57                        push	edi
  413be2:	75 0a                     jnz	413bee
  413be4:	ff 15 04 f3 44 00         call	dword [0044F304h]	; <InitializeCriticalSection>
  413bea:	89 3e                     mov	[esi], edi
  413bec:	eb 06                     jmp	413bf4
  413bee:	e8 cf c6 ff ff           >call	4102c2
  413bf3:	59                        pop	ecx
  413bf4:	6a 11                    >push	dword 00000011h
  413bf6:	e8 0d 00 00 00            call	413c08
  413bfb:	59                        pop	ecx
  413bfc:	5f                        pop	edi
  413bfd:	ff 36                    >push	dword [esi]
  413bff:	ff 15 e8 f2 44 00         call	dword [0044F2E8h]	; <EnterCriticalSection>
  413c05:	5e                        pop	esi
  413c06:	5d                        pop	ebp
  413c07:	c3                        ret

413c08 <no name>:
  413c08:	55                        push	ebp
  413c09:	8b ec                     mov	ebp, esp
  413c0b:	8b 45 08                  mov	eax, [ebp+08h]
  413c0e:	ff 34 85 c8 4c 46 00      push	dword [eax*4+00464CC8h]
  413c15:	ff 15 f0 f2 44 00         call	dword [0044F2F0h]	; <LeaveCriticalSection>
  413c1b:	5d                        pop	ebp
  413c1c:	c3                        ret
     ...

413cc4 <no name>:
  413cc4:	55                        push	ebp
  413cc5:	8b ec                     mov	ebp, esp
  413cc7:	6a ff                     push	dword FFFFFFFFh
  413cc9:	68 80 44 45 00            push	dword 00454480h
  413cce:	68 50 63 41 00            push	dword 00416350h
  413cd3:	64 a1 00 00 00 00         mov	eax, [fs:0000h]
  413cd9:	50                        push	eax
  413cda:	64 89 25 00 00 00 00      mov	[fs:00000000h], esp
  413ce1:	83 ec 1c                  sub	esp, 1Ch
  413ce4:	53                        push	ebx
  413ce5:	56                        push	esi
  413ce6:	57                        push	edi
  413ce7:	89 65 e8                  mov	[ebp-18h], esp
  413cea:	33 ff                     xor	edi, edi
  413cec:	39 3d 58 ae 46 00         cmp	[0046AE58h], edi
  413cf2:	75 46                     jnz	413d3a
  413cf4:	57                        push	edi
  413cf5:	57                        push	edi
  413cf6:	6a 01                     push	dword 00000001h
  413cf8:	5b                        pop	ebx
  413cf9:	53                        push	ebx
  413cfa:	68 7c 44 45 00            push	dword 0045447Ch
  413cff:	be 00 01 00 00            mov	esi, 00000100h
  413d04:	56                        push	esi
  413d05:	57                        push	edi
  413d06:	ff 15 54 f2 44 00         call	dword [0044F254h]	; <LCMapStringW>
  413d0c:	85 c0                     test	eax, eax
  413d0e:	74 08                     jz	413d18
  413d10:	89 1d 58 ae 46 00         mov	[0046AE58h], ebx
  413d16:	eb 22                     jmp	413d3a
  413d18:	57                       >push	edi
  413d19:	57                        push	edi
  413d1a:	53                        push	ebx
  413d1b:	68 78 44 45 00            push	dword 00454478h
  413d20:	56                        push	esi
  413d21:	57                        push	edi
  413d22:	ff 15 50 f2 44 00         call	dword [0044F250h]	; <LCMapStringA>
  413d28:	85 c0                     test	eax, eax
  413d2a:	0f 84 22 01 00 00         jz	413e52
  413d30:	c7 05 58 ae 46 00 02      mov	dword [0046AE58h], 00000002h
		00 00 00 
  413d3a:	39 7d 14                 >cmp	[ebp+14h], edi
  413d3d:	7e 10                     jle	413d4f
  413d3f:	ff 75 14                  push	dword [ebp+14h]
  413d42:	ff 75 10                  push	dword [ebp+10h]
  413d45:	e8 9e 01 00 00            call	413ee8
  413d4a:	59                        pop	ecx
  413d4b:	59                        pop	ecx
  413d4c:	89 45 14                  mov	[ebp+14h], eax
  413d4f:	a1 58 ae 46 00           >mov	eax, [46AE58h]
  413d54:	83 f8 02                  cmp	eax, 02h
  413d57:	75 1d                     jnz	413d76
  413d59:	ff 75 1c                  push	dword [ebp+1Ch]
  413d5c:	ff 75 18                  push	dword [ebp+18h]
  413d5f:	ff 75 14                  push	dword [ebp+14h]
  413d62:	ff 75 10                  push	dword [ebp+10h]
  413d65:	ff 75 0c                  push	dword [ebp+0Ch]
  413d68:	ff 75 08                  push	dword [ebp+08h]
  413d6b:	ff 15 50 f2 44 00         call	dword [0044F250h]	; <LCMapStringA>
  413d71:	e9 de 00 00 00            jmp	413e54
  413d76:	83 f8 01                 >cmp	eax, 01h
  413d79:	0f 85 d3 00 00 00         jnz	413e52
  413d7f:	39 7d 20                  cmp	[ebp+20h], edi
  413d82:	75 08                     jnz	413d8c
  413d84:	a1 94 af 46 00            mov	eax, [46AF94h]
  413d89:	89 45 20                  mov	[ebp+20h], eax
  413d8c:	57                       >push	edi
  413d8d:	57                        push	edi
  413d8e:	ff 75 14                  push	dword [ebp+14h]
  413d91:	ff 75 10                  push	dword [ebp+10h]
  413d94:	8b 45 24                  mov	eax, [ebp+24h]
  413d97:	f7 d8                     neg	eax
  413d99:	1b c0                     sbb	eax, eax
  413d9b:	83 e0 08                  and	eax, 08h
  413d9e:	40                        inc	eax
  413d9f:	50                        push	eax
  413da0:	ff 75 20                  push	dword [ebp+20h]
  413da3:	ff 15 34 f4 44 00         call	dword [0044F434h]	; <MultiByteToWideChar>
  413da9:	8b d8                     mov	ebx, eax
  413dab:	89 5d e4                  mov	[ebp-1Ch], ebx
  413dae:	3b df                     cmp	ebx, edi
  413db0:	0f 84 9c 00 00 00         jz	413e52
  413db6:	89 7d fc                  mov	[ebp-04h], edi
  413db9:	8d 04 1b                  lea	eax, [ebx+ebx*1]
  413dbc:	83 c0 03                  add	eax, 03h
  413dbf:	24 fc                     and	al, FCh
  413dc1:	e8 6a cf ff ff            call	410d30
  413dc6:	89 65 e8                  mov	[ebp-18h], esp
  413dc9:	8b c4                     mov	eax, esp
  413dcb:	89 45 dc                  mov	[ebp-24h], eax
  413dce:	83 4d fc ff               or	dword [ebp-04h], FFh
  413dd2:	eb 13                     jmp	413de7
     ...
  413de7:	39 7d dc                 >cmp	[ebp-24h], edi
  413dea:	74 66                     jz	413e52
  413dec:	53                        push	ebx
  413ded:	ff 75 dc                  push	dword [ebp-24h]
  413df0:	ff 75 14                  push	dword [ebp+14h]
  413df3:	ff 75 10                  push	dword [ebp+10h]
  413df6:	6a 01                     push	dword 00000001h
  413df8:	ff 75 20                  push	dword [ebp+20h]
  413dfb:	ff 15 34 f4 44 00         call	dword [0044F434h]	; <MultiByteToWideChar>
  413e01:	85 c0                     test	eax, eax
  413e03:	74 4d                     jz	413e52
  413e05:	57                        push	edi
  413e06:	57                        push	edi
  413e07:	53                        push	ebx
  413e08:	ff 75 dc                  push	dword [ebp-24h]
  413e0b:	ff 75 0c                  push	dword [ebp+0Ch]
  413e0e:	ff 75 08                  push	dword [ebp+08h]
  413e11:	ff 15 54 f2 44 00         call	dword [0044F254h]	; <LCMapStringW>
  413e17:	8b f0                     mov	esi, eax
  413e19:	89 75 d8                  mov	[ebp-28h], esi
  413e1c:	3b f7                     cmp	esi, edi
  413e1e:	74 32                     jz	413e52
  413e20:	f6 45 0d 04               test	byte [ebp+0Dh], 04h
  413e24:	74 40                     jz	413e66
  413e26:	39 7d 1c                  cmp	[ebp+1Ch], edi
  413e29:	0f 84 b2 00 00 00         jz	413ee1
  413e2f:	3b 75 1c                  cmp	esi, [ebp+1Ch]
  413e32:	7f 1e                     jg	413e52
  413e34:	ff 75 1c                  push	dword [ebp+1Ch]
  413e37:	ff 75 18                  push	dword [ebp+18h]
  413e3a:	53                        push	ebx
  413e3b:	ff 75 dc                  push	dword [ebp-24h]
  413e3e:	ff 75 0c                  push	dword [ebp+0Ch]
  413e41:	ff 75 08                  push	dword [ebp+08h]
  413e44:	ff 15 54 f2 44 00         call	dword [0044F254h]	; <LCMapStringW>
  413e4a:	85 c0                     test	eax, eax
  413e4c:	0f 85 8f 00 00 00         jnz	413ee1
  413e52:	33 c0                    >xor	eax, eax
  413e54:	8d 65 c8                 >lea	esp, [ebp-38h]
  413e57:	8b 4d f0                  mov	ecx, [ebp-10h]
  413e5a:	64 89 0d 00 00 00 00      mov	[fs:00000000h], ecx
  413e61:	5f                        pop	edi
  413e62:	5e                        pop	esi
  413e63:	5b                        pop	ebx
  413e64:	c9                        leave
  413e65:	c3                        ret
  413e66:	c7 45 fc 01 00 00 00     >mov	dword [ebp-04h], 00000001h
  413e6d:	8d 04 36                  lea	eax, [esi+esi*1]
  413e70:	83 c0 03                  add	eax, 03h
  413e73:	24 fc                     and	al, FCh
  413e75:	e8 b6 ce ff ff            call	410d30
  413e7a:	89 65 e8                  mov	[ebp-18h], esp
  413e7d:	8b dc                     mov	ebx, esp
  413e7f:	89 5d e0                  mov	[ebp-20h], ebx
  413e82:	83 4d fc ff               or	dword [ebp-04h], FFh
  413e86:	eb 12                     jmp	413e9a
     ...
  413e9a:	3b df                    >cmp	ebx, edi
  413e9c:	74 b4                     jz	413e52
  413e9e:	56                        push	esi
  413e9f:	53                        push	ebx
  413ea0:	ff 75 e4                  push	dword [ebp-1Ch]
  413ea3:	ff 75 dc                  push	dword [ebp-24h]
  413ea6:	ff 75 0c                  push	dword [ebp+0Ch]
  413ea9:	ff 75 08                  push	dword [ebp+08h]
  413eac:	ff 15 54 f2 44 00         call	dword [0044F254h]	; <LCMapStringW>
  413eb2:	85 c0                     test	eax, eax
  413eb4:	74 9c                     jz	413e52
  413eb6:	39 7d 1c                  cmp	[ebp+1Ch], edi
  413eb9:	57                        push	edi
  413eba:	57                        push	edi
  413ebb:	75 04                     jnz	413ec1
  413ebd:	57                        push	edi
  413ebe:	57                        push	edi
  413ebf:	eb 06                     jmp	413ec7
  413ec1:	ff 75 1c                 >push	dword [ebp+1Ch]
  413ec4:	ff 75 18                  push	dword [ebp+18h]
  413ec7:	56                       >push	esi
  413ec8:	53                        push	ebx
  413ec9:	68 20 02 00 00            push	dword 00000220h
  413ece:	ff 75 20                  push	dword [ebp+20h]
  413ed1:	ff 15 3c f4 44 00         call	dword [0044F43Ch]	; <WideCharToMultiByte>
  413ed7:	8b f0                     mov	esi, eax
  413ed9:	3b f7                     cmp	esi, edi
  413edb:	0f 84 71 ff ff ff         jz	413e52
  413ee1:	8b c6                    >mov	eax, esi
  413ee3:	e9 6c ff ff ff            jmp	413e54

413ee8 <no name>:
  413ee8:	8b 54 24 08               mov	edx, [esp+08h]
  413eec:	8b 44 24 04               mov	eax, [esp+04h]
  413ef0:	85 d2                     test	edx, edx
  413ef2:	56                        push	esi
  413ef3:	8d 4a ff                  lea	ecx, [edx-01h]
  413ef6:	74 0d                     jz	413f05
  413ef8:	80 38 00                 >cmp	byte [eax], 00h
  413efb:	74 08                     jz	413f05
  413efd:	40                        inc	eax
  413efe:	8b f1                     mov	esi, ecx
  413f00:	49                        dec	ecx
  413f01:	85 f6                     test	esi, esi
  413f03:	75 f3                     jnz	413ef8
  413f05:	80 38 00                 >cmp	byte [eax], 00h
  413f08:	5e                        pop	esi
  413f09:	75 05                     jnz	413f10
  413f0b:	2b 44 24 04               sub	eax, [esp+04h]
  413f0f:	c3                        ret
  413f10:	8b c2                    >mov	eax, edx
  413f12:	c3                        ret
     ...
  4140e0:	8d 42 ff                 >lea	eax, [edx-01h]
  4140e3:	5b                        pop	ebx
  4140e4:	c3                        ret
     ...

4140f0 <no name>:
  4140f0:	33 c0                     xor	eax, eax
  4140f2:	8a 44 24 08               mov	al, [esp+08h]
  4140f6:	53                       >push	ebx
  4140f7:	8b d8                     mov	ebx, eax
  4140f9:	c1 e0 08                  shl	eax, 08h
  4140fc:	8b 54 24 08               mov	edx, [esp+08h]
  414100:	f7 c2 03 00 00 00         test	edx, 00000003h
  414106:	74 13                     jz	41411b
  414108:	8a 0a                    >mov	cl, [edx]
  41410a:	42                        inc	edx
  41410b:	38 d9                     cmp	cl, bl
  41410d:	74 d1                     jz	4140e0
  41410f:	84 c9                     test	cl, cl
  414111:	74 51                     jz	414164
  414113:	f7 c2 03 00 00 00         test	edx, 00000003h
  414119:	75 ed                     jnz	414108
  41411b:	0b d8                    >or	ebx, eax
  41411d:	57                        push	edi
  41411e:	8b c3                     mov	eax, ebx
  414120:	c1 e3 10                  shl	ebx, 10h
  414123:	56                        push	esi
  414124:	0b d8                     or	ebx, eax
  414126:	8b 0a                    >mov	ecx, [edx]
  414128:	bf ff fe fe 7e            mov	edi, 7EFEFEFFh
  41412d:	8b c1                     mov	eax, ecx
  41412f:	8b f7                     mov	esi, edi
  414131:	33 cb                     xor	ecx, ebx
  414133:	03 f0                     add	esi, eax
  414135:	03 f9                     add	edi, ecx
  414137:	83 f1 ff                  xor	ecx, FFh
  41413a:	83 f0 ff                  xor	eax, FFh
  41413d:	33 cf                     xor	ecx, edi
  41413f:	33 c6                     xor	eax, esi
  414141:	83 c2 04                  add	edx, 04h
  414144:	81 e1 00 01 01 81         and	ecx, 81010100h
  41414a:	75 1c                     jnz	414168
  41414c:	25 00 01 01 81            and	eax, 81010100h
  414151:	74 d3                     jz	414126
  414153:	25 00 01 01 01            and	eax, 01010100h
  414158:	75 08                     jnz	414162
  41415a:	81 e6 00 00 00 80         and	esi, 80000000h
  414160:	75 c4                     jnz	414126
  414162:	5e                       >pop	esi
  414163:	5f                        pop	edi
  414164:	5b                       >pop	ebx
  414165:	33 c0                     xor	eax, eax
  414167:	c3                        ret
  414168:	8b 42 fc                 >mov	eax, [edx-04h]
  41416b:	38 d8                     cmp	al, bl
  41416d:	74 36                     jz	4141a5
  41416f:	84 c0                     test	al, al
  414171:	74 ef                     jz	414162
  414173:	38 dc                     cmp	ah, bl
  414175:	74 27                     jz	41419e
  414177:	84 e4                     test	ah, ah
  414179:	74 e7                     jz	414162
  41417b:	c1 e8 10                  shr	eax, 10h
  41417e:	38 d8                     cmp	al, bl
  414180:	74 15                     jz	414197
  414182:	84 c0                     test	al, al
  414184:	74 dc                     jz	414162
  414186:	38 dc                     cmp	ah, bl
  414188:	74 06                     jz	414190
  41418a:	84 e4                     test	ah, ah
  41418c:	74 d4                     jz	414162
  41418e:	eb 96                     jmp	414126
  414190:	5e                       >pop	esi
  414191:	5f                        pop	edi
  414192:	8d 42 ff                  lea	eax, [edx-01h]
  414195:	5b                        pop	ebx
  414196:	c3                        ret
  414197:	8d 42 fe                 >lea	eax, [edx-02h]
  41419a:	5e                        pop	esi
  41419b:	5f                        pop	edi
  41419c:	5b                        pop	ebx
  41419d:	c3                        ret
  41419e:	8d 42 fd                 >lea	eax, [edx-03h]
  4141a1:	5e                        pop	esi
  4141a2:	5f                        pop	edi
  4141a3:	5b                        pop	ebx
  4141a4:	c3                        ret
  4141a5:	8d 42 fc                 >lea	eax, [edx-04h]
  4141a8:	5e                        pop	esi
  4141a9:	5f                        pop	edi
  4141aa:	5b                        pop	ebx
  4141ab:	c3                        ret
     ...

414218 <no name>:
  414218:	53                        push	ebx
  414219:	33 db                     xor	ebx, ebx
  41421b:	39 1d 84 af 46 00         cmp	[0046AF84h], ebx
  414221:	75 13                     jnz	414236
  414223:	8b 44 24 08               mov	eax, [esp+08h]
  414227:	83 f8 61                  cmp	eax, 61h
  41422a:	7c 59                     jl	414285
  41422c:	83 f8 7a                  cmp	eax, 7Ah
  41422f:	7f 54                     jg	414285
  414231:	83 e8 20                  sub	eax, 20h
  414234:	5b                        pop	ebx
  414235:	c3                        ret
  414236:	56                       >push	esi
  414237:	be c8 c6 46 00            mov	esi, 0046C6C8h
  41423c:	57                        push	edi
  41423d:	56                        push	esi
  41423e:	ff 15 14 f4 44 00         call	dword [0044F414h]	; <InterlockedIncrement>
  414244:	39 1d c4 c6 46 00         cmp	[0046C6C4h], ebx
  41424a:	8b 3d 1c f4 44 00         mov	edi, [0044F41Ch]
  414250:	74 0e                     jz	414260
  414252:	56                        push	esi
  414253:	ff d7                     call	edi
  414255:	6a 13                     push	dword 00000013h
  414257:	e8 4b f9 ff ff            call	413ba7
  41425c:	59                        pop	ecx
  41425d:	6a 01                     push	dword 00000001h
  41425f:	5b                        pop	ebx
  414260:	ff 74 24 10              >push	dword [esp+10h]
  414264:	e8 1e 00 00 00            call	414287
  414269:	85 db                     test	ebx, ebx
  41426b:	59                        pop	ecx
  41426c:	89 44 24 10               mov	[esp+10h], eax
  414270:	74 0a                     jz	41427c
  414272:	6a 13                     push	dword 00000013h
  414274:	e8 8f f9 ff ff            call	413c08
  414279:	59                        pop	ecx
  41427a:	eb 03                     jmp	41427f
  41427c:	56                       >push	esi
  41427d:	ff d7                     call	edi
  41427f:	8b 44 24 10              >mov	eax, [esp+10h]
  414283:	5f                        pop	edi
  414284:	5e                        pop	esi
  414285:	5b                       >pop	ebx
  414286:	c3                        ret

414287 <no name>:
  414287:	55                        push	ebp
  414288:	8b ec                     mov	ebp, esp
  41428a:	51                        push	ecx
  41428b:	83 3d 84 af 46 00 00      cmp	dword [0046AF84h], 00h
  414292:	53                        push	ebx
  414293:	75 1d                     jnz	4142b2
  414295:	8b 45 08                  mov	eax, [ebp+08h]
  414298:	83 f8 61                  cmp	eax, 61h
  41429b:	0f 8c af 00 00 00         jl	414350
  4142a1:	83 f8 7a                  cmp	eax, 7Ah
  4142a4:	0f 8f a6 00 00 00         jg	414350
  4142aa:	83 e8 20                  sub	eax, 20h
  4142ad:	e9 9e 00 00 00            jmp	414350
  4142b2:	8b 5d 08                 >mov	ebx, [ebp+08h]
  4142b5:	81 fb 00 01 00 00         cmp	ebx, 00000100h
  4142bb:	7d 28                     jge	4142e5
  4142bd:	83 3d 9c 4f 46 00 01      cmp	dword [00464F9Ch], 01h
  4142c4:	7e 0c                     jle	4142d2
  4142c6:	6a 02                     push	dword 00000002h
  4142c8:	53                        push	ebx
  4142c9:	e8 85 00 00 00            call	414353
  4142ce:	59                        pop	ecx
  4142cf:	59                        pop	ecx
  4142d0:	eb 0b                     jmp	4142dd
  4142d2:	a1 90 4d 46 00           >mov	eax, [464D90h]
  4142d7:	8a 04 58                  mov	al, [eax+ebx*2]
  4142da:	83 e0 02                  and	eax, 02h
  4142dd:	85 c0                    >test	eax, eax
  4142df:	75 04                     jnz	4142e5
  4142e1:	8b c3                    >mov	eax, ebx
  4142e3:	eb 6b                     jmp	414350
  4142e5:	8b 15 90 4d 46 00        >mov	edx, [00464D90h]
  4142eb:	8b c3                     mov	eax, ebx
  4142ed:	c1 f8 08                  sar	eax, 08h
  4142f0:	0f b6 c8                  movzx	ecx, al
  4142f3:	f6 44 4a 01 80            test	byte [edx+ecx*2+01h], 80h
  4142f8:	74 0e                     jz	414308
  4142fa:	80 65 0a 00               and	byte [ebp+0Ah], 00h
  4142fe:	88 45 08                  mov	[ebp+08h], al
  414301:	88 5d 09                  mov	[ebp+09h], bl
  414304:	6a 02                     push	dword 00000002h
  414306:	eb 09                     jmp	414311
  414308:	80 65 09 00              >and	byte [ebp+09h], 00h
  41430c:	88 5d 08                  mov	[ebp+08h], bl
  41430f:	6a 01                     push	dword 00000001h
  414311:	58                       >pop	eax
  414312:	8d 4d fc                  lea	ecx, [ebp-04h]
  414315:	6a 01                     push	dword 00000001h
  414317:	6a 00                     push	dword 00000000h
  414319:	6a 03                     push	dword 00000003h
  41431b:	51                        push	ecx
  41431c:	50                        push	eax
  41431d:	8d 45 08                  lea	eax, [ebp+08h]
  414320:	50                        push	eax
  414321:	68 00 02 00 00            push	dword 00000200h
  414326:	ff 35 84 af 46 00         push	dword [0046AF84h]
  41432c:	e8 93 f9 ff ff            call	413cc4
  414331:	83 c4 20                  add	esp, 20h
  414334:	85 c0                     test	eax, eax
  414336:	74 a9                     jz	4142e1
  414338:	83 f8 01                  cmp	eax, 01h
  41433b:	75 06                     jnz	414343
  41433d:	0f b6 45 fc               movzx	eax, byte [ebp-04h]
  414341:	eb 0d                     jmp	414350
  414343:	0f b6 45 fd              >movzx	eax, byte [ebp-03h]
  414347:	0f b6 4d fc               movzx	ecx, byte [ebp-04h]
  41434b:	c1 e0 08                  shl	eax, 08h
  41434e:	0b c1                     or	eax, ecx
  414350:	5b                       >pop	ebx
  414351:	c9                        leave
  414352:	c3                        ret

414353 <no name>:
  414353:	55                        push	ebp
  414354:	8b ec                     mov	ebp, esp
  414356:	51                        push	ecx
  414357:	8b 45 08                  mov	eax, [ebp+08h]
  41435a:	8d 48 01                  lea	ecx, [eax+01h]
  41435d:	81 f9 00 01 00 00         cmp	ecx, 00000100h
  414363:	77 0c                     ja	414371
  414365:	8b 0d 90 4d 46 00         mov	ecx, [00464D90h]
  41436b:	0f b7 04 41               movzx	eax, word [ecx+eax*2]
  41436f:	eb 52                     jmp	4143c3
  414371:	8b c8                    >mov	ecx, eax
  414373:	56                        push	esi
  414374:	8b 35 90 4d 46 00         mov	esi, [00464D90h]
  41437a:	c1 f9 08                  sar	ecx, 08h
  41437d:	0f b6 d1                  movzx	edx, cl
  414380:	f6 44 56 01 80            test	byte [esi+edx*2+01h], 80h
  414385:	5e                        pop	esi
  414386:	74 0e                     jz	414396
  414388:	80 65 fe 00               and	byte [ebp-02h], 00h
  41438c:	88 4d fc                  mov	[ebp-04h], cl
  41438f:	88 45 fd                  mov	[ebp-03h], al
  414392:	6a 02                     push	dword 00000002h
  414394:	eb 09                     jmp	41439f
  414396:	80 65 fd 00              >and	byte [ebp-03h], 00h
  41439a:	88 45 fc                  mov	[ebp-04h], al
  41439d:	6a 01                     push	dword 00000001h
  41439f:	58                       >pop	eax
  4143a0:	8d 4d 0a                  lea	ecx, [ebp+0Ah]
  4143a3:	6a 01                     push	dword 00000001h
  4143a5:	6a 00                     push	dword 00000000h
  4143a7:	6a 00                     push	dword 00000000h
  4143a9:	51                        push	ecx
  4143aa:	50                        push	eax
  4143ab:	8d 45 fc                  lea	eax, [ebp-04h]
  4143ae:	50                        push	eax
  4143af:	6a 01                     push	dword 00000001h
  4143b1:	e8 22 36 00 00            call	4179d8
  4143b6:	83 c4 1c                  add	esp, 1Ch
  4143b9:	85 c0                     test	eax, eax
  4143bb:	75 02                     jnz	4143bf
  4143bd:	c9                        leave
  4143be:	c3                        ret
  4143bf:	0f b7 45 0a              >movzx	eax, word [ebp+0Ah]
  4143c3:	23 45 0c                 >and	eax, [ebp+0Ch]
  4143c6:	c9                        leave
  4143c7:	c3                        ret
     ...

414867 <no name>:
  414867:	56                        push	esi
  414868:	8b 74 24 08               mov	esi, [esp+08h]
  41486c:	6a 00                     push	dword 00000000h
  41486e:	83 26 00                  and	dword [esi], 00h
  414871:	ff 15 f8 f3 44 00         call	dword [0044F3F8h]	; <GetModuleHandleA>
  414877:	66 81 38 4d 5a            cmp	word [eax], 5A4Dh
  41487c:	75 14                     jnz	414892
  41487e:	8b 48 3c                  mov	ecx, [eax+3Ch]
  414881:	85 c9                     test	ecx, ecx
  414883:	74 0d                     jz	414892
  414885:	03 c1                     add	eax, ecx
  414887:	8a 48 1a                  mov	cl, [eax+1Ah]
  41488a:	88 0e                     mov	[esi], cl
  41488c:	8a 40 1b                  mov	al, [eax+1Bh]
  41488f:	88 46 01                  mov	[esi+01h], al
  414892:	5e                       >pop	esi
  414893:	c3                        ret

414894 <no name>:
  414894:	55                        push	ebp
  414895:	8b ec                     mov	ebp, esp
  414897:	b8 2c 12 00 00            mov	eax, 0000122Ch
  41489c:	e8 8f c4 ff ff            call	410d30
  4148a1:	8d 85 68 ff ff ff         lea	eax, [ebp-00000098h]
  4148a7:	53                        push	ebx
  4148a8:	50                        push	eax
  4148a9:	c7 85 68 ff ff ff 94      mov	dword [ebp-00000098h], 00000094h
		00 00 00 
  4148b3:	ff 15 4c f4 44 00         call	dword [0044F44Ch]	; <GetVersionExA>
  4148b9:	85 c0                     test	eax, eax
  4148bb:	74 1a                     jz	4148d7
  4148bd:	83 bd 78 ff ff ff 02      cmp	dword [ebp-00000088h], 02h
  4148c4:	75 11                     jnz	4148d7
  4148c6:	83 bd 6c ff ff ff 05      cmp	dword [ebp-00000094h], 05h
  4148cd:	72 08                     jb	4148d7
  4148cf:	6a 01                     push	dword 00000001h
  4148d1:	58                        pop	eax
  4148d2:	e9 02 01 00 00            jmp	4149d9
  4148d7:	8d 85 d4 ed ff ff        >lea	eax, [ebp-0000122Ch]
  4148dd:	68 90 10 00 00            push	dword 00001090h
  4148e2:	50                        push	eax
  4148e3:	68 f8 44 45 00            push	dword 004544F8h
  4148e8:	ff 15 5c f2 44 00         call	dword [0044F25Ch]	; <GetEnvironmentVariableA>
  4148ee:	85 c0                     test	eax, eax
  4148f0:	0f 84 d0 00 00 00         jz	4149c6
  4148f6:	33 db                     xor	ebx, ebx
  4148f8:	8d 8d d4 ed ff ff         lea	ecx, [ebp-0000122Ch]
  4148fe:	38 9d d4 ed ff ff         cmp	[ebp-0000122Ch], bl
  414904:	74 13                     jz	414919
  414906:	8a 01                    >mov	al, [ecx]
  414908:	3c 61                     cmp	al, 61h
  41490a:	7c 08                     jl	414914
  41490c:	3c 7a                     cmp	al, 7Ah
  41490e:	7f 04                     jg	414914
  414910:	2c 20                     sub	al, 20h
  414912:	88 01                     mov	[ecx], al
  414914:	41                       >inc	ecx
  414915:	38 19                     cmp	[ecx], bl
  414917:	75 ed                     jnz	414906
  414919:	8d 85 d4 ed ff ff        >lea	eax, [ebp-0000122Ch]
  41491f:	6a 16                     push	dword 00000016h
  414921:	50                        push	eax
  414922:	68 e0 44 45 00            push	dword 004544E0h
  414927:	e8 74 30 00 00            call	4179a0
  41492c:	83 c4 0c                  add	esp, 0Ch
  41492f:	85 c0                     test	eax, eax
  414931:	75 08                     jnz	41493b
  414933:	8d 85 d4 ed ff ff         lea	eax, [ebp-0000122Ch]
  414939:	eb 49                     jmp	414984
  41493b:	8d 85 64 fe ff ff        >lea	eax, [ebp-0000019Ch]
  414941:	68 04 01 00 00            push	dword 00000104h
  414946:	50                        push	eax
  414947:	53                        push	ebx
  414948:	ff 15 68 f3 44 00         call	dword [0044F368h]	; <GetModuleFileNameA>
  41494e:	38 9d 64 fe ff ff         cmp	[ebp-0000019Ch], bl
  414954:	8d 8d 64 fe ff ff         lea	ecx, [ebp-0000019Ch]
  41495a:	74 13                     jz	41496f
  41495c:	8a 01                    >mov	al, [ecx]
  41495e:	3c 61                     cmp	al, 61h
  414960:	7c 08                     jl	41496a
  414962:	3c 7a                     cmp	al, 7Ah
  414964:	7f 04                     jg	41496a
  414966:	2c 20                     sub	al, 20h
  414968:	88 01                     mov	[ecx], al
  41496a:	41                       >inc	ecx
  41496b:	38 19                     cmp	[ecx], bl
  41496d:	75 ed                     jnz	41495c
  41496f:	8d 85 64 fe ff ff        >lea	eax, [ebp-0000019Ch]
  414975:	50                        push	eax
  414976:	8d 85 d4 ed ff ff         lea	eax, [ebp-0000122Ch]
  41497c:	50                        push	eax
  41497d:	e8 3e b2 ff ff            call	40fbc0
  414982:	59                        pop	ecx
  414983:	59                        pop	ecx
  414984:	3b c3                    >cmp	eax, ebx
  414986:	74 3e                     jz	4149c6
  414988:	6a 2c                     push	dword 0000002Ch
  41498a:	50                        push	eax
  41498b:	e8 60 f7 ff ff            call	4140f0
  414990:	59                        pop	ecx
  414991:	3b c3                     cmp	eax, ebx
  414993:	59                        pop	ecx
  414994:	74 30                     jz	4149c6
  414996:	40                        inc	eax
  414997:	8b c8                     mov	ecx, eax
  414999:	38 18                     cmp	[eax], bl
  41499b:	74 0e                     jz	4149ab
  41499d:	80 39 3b                 >cmp	byte [ecx], 3Bh
  4149a0:	75 04                     jnz	4149a6
  4149a2:	88 19                     mov	[ecx], bl
  4149a4:	eb 01                     jmp	4149a7
  4149a6:	41                       >inc	ecx
  4149a7:	38 19                    >cmp	[ecx], bl
  4149a9:	75 f2                     jnz	41499d
  4149ab:	6a 0a                    >push	dword 0000000Ah
  4149ad:	53                        push	ebx
  4149ae:	50                        push	eax
  4149af:	e8 f0 b5 ff ff            call	40ffa4
  4149b4:	83 c4 0c                  add	esp, 0Ch
  4149b7:	83 f8 02                  cmp	eax, 02h
  4149ba:	74 1d                     jz	4149d9
  4149bc:	83 f8 03                  cmp	eax, 03h
  4149bf:	74 18                     jz	4149d9
  4149c1:	83 f8 01                  cmp	eax, 01h
  4149c4:	74 13                     jz	4149d9
  4149c6:	8d 45 fc                 >lea	eax, [ebp-04h]
  4149c9:	50                        push	eax
  4149ca:	e8 98 fe ff ff            call	414867
  4149cf:	80 7d fc 06               cmp	byte [ebp-04h], 06h
  4149d3:	59                        pop	ecx
  4149d4:	1b c0                     sbb	eax, eax
  4149d6:	83 c0 03                  add	eax, 03h
  4149d9:	5b                       >pop	ebx
  4149da:	c9                        leave
  4149db:	c3                        ret

4149dc <no name>:
  4149dc:	33 c0                     xor	eax, eax
  4149de:	6a 00                     push	dword 00000000h
  4149e0:	39 44 24 08               cmp	[esp+08h], eax
  4149e4:	68 00 10 00 00            push	dword 00001000h
  4149e9:	0f 94 c0                  setz	al
  4149ec:	50                        push	eax
  4149ed:	ff 15 b0 f3 44 00         call	dword [0044F3B0h]	; <HeapCreate>
  4149f3:	85 c0                     test	eax, eax
  4149f5:	a3 04 c8 46 00            mov	[46C804h], eax
  4149fa:	74 36                     jz	414a32
  4149fc:	e8 93 fe ff ff            call	414894
  414a01:	83 f8 03                  cmp	eax, 03h
  414a04:	a3 08 c8 46 00            mov	[46C808h], eax
  414a09:	75 0d                     jnz	414a18
  414a0b:	68 f8 03 00 00            push	dword 000003F8h
  414a10:	e8 9e 01 00 00            call	414bb3
  414a15:	59                        pop	ecx
  414a16:	eb 0a                     jmp	414a22
  414a18:	83 f8 02                 >cmp	eax, 02h
  414a1b:	75 18                     jnz	414a35
  414a1d:	e8 fa 10 00 00            call	415b1c
  414a22:	85 c0                    >test	eax, eax
  414a24:	75 0f                     jnz	414a35
  414a26:	ff 35 04 c8 46 00         push	dword [0046C804h]
  414a2c:	ff 15 60 f3 44 00         call	dword [0044F360h]	; <HeapDestroy>
  414a32:	33 c0                    >xor	eax, eax
  414a34:	c3                        ret
  414a35:	6a 01                    >push	dword 00000001h
  414a37:	58                        pop	eax
  414a38:	c3                        ret
     ...

414bb3 <no name>:
  414bb3:	68 40 01 00 00            push	dword 00000140h
  414bb8:	6a 00                     push	dword 00000000h
  414bba:	ff 35 04 c8 46 00         push	dword [0046C804h]
  414bc0:	ff 15 24 f2 44 00         call	dword [0044F224h]	; <HeapAlloc>
  414bc6:	85 c0                     test	eax, eax
  414bc8:	a3 fc c7 46 00            mov	[46C7FCh], eax
  414bcd:	75 01                     jnz	414bd0
  414bcf:	c3                        ret
  414bd0:	8b 4c 24 04              >mov	ecx, [esp+04h]
  414bd4:	83 25 f4 c7 46 00 00      and	dword [0046C7F4h], 00h
  414bdb:	83 25 f8 c7 46 00 00      and	dword [0046C7F8h], 00h
  414be2:	6a 01                     push	dword 00000001h
  414be4:	a3 ec c7 46 00            mov	[46C7ECh], eax
  414be9:	89 0d 00 c8 46 00         mov	[0046C800h], ecx
  414bef:	c7 05 e4 c7 46 00 10      mov	dword [0046C7E4h], 00000010h
		00 00 00 
  414bf9:	58                        pop	eax
  414bfa:	c3                        ret

414bfb <no name>:
  414bfb:	a1 f8 c7 46 00            mov	eax, [46C7F8h]
  414c00:	8d 0c 80                  lea	ecx, [eax+eax*4]
  414c03:	a1 fc c7 46 00            mov	eax, [46C7FCh]
  414c08:	8d 0c 88                  lea	ecx, [eax+ecx*4]
  414c0b:	3b c1                    >cmp	eax, ecx
  414c0d:	73 14                     jae	414c23
  414c0f:	8b 54 24 04               mov	edx, [esp+04h]
  414c13:	2b 50 0c                  sub	edx, [eax+0Ch]
  414c16:	81 fa 00 00 10 00         cmp	edx, 00100000h
  414c1c:	72 07                     jb	414c25
  414c1e:	83 c0 14                  add	eax, 14h
  414c21:	eb e8                     jmp	414c0b
  414c23:	33 c0                    >xor	eax, eax
  414c25:	c3                       >ret

414c26 <no name>:
  414c26:	55                        push	ebp
  414c27:	8b ec                     mov	ebp, esp
  414c29:	83 ec 10                  sub	esp, 10h
  414c2c:	8b 4d 08                  mov	ecx, [ebp+08h]
  414c2f:	53                        push	ebx
  414c30:	56                        push	esi
  414c31:	8b 75 0c                  mov	esi, [ebp+0Ch]
  414c34:	8b 41 10                  mov	eax, [ecx+10h]
  414c37:	57                        push	edi
  414c38:	8b fe                     mov	edi, esi
  414c3a:	83 c6 fc                  add	esi, FCh
  414c3d:	2b 79 0c                  sub	edi, [ecx+0Ch]
  414c40:	c1 ef 0f                  shr	edi, 0Fh
  414c43:	8b cf                     mov	ecx, edi
  414c45:	69 c9 04 02 00 00         imul	ecx, ecx, 00000204h
  414c4b:	8d 8c 01 44 01 00 00      lea	ecx, [ecx+eax*1+00000144h]
  414c52:	89 4d f0                  mov	[ebp-10h], ecx
  414c55:	8b 0e                     mov	ecx, [esi]
  414c57:	49                        dec	ecx
  414c58:	f6 c1 01                  test	cl, 01h
  414c5b:	89 4d fc                  mov	[ebp-04h], ecx
  414c5e:	0f 85 e6 02 00 00         jnz	414f4a
  414c64:	8b 14 31                  mov	edx, [ecx+esi*1]
  414c67:	8d 1c 31                  lea	ebx, [ecx+esi*1]
  414c6a:	89 55 f4                  mov	[ebp-0Ch], edx
  414c6d:	8b 56 fc                  mov	edx, [esi-04h]
  414c70:	89 55 f8                  mov	[ebp-08h], edx
  414c73:	8b 55 f4                  mov	edx, [ebp-0Ch]
  414c76:	f6 c2 01                  test	dl, 01h
  414c79:	89 5d 0c                  mov	[ebp+0Ch], ebx
  414c7c:	75 7e                     jnz	414cfc
  414c7e:	c1 fa 04                  sar	edx, 04h
  414c81:	4a                        dec	edx
  414c82:	83 fa 3f                  cmp	edx, 3Fh
  414c85:	76 03                     jbe	414c8a
  414c87:	6a 3f                     push	dword 0000003Fh
  414c89:	5a                        pop	edx
  414c8a:	8b 4b 04                 >mov	ecx, [ebx+04h]
  414c8d:	3b 4b 08                  cmp	ecx, [ebx+08h]
  414c90:	75 4c                     jnz	414cde
  414c92:	83 fa 20                  cmp	edx, 20h
  414c95:	73 1e                     jae	414cb5
  414c97:	bb 00 00 00 80            mov	ebx, 80000000h
  414c9c:	8b ca                     mov	ecx, edx
  414c9e:	d3 eb                     shr	ebx, cl
  414ca0:	8d 4c 02 04               lea	ecx, [edx+eax*1+04h]
  414ca4:	f7 d3                     not	ebx
  414ca6:	21 5c b8 44               and	[eax+edi*4+44h], ebx
  414caa:	fe 09                     dec	byte [ecx]
  414cac:	75 28                     jnz	414cd6
  414cae:	8b 4d 08                  mov	ecx, [ebp+08h]
  414cb1:	21 19                     and	[ecx], ebx
  414cb3:	eb 21                     jmp	414cd6
  414cb5:	8d 4a e0                 >lea	ecx, [edx-20h]
  414cb8:	bb 00 00 00 80            mov	ebx, 80000000h
  414cbd:	d3 eb                     shr	ebx, cl
  414cbf:	8d 4c 02 04               lea	ecx, [edx+eax*1+04h]
  414cc3:	f7 d3                     not	ebx
  414cc5:	21 9c b8 c4 00 00 00      and	[eax+edi*4+000000C4h], ebx
  414ccc:	fe 09                     dec	byte [ecx]
  414cce:	75 06                     jnz	414cd6
  414cd0:	8b 4d 08                  mov	ecx, [ebp+08h]
  414cd3:	21 59 04                  and	[ecx+04h], ebx
  414cd6:	8b 4d fc                 >mov	ecx, [ebp-04h]
  414cd9:	8b 5d 0c                  mov	ebx, [ebp+0Ch]
  414cdc:	eb 03                     jmp	414ce1
  414cde:	8b 4d fc                 >mov	ecx, [ebp-04h]
  414ce1:	8b 53 08                 >mov	edx, [ebx+08h]
  414ce4:	8b 5b 04                  mov	ebx, [ebx+04h]
  414ce7:	03 4d f4                  add	ecx, [ebp-0Ch]
  414cea:	89 5a 04                  mov	[edx+04h], ebx
  414ced:	8b 55 0c                  mov	edx, [ebp+0Ch]
  414cf0:	89 4d fc                  mov	[ebp-04h], ecx
  414cf3:	8b 5a 04                  mov	ebx, [edx+04h]
  414cf6:	8b 52 08                  mov	edx, [edx+08h]
  414cf9:	89 53 08                  mov	[ebx+08h], edx
  414cfc:	8b d1                    >mov	edx, ecx
  414cfe:	c1 fa 04                  sar	edx, 04h
  414d01:	4a                        dec	edx
  414d02:	83 fa 3f                  cmp	edx, 3Fh
  414d05:	76 03                     jbe	414d0a
  414d07:	6a 3f                     push	dword 0000003Fh
  414d09:	5a                        pop	edx
  414d0a:	8b 5d f8                 >mov	ebx, [ebp-08h]
  414d0d:	83 e3 01                  and	ebx, 01h
  414d10:	89 5d f4                  mov	[ebp-0Ch], ebx
  414d13:	0f 85 94 00 00 00         jnz	414dad
  414d19:	2b 75 f8                  sub	esi, [ebp-08h]
  414d1c:	8b 5d f8                  mov	ebx, [ebp-08h]
  414d1f:	c1 fb 04                  sar	ebx, 04h
  414d22:	6a 3f                     push	dword 0000003Fh
  414d24:	89 75 0c                  mov	[ebp+0Ch], esi
  414d27:	4b                        dec	ebx
  414d28:	5e                        pop	esi
  414d29:	3b de                     cmp	ebx, esi
  414d2b:	76 02                     jbe	414d2f
  414d2d:	8b de                     mov	ebx, esi
  414d2f:	03 4d f8                 >add	ecx, [ebp-08h]
  414d32:	8b d1                     mov	edx, ecx
  414d34:	89 4d fc                  mov	[ebp-04h], ecx
  414d37:	c1 fa 04                  sar	edx, 04h
  414d3a:	4a                        dec	edx
  414d3b:	3b d6                     cmp	edx, esi
  414d3d:	76 02                     jbe	414d41
  414d3f:	8b d6                     mov	edx, esi
  414d41:	3b da                    >cmp	ebx, edx
  414d43:	74 63                     jz	414da8
  414d45:	8b 4d 0c                  mov	ecx, [ebp+0Ch]
  414d48:	8b 71 04                  mov	esi, [ecx+04h]
  414d4b:	3b 71 08                  cmp	esi, [ecx+08h]
  414d4e:	75 40                     jnz	414d90
  414d50:	83 fb 20                  cmp	ebx, 20h
  414d53:	73 1c                     jae	414d71
  414d55:	be 00 00 00 80            mov	esi, 80000000h
  414d5a:	8b cb                     mov	ecx, ebx
  414d5c:	d3 ee                     shr	esi, cl
  414d5e:	f7 d6                     not	esi
  414d60:	21 74 b8 44               and	[eax+edi*4+44h], esi
  414d64:	fe 4c 03 04               dec	byte [ebx+eax*1+04h]
  414d68:	75 26                     jnz	414d90
  414d6a:	8b 4d 08                  mov	ecx, [ebp+08h]
  414d6d:	21 31                     and	[ecx], esi
  414d6f:	eb 1f                     jmp	414d90
  414d71:	8d 4b e0                 >lea	ecx, [ebx-20h]
  414d74:	be 00 00 00 80            mov	esi, 80000000h
  414d79:	d3 ee                     shr	esi, cl
  414d7b:	f7 d6                     not	esi
  414d7d:	21 b4 b8 c4 00 00 00      and	[eax+edi*4+000000C4h], esi
  414d84:	fe 4c 03 04               dec	byte [ebx+eax*1+04h]
  414d88:	75 06                     jnz	414d90
  414d8a:	8b 4d 08                  mov	ecx, [ebp+08h]
  414d8d:	21 71 04                  and	[ecx+04h], esi
  414d90:	8b 4d 0c                 >mov	ecx, [ebp+0Ch]
  414d93:	8b 71 08                  mov	esi, [ecx+08h]
  414d96:	8b 49 04                  mov	ecx, [ecx+04h]
  414d99:	89 4e 04                  mov	[esi+04h], ecx
  414d9c:	8b 4d 0c                  mov	ecx, [ebp+0Ch]
  414d9f:	8b 71 04                  mov	esi, [ecx+04h]
  414da2:	8b 49 08                  mov	ecx, [ecx+08h]
  414da5:	89 4e 08                  mov	[esi+08h], ecx
  414da8:	8b 75 0c                 >mov	esi, [ebp+0Ch]
  414dab:	eb 03                     jmp	414db0
  414dad:	8b 5d 08                 >mov	ebx, [ebp+08h]
  414db0:	83 7d f4 00              >cmp	dword [ebp-0Ch], 00h
  414db4:	75 08                     jnz	414dbe
  414db6:	3b da                     cmp	ebx, edx
  414db8:	0f 84 81 00 00 00         jz	414e3f
  414dbe:	8b 4d f0                 >mov	ecx, [ebp-10h]
  414dc1:	8b 5c d1 04               mov	ebx, [ecx+edx*8+04h]
  414dc5:	8d 0c d1                  lea	ecx, [ecx+edx*8]
  414dc8:	89 5e 04                  mov	[esi+04h], ebx
  414dcb:	89 4e 08                  mov	[esi+08h], ecx
  414dce:	89 71 04                  mov	[ecx+04h], esi
  414dd1:	8b 4e 04                  mov	ecx, [esi+04h]
  414dd4:	89 71 08                  mov	[ecx+08h], esi
  414dd7:	8b 4e 04                  mov	ecx, [esi+04h]
  414dda:	3b 4e 08                  cmp	ecx, [esi+08h]
  414ddd:	75 60                     jnz	414e3f
  414ddf:	8a 4c 02 04               mov	cl, [edx+eax*1+04h]
  414de3:	83 fa 20                  cmp	edx, 20h
  414de6:	88 4d 0f                  mov	[ebp+0Fh], cl
  414de9:	fe c1                     inc	cl
  414deb:	88 4c 02 04               mov	[edx+eax*1+04h], cl
  414def:	73 25                     jae	414e16
  414df1:	80 7d 0f 00               cmp	byte [ebp+0Fh], 00h
  414df5:	75 0e                     jnz	414e05
  414df7:	bb 00 00 00 80            mov	ebx, 80000000h
  414dfc:	8b ca                     mov	ecx, edx
  414dfe:	d3 eb                     shr	ebx, cl
  414e00:	8b 4d 08                  mov	ecx, [ebp+08h]
  414e03:	09 19                     or	[ecx], ebx
  414e05:	bb 00 00 00 80           >mov	ebx, 80000000h
  414e0a:	8b ca                     mov	ecx, edx
  414e0c:	d3 eb                     shr	ebx, cl
  414e0e:	8d 44 b8 44               lea	eax, [eax+edi*4+44h]
  414e12:	09 18                     or	[eax], ebx
  414e14:	eb 29                     jmp	414e3f
  414e16:	80 7d 0f 00              >cmp	byte [ebp+0Fh], 00h
  414e1a:	75 10                     jnz	414e2c
  414e1c:	8d 4a e0                  lea	ecx, [edx-20h]
  414e1f:	bb 00 00 00 80            mov	ebx, 80000000h
  414e24:	d3 eb                     shr	ebx, cl
  414e26:	8b 4d 08                  mov	ecx, [ebp+08h]
  414e29:	09 59 04                  or	[ecx+04h], ebx
  414e2c:	8d 4a e0                 >lea	ecx, [edx-20h]
  414e2f:	ba 00 00 00 80            mov	edx, 80000000h
  414e34:	d3 ea                     shr	edx, cl
  414e36:	8d 84 b8 c4 00 00 00      lea	eax, [eax+edi*4+000000C4h]
  414e3d:	09 10                     or	[eax], edx
  414e3f:	8b 45 fc                 >mov	eax, [ebp-04h]
  414e42:	89 06                     mov	[esi], eax
  414e44:	89 44 30 fc               mov	[eax+esi*1-04h], eax
  414e48:	8b 45 f0                  mov	eax, [ebp-10h]
  414e4b:	ff 08                     dec	dword [eax]
  414e4d:	0f 85 f7 00 00 00         jnz	414f4a
  414e53:	a1 f4 c7 46 00            mov	eax, [46C7F4h]
  414e58:	85 c0                     test	eax, eax
  414e5a:	0f 84 dc 00 00 00         jz	414f3c
  414e60:	8b 0d e8 c7 46 00         mov	ecx, [0046C7E8h]
  414e66:	8b 35 b4 f3 44 00         mov	esi, [0044F3B4h]
  414e6c:	c1 e1 0f                  shl	ecx, 0Fh
  414e6f:	03 48 0c                  add	ecx, [eax+0Ch]
  414e72:	bb 00 80 00 00            mov	ebx, 00008000h
  414e77:	68 00 40 00 00            push	dword 00004000h
  414e7c:	53                        push	ebx
  414e7d:	51                        push	ecx
  414e7e:	ff d6                     call	esi
  414e80:	8b 0d e8 c7 46 00         mov	ecx, [0046C7E8h]
  414e86:	a1 f4 c7 46 00            mov	eax, [46C7F4h]
  414e8b:	ba 00 00 00 80            mov	edx, 80000000h
  414e90:	d3 ea                     shr	edx, cl
  414e92:	09 50 08                  or	[eax+08h], edx
  414e95:	a1 f4 c7 46 00            mov	eax, [46C7F4h]
  414e9a:	8b 0d e8 c7 46 00         mov	ecx, [0046C7E8h]
  414ea0:	8b 40 10                  mov	eax, [eax+10h]
  414ea3:	83 a4 88 c4 00 00 00      and	dword [eax+ecx*4+000000C4h], 00h
		00 
  414eab:	a1 f4 c7 46 00            mov	eax, [46C7F4h]
  414eb0:	8b 40 10                  mov	eax, [eax+10h]
  414eb3:	fe 48 43                  dec	byte [eax+43h]
  414eb6:	a1 f4 c7 46 00            mov	eax, [46C7F4h]
  414ebb:	8b 48 10                  mov	ecx, [eax+10h]
  414ebe:	80 79 43 00               cmp	byte [ecx+43h], 00h
  414ec2:	75 09                     jnz	414ecd
  414ec4:	83 60 04 fe               and	dword [eax+04h], FEh
  414ec8:	a1 f4 c7 46 00            mov	eax, [46C7F4h]
  414ecd:	83 78 08 ff              >cmp	dword [eax+08h], FFh
  414ed1:	75 69                     jnz	414f3c
  414ed3:	53                        push	ebx
  414ed4:	6a 00                     push	dword 00000000h
  414ed6:	ff 70 0c                  push	dword [eax+0Ch]
  414ed9:	ff d6                     call	esi
  414edb:	a1 f4 c7 46 00            mov	eax, [46C7F4h]
  414ee0:	ff 70 10                  push	dword [eax+10h]
  414ee3:	6a 00                     push	dword 00000000h
  414ee5:	ff 35 04 c8 46 00         push	dword [0046C804h]
  414eeb:	ff 15 14 f2 44 00         call	dword [0044F214h]	; <HeapFree>
  414ef1:	a1 f8 c7 46 00            mov	eax, [46C7F8h]
  414ef6:	8b 15 fc c7 46 00         mov	edx, [0046C7FCh]
  414efc:	8d 04 80                  lea	eax, [eax+eax*4]
  414eff:	c1 e0 02                  shl	eax, 02h
  414f02:	8b c8                     mov	ecx, eax
  414f04:	a1 f4 c7 46 00            mov	eax, [46C7F4h]
  414f09:	2b c8                     sub	ecx, eax
  414f0b:	8d 4c 11 ec               lea	ecx, [ecx+edx*1-14h]
  414f0f:	51                        push	ecx
  414f10:	8d 48 14                  lea	ecx, [eax+14h]
  414f13:	51                        push	ecx
  414f14:	50                        push	eax
  414f15:	e8 86 a4 ff ff            call	40f3a0
  414f1a:	8b 45 08                  mov	eax, [ebp+08h]
  414f1d:	83 c4 0c                  add	esp, 0Ch
  414f20:	ff 0d f8 c7 46 00         dec	dword [0046C7F8h]
  414f26:	3b 05 f4 c7 46 00         cmp	eax, [0046C7F4h]
  414f2c:	76 04                     jbe	414f32
  414f2e:	83 6d 08 14               sub	dword [ebp+08h], 14h
  414f32:	a1 fc c7 46 00           >mov	eax, [46C7FCh]
  414f37:	a3 ec c7 46 00            mov	[46C7ECh], eax
  414f3c:	8b 45 08                 >mov	eax, [ebp+08h]
  414f3f:	89 3d e8 c7 46 00         mov	[0046C7E8h], edi
  414f45:	a3 f4 c7 46 00            mov	[46C7F4h], eax
  414f4a:	5f                       >pop	edi
  414f4b:	5e                        pop	esi
  414f4c:	5b                        pop	ebx
  414f4d:	c9                        leave
  414f4e:	c3                        ret

414f4f <no name>:
  414f4f:	55                        push	ebp
  414f50:	8b ec                     mov	ebp, esp
  414f52:	83 ec 14                  sub	esp, 14h
  414f55:	a1 f8 c7 46 00            mov	eax, [46C7F8h]
  414f5a:	8b 15 fc c7 46 00         mov	edx, [0046C7FCh]
  414f60:	53                        push	ebx
  414f61:	56                        push	esi
  414f62:	8d 04 80                  lea	eax, [eax+eax*4]
  414f65:	57                        push	edi
  414f66:	8d 3c 82                  lea	edi, [edx+eax*4]
  414f69:	8b 45 08                  mov	eax, [ebp+08h]
  414f6c:	89 7d fc                  mov	[ebp-04h], edi
  414f6f:	8d 48 17                  lea	ecx, [eax+17h]
  414f72:	83 e1 f0                  and	ecx, F0h
  414f75:	89 4d f0                  mov	[ebp-10h], ecx
  414f78:	c1 f9 04                  sar	ecx, 04h
  414f7b:	49                        dec	ecx
  414f7c:	83 f9 20                  cmp	ecx, 20h
  414f7f:	7d 0e                     jge	414f8f
  414f81:	83 ce ff                  or	esi, FFh
  414f84:	d3 ee                     shr	esi, cl
  414f86:	83 4d f8 ff               or	dword [ebp-08h], FFh
  414f8a:	89 75 f4                  mov	[ebp-0Ch], esi
  414f8d:	eb 10                     jmp	414f9f
  414f8f:	83 c1 e0                 >add	ecx, E0h
  414f92:	83 c8 ff                  or	eax, FFh
  414f95:	33 f6                     xor	esi, esi
  414f97:	d3 e8                     shr	eax, cl
  414f99:	89 75 f4                  mov	[ebp-0Ch], esi
  414f9c:	89 45 f8                  mov	[ebp-08h], eax
  414f9f:	a1 ec c7 46 00           >mov	eax, [46C7ECh]
  414fa4:	8b d8                     mov	ebx, eax
  414fa6:	3b df                     cmp	ebx, edi
  414fa8:	89 5d 08                  mov	[ebp+08h], ebx
  414fab:	73 19                     jae	414fc6
  414fad:	8b 4b 04                 >mov	ecx, [ebx+04h]
  414fb0:	8b 3b                     mov	edi, [ebx]
  414fb2:	23 4d f8                  and	ecx, [ebp-08h]
  414fb5:	23 fe                     and	edi, esi
  414fb7:	0b cf                     or	ecx, edi
  414fb9:	75 0b                     jnz	414fc6
  414fbb:	83 c3 14                  add	ebx, 14h
  414fbe:	3b 5d fc                  cmp	ebx, [ebp-04h]
  414fc1:	89 5d 08                  mov	[ebp+08h], ebx
  414fc4:	72 e7                     jb	414fad
  414fc6:	3b 5d fc                 >cmp	ebx, [ebp-04h]
  414fc9:	75 79                     jnz	415044
  414fcb:	8b da                     mov	ebx, edx
  414fcd:	3b d8                    >cmp	ebx, eax
  414fcf:	89 5d 08                  mov	[ebp+08h], ebx
  414fd2:	73 15                     jae	414fe9
  414fd4:	8b 4b 04                  mov	ecx, [ebx+04h]
  414fd7:	8b 3b                     mov	edi, [ebx]
  414fd9:	23 4d f8                  and	ecx, [ebp-08h]
  414fdc:	23 fe                     and	edi, esi
  414fde:	0b cf                     or	ecx, edi
  414fe0:	75 05                     jnz	414fe7
  414fe2:	83 c3 14                  add	ebx, 14h
  414fe5:	eb e6                     jmp	414fcd
  414fe7:	3b d8                    >cmp	ebx, eax
  414fe9:	75 59                    >jnz	415044
  414feb:	3b 5d fc                 >cmp	ebx, [ebp-04h]
  414fee:	73 11                     jae	415001
  414ff0:	83 7b 08 00               cmp	dword [ebx+08h], 00h
  414ff4:	75 08                     jnz	414ffe
  414ff6:	83 c3 14                  add	ebx, 14h
  414ff9:	89 5d 08                  mov	[ebp+08h], ebx
  414ffc:	eb ed                     jmp	414feb
  414ffe:	3b 5d fc                 >cmp	ebx, [ebp-04h]
  415001:	75 26                    >jnz	415029
  415003:	8b da                     mov	ebx, edx
  415005:	3b d8                    >cmp	ebx, eax
  415007:	89 5d 08                  mov	[ebp+08h], ebx
  41500a:	73 0d                     jae	415019
  41500c:	83 7b 08 00               cmp	dword [ebx+08h], 00h
  415010:	75 05                     jnz	415017
  415012:	83 c3 14                  add	ebx, 14h
  415015:	eb ee                     jmp	415005
  415017:	3b d8                    >cmp	ebx, eax
  415019:	75 0e                    >jnz	415029
  41501b:	e8 38 02 00 00            call	415258
  415020:	8b d8                     mov	ebx, eax
  415022:	85 db                     test	ebx, ebx
  415024:	89 5d 08                  mov	[ebp+08h], ebx
  415027:	74 14                     jz	41503d
  415029:	53                       >push	ebx
  41502a:	e8 da 02 00 00            call	415309
  41502f:	59                        pop	ecx
  415030:	8b 4b 10                  mov	ecx, [ebx+10h]
  415033:	89 01                     mov	[ecx], eax
  415035:	8b 43 10                  mov	eax, [ebx+10h]
  415038:	83 38 ff                  cmp	dword [eax], FFh
  41503b:	75 07                     jnz	415044
  41503d:	33 c0                    >xor	eax, eax
  41503f:	e9 0f 02 00 00            jmp	415253
  415044:	89 1d ec c7 46 00        >mov	[0046C7ECh], ebx
  41504a:	8b 43 10                  mov	eax, [ebx+10h]
  41504d:	8b 10                     mov	edx, [eax]
  41504f:	83 fa ff                  cmp	edx, FFh
  415052:	89 55 fc                  mov	[ebp-04h], edx
  415055:	74 14                     jz	41506b
  415057:	8b 8c 90 c4 00 00 00      mov	ecx, [eax+edx*4+000000C4h]
  41505e:	8b 7c 90 44               mov	edi, [eax+edx*4+44h]
  415062:	23 4d f8                  and	ecx, [ebp-08h]
  415065:	23 fe                     and	edi, esi
  415067:	0b cf                     or	ecx, edi
  415069:	75 37                     jnz	4150a2
  41506b:	8b 90 c4 00 00 00        >mov	edx, [eax+000000C4h]
  415071:	8b 70 44                  mov	esi, [eax+44h]
  415074:	23 55 f8                  and	edx, [ebp-08h]
  415077:	23 75 f4                  and	esi, [ebp-0Ch]
  41507a:	83 65 fc 00               and	dword [ebp-04h], 00h
  41507e:	8d 48 44                  lea	ecx, [eax+44h]
  415081:	0b d6                     or	edx, esi
  415083:	8b 75 f4                  mov	esi, [ebp-0Ch]
  415086:	75 17                     jnz	41509f
  415088:	8b 91 84 00 00 00        >mov	edx, [ecx+00000084h]
  41508e:	ff 45 fc                  inc	dword [ebp-04h]
  415091:	23 55 f8                  and	edx, [ebp-08h]
  415094:	83 c1 04                  add	ecx, 04h
  415097:	8b fe                     mov	edi, esi
  415099:	23 39                     and	edi, [ecx]
  41509b:	0b d7                     or	edx, edi
  41509d:	74 e9                     jz	415088
  41509f:	8b 55 fc                 >mov	edx, [ebp-04h]
  4150a2:	8b ca                    >mov	ecx, edx
  4150a4:	33 ff                     xor	edi, edi
  4150a6:	69 c9 04 02 00 00         imul	ecx, ecx, 00000204h
  4150ac:	8d 8c 01 44 01 00 00      lea	ecx, [ecx+eax*1+00000144h]
  4150b3:	89 4d f4                  mov	[ebp-0Ch], ecx
  4150b6:	8b 4c 90 44               mov	ecx, [eax+edx*4+44h]
  4150ba:	23 ce                     and	ecx, esi
  4150bc:	75 0d                     jnz	4150cb
  4150be:	8b 8c 90 c4 00 00 00      mov	ecx, [eax+edx*4+000000C4h]
  4150c5:	6a 20                     push	dword 00000020h
  4150c7:	23 4d f8                  and	ecx, [ebp-08h]
  4150ca:	5f                        pop	edi
  4150cb:	85 c9                    >test	ecx, ecx
  4150cd:	7c 05                     jl	4150d4
  4150cf:	d1 e1                     shl	ecx, 1h
  4150d1:	47                        inc	edi
  4150d2:	eb f7                     jmp	4150cb
  4150d4:	8b 4d f4                 >mov	ecx, [ebp-0Ch]
  4150d7:	8b 54 f9 04               mov	edx, [ecx+edi*8+04h]
  4150db:	8b 0a                     mov	ecx, [edx]
  4150dd:	2b 4d f0                  sub	ecx, [ebp-10h]
  4150e0:	8b f1                     mov	esi, ecx
  4150e2:	89 4d f8                  mov	[ebp-08h], ecx
  4150e5:	c1 fe 04                  sar	esi, 04h
  4150e8:	4e                        dec	esi
  4150e9:	83 fe 3f                  cmp	esi, 3Fh
  4150ec:	7e 03                     jle	4150f1
  4150ee:	6a 3f                     push	dword 0000003Fh
  4150f0:	5e                        pop	esi
  4150f1:	3b f7                    >cmp	esi, edi
  4150f3:	0f 84 0d 01 00 00         jz	415206
  4150f9:	8b 4a 04                  mov	ecx, [edx+04h]
  4150fc:	3b 4a 08                  cmp	ecx, [edx+08h]
  4150ff:	75 61                     jnz	415162
  415101:	83 ff 20                  cmp	edi, 20h
  415104:	7d 2b                     jge	415131
  415106:	bb 00 00 00 80            mov	ebx, 80000000h
  41510b:	8b cf                     mov	ecx, edi
  41510d:	d3 eb                     shr	ebx, cl
  41510f:	8b 4d fc                  mov	ecx, [ebp-04h]
  415112:	8d 7c 38 04               lea	edi, [eax+edi*1+04h]
  415116:	f7 d3                     not	ebx
  415118:	89 5d ec                  mov	[ebp-14h], ebx
  41511b:	23 5c 88 44               and	ebx, [eax+ecx*4+44h]
  41511f:	89 5c 88 44               mov	[eax+ecx*4+44h], ebx
  415123:	fe 0f                     dec	byte [edi]
  415125:	75 38                     jnz	41515f
  415127:	8b 5d 08                  mov	ebx, [ebp+08h]
  41512a:	8b 4d ec                  mov	ecx, [ebp-14h]
  41512d:	21 0b                     and	[ebx], ecx
  41512f:	eb 31                     jmp	415162
  415131:	8d 4f e0                 >lea	ecx, [edi-20h]
  415134:	bb 00 00 00 80            mov	ebx, 80000000h
  415139:	d3 eb                     shr	ebx, cl
  41513b:	8b 4d fc                  mov	ecx, [ebp-04h]
  41513e:	8d 7c 38 04               lea	edi, [eax+edi*1+04h]
  415142:	8d 8c 88 c4 00 00 00      lea	ecx, [eax+ecx*4+000000C4h]
  415149:	f7 d3                     not	ebx
  41514b:	21 19                     and	[ecx], ebx
  41514d:	fe 0f                     dec	byte [edi]
  41514f:	89 5d ec                  mov	[ebp-14h], ebx
  415152:	75 0b                     jnz	41515f
  415154:	8b 5d 08                  mov	ebx, [ebp+08h]
  415157:	8b 4d ec                  mov	ecx, [ebp-14h]
  41515a:	21 4b 04                  and	[ebx+04h], ecx
  41515d:	eb 03                     jmp	415162
  41515f:	8b 5d 08                 >mov	ebx, [ebp+08h]
  415162:	8b 4a 08                 >mov	ecx, [edx+08h]
  415165:	8b 7a 04                  mov	edi, [edx+04h]
  415168:	83 7d f8 00               cmp	dword [ebp-08h], 00h
  41516c:	89 79 04                  mov	[ecx+04h], edi
  41516f:	8b 4a 04                  mov	ecx, [edx+04h]
  415172:	8b 7a 08                  mov	edi, [edx+08h]
  415175:	89 79 08                  mov	[ecx+08h], edi
  415178:	0f 84 94 00 00 00         jz	415212
  41517e:	8b 4d f4                  mov	ecx, [ebp-0Ch]
  415181:	8b 7c f1 04               mov	edi, [ecx+esi*8+04h]
  415185:	8d 0c f1                  lea	ecx, [ecx+esi*8]
  415188:	89 7a 04                  mov	[edx+04h], edi
  41518b:	89 4a 08                  mov	[edx+08h], ecx
  41518e:	89 51 04                  mov	[ecx+04h], edx
  415191:	8b 4a 04                  mov	ecx, [edx+04h]
  415194:	89 51 08                  mov	[ecx+08h], edx
  415197:	8b 4a 04                  mov	ecx, [edx+04h]
  41519a:	3b 4a 08                  cmp	ecx, [edx+08h]
  41519d:	75 64                     jnz	415203
  41519f:	8a 4c 06 04               mov	cl, [esi+eax*1+04h]
  4151a3:	83 fe 20                  cmp	esi, 20h
  4151a6:	88 4d 0b                  mov	[ebp+0Bh], cl
  4151a9:	7d 29                     jge	4151d4
  4151ab:	fe c1                     inc	cl
  4151ad:	80 7d 0b 00               cmp	byte [ebp+0Bh], 00h
  4151b1:	88 4c 06 04               mov	[esi+eax*1+04h], cl
  4151b5:	75 0b                     jnz	4151c2
  4151b7:	bf 00 00 00 80            mov	edi, 80000000h
  4151bc:	8b ce                     mov	ecx, esi
  4151be:	d3 ef                     shr	edi, cl
  4151c0:	09 3b                     or	[ebx], edi
  4151c2:	bf 00 00 00 80           >mov	edi, 80000000h
  4151c7:	8b ce                     mov	ecx, esi
  4151c9:	d3 ef                     shr	edi, cl
  4151cb:	8b 4d fc                  mov	ecx, [ebp-04h]
  4151ce:	09 7c 88 44               or	[eax+ecx*4+44h], edi
  4151d2:	eb 2f                     jmp	415203
  4151d4:	fe c1                    >inc	cl
  4151d6:	80 7d 0b 00               cmp	byte [ebp+0Bh], 00h
  4151da:	88 4c 06 04               mov	[esi+eax*1+04h], cl
  4151de:	75 0d                     jnz	4151ed
  4151e0:	8d 4e e0                  lea	ecx, [esi-20h]
  4151e3:	bf 00 00 00 80            mov	edi, 80000000h
  4151e8:	d3 ef                     shr	edi, cl
  4151ea:	09 7b 04                  or	[ebx+04h], edi
  4151ed:	8b 4d fc                 >mov	ecx, [ebp-04h]
  4151f0:	8d bc 88 c4 00 00 00      lea	edi, [eax+ecx*4+000000C4h]
  4151f7:	8d 4e e0                  lea	ecx, [esi-20h]
  4151fa:	be 00 00 00 80            mov	esi, 80000000h
  4151ff:	d3 ee                     shr	esi, cl
  415201:	09 37                     or	[edi], esi
  415203:	8b 4d f8                 >mov	ecx, [ebp-08h]
  415206:	85 c9                    >test	ecx, ecx
  415208:	74 0b                     jz	415215
  41520a:	89 0a                     mov	[edx], ecx
  41520c:	89 4c 11 fc               mov	[ecx+edx*1-04h], ecx
  415210:	eb 03                     jmp	415215
  415212:	8b 4d f8                 >mov	ecx, [ebp-08h]
  415215:	8b 75 f0                 >mov	esi, [ebp-10h]
  415218:	03 d1                     add	edx, ecx
  41521a:	8d 4e 01                  lea	ecx, [esi+01h]
  41521d:	89 0a                     mov	[edx], ecx
  41521f:	89 4c 32 fc               mov	[edx+esi*1-04h], ecx
  415223:	8b 75 f4                  mov	esi, [ebp-0Ch]
  415226:	8b 0e                     mov	ecx, [esi]
  415228:	85 c9                     test	ecx, ecx
  41522a:	8d 79 01                  lea	edi, [ecx+01h]
  41522d:	89 3e                     mov	[esi], edi
  41522f:	75 1a                     jnz	41524b
  415231:	3b 1d f4 c7 46 00         cmp	ebx, [0046C7F4h]
  415237:	75 12                     jnz	41524b
  415239:	8b 4d fc                  mov	ecx, [ebp-04h]
  41523c:	3b 0d e8 c7 46 00         cmp	ecx, [0046C7E8h]
  415242:	75 07                     jnz	41524b
  415244:	83 25 f4 c7 46 00 00      and	dword [0046C7F4h], 00h
  41524b:	8b 4d fc                 >mov	ecx, [ebp-04h]
  41524e:	89 08                     mov	[eax], ecx
  415250:	8d 42 04                  lea	eax, [edx+04h]
  415253:	5f                       >pop	edi
  415254:	5e                        pop	esi
  415255:	5b                        pop	ebx
  415256:	c9                        leave
  415257:	c3                        ret

415258 <no name>:
  415258:	a1 f8 c7 46 00            mov	eax, [46C7F8h]
  41525d:	8b 0d e4 c7 46 00         mov	ecx, [0046C7E4h]
  415263:	56                        push	esi
  415264:	57                        push	edi
  415265:	33 ff                     xor	edi, edi
  415267:	3b c1                     cmp	eax, ecx
  415269:	75 30                     jnz	41529b
  41526b:	8d 44 89 50               lea	eax, [ecx+ecx*4+50h]
  41526f:	c1 e0 02                  shl	eax, 02h
  415272:	50                        push	eax
  415273:	ff 35 fc c7 46 00         push	dword [0046C7FCh]
  415279:	57                        push	edi
  41527a:	ff 35 04 c8 46 00         push	dword [0046C804h]
  415280:	ff 15 68 f2 44 00         call	dword [0044F268h]	; <HeapReAlloc>
  415286:	3b c7                     cmp	eax, edi
  415288:	74 61                     jz	4152eb
  41528a:	83 05 e4 c7 46 00 10      add	dword [0046C7E4h], 10h
  415291:	a3 fc c7 46 00            mov	[46C7FCh], eax
  415296:	a1 f8 c7 46 00            mov	eax, [46C7F8h]
  41529b:	8b 0d fc c7 46 00        >mov	ecx, [0046C7FCh]
  4152a1:	68 c4 41 00 00            push	dword 000041C4h
  4152a6:	6a 08                     push	dword 00000008h
  4152a8:	8d 04 80                  lea	eax, [eax+eax*4]
  4152ab:	ff 35 04 c8 46 00         push	dword [0046C804h]
  4152b1:	8d 34 81                  lea	esi, [ecx+eax*4]
  4152b4:	ff 15 24 f2 44 00         call	dword [0044F224h]	; <HeapAlloc>
  4152ba:	3b c7                     cmp	eax, edi
  4152bc:	89 46 10                  mov	[esi+10h], eax
  4152bf:	74 2a                     jz	4152eb
  4152c1:	6a 04                     push	dword 00000004h
  4152c3:	68 00 20 00 00            push	dword 00002000h
  4152c8:	68 00 00 10 00            push	dword 00100000h
  4152cd:	57                        push	edi
  4152ce:	ff 15 20 f4 44 00         call	dword [0044F420h]	; <VirtualAlloc>
  4152d4:	3b c7                     cmp	eax, edi
  4152d6:	89 46 0c                  mov	[esi+0Ch], eax
  4152d9:	75 14                     jnz	4152ef
  4152db:	ff 76 10                  push	dword [esi+10h]
  4152de:	57                        push	edi
  4152df:	ff 35 04 c8 46 00         push	dword [0046C804h]
  4152e5:	ff 15 14 f2 44 00         call	dword [0044F214h]	; <HeapFree>
  4152eb:	33 c0                    >xor	eax, eax
  4152ed:	eb 17                     jmp	415306
  4152ef:	83 4e 08 ff              >or	dword [esi+08h], FFh
  4152f3:	89 3e                     mov	[esi], edi
  4152f5:	89 7e 04                  mov	[esi+04h], edi
  4152f8:	ff 05 f8 c7 46 00         inc	dword [0046C7F8h]
  4152fe:	8b 46 10                  mov	eax, [esi+10h]
  415301:	83 08 ff                  or	dword [eax], FFh
  415304:	8b c6                     mov	eax, esi
  415306:	5f                       >pop	edi
  415307:	5e                        pop	esi
  415308:	c3                        ret

415309 <no name>:
  415309:	55                        push	ebp
  41530a:	8b ec                     mov	ebp, esp
  41530c:	51                        push	ecx
  41530d:	8b 4d 08                  mov	ecx, [ebp+08h]
  415310:	53                        push	ebx
  415311:	56                        push	esi
  415312:	57                        push	edi
  415313:	8b 71 10                  mov	esi, [ecx+10h]
  415316:	8b 41 08                  mov	eax, [ecx+08h]
  415319:	33 db                     xor	ebx, ebx
  41531b:	85 c0                    >test	eax, eax
  41531d:	7c 05                     jl	415324
  41531f:	d1 e0                     shl	eax, 1h
  415321:	43                        inc	ebx
  415322:	eb f7                     jmp	41531b
  415324:	8b c3                    >mov	eax, ebx
  415326:	6a 3f                     push	dword 0000003Fh
  415328:	69 c0 04 02 00 00         imul	eax, eax, 00000204h
  41532e:	5a                        pop	edx
  41532f:	8d 84 30 44 01 00 00      lea	eax, [eax+esi*1+00000144h]
  415336:	89 45 fc                  mov	[ebp-04h], eax
  415339:	89 40 08                 >mov	[eax+08h], eax
  41533c:	89 40 04                  mov	[eax+04h], eax
  41533f:	83 c0 08                  add	eax, 08h
  415342:	4a                        dec	edx
  415343:	75 f4                     jnz	415339
  415345:	8b fb                     mov	edi, ebx
  415347:	6a 04                     push	dword 00000004h
  415349:	c1 e7 0f                  shl	edi, 0Fh
  41534c:	03 79 0c                  add	edi, [ecx+0Ch]
  41534f:	68 00 10 00 00            push	dword 00001000h
  415354:	68 00 80 00 00            push	dword 00008000h
  415359:	57                        push	edi
  41535a:	ff 15 20 f4 44 00         call	dword [0044F420h]	; <VirtualAlloc>
  415360:	85 c0                     test	eax, eax
  415362:	75 08                     jnz	41536c
  415364:	83 c8 ff                  or	eax, FFh
  415367:	e9 93 00 00 00            jmp	4153ff
  41536c:	8d 97 00 70 00 00        >lea	edx, [edi+00007000h]
  415372:	3b fa                     cmp	edi, edx
  415374:	77 3c                     ja	4153b2
  415376:	8d 47 10                  lea	eax, [edi+10h]
  415379:	83 48 f8 ff              >or	dword [eax-08h], FFh
  41537d:	83 88 ec 0f 00 00 ff      or	dword [eax+00000FECh], FFh
  415384:	8d 88 fc 0f 00 00         lea	ecx, [eax+00000FFCh]
  41538a:	c7 40 fc f0 0f 00 00      mov	dword [eax-04h], 00000FF0h
  415391:	89 08                     mov	[eax], ecx
  415393:	8d 88 fc ef ff ff         lea	ecx, [eax-00001004h]
  415399:	89 48 04                  mov	[eax+04h], ecx
  41539c:	c7 80 e8 0f 00 00 f0      mov	dword [eax+00000FE8h], 00000FF0h
		0f 00 00 
  4153a6:	05 00 10 00 00            add	eax, 00001000h
  4153ab:	8d 48 f0                  lea	ecx, [eax-10h]
  4153ae:	3b ca                     cmp	ecx, edx
  4153b0:	76 c7                     jbe	415379
  4153b2:	8b 45 fc                 >mov	eax, [ebp-04h]
  4153b5:	8d 4f 0c                  lea	ecx, [edi+0Ch]
  4153b8:	05 f8 01 00 00            add	eax, 000001F8h
  4153bd:	6a 01                     push	dword 00000001h
  4153bf:	5f                        pop	edi
  4153c0:	89 48 04                  mov	[eax+04h], ecx
  4153c3:	89 41 08                  mov	[ecx+08h], eax
  4153c6:	8d 4a 0c                  lea	ecx, [edx+0Ch]
  4153c9:	89 48 08                  mov	[eax+08h], ecx
  4153cc:	89 41 04                  mov	[ecx+04h], eax
  4153cf:	83 64 9e 44 00            and	dword [esi+ebx*4+44h], 00h
  4153d4:	89 bc 9e c4 00 00 00      mov	[esi+ebx*4+000000C4h], edi
  4153db:	8a 46 43                  mov	al, [esi+43h]
  4153de:	8a c8                     mov	cl, al
  4153e0:	fe c1                     inc	cl
  4153e2:	84 c0                     test	al, al
  4153e4:	8b 45 08                  mov	eax, [ebp+08h]
  4153e7:	88 4e 43                  mov	[esi+43h], cl
  4153ea:	75 03                     jnz	4153ef
  4153ec:	09 78 04                  or	[eax+04h], edi
  4153ef:	ba 00 00 00 80           >mov	edx, 80000000h
  4153f4:	8b cb                     mov	ecx, ebx
  4153f6:	d3 ea                     shr	edx, cl
  4153f8:	f7 d2                     not	edx
  4153fa:	21 50 08                  and	[eax+08h], edx
  4153fd:	8b c3                     mov	eax, ebx
  4153ff:	5f                       >pop	edi
  415400:	5e                        pop	esi
  415401:	5b                        pop	ebx
  415402:	c9                        leave
  415403:	c3                        ret
     ...

415b1c <no name>:
  415b1c:	83 3d d8 4f 46 00 ff      cmp	dword [00464FD8h], FFh
  415b23:	53                        push	ebx
  415b24:	55                        push	ebp
  415b25:	56                        push	esi
  415b26:	57                        push	edi
  415b27:	75 07                     jnz	415b30
  415b29:	be c8 4f 46 00            mov	esi, 00464FC8h
  415b2e:	eb 1d                     jmp	415b4d
  415b30:	68 20 20 00 00           >push	dword 00002020h
  415b35:	6a 00                     push	dword 00000000h
  415b37:	ff 35 04 c8 46 00         push	dword [0046C804h]
  415b3d:	ff 15 24 f2 44 00         call	dword [0044F224h]	; <HeapAlloc>
  415b43:	8b f0                     mov	esi, eax
  415b45:	85 f6                     test	esi, esi
  415b47:	0f 84 0c 01 00 00         jz	415c59
  415b4d:	8b 2d 20 f4 44 00        >mov	ebp, [0044F420h]
  415b53:	6a 04                     push	dword 00000004h
  415b55:	68 00 20 00 00            push	dword 00002000h
  415b5a:	68 00 00 40 00            push	dword 00400000h
  415b5f:	6a 00                     push	dword 00000000h
  415b61:	ff d5                     call	ebp
  415b63:	8b f8                     mov	edi, eax
  415b65:	85 ff                     test	edi, edi
  415b67:	0f 84 d5 00 00 00         jz	415c42
  415b6d:	6a 04                     push	dword 00000004h
  415b6f:	bb 00 00 01 00            mov	ebx, 00010000h
  415b74:	68 00 10 00 00            push	dword 00001000h
  415b79:	53                        push	ebx
  415b7a:	57                        push	edi
  415b7b:	ff d5                     call	ebp
  415b7d:	85 c0                     test	eax, eax
  415b7f:	0f 84 af 00 00 00         jz	415c34
  415b85:	b8 c8 4f 46 00            mov	eax, 00464FC8h
  415b8a:	3b f0                     cmp	esi, eax
  415b8c:	75 1e                     jnz	415bac
  415b8e:	83 3d c8 4f 46 00 00      cmp	dword [00464FC8h], 00h
  415b95:	75 05                     jnz	415b9c
  415b97:	a3 c8 4f 46 00            mov	[464FC8h], eax
  415b9c:	83 3d cc 4f 46 00 00     >cmp	dword [00464FCCh], 00h
  415ba3:	75 1c                     jnz	415bc1
  415ba5:	a3 cc 4f 46 00            mov	[464FCCh], eax
  415baa:	eb 15                     jmp	415bc1
  415bac:	89 06                    >mov	[esi], eax
  415bae:	a1 cc 4f 46 00            mov	eax, [464FCCh]
  415bb3:	89 46 04                  mov	[esi+04h], eax
  415bb6:	89 35 cc 4f 46 00         mov	[00464FCCh], esi
  415bbc:	8b 46 04                  mov	eax, [esi+04h]
  415bbf:	89 30                     mov	[eax], esi
  415bc1:	8d 87 00 00 40 00        >lea	eax, [edi+00400000h]
  415bc7:	8d 8e 98 00 00 00         lea	ecx, [esi+00000098h]
  415bcd:	89 46 14                  mov	[esi+14h], eax
  415bd0:	8d 46 18                  lea	eax, [esi+18h]
  415bd3:	89 4e 0c                  mov	[esi+0Ch], ecx
  415bd6:	89 7e 10                  mov	[esi+10h], edi
  415bd9:	89 46 08                  mov	[esi+08h], eax
  415bdc:	33 ed                     xor	ebp, ebp
  415bde:	b9 f1 00 00 00            mov	ecx, 000000F1h
  415be3:	33 d2                    >xor	edx, edx
  415be5:	83 fd 10                  cmp	ebp, 10h
  415be8:	0f 9d c2                  setge	dl
  415beb:	4a                        dec	edx
  415bec:	23 d1                     and	edx, ecx
  415bee:	4a                        dec	edx
  415bef:	45                        inc	ebp
  415bf0:	89 10                     mov	[eax], edx
  415bf2:	89 48 04                  mov	[eax+04h], ecx
  415bf5:	83 c0 08                  add	eax, 08h
  415bf8:	81 fd 00 04 00 00         cmp	ebp, 00000400h
  415bfe:	7c e3                     jl	415be3
  415c00:	53                        push	ebx
  415c01:	6a 00                     push	dword 00000000h
  415c03:	57                        push	edi
  415c04:	e8 77 93 ff ff            call	40ef80
  415c09:	83 c4 0c                  add	esp, 0Ch
  415c0c:	8b 46 10                 >mov	eax, [esi+10h]
  415c0f:	03 c3                     add	eax, ebx
  415c11:	3b f8                     cmp	edi, eax
  415c13:	73 1b                     jae	415c30
  415c15:	80 8f f8 00 00 00 ff      or	byte [edi+000000F8h], FFh
  415c1c:	8d 47 08                  lea	eax, [edi+08h]
  415c1f:	89 07                     mov	[edi], eax
  415c21:	c7 47 04 f0 00 00 00      mov	dword [edi+04h], 000000F0h
  415c28:	81 c7 00 10 00 00         add	edi, 00001000h
  415c2e:	eb dc                     jmp	415c0c
  415c30:	8b c6                    >mov	eax, esi
  415c32:	eb 27                     jmp	415c5b
  415c34:	68 00 80 00 00           >push	dword 00008000h
  415c39:	6a 00                     push	dword 00000000h
  415c3b:	57                        push	edi
  415c3c:	ff 15 b4 f3 44 00         call	dword [0044F3B4h]	; <VirtualFree>
  415c42:	81 fe c8 4f 46 00        >cmp	esi, 00464FC8h
  415c48:	74 0f                     jz	415c59
  415c4a:	56                        push	esi
  415c4b:	6a 00                     push	dword 00000000h
  415c4d:	ff 35 04 c8 46 00         push	dword [0046C804h]
  415c53:	ff 15 14 f2 44 00         call	dword [0044F214h]	; <HeapFree>
  415c59:	33 c0                    >xor	eax, eax
  415c5b:	5f                       >pop	edi
  415c5c:	5e                        pop	esi
  415c5d:	5d                        pop	ebp
  415c5e:	5b                        pop	ebx
  415c5f:	c3                        ret

415c60 <no name>:
  415c60:	56                        push	esi
  415c61:	8b 74 24 08               mov	esi, [esp+08h]
  415c65:	68 00 80 00 00            push	dword 00008000h
  415c6a:	6a 00                     push	dword 00000000h
  415c6c:	ff 76 10                  push	dword [esi+10h]
  415c6f:	ff 15 b4 f3 44 00         call	dword [0044F3B4h]	; <VirtualFree>
  415c75:	39 35 e8 6f 46 00         cmp	[00466FE8h], esi
  415c7b:	75 08                     jnz	415c85
  415c7d:	8b 46 04                  mov	eax, [esi+04h]
  415c80:	a3 e8 6f 46 00            mov	[466FE8h], eax
  415c85:	81 fe c8 4f 46 00        >cmp	esi, 00464FC8h
  415c8b:	74 20                     jz	415cad
  415c8d:	8b 46 04                  mov	eax, [esi+04h]
  415c90:	8b 0e                     mov	ecx, [esi]
  415c92:	56                        push	esi
  415c93:	6a 00                     push	dword 00000000h
  415c95:	89 08                     mov	[eax], ecx
  415c97:	8b 06                     mov	eax, [esi]
  415c99:	8b 4e 04                  mov	ecx, [esi+04h]
  415c9c:	89 48 04                  mov	[eax+04h], ecx
  415c9f:	ff 35 04 c8 46 00         push	dword [0046C804h]
  415ca5:	ff 15 14 f2 44 00         call	dword [0044F214h]	; <HeapFree>
  415cab:	5e                        pop	esi
  415cac:	c3                        ret
  415cad:	83 0d d8 4f 46 00 ff     >or	dword [00464FD8h], FFh
  415cb4:	5e                        pop	esi
  415cb5:	c3                        ret

415cb6 <no name>:
  415cb6:	55                        push	ebp
  415cb7:	8b ec                     mov	ebp, esp
  415cb9:	51                        push	ecx
  415cba:	53                        push	ebx
  415cbb:	56                        push	esi
  415cbc:	8b 35 cc 4f 46 00         mov	esi, [00464FCCh]
  415cc2:	57                        push	edi
  415cc3:	83 7e 10 ff              >cmp	dword [esi+10h], FFh
  415cc7:	0f 84 94 00 00 00         jz	415d61
  415ccd:	83 65 fc 00               and	dword [ebp-04h], 00h
  415cd1:	8d be 10 20 00 00         lea	edi, [esi+00002010h]
  415cd7:	bb 00 f0 3f 00            mov	ebx, 003FF000h
  415cdc:	81 3f f0 00 00 00        >cmp	dword [edi], 000000F0h
  415ce2:	75 39                     jnz	415d1d
  415ce4:	8b c3                     mov	eax, ebx
  415ce6:	68 00 40 00 00            push	dword 00004000h
  415ceb:	03 46 10                  add	eax, [esi+10h]
  415cee:	68 00 10 00 00            push	dword 00001000h
  415cf3:	50                        push	eax
  415cf4:	ff 15 b4 f3 44 00         call	dword [0044F3B4h]	; <VirtualFree>
  415cfa:	85 c0                     test	eax, eax
  415cfc:	74 1f                     jz	415d1d
  415cfe:	83 0f ff                  or	dword [edi], FFh
  415d01:	ff 0d 60 ae 46 00         dec	dword [0046AE60h]
  415d07:	8b 46 0c                  mov	eax, [esi+0Ch]
  415d0a:	85 c0                     test	eax, eax
  415d0c:	74 04                     jz	415d12
  415d0e:	3b c7                     cmp	eax, edi
  415d10:	76 03                     jbe	415d15
  415d12:	89 7e 0c                 >mov	[esi+0Ch], edi
  415d15:	ff 45 fc                 >inc	dword [ebp-04h]
  415d18:	ff 4d 08                  dec	dword [ebp+08h]
  415d1b:	74 0d                     jz	415d2a
  415d1d:	81 eb 00 10 00 00        >sub	ebx, 00001000h
  415d23:	83 ef 08                  sub	edi, 08h
  415d26:	85 db                     test	ebx, ebx
  415d28:	7d b2                     jge	415cdc
  415d2a:	83 7d fc 00              >cmp	dword [ebp-04h], 00h
  415d2e:	8b ce                     mov	ecx, esi
  415d30:	8b 76 04                  mov	esi, [esi+04h]
  415d33:	74 2c                     jz	415d61
  415d35:	83 79 18 ff               cmp	dword [ecx+18h], FFh
  415d39:	75 26                     jnz	415d61
  415d3b:	6a 01                     push	dword 00000001h
  415d3d:	8d 41 20                  lea	eax, [ecx+20h]
  415d40:	5a                        pop	edx
  415d41:	83 38 ff                 >cmp	dword [eax], FFh
  415d44:	75 0c                     jnz	415d52
  415d46:	42                        inc	edx
  415d47:	83 c0 08                  add	eax, 08h
  415d4a:	81 fa 00 04 00 00         cmp	edx, 00000400h
  415d50:	7c ef                     jl	415d41
  415d52:	81 fa 00 04 00 00        >cmp	edx, 00000400h
  415d58:	75 07                     jnz	415d61
  415d5a:	51                        push	ecx
  415d5b:	e8 00 ff ff ff            call	415c60
  415d60:	59                        pop	ecx
  415d61:	3b 35 cc 4f 46 00        >cmp	esi, [00464FCCh]
  415d67:	74 0a                     jz	415d73
  415d69:	83 7d 08 00               cmp	dword [ebp+08h], 00h
  415d6d:	0f 8f 50 ff ff ff         jg	415cc3
  415d73:	5f                       >pop	edi
  415d74:	5e                        pop	esi
  415d75:	5b                        pop	ebx
  415d76:	c9                        leave
  415d77:	c3                        ret

415d78 <no name>:
  415d78:	8b 44 24 04               mov	eax, [esp+04h]
  415d7c:	ba c8 4f 46 00            mov	edx, 00464FC8h
  415d81:	56                        push	esi
  415d82:	8b ca                     mov	ecx, edx
  415d84:	3b 41 10                 >cmp	eax, [ecx+10h]
  415d87:	76 05                     jbe	415d8e
  415d89:	3b 41 14                  cmp	eax, [ecx+14h]
  415d8c:	72 08                     jb	415d96
  415d8e:	8b 09                    >mov	ecx, [ecx]
  415d90:	3b ca                     cmp	ecx, edx
  415d92:	74 37                     jz	415dcb
  415d94:	eb ee                     jmp	415d84
  415d96:	a8 0f                    >test	al, 0Fh
  415d98:	75 31                     jnz	415dcb
  415d9a:	8b f0                     mov	esi, eax
  415d9c:	ba 00 01 00 00            mov	edx, 00000100h
  415da1:	81 e6 ff 0f 00 00         and	esi, 00000FFFh
  415da7:	3b f2                     cmp	esi, edx
  415da9:	72 20                     jb	415dcb
  415dab:	8b 74 24 0c               mov	esi, [esp+0Ch]
  415daf:	89 0e                     mov	[esi], ecx
  415db1:	8b 74 24 10               mov	esi, [esp+10h]
  415db5:	8b c8                     mov	ecx, eax
  415db7:	66 81 e1 00 f0            and	cx, F000h
  415dbc:	2b c1                     sub	eax, ecx
  415dbe:	89 0e                     mov	[esi], ecx
  415dc0:	2b c2                     sub	eax, edx
  415dc2:	5e                        pop	esi
  415dc3:	c1 f8 04                  sar	eax, 04h
  415dc6:	8d 44 08 08               lea	eax, [eax+ecx*1+08h]
  415dca:	c3                        ret
  415dcb:	33 c0                    >xor	eax, eax
  415dcd:	5e                        pop	esi
  415dce:	c3                        ret

415dcf <no name>:
  415dcf:	8b 44 24 04               mov	eax, [esp+04h]
  415dd3:	8b 4c 24 08               mov	ecx, [esp+08h]
  415dd7:	2b 48 10                  sub	ecx, [eax+10h]
  415dda:	c1 f9 0c                  sar	ecx, 0Ch
  415ddd:	8d 44 c8 18               lea	eax, [eax+ecx*8+18h]
  415de1:	8b 4c 24 0c               mov	ecx, [esp+0Ch]
  415de5:	0f b6 11                  movzx	edx, byte [ecx]
  415de8:	01 10                     add	[eax], edx
  415dea:	80 21 00                  and	byte [ecx], 00h
  415ded:	81 38 f0 00 00 00         cmp	dword [eax], 000000F0h
  415df3:	c7 40 04 f1 00 00 00      mov	dword [eax+04h], 000000F1h
  415dfa:	75 17                     jnz	415e13
  415dfc:	ff 05 60 ae 46 00         inc	dword [0046AE60h]
  415e02:	83 3d 60 ae 46 00 20      cmp	dword [0046AE60h], 20h
  415e09:	75 08                     jnz	415e13
  415e0b:	6a 10                     push	dword 00000010h
  415e0d:	e8 a4 fe ff ff            call	415cb6
  415e12:	59                        pop	ecx
  415e13:	c3                       >ret

415e14 <no name>:
  415e14:	55                        push	ebp
  415e15:	8b ec                     mov	ebp, esp
  415e17:	51                        push	ecx
  415e18:	51                        push	ecx
  415e19:	53                        push	ebx
  415e1a:	56                        push	esi
  415e1b:	8b 35 e8 6f 46 00         mov	esi, [00466FE8h]
  415e21:	57                        push	edi
  415e22:	8b 56 10                 >mov	edx, [esi+10h]
  415e25:	83 fa ff                  cmp	edx, FFh
  415e28:	0f 84 9f 00 00 00         jz	415ecd
  415e2e:	8b 7e 08                  mov	edi, [esi+08h]
  415e31:	8d 8e 18 20 00 00         lea	ecx, [esi+00002018h]
  415e37:	8b c7                     mov	eax, edi
  415e39:	2b c6                     sub	eax, esi
  415e3b:	83 e8 18                  sub	eax, 18h
  415e3e:	c1 f8 03                  sar	eax, 03h
  415e41:	c1 e0 0c                  shl	eax, 0Ch
  415e44:	03 c2                     add	eax, edx
  415e46:	3b f9                     cmp	edi, ecx
  415e48:	89 45 fc                  mov	[ebp-04h], eax
  415e4b:	73 3a                     jae	415e87
  415e4d:	8b 0f                    >mov	ecx, [edi]
  415e4f:	8b 5d 08                  mov	ebx, [ebp+08h]
  415e52:	3b cb                     cmp	ecx, ebx
  415e54:	7c 1a                     jl	415e70
  415e56:	39 5f 04                  cmp	[edi+04h], ebx
  415e59:	76 15                     jbe	415e70
  415e5b:	53                        push	ebx
  415e5c:	51                        push	ecx
  415e5d:	50                        push	eax
  415e5e:	e8 b9 01 00 00            call	41601c
  415e63:	83 c4 0c                  add	esp, 0Ch
  415e66:	85 c0                     test	eax, eax
  415e68:	75 75                     jnz	415edf
  415e6a:	8b 45 fc                  mov	eax, [ebp-04h]
  415e6d:	89 5f 04                  mov	[edi+04h], ebx
  415e70:	83 c7 08                 >add	edi, 08h
  415e73:	8d 8e 18 20 00 00         lea	ecx, [esi+00002018h]
  415e79:	05 00 10 00 00            add	eax, 00001000h
  415e7e:	3b f9                     cmp	edi, ecx
  415e80:	89 45 fc                  mov	[ebp-04h], eax
  415e83:	72 c8                     jb	415e4d
  415e85:	eb 03                     jmp	415e8a
  415e87:	8b 5d 08                 >mov	ebx, [ebp+08h]
  415e8a:	8b 46 08                 >mov	eax, [esi+08h]
  415e8d:	8b 4e 10                  mov	ecx, [esi+10h]
  415e90:	8d 7e 18                  lea	edi, [esi+18h]
  415e93:	89 45 f8                  mov	[ebp-08h], eax
  415e96:	3b f8                     cmp	edi, eax
  415e98:	89 4d fc                  mov	[ebp-04h], ecx
  415e9b:	73 33                     jae	415ed0
  415e9d:	8b 07                    >mov	eax, [edi]
  415e9f:	3b c3                     cmp	eax, ebx
  415ea1:	7c 19                     jl	415ebc
  415ea3:	39 5f 04                  cmp	[edi+04h], ebx
  415ea6:	76 14                     jbe	415ebc
  415ea8:	53                        push	ebx
  415ea9:	50                        push	eax
  415eaa:	ff 75 fc                  push	dword [ebp-04h]
  415ead:	e8 6a 01 00 00            call	41601c
  415eb2:	83 c4 0c                  add	esp, 0Ch
  415eb5:	85 c0                     test	eax, eax
  415eb7:	75 26                     jnz	415edf
  415eb9:	89 5f 04                  mov	[edi+04h], ebx
  415ebc:	81 45 fc 00 10 00 00     >add	dword [ebp-04h], 00001000h
  415ec3:	83 c7 08                  add	edi, 08h
  415ec6:	3b 7d f8                  cmp	edi, [ebp-08h]
  415ec9:	72 d2                     jb	415e9d
  415ecb:	eb 03                     jmp	415ed0
  415ecd:	8b 5d 08                 >mov	ebx, [ebp+08h]
  415ed0:	8b 36                    >mov	esi, [esi]
  415ed2:	3b 35 e8 6f 46 00         cmp	esi, [00466FE8h]
  415ed8:	74 15                     jz	415eef
  415eda:	e9 43 ff ff ff            jmp	415e22
  415edf:	89 35 e8 6f 46 00        >mov	[00466FE8h], esi
  415ee5:	29 1f                     sub	[edi], ebx
  415ee7:	89 7e 08                  mov	[esi+08h], edi
  415eea:	e9 28 01 00 00            jmp	416017
  415eef:	b8 c8 4f 46 00           >mov	eax, 00464FC8h
  415ef4:	8b f8                     mov	edi, eax
  415ef6:	83 7f 10 ff              >cmp	dword [edi+10h], FFh
  415efa:	74 06                     jz	415f02
  415efc:	83 7f 0c 00               cmp	dword [edi+0Ch], 00h
  415f00:	75 0c                     jnz	415f0e
  415f02:	8b 3f                    >mov	edi, [edi]
  415f04:	3b f8                     cmp	edi, eax
  415f06:	0f 84 d7 00 00 00         jz	415fe3
  415f0c:	eb e8                     jmp	415ef6
  415f0e:	8b 5f 0c                 >mov	ebx, [edi+0Ch]
  415f11:	83 65 fc 00               and	dword [ebp-04h], 00h
  415f15:	8b f3                     mov	esi, ebx
  415f17:	8b c3                     mov	eax, ebx
  415f19:	2b f7                     sub	esi, edi
  415f1b:	83 ee 18                  sub	esi, 18h
  415f1e:	c1 fe 03                  sar	esi, 03h
  415f21:	c1 e6 0c                  shl	esi, 0Ch
  415f24:	03 77 10                  add	esi, [edi+10h]
  415f27:	83 3b ff                  cmp	dword [ebx], FFh
  415f2a:	75 11                     jnz	415f3d
  415f2c:	83 7d fc 10              >cmp	dword [ebp-04h], 10h
  415f30:	7d 0b                     jge	415f3d
  415f32:	83 c0 08                  add	eax, 08h
  415f35:	ff 45 fc                  inc	dword [ebp-04h]
  415f38:	83 38 ff                  cmp	dword [eax], FFh
  415f3b:	74 ef                     jz	415f2c
  415f3d:	8b 45 fc                 >mov	eax, [ebp-04h]
  415f40:	6a 04                     push	dword 00000004h
  415f42:	c1 e0 0c                  shl	eax, 0Ch
  415f45:	68 00 10 00 00            push	dword 00001000h
  415f4a:	50                        push	eax
  415f4b:	56                        push	esi
  415f4c:	89 45 f8                  mov	[ebp-08h], eax
  415f4f:	ff 15 20 f4 44 00         call	dword [0044F420h]	; <VirtualAlloc>
  415f55:	3b c6                     cmp	eax, esi
  415f57:	0f 85 b8 00 00 00         jnz	416015
  415f5d:	6a 00                     push	dword 00000000h
  415f5f:	ff 75 f8                  push	dword [ebp-08h]
  415f62:	56                        push	esi
  415f63:	e8 18 90 ff ff            call	40ef80
  415f68:	8b 55 fc                  mov	edx, [ebp-04h]
  415f6b:	83 c4 0c                  add	esp, 0Ch
  415f6e:	85 d2                     test	edx, edx
  415f70:	8b cb                     mov	ecx, ebx
  415f72:	7e 30                     jle	415fa4
  415f74:	8d 46 04                  lea	eax, [esi+04h]
  415f77:	89 55 fc                  mov	[ebp-04h], edx
  415f7a:	80 88 f4 00 00 00 ff     >or	byte [eax+000000F4h], FFh
  415f81:	8d 50 04                  lea	edx, [eax+04h]
  415f84:	89 50 fc                  mov	[eax-04h], edx
  415f87:	ba f0 00 00 00            mov	edx, 000000F0h
  415f8c:	89 10                     mov	[eax], edx
  415f8e:	89 11                     mov	[ecx], edx
  415f90:	c7 41 04 f1 00 00 00      mov	dword [ecx+04h], 000000F1h
  415f97:	05 00 10 00 00            add	eax, 00001000h
  415f9c:	83 c1 08                  add	ecx, 08h
  415f9f:	ff 4d fc                  dec	dword [ebp-04h]
  415fa2:	75 d6                     jnz	415f7a
  415fa4:	89 3d e8 6f 46 00        >mov	[00466FE8h], edi
  415faa:	8d 87 18 20 00 00         lea	eax, [edi+00002018h]
  415fb0:	3b c8                    >cmp	ecx, eax
  415fb2:	73 0c                     jae	415fc0
  415fb4:	83 39 ff                  cmp	dword [ecx], FFh
  415fb7:	74 05                     jz	415fbe
  415fb9:	83 c1 08                  add	ecx, 08h
  415fbc:	eb f2                     jmp	415fb0
  415fbe:	3b c8                    >cmp	ecx, eax
  415fc0:	1b c0                    >sbb	eax, eax
  415fc2:	23 c1                     and	eax, ecx
  415fc4:	89 47 0c                  mov	[edi+0Ch], eax
  415fc7:	8b 45 08                  mov	eax, [ebp+08h]
  415fca:	88 46 08                  mov	[esi+08h], al
  415fcd:	89 5f 08                  mov	[edi+08h], ebx
  415fd0:	29 03                     sub	[ebx], eax
  415fd2:	29 46 04                  sub	[esi+04h], eax
  415fd5:	8d 4c 06 08               lea	ecx, [esi+eax*1+08h]
  415fd9:	8d 86 00 01 00 00         lea	eax, [esi+00000100h]
  415fdf:	89 0e                     mov	[esi], ecx
  415fe1:	eb 34                     jmp	416017
  415fe3:	e8 34 fb ff ff           >call	415b1c
  415fe8:	85 c0                     test	eax, eax
  415fea:	74 29                     jz	416015
  415fec:	8b 48 10                  mov	ecx, [eax+10h]
  415fef:	88 59 08                  mov	[ecx+08h], bl
  415ff2:	8d 54 19 08               lea	edx, [ecx+ebx*1+08h]
  415ff6:	a3 e8 6f 46 00            mov	[466FE8h], eax
  415ffb:	89 11                     mov	[ecx], edx
  415ffd:	ba f0 00 00 00            mov	edx, 000000F0h
  416002:	2b d3                     sub	edx, ebx
  416004:	89 51 04                  mov	[ecx+04h], edx
  416007:	0f b6 d3                  movzx	edx, bl
  41600a:	29 50 18                  sub	[eax+18h], edx
  41600d:	8d 81 00 01 00 00         lea	eax, [ecx+00000100h]
  416013:	eb 02                     jmp	416017
  416015:	33 c0                    >xor	eax, eax
  416017:	5f                       >pop	edi
  416018:	5e                        pop	esi
  416019:	5b                        pop	ebx
  41601a:	c9                        leave
  41601b:	c3                        ret

41601c <no name>:
  41601c:	55                        push	ebp
  41601d:	8b ec                     mov	ebp, esp
  41601f:	51                        push	ecx
  416020:	8b 4d 08                  mov	ecx, [ebp+08h]
  416023:	8b 55 10                  mov	edx, [ebp+10h]
  416026:	53                        push	ebx
  416027:	56                        push	esi
  416028:	8b 71 04                  mov	esi, [ecx+04h]
  41602b:	57                        push	edi
  41602c:	8b 39                     mov	edi, [ecx]
  41602e:	8d 99 f8 00 00 00         lea	ebx, [ecx+000000F8h]
  416034:	3b f2                     cmp	esi, edx
  416036:	89 7d fc                  mov	[ebp-04h], edi
  416039:	8b c7                     mov	eax, edi
  41603b:	89 5d 08                  mov	[ebp+08h], ebx
  41603e:	72 21                     jb	416061
  416040:	8d 04 17                  lea	eax, [edi+edx*1]
  416043:	88 17                     mov	[edi], dl
  416045:	3b c3                     cmp	eax, ebx
  416047:	73 07                     jae	416050
  416049:	01 11                     add	[ecx], edx
  41604b:	29 51 04                  sub	[ecx+04h], edx
  41604e:	eb 09                     jmp	416059
  416050:	83 61 04 00              >and	dword [ecx+04h], 00h
  416054:	8d 41 08                  lea	eax, [ecx+08h]
  416057:	89 01                     mov	[ecx], eax
  416059:	8d 47 08                 >lea	eax, [edi+08h]
  41605c:	e9 ce 00 00 00            jmp	41612f
  416061:	03 f7                    >add	esi, edi
  416063:	80 3e 00                  cmp	byte [esi], 00h
  416066:	74 02                     jz	41606a
  416068:	8b c6                     mov	eax, esi
  41606a:	8d 34 10                 >lea	esi, [eax+edx*1]
  41606d:	3b f3                     cmp	esi, ebx
  41606f:	73 43                     jae	4160b4
  416071:	8a 18                    >mov	bl, [eax]
  416073:	84 db                     test	bl, bl
  416075:	75 30                     jnz	4160a7
  416077:	6a 01                     push	dword 00000001h
  416079:	8d 58 01                  lea	ebx, [eax+01h]
  41607c:	5e                        pop	esi
  41607d:	80 3b 00                 >cmp	byte [ebx], 00h
  416080:	75 04                     jnz	416086
  416082:	43                        inc	ebx
  416083:	46                        inc	esi
  416084:	eb f7                     jmp	41607d
  416086:	3b f2                    >cmp	esi, edx
  416088:	73 4e                     jae	4160d8
  41608a:	3b 45 fc                  cmp	eax, [ebp-04h]
  41608d:	75 05                     jnz	416094
  41608f:	89 71 04                  mov	[ecx+04h], esi
  416092:	eb 0c                     jmp	4160a0
  416094:	29 75 0c                 >sub	[ebp+0Ch], esi
  416097:	39 55 0c                  cmp	[ebp+0Ch], edx
  41609a:	0f 82 99 00 00 00         jb	416139
  4160a0:	8b 7d fc                 >mov	edi, [ebp-04h]
  4160a3:	8b c3                     mov	eax, ebx
  4160a5:	eb 05                     jmp	4160ac
  4160a7:	0f b6 f3                 >movzx	esi, bl
  4160aa:	03 c6                     add	eax, esi
  4160ac:	8d 34 10                 >lea	esi, [eax+edx*1]
  4160af:	3b 75 08                  cmp	esi, [ebp+08h]
  4160b2:	72 bd                     jb	416071
  4160b4:	8d 71 08                 >lea	esi, [ecx+08h]
  4160b7:	3b f7                    >cmp	esi, edi
  4160b9:	73 7e                     jae	416139
  4160bb:	8d 04 16                  lea	eax, [esi+edx*1]
  4160be:	3b 45 08                  cmp	eax, [ebp+08h]
  4160c1:	73 76                     jae	416139
  4160c3:	8a 06                     mov	al, [esi]
  4160c5:	84 c0                     test	al, al
  4160c7:	75 40                     jnz	416109
  4160c9:	6a 01                     push	dword 00000001h
  4160cb:	8d 5e 01                  lea	ebx, [esi+01h]
  4160ce:	58                        pop	eax
  4160cf:	80 3b 00                 >cmp	byte [ebx], 00h
  4160d2:	75 25                     jnz	4160f9
  4160d4:	43                        inc	ebx
  4160d5:	40                        inc	eax
  4160d6:	eb f7                     jmp	4160cf
  4160d8:	8d 1c 10                 >lea	ebx, [eax+edx*1]
  4160db:	3b 5d 08                  cmp	ebx, [ebp+08h]
  4160de:	73 09                     jae	4160e9
  4160e0:	2b f2                     sub	esi, edx
  4160e2:	89 19                     mov	[ecx], ebx
  4160e4:	89 71 04                  mov	[ecx+04h], esi
  4160e7:	eb 09                     jmp	4160f2
  4160e9:	83 61 04 00              >and	dword [ecx+04h], 00h
  4160ed:	8d 71 08                  lea	esi, [ecx+08h]
  4160f0:	89 31                     mov	[ecx], esi
  4160f2:	88 10                    >mov	[eax], dl
  4160f4:	83 c0 08                  add	eax, 08h
  4160f7:	eb 36                     jmp	41612f
  4160f9:	3b c2                    >cmp	eax, edx
  4160fb:	73 13                     jae	416110
  4160fd:	29 45 0c                  sub	[ebp+0Ch], eax
  416100:	39 55 0c                  cmp	[ebp+0Ch], edx
  416103:	72 34                     jb	416139
  416105:	8b f3                     mov	esi, ebx
  416107:	eb ae                     jmp	4160b7
  416109:	0f b6 c0                 >movzx	eax, al
  41610c:	03 f0                     add	esi, eax
  41610e:	eb a7                     jmp	4160b7
  416110:	8d 1c 16                 >lea	ebx, [esi+edx*1]
  416113:	3b 5d 08                  cmp	ebx, [ebp+08h]
  416116:	73 09                     jae	416121
  416118:	2b c2                     sub	eax, edx
  41611a:	89 19                     mov	[ecx], ebx
  41611c:	89 41 04                  mov	[ecx+04h], eax
  41611f:	eb 09                     jmp	41612a
  416121:	83 61 04 00              >and	dword [ecx+04h], 00h
  416125:	8d 41 08                  lea	eax, [ecx+08h]
  416128:	89 01                     mov	[ecx], eax
  41612a:	88 16                    >mov	[esi], dl
  41612c:	8d 46 08                  lea	eax, [esi+08h]
  41612f:	6b c9 0f                 >imul	ecx, ecx, 0Fh
  416132:	c1 e0 04                  shl	eax, 04h
  416135:	2b c1                     sub	eax, ecx
  416137:	eb 02                     jmp	41613b
  416139:	33 c0                    >xor	eax, eax
  41613b:	5f                       >pop	edi
  41613c:	5e                        pop	esi
  41613d:	5b                        pop	ebx
  41613e:	c9                        leave
  41613f:	c3                        ret
     ...

416428 <no name>:
  416428:	55                        push	ebp
  416429:	8b ec                     mov	ebp, esp
  41642b:	51                        push	ecx
  41642c:	53                        push	ebx
  41642d:	56                        push	esi
  41642e:	e8 ce d1 ff ff            call	413601
  416433:	8b f0                     mov	esi, eax
  416435:	ff 76 50                  push	dword [esi+50h]
  416438:	ff 75 08                  push	dword [ebp+08h]
  41643b:	e8 26 01 00 00            call	416566
  416440:	59                        pop	ecx
  416441:	85 c0                     test	eax, eax
  416443:	59                        pop	ecx
  416444:	0f 84 0f 01 00 00         jz	416559
  41644a:	8b 58 08                  mov	ebx, [eax+08h]
  41644d:	85 db                     test	ebx, ebx
  41644f:	89 5d 08                  mov	[ebp+08h], ebx
  416452:	0f 84 01 01 00 00         jz	416559
  416458:	83 fb 05                  cmp	ebx, 05h
  41645b:	75 0c                     jnz	416469
  41645d:	83 60 08 00               and	dword [eax+08h], 00h
  416461:	6a 01                     push	dword 00000001h
  416463:	58                        pop	eax
  416464:	e9 f9 00 00 00            jmp	416562
  416469:	83 fb 01                 >cmp	ebx, 01h
  41646c:	0f 84 e2 00 00 00         jz	416554
  416472:	8b 4e 54                  mov	ecx, [esi+54h]
  416475:	89 4d fc                  mov	[ebp-04h], ecx
  416478:	8b 4d 0c                  mov	ecx, [ebp+0Ch]
  41647b:	89 4e 54                  mov	[esi+54h], ecx
  41647e:	8b 48 04                  mov	ecx, [eax+04h]
  416481:	83 f9 08                  cmp	ecx, 08h
  416484:	0f 85 bc 00 00 00         jnz	416546
  41648a:	8b 15 68 70 46 00         mov	edx, [00467068h]
  416490:	8b 0d 6c 70 46 00         mov	ecx, [0046706Ch]
  416496:	03 ca                     add	ecx, edx
  416498:	57                        push	edi
  416499:	3b d1                     cmp	edx, ecx
  41649b:	7d 27                     jge	4164c4
  41649d:	8d 0c 52                  lea	ecx, [edx+edx*2]
  4164a0:	c1 e1 02                  shl	ecx, 02h
  4164a3:	8b 7e 50                 >mov	edi, [esi+50h]
  4164a6:	83 c1 0c                  add	ecx, 0Ch
  4164a9:	83 64 39 fc 00            and	dword [ecx+edi*1-04h], 00h
  4164ae:	8b 3d 68 70 46 00         mov	edi, [00467068h]
  4164b4:	8b 1d 6c 70 46 00         mov	ebx, [0046706Ch]
  4164ba:	42                        inc	edx
  4164bb:	03 df                     add	ebx, edi
  4164bd:	3b d3                     cmp	edx, ebx
  4164bf:	7c e2                     jl	4164a3
  4164c1:	8b 5d 08                  mov	ebx, [ebp+08h]
  4164c4:	8b 00                    >mov	eax, [eax]
  4164c6:	8b 7e 58                  mov	edi, [esi+58h]
  4164c9:	3d 8e 00 00 c0            cmp	eax, C000008Eh
  4164ce:	75 09                     jnz	4164d9
  4164d0:	c7 46 58 83 00 00 00      mov	dword [esi+58h], 00000083h
  4164d7:	eb 5e                     jmp	416537
  4164d9:	3d 90 00 00 c0           >cmp	eax, C0000090h
  4164de:	75 09                     jnz	4164e9
  4164e0:	c7 46 58 81 00 00 00      mov	dword [esi+58h], 00000081h
  4164e7:	eb 4e                     jmp	416537
  4164e9:	3d 91 00 00 c0           >cmp	eax, C0000091h
  4164ee:	75 09                     jnz	4164f9
  4164f0:	c7 46 58 84 00 00 00      mov	dword [esi+58h], 00000084h
  4164f7:	eb 3e                     jmp	416537
  4164f9:	3d 93 00 00 c0           >cmp	eax, C0000093h
  4164fe:	75 09                     jnz	416509
  416500:	c7 46 58 85 00 00 00      mov	dword [esi+58h], 00000085h
  416507:	eb 2e                     jmp	416537
  416509:	3d 8d 00 00 c0           >cmp	eax, C000008Dh
  41650e:	75 09                     jnz	416519
  416510:	c7 46 58 82 00 00 00      mov	dword [esi+58h], 00000082h
  416517:	eb 1e                     jmp	416537
  416519:	3d 8f 00 00 c0           >cmp	eax, C000008Fh
  41651e:	75 09                     jnz	416529
  416520:	c7 46 58 86 00 00 00      mov	dword [esi+58h], 00000086h
  416527:	eb 0e                     jmp	416537
  416529:	3d 92 00 00 c0           >cmp	eax, C0000092h
  41652e:	75 07                     jnz	416537
  416530:	c7 46 58 8a 00 00 00      mov	dword [esi+58h], 0000008Ah
  416537:	ff 76 58                 >push	dword [esi+58h]
  41653a:	6a 08                     push	dword 00000008h
  41653c:	ff d3                     call	ebx
  41653e:	59                        pop	ecx
  41653f:	89 7e 58                  mov	[esi+58h], edi
  416542:	59                        pop	ecx
  416543:	5f                        pop	edi
  416544:	eb 08                     jmp	41654e
  416546:	83 60 08 00              >and	dword [eax+08h], 00h
  41654a:	51                        push	ecx
  41654b:	ff d3                     call	ebx
  41654d:	59                        pop	ecx
  41654e:	8b 45 fc                 >mov	eax, [ebp-04h]
  416551:	89 46 54                  mov	[esi+54h], eax
  416554:	83 c8 ff                 >or	eax, FFh
  416557:	eb 09                     jmp	416562
  416559:	ff 75 0c                 >push	dword [ebp+0Ch]
  41655c:	ff 15 74 f2 44 00         call	dword [0044F274h]	; <UnhandledExceptionFilter>
  416562:	5e                       >pop	esi
  416563:	5b                        pop	ebx
  416564:	c9                        leave
  416565:	c3                        ret

416566 <no name>:
  416566:	8b 54 24 08               mov	edx, [esp+08h]
  41656a:	8b 0d 74 70 46 00         mov	ecx, [00467074h]
  416570:	56                        push	esi
  416571:	8b 74 24 08               mov	esi, [esp+08h]
  416575:	39 32                     cmp	[edx], esi
  416577:	57                        push	edi
  416578:	8b c2                     mov	eax, edx
  41657a:	74 11                     jz	41658d
  41657c:	8d 3c 49                  lea	edi, [ecx+ecx*2]
  41657f:	8d 3c ba                  lea	edi, [edx+edi*4]
  416582:	83 c0 0c                 >add	eax, 0Ch
  416585:	3b c7                     cmp	eax, edi
  416587:	73 04                     jae	41658d
  416589:	39 30                     cmp	[eax], esi
  41658b:	75 f5                     jnz	416582
  41658d:	8d 0c 49                 >lea	ecx, [ecx+ecx*2]
  416590:	8d 0c 8a                  lea	ecx, [edx+ecx*4]
  416593:	3b c1                     cmp	eax, ecx
  416595:	73 04                     jae	41659b
  416597:	39 30                     cmp	[eax], esi
  416599:	74 02                     jz	41659d
  41659b:	33 c0                    >xor	eax, eax
  41659d:	5f                       >pop	edi
  41659e:	5e                        pop	esi
  41659f:	c3                        ret

4165a0 <no name>:
  4165a0:	83 3d 4c ca 46 00 00      cmp	dword [0046CA4Ch], 00h
  4165a7:	75 05                     jnz	4165ae
  4165a9:	e8 1e b4 ff ff            call	4119cc
  4165ae:	56                       >push	esi
  4165af:	8b 35 58 ca 46 00         mov	esi, [0046CA58h]
  4165b5:	8a 06                     mov	al, [esi]
  4165b7:	3c 22                     cmp	al, 22h
  4165b9:	75 25                     jnz	4165e0
  4165bb:	8a 46 01                 >mov	al, [esi+01h]
  4165be:	46                        inc	esi
  4165bf:	3c 22                     cmp	al, 22h
  4165c1:	74 15                     jz	4165d8
  4165c3:	84 c0                     test	al, al
  4165c5:	74 11                     jz	4165d8
  4165c7:	0f b6 c0                  movzx	eax, al
  4165ca:	50                        push	eax
  4165cb:	e8 f7 2c 00 00            call	4192c7
  4165d0:	85 c0                     test	eax, eax
  4165d2:	59                        pop	ecx
  4165d3:	74 e6                     jz	4165bb
  4165d5:	46                        inc	esi
  4165d6:	eb e3                     jmp	4165bb
  4165d8:	80 3e 22                 >cmp	byte [esi], 22h
  4165db:	75 0d                     jnz	4165ea
  4165dd:	46                       >inc	esi
  4165de:	eb 0a                     jmp	4165ea
  4165e0:	3c 20                    >cmp	al, 20h
  4165e2:	76 06                     jbe	4165ea
  4165e4:	46                       >inc	esi
  4165e5:	80 3e 20                  cmp	byte [esi], 20h
  4165e8:	77 fa                     ja	4165e4
  4165ea:	8a 06                    >mov	al, [esi]
  4165ec:	84 c0                     test	al, al
  4165ee:	74 04                     jz	4165f4
  4165f0:	3c 20                     cmp	al, 20h
  4165f2:	76 e9                     jbe	4165dd
  4165f4:	8b c6                    >mov	eax, esi
  4165f6:	5e                        pop	esi
  4165f7:	c3                        ret

4165f8 <no name>:
  4165f8:	53                        push	ebx
  4165f9:	33 db                     xor	ebx, ebx
  4165fb:	39 1d 4c ca 46 00         cmp	[0046CA4Ch], ebx
  416601:	56                        push	esi
  416602:	57                        push	edi
  416603:	75 05                     jnz	41660a
  416605:	e8 c2 b3 ff ff            call	4119cc
  41660a:	8b 35 64 ad 46 00        >mov	esi, [0046AD64h]
  416610:	33 ff                     xor	edi, edi
  416612:	8a 06                    >mov	al, [esi]
  416614:	3a c3                     cmp	al, bl
  416616:	74 12                     jz	41662a
  416618:	3c 3d                     cmp	al, 3Dh
  41661a:	74 01                     jz	41661d
  41661c:	47                        inc	edi
  41661d:	56                       >push	esi
  41661e:	e8 bd 89 ff ff            call	40efe0
  416623:	59                        pop	ecx
  416624:	8d 74 06 01               lea	esi, [esi+eax*1+01h]
  416628:	eb e8                     jmp	416612
  41662a:	8d 04 bd 04 00 00 00     >lea	eax, [edi*4+00000004h]
  416631:	50                        push	eax
  416632:	e8 12 a3 ff ff            call	410949
  416637:	8b f0                     mov	esi, eax
  416639:	59                        pop	ecx
  41663a:	3b f3                     cmp	esi, ebx
  41663c:	89 35 90 ad 46 00         mov	[0046AD90h], esi
  416642:	75 08                     jnz	41664c
  416644:	6a 09                     push	dword 00000009h
  416646:	e8 00 a0 ff ff            call	41064b
  41664b:	59                        pop	ecx
  41664c:	8b 3d 64 ad 46 00        >mov	edi, [0046AD64h]
  416652:	38 1f                     cmp	[edi], bl
  416654:	74 39                     jz	41668f
  416656:	55                        push	ebp
  416657:	57                       >push	edi
  416658:	e8 83 89 ff ff            call	40efe0
  41665d:	8b e8                     mov	ebp, eax
  41665f:	59                        pop	ecx
  416660:	45                        inc	ebp
  416661:	80 3f 3d                  cmp	byte [edi], 3Dh
  416664:	74 22                     jz	416688
  416666:	55                        push	ebp
  416667:	e8 dd a2 ff ff            call	410949
  41666c:	3b c3                     cmp	eax, ebx
  41666e:	59                        pop	ecx
  41666f:	89 06                     mov	[esi], eax
  416671:	75 08                     jnz	41667b
  416673:	6a 09                     push	dword 00000009h
  416675:	e8 d1 9f ff ff            call	41064b
  41667a:	59                        pop	ecx
  41667b:	57                       >push	edi
  41667c:	ff 36                     push	dword [esi]
  41667e:	e8 5d 90 ff ff            call	40f6e0
  416683:	59                        pop	ecx
  416684:	83 c6 04                  add	esi, 04h
  416687:	59                        pop	ecx
  416688:	03 fd                    >add	edi, ebp
  41668a:	38 1f                     cmp	[edi], bl
  41668c:	75 c9                     jnz	416657
  41668e:	5d                        pop	ebp
  41668f:	ff 35 64 ad 46 00        >push	dword [0046AD64h]
  416695:	e8 28 9c ff ff            call	4102c2
  41669a:	59                        pop	ecx
  41669b:	89 1d 64 ad 46 00         mov	[0046AD64h], ebx
  4166a1:	89 1e                     mov	[esi], ebx
  4166a3:	5f                        pop	edi
  4166a4:	5e                        pop	esi
  4166a5:	c7 05 48 ca 46 00 01      mov	dword [0046CA48h], 00000001h
		00 00 00 
  4166af:	5b                        pop	ebx
  4166b0:	c3                        ret

4166b1 <no name>:
  4166b1:	55                        push	ebp
  4166b2:	8b ec                     mov	ebp, esp
  4166b4:	51                        push	ecx
  4166b5:	51                        push	ecx
  4166b6:	53                        push	ebx
  4166b7:	33 db                     xor	ebx, ebx
  4166b9:	39 1d 4c ca 46 00         cmp	[0046CA4Ch], ebx
  4166bf:	56                        push	esi
  4166c0:	57                        push	edi
  4166c1:	75 05                     jnz	4166c8
  4166c3:	e8 04 b3 ff ff            call	4119cc
  4166c8:	be 64 ae 46 00           >mov	esi, 0046AE64h
  4166cd:	68 04 01 00 00            push	dword 00000104h
  4166d2:	56                        push	esi
  4166d3:	53                        push	ebx
  4166d4:	ff 15 68 f3 44 00         call	dword [0044F368h]	; <GetModuleFileNameA>
  4166da:	a1 58 ca 46 00            mov	eax, [46CA58h]
  4166df:	89 35 a0 ad 46 00         mov	[0046ADA0h], esi
  4166e5:	8b fe                     mov	edi, esi
  4166e7:	38 18                     cmp	[eax], bl
  4166e9:	74 02                     jz	4166ed
  4166eb:	8b f8                     mov	edi, eax
  4166ed:	8d 45 f8                 >lea	eax, [ebp-08h]
  4166f0:	50                        push	eax
  4166f1:	8d 45 fc                  lea	eax, [ebp-04h]
  4166f4:	50                        push	eax
  4166f5:	53                        push	ebx
  4166f6:	53                        push	ebx
  4166f7:	57                        push	edi
  4166f8:	e8 4d 00 00 00            call	41674a
  4166fd:	8b 45 f8                  mov	eax, [ebp-08h]
  416700:	8b 4d fc                  mov	ecx, [ebp-04h]
  416703:	8d 04 88                  lea	eax, [eax+ecx*4]
  416706:	50                        push	eax
  416707:	e8 3d a2 ff ff            call	410949
  41670c:	8b f0                     mov	esi, eax
  41670e:	83 c4 18                  add	esp, 18h
  416711:	3b f3                     cmp	esi, ebx
  416713:	75 08                     jnz	41671d
  416715:	6a 08                     push	dword 00000008h
  416717:	e8 2f 9f ff ff            call	41064b
  41671c:	59                        pop	ecx
  41671d:	8d 45 f8                 >lea	eax, [ebp-08h]
  416720:	50                        push	eax
  416721:	8d 45 fc                  lea	eax, [ebp-04h]
  416724:	50                        push	eax
  416725:	8b 45 fc                  mov	eax, [ebp-04h]
  416728:	8d 04 86                  lea	eax, [esi+eax*4]
  41672b:	50                        push	eax
  41672c:	56                        push	esi
  41672d:	57                        push	edi
  41672e:	e8 17 00 00 00            call	41674a
  416733:	8b 45 fc                  mov	eax, [ebp-04h]
  416736:	83 c4 14                  add	esp, 14h
  416739:	48                        dec	eax
  41673a:	89 35 88 ad 46 00         mov	[0046AD88h], esi
  416740:	5f                        pop	edi
  416741:	5e                        pop	esi
  416742:	a3 84 ad 46 00            mov	[46AD84h], eax
  416747:	5b                        pop	ebx
  416748:	c9                        leave
  416749:	c3                        ret

41674a <no name>:
  41674a:	55                        push	ebp
  41674b:	8b ec                     mov	ebp, esp
  41674d:	8b 4d 18                  mov	ecx, [ebp+18h]
  416750:	8b 45 14                  mov	eax, [ebp+14h]
  416753:	53                        push	ebx
  416754:	56                        push	esi
  416755:	83 21 00                  and	dword [ecx], 00h
  416758:	8b 75 10                  mov	esi, [ebp+10h]
  41675b:	57                        push	edi
  41675c:	8b 7d 0c                  mov	edi, [ebp+0Ch]
  41675f:	c7 00 01 00 00 00         mov	dword [eax], 00000001h
  416765:	8b 45 08                  mov	eax, [ebp+08h]
  416768:	85 ff                     test	edi, edi
  41676a:	74 08                     jz	416774
  41676c:	89 37                     mov	[edi], esi
  41676e:	83 c7 04                  add	edi, 04h
  416771:	89 7d 0c                  mov	[ebp+0Ch], edi
  416774:	80 38 22                 >cmp	byte [eax], 22h
  416777:	75 44                     jnz	4167bd
  416779:	8a 50 01                 >mov	dl, [eax+01h]
  41677c:	40                        inc	eax
  41677d:	80 fa 22                  cmp	dl, 22h
  416780:	74 29                     jz	4167ab
  416782:	84 d2                     test	dl, dl
  416784:	74 25                     jz	4167ab
  416786:	0f b6 d2                  movzx	edx, dl
  416789:	f6 82 41 c9 46 00 04      test	byte [edx+0046C941h], 04h
  416790:	74 0c                     jz	41679e
  416792:	ff 01                     inc	dword [ecx]
  416794:	85 f6                     test	esi, esi
  416796:	74 06                     jz	41679e
  416798:	8a 10                     mov	dl, [eax]
  41679a:	88 16                     mov	[esi], dl
  41679c:	46                        inc	esi
  41679d:	40                        inc	eax
  41679e:	ff 01                    >inc	dword [ecx]
  4167a0:	85 f6                     test	esi, esi
  4167a2:	74 d5                     jz	416779
  4167a4:	8a 10                     mov	dl, [eax]
  4167a6:	88 16                     mov	[esi], dl
  4167a8:	46                        inc	esi
  4167a9:	eb ce                     jmp	416779
  4167ab:	ff 01                    >inc	dword [ecx]
  4167ad:	85 f6                     test	esi, esi
  4167af:	74 04                     jz	4167b5
  4167b1:	80 26 00                  and	byte [esi], 00h
  4167b4:	46                        inc	esi
  4167b5:	80 38 22                 >cmp	byte [eax], 22h
  4167b8:	75 46                     jnz	416800
  4167ba:	40                        inc	eax
  4167bb:	eb 43                     jmp	416800
  4167bd:	ff 01                    >inc	dword [ecx]
  4167bf:	85 f6                     test	esi, esi
  4167c1:	74 05                     jz	4167c8
  4167c3:	8a 10                     mov	dl, [eax]
  4167c5:	88 16                     mov	[esi], dl
  4167c7:	46                        inc	esi
  4167c8:	8a 10                    >mov	dl, [eax]
  4167ca:	40                        inc	eax
  4167cb:	0f b6 da                  movzx	ebx, dl
  4167ce:	f6 83 41 c9 46 00 04      test	byte [ebx+0046C941h], 04h
  4167d5:	74 0c                     jz	4167e3
  4167d7:	ff 01                     inc	dword [ecx]
  4167d9:	85 f6                     test	esi, esi
  4167db:	74 05                     jz	4167e2
  4167dd:	8a 18                     mov	bl, [eax]
  4167df:	88 1e                     mov	[esi], bl
  4167e1:	46                        inc	esi
  4167e2:	40                       >inc	eax
  4167e3:	80 fa 20                 >cmp	dl, 20h
  4167e6:	74 09                     jz	4167f1
  4167e8:	84 d2                     test	dl, dl
  4167ea:	74 09                     jz	4167f5
  4167ec:	80 fa 09                  cmp	dl, 09h
  4167ef:	75 cc                     jnz	4167bd
  4167f1:	84 d2                    >test	dl, dl
  4167f3:	75 03                     jnz	4167f8
  4167f5:	48                       >dec	eax
  4167f6:	eb 08                     jmp	416800
  4167f8:	85 f6                    >test	esi, esi
  4167fa:	74 04                     jz	416800
  4167fc:	80 66 ff 00               and	byte [esi-01h], 00h
  416800:	83 65 18 00              >and	dword [ebp+18h], 00h
  416804:	80 38 00                 >cmp	byte [eax], 00h
  416807:	0f 84 e0 00 00 00         jz	4168ed
  41680d:	8a 10                    >mov	dl, [eax]
  41680f:	80 fa 20                  cmp	dl, 20h
  416812:	74 05                     jz	416819
  416814:	80 fa 09                  cmp	dl, 09h
  416817:	75 03                     jnz	41681c
  416819:	40                       >inc	eax
  41681a:	eb f1                     jmp	41680d
  41681c:	80 38 00                 >cmp	byte [eax], 00h
  41681f:	0f 84 c8 00 00 00         jz	4168ed
  416825:	85 ff                     test	edi, edi
  416827:	74 08                     jz	416831
  416829:	89 37                     mov	[edi], esi
  41682b:	83 c7 04                  add	edi, 04h
  41682e:	89 7d 0c                  mov	[ebp+0Ch], edi
  416831:	8b 55 14                 >mov	edx, [ebp+14h]
  416834:	ff 02                     inc	dword [edx]
  416836:	c7 45 08 01 00 00 00     >mov	dword [ebp+08h], 00000001h
  41683d:	33 db                     xor	ebx, ebx
  41683f:	80 38 5c                 >cmp	byte [eax], 5Ch
  416842:	75 04                     jnz	416848
  416844:	40                        inc	eax
  416845:	43                        inc	ebx
  416846:	eb f7                     jmp	41683f
  416848:	80 38 22                 >cmp	byte [eax], 22h
  41684b:	75 2c                     jnz	416879
  41684d:	f6 c3 01                  test	bl, 01h
  416850:	75 25                     jnz	416877
  416852:	33 ff                     xor	edi, edi
  416854:	39 7d 18                  cmp	[ebp+18h], edi
  416857:	74 0d                     jz	416866
  416859:	80 78 01 22               cmp	byte [eax+01h], 22h
  41685d:	8d 50 01                  lea	edx, [eax+01h]
  416860:	75 04                     jnz	416866
  416862:	8b c2                     mov	eax, edx
  416864:	eb 03                     jmp	416869
  416866:	89 7d 08                 >mov	[ebp+08h], edi
  416869:	8b 7d 0c                 >mov	edi, [ebp+0Ch]
  41686c:	33 d2                     xor	edx, edx
  41686e:	39 55 18                  cmp	[ebp+18h], edx
  416871:	0f 94 c2                  setz	dl
  416874:	89 55 18                  mov	[ebp+18h], edx
  416877:	d1 eb                    >shr	ebx, 1h
  416879:	8b d3                    >mov	edx, ebx
  41687b:	4b                        dec	ebx
  41687c:	85 d2                     test	edx, edx
  41687e:	74 0e                     jz	41688e
  416880:	43                        inc	ebx
  416881:	85 f6                    >test	esi, esi
  416883:	74 04                     jz	416889
  416885:	c6 06 5c                  mov	byte [esi], 5Ch
  416888:	46                        inc	esi
  416889:	ff 01                    >inc	dword [ecx]
  41688b:	4b                        dec	ebx
  41688c:	75 f3                     jnz	416881
  41688e:	8a 10                    >mov	dl, [eax]
  416890:	84 d2                     test	dl, dl
  416892:	74 4a                     jz	4168de
  416894:	83 7d 18 00               cmp	dword [ebp+18h], 00h
  416898:	75 0a                     jnz	4168a4
  41689a:	80 fa 20                  cmp	dl, 20h
  41689d:	74 3f                     jz	4168de
  41689f:	80 fa 09                  cmp	dl, 09h
  4168a2:	74 3a                     jz	4168de
  4168a4:	83 7d 08 00              >cmp	dword [ebp+08h], 00h
  4168a8:	74 2e                     jz	4168d8
  4168aa:	85 f6                     test	esi, esi
  4168ac:	74 19                     jz	4168c7
  4168ae:	0f b6 da                  movzx	ebx, dl
  4168b1:	f6 83 41 c9 46 00 04      test	byte [ebx+0046C941h], 04h
  4168b8:	74 06                     jz	4168c0
  4168ba:	88 16                     mov	[esi], dl
  4168bc:	46                        inc	esi
  4168bd:	40                        inc	eax
  4168be:	ff 01                     inc	dword [ecx]
  4168c0:	8a 10                    >mov	dl, [eax]
  4168c2:	88 16                     mov	[esi], dl
  4168c4:	46                        inc	esi
  4168c5:	eb 0f                     jmp	4168d6
  4168c7:	0f b6 d2                 >movzx	edx, dl
  4168ca:	f6 82 41 c9 46 00 04      test	byte [edx+0046C941h], 04h
  4168d1:	74 03                     jz	4168d6
  4168d3:	40                        inc	eax
  4168d4:	ff 01                     inc	dword [ecx]
  4168d6:	ff 01                    >inc	dword [ecx]
  4168d8:	40                       >inc	eax
  4168d9:	e9 58 ff ff ff            jmp	416836
  4168de:	85 f6                    >test	esi, esi
  4168e0:	74 04                     jz	4168e6
  4168e2:	80 26 00                  and	byte [esi], 00h
  4168e5:	46                        inc	esi
  4168e6:	ff 01                    >inc	dword [ecx]
  4168e8:	e9 17 ff ff ff            jmp	416804
  4168ed:	85 ff                    >test	edi, edi
  4168ef:	74 03                     jz	4168f4
  4168f1:	83 27 00                  and	dword [edi], 00h
  4168f4:	8b 45 14                 >mov	eax, [ebp+14h]
  4168f7:	5f                        pop	edi
  4168f8:	5e                        pop	esi
  4168f9:	5b                        pop	ebx
  4168fa:	ff 00                     inc	dword [eax]
  4168fc:	5d                        pop	ebp
  4168fd:	c3                        ret

4168fe <no name>:
  4168fe:	51                        push	ecx
  4168ff:	51                        push	ecx
  416900:	a1 68 af 46 00            mov	eax, [46AF68h]
  416905:	53                        push	ebx
  416906:	55                        push	ebp
  416907:	8b 2d 84 f2 44 00         mov	ebp, [0044F284h]
  41690d:	56                        push	esi
  41690e:	57                        push	edi
  41690f:	33 db                     xor	ebx, ebx
  416911:	33 f6                     xor	esi, esi
  416913:	33 ff                     xor	edi, edi
  416915:	3b c3                     cmp	eax, ebx
  416917:	75 33                     jnz	41694c
  416919:	ff d5                     call	ebp
  41691b:	8b f0                     mov	esi, eax
  41691d:	3b f3                     cmp	esi, ebx
  41691f:	74 0c                     jz	41692d
  416921:	c7 05 68 af 46 00 01      mov	dword [0046AF68h], 00000001h
		00 00 00 
  41692b:	eb 28                     jmp	416955
  41692d:	ff 15 80 f2 44 00        >call	dword [0044F280h]	; <GetEnvironmentStrings>
  416933:	8b f8                     mov	edi, eax
  416935:	3b fb                     cmp	edi, ebx
  416937:	0f 84 ea 00 00 00         jz	416a27
  41693d:	c7 05 68 af 46 00 02      mov	dword [0046AF68h], 00000002h
		00 00 00 
  416947:	e9 8f 00 00 00            jmp	4169db
  41694c:	83 f8 01                 >cmp	eax, 01h
  41694f:	0f 85 81 00 00 00         jnz	4169d6
  416955:	3b f3                    >cmp	esi, ebx
  416957:	75 0c                     jnz	416965
  416959:	ff d5                     call	ebp
  41695b:	8b f0                     mov	esi, eax
  41695d:	3b f3                     cmp	esi, ebx
  41695f:	0f 84 c2 00 00 00         jz	416a27
  416965:	66 39 1e                 >cmp	[esi], bx
  416968:	8b c6                     mov	eax, esi
  41696a:	74 0e                     jz	41697a
  41696c:	40                       >inc	eax
  41696d:	40                        inc	eax
  41696e:	66 39 18                  cmp	[eax], bx
  416971:	75 f9                     jnz	41696c
  416973:	40                        inc	eax
  416974:	40                        inc	eax
  416975:	66 39 18                  cmp	[eax], bx
  416978:	75 f2                     jnz	41696c
  41697a:	2b c6                    >sub	eax, esi
  41697c:	8b 3d 3c f4 44 00         mov	edi, [0044F43Ch]
  416982:	d1 f8                     sar	eax, 1h
  416984:	53                        push	ebx
  416985:	53                        push	ebx
  416986:	40                        inc	eax
  416987:	53                        push	ebx
  416988:	53                        push	ebx
  416989:	50                        push	eax
  41698a:	56                        push	esi
  41698b:	53                        push	ebx
  41698c:	53                        push	ebx
  41698d:	89 44 24 34               mov	[esp+34h], eax
  416991:	ff d7                     call	edi
  416993:	8b e8                     mov	ebp, eax
  416995:	3b eb                     cmp	ebp, ebx
  416997:	74 32                     jz	4169cb
  416999:	55                        push	ebp
  41699a:	e8 aa 9f ff ff            call	410949
  41699f:	3b c3                     cmp	eax, ebx
  4169a1:	59                        pop	ecx
  4169a2:	89 44 24 10               mov	[esp+10h], eax
  4169a6:	74 23                     jz	4169cb
  4169a8:	53                        push	ebx
  4169a9:	53                        push	ebx
  4169aa:	55                        push	ebp
  4169ab:	50                        push	eax
  4169ac:	ff 74 24 24               push	dword [esp+24h]
  4169b0:	56                        push	esi
  4169b1:	53                        push	ebx
  4169b2:	53                        push	ebx
  4169b3:	ff d7                     call	edi
  4169b5:	85 c0                     test	eax, eax
  4169b7:	75 0e                     jnz	4169c7
  4169b9:	ff 74 24 10               push	dword [esp+10h]
  4169bd:	e8 00 99 ff ff            call	4102c2
  4169c2:	59                        pop	ecx
  4169c3:	89 5c 24 10               mov	[esp+10h], ebx
  4169c7:	8b 5c 24 10              >mov	ebx, [esp+10h]
  4169cb:	56                       >push	esi
  4169cc:	ff 15 7c f2 44 00         call	dword [0044F27Ch]	; <FreeEnvironmentStringsW>
  4169d2:	8b c3                     mov	eax, ebx
  4169d4:	eb 53                     jmp	416a29
  4169d6:	83 f8 02                 >cmp	eax, 02h
  4169d9:	75 4c                     jnz	416a27
  4169db:	3b fb                    >cmp	edi, ebx
  4169dd:	75 0c                     jnz	4169eb
  4169df:	ff 15 80 f2 44 00         call	dword [0044F280h]	; <GetEnvironmentStrings>
  4169e5:	8b f8                     mov	edi, eax
  4169e7:	3b fb                     cmp	edi, ebx
  4169e9:	74 3c                     jz	416a27
  4169eb:	38 1f                    >cmp	[edi], bl
  4169ed:	8b c7                     mov	eax, edi
  4169ef:	74 0a                     jz	4169fb
  4169f1:	40                       >inc	eax
  4169f2:	38 18                     cmp	[eax], bl
  4169f4:	75 fb                     jnz	4169f1
  4169f6:	40                        inc	eax
  4169f7:	38 18                     cmp	[eax], bl
  4169f9:	75 f6                     jnz	4169f1
  4169fb:	2b c7                    >sub	eax, edi
  4169fd:	40                        inc	eax
  4169fe:	8b e8                     mov	ebp, eax
  416a00:	55                        push	ebp
  416a01:	e8 43 9f ff ff            call	410949
  416a06:	8b f0                     mov	esi, eax
  416a08:	59                        pop	ecx
  416a09:	3b f3                     cmp	esi, ebx
  416a0b:	75 04                     jnz	416a11
  416a0d:	33 f6                     xor	esi, esi
  416a0f:	eb 0b                     jmp	416a1c
  416a11:	55                       >push	ebp
  416a12:	57                        push	edi
  416a13:	56                        push	esi
  416a14:	e8 47 86 ff ff            call	40f060
  416a19:	83 c4 0c                  add	esp, 0Ch
  416a1c:	57                       >push	edi
  416a1d:	ff 15 78 f2 44 00         call	dword [0044F278h]	; <FreeEnvironmentStringsA>
  416a23:	8b c6                     mov	eax, esi
  416a25:	eb 02                     jmp	416a29
  416a27:	33 c0                    >xor	eax, eax
  416a29:	5f                       >pop	edi
  416a2a:	5e                        pop	esi
  416a2b:	5d                        pop	ebp
  416a2c:	5b                        pop	ebx
  416a2d:	59                        pop	ecx
  416a2e:	59                        pop	ecx
  416a2f:	c3                        ret

416a30 <no name>:
  416a30:	55                        push	ebp
  416a31:	8b ec                     mov	ebp, esp
  416a33:	83 ec 48                  sub	esp, 48h
  416a36:	53                        push	ebx
  416a37:	56                        push	esi
  416a38:	57                        push	edi
  416a39:	68 80 04 00 00            push	dword 00000480h
  416a3e:	e8 06 9f ff ff            call	410949
  416a43:	8b f0                     mov	esi, eax
  416a45:	59                        pop	ecx
  416a46:	85 f6                     test	esi, esi
  416a48:	75 08                     jnz	416a52
  416a4a:	6a 1b                     push	dword 0000001Bh
  416a4c:	e8 fa 9b ff ff            call	41064b
  416a51:	59                        pop	ecx
  416a52:	89 35 e0 c6 46 00        >mov	[0046C6E0h], esi
  416a58:	c7 05 e0 c7 46 00 20      mov	dword [0046C7E0h], 00000020h
		00 00 00 
  416a62:	8d 86 80 04 00 00         lea	eax, [esi+00000480h]
  416a68:	3b f0                    >cmp	esi, eax
  416a6a:	73 1e                     jae	416a8a
  416a6c:	80 66 04 00               and	byte [esi+04h], 00h
  416a70:	83 0e ff                  or	dword [esi], FFh
  416a73:	83 66 08 00               and	dword [esi+08h], 00h
  416a77:	c6 46 05 0a               mov	byte [esi+05h], 0Ah
  416a7b:	a1 e0 c6 46 00            mov	eax, [46C6E0h]
  416a80:	83 c6 24                  add	esi, 24h
  416a83:	05 80 04 00 00            add	eax, 00000480h
  416a88:	eb de                     jmp	416a68
  416a8a:	8d 45 b8                 >lea	eax, [ebp-48h]
  416a8d:	50                        push	eax
  416a8e:	ff 15 18 f2 44 00         call	dword [0044F218h]	; <GetStartupInfoA>
  416a94:	66 83 7d ea 00            cmp	word [ebp-16h], 00h
  416a99:	0f 84 d1 00 00 00         jz	416b70
  416a9f:	8b 45 ec                  mov	eax, [ebp-14h]
  416aa2:	85 c0                     test	eax, eax
  416aa4:	0f 84 c6 00 00 00         jz	416b70
  416aaa:	8b 38                     mov	edi, [eax]
  416aac:	8d 58 04                  lea	ebx, [eax+04h]
  416aaf:	8d 04 3b                  lea	eax, [ebx+edi*1]
  416ab2:	89 45 fc                  mov	[ebp-04h], eax
  416ab5:	b8 00 08 00 00            mov	eax, 00000800h
  416aba:	3b f8                     cmp	edi, eax
  416abc:	7c 02                     jl	416ac0
  416abe:	8b f8                     mov	edi, eax
  416ac0:	39 3d e0 c7 46 00        >cmp	[0046C7E0h], edi
  416ac6:	7d 56                     jge	416b1e
  416ac8:	be e4 c6 46 00            mov	esi, 0046C6E4h
  416acd:	68 80 04 00 00           >push	dword 00000480h
  416ad2:	e8 72 9e ff ff            call	410949
  416ad7:	85 c0                     test	eax, eax
  416ad9:	59                        pop	ecx
  416ada:	74 3c                     jz	416b18
  416adc:	83 05 e0 c7 46 00 20      add	dword [0046C7E0h], 20h
  416ae3:	89 06                     mov	[esi], eax
  416ae5:	8d 88 80 04 00 00         lea	ecx, [eax+00000480h]
  416aeb:	3b c1                    >cmp	eax, ecx
  416aed:	73 1c                     jae	416b0b
  416aef:	80 60 04 00               and	byte [eax+04h], 00h
  416af3:	83 08 ff                  or	dword [eax], FFh
  416af6:	83 60 08 00               and	dword [eax+08h], 00h
  416afa:	c6 40 05 0a               mov	byte [eax+05h], 0Ah
  416afe:	8b 0e                     mov	ecx, [esi]
  416b00:	83 c0 24                  add	eax, 24h
  416b03:	81 c1 80 04 00 00         add	ecx, 00000480h
  416b09:	eb e0                     jmp	416aeb
  416b0b:	83 c6 04                 >add	esi, 04h
  416b0e:	39 3d e0 c7 46 00         cmp	[0046C7E0h], edi
  416b14:	7c b7                     jl	416acd
  416b16:	eb 06                     jmp	416b1e
  416b18:	8b 3d e0 c7 46 00        >mov	edi, [0046C7E0h]
  416b1e:	33 f6                    >xor	esi, esi
  416b20:	85 ff                     test	edi, edi
  416b22:	7e 4c                     jle	416b70
  416b24:	8b 45 fc                 >mov	eax, [ebp-04h]
  416b27:	8b 08                     mov	ecx, [eax]
  416b29:	83 f9 ff                  cmp	ecx, FFh
  416b2c:	74 38                     jz	416b66
  416b2e:	8a 03                     mov	al, [ebx]
  416b30:	a8 01                     test	al, 01h
  416b32:	74 32                     jz	416b66
  416b34:	a8 08                     test	al, 08h
  416b36:	75 0b                     jnz	416b43
  416b38:	51                        push	ecx
  416b39:	ff 15 90 f2 44 00         call	dword [0044F290h]	; <GetFileType>
  416b3f:	85 c0                     test	eax, eax
  416b41:	74 23                     jz	416b66
  416b43:	8b ce                    >mov	ecx, esi
  416b45:	8b c6                     mov	eax, esi
  416b47:	c1 f9 05                  sar	ecx, 05h
  416b4a:	83 e0 1f                  and	eax, 1Fh
  416b4d:	8b 0c 8d e0 c6 46 00      mov	ecx, [ecx*4+0046C6E0h]
  416b54:	8d 04 c0                  lea	eax, [eax+eax*8]
  416b57:	8d 04 81                  lea	eax, [ecx+eax*4]
  416b5a:	8b 4d fc                  mov	ecx, [ebp-04h]
  416b5d:	8b 09                     mov	ecx, [ecx]
  416b5f:	89 08                     mov	[eax], ecx
  416b61:	8a 0b                     mov	cl, [ebx]
  416b63:	88 48 04                  mov	[eax+04h], cl
  416b66:	83 45 fc 04              >add	dword [ebp-04h], 04h
  416b6a:	46                        inc	esi
  416b6b:	43                        inc	ebx
  416b6c:	3b f7                     cmp	esi, edi
  416b6e:	7c b4                     jl	416b24
  416b70:	33 db                    >xor	ebx, ebx
  416b72:	8b 0d e0 c6 46 00        >mov	ecx, [0046C6E0h]
  416b78:	8d 04 db                  lea	eax, [ebx+ebx*8]
  416b7b:	83 3c 81 ff               cmp	dword [ecx+eax*4], FFh
  416b7f:	8d 34 81                  lea	esi, [ecx+eax*4]
  416b82:	75 4d                     jnz	416bd1
  416b84:	85 db                     test	ebx, ebx
  416b86:	c6 46 04 81               mov	byte [esi+04h], 81h
  416b8a:	75 05                     jnz	416b91
  416b8c:	6a f6                     push	dword FFFFFFF6h
  416b8e:	58                        pop	eax
  416b8f:	eb 0a                     jmp	416b9b
  416b91:	8b c3                    >mov	eax, ebx
  416b93:	48                        dec	eax
  416b94:	f7 d8                     neg	eax
  416b96:	1b c0                     sbb	eax, eax
  416b98:	83 c0 f5                  add	eax, F5h
  416b9b:	50                       >push	eax
  416b9c:	ff 15 8c f2 44 00         call	dword [0044F28Ch]	; <GetStdHandle>
  416ba2:	8b f8                     mov	edi, eax
  416ba4:	83 ff ff                  cmp	edi, FFh
  416ba7:	74 17                     jz	416bc0
  416ba9:	57                        push	edi
  416baa:	ff 15 90 f2 44 00         call	dword [0044F290h]	; <GetFileType>
  416bb0:	85 c0                     test	eax, eax
  416bb2:	74 0c                     jz	416bc0
  416bb4:	25 ff 00 00 00            and	eax, 000000FFh
  416bb9:	89 3e                     mov	[esi], edi
  416bbb:	83 f8 02                  cmp	eax, 02h
  416bbe:	75 06                     jnz	416bc6
  416bc0:	80 4e 04 40              >or	byte [esi+04h], 40h
  416bc4:	eb 0f                     jmp	416bd5
  416bc6:	83 f8 03                 >cmp	eax, 03h
  416bc9:	75 0a                     jnz	416bd5
  416bcb:	80 4e 04 08               or	byte [esi+04h], 08h
  416bcf:	eb 04                     jmp	416bd5
  416bd1:	80 4e 04 80              >or	byte [esi+04h], 80h
  416bd5:	43                       >inc	ebx
  416bd6:	83 fb 03                  cmp	ebx, 03h
  416bd9:	7c 97                     jl	416b72
  416bdb:	ff 35 e0 c7 46 00         push	dword [0046C7E0h]
  416be1:	ff 15 88 f2 44 00         call	dword [0044F288h]	; <SetHandleCount>
  416be7:	5f                        pop	edi
  416be8:	5e                        pop	esi
  416be9:	5b                        pop	ebx
  416bea:	c9                        leave
  416beb:	c3                        ret
     ...

416c40 <no name>:
  416c40:	a1 6c ad 46 00            mov	eax, [46AD6Ch]
  416c45:	83 f8 01                  cmp	eax, 01h
  416c48:	74 0d                     jz	416c57
  416c4a:	85 c0                     test	eax, eax
  416c4c:	75 2a                     jnz	416c78
  416c4e:	83 3d 00 4b 46 00 01      cmp	dword [00464B00h], 01h
  416c55:	75 21                     jnz	416c78
  416c57:	68 fc 00 00 00           >push	dword 000000FCh
  416c5c:	e8 18 00 00 00            call	416c79
  416c61:	a1 6c af 46 00            mov	eax, [46AF6Ch]
  416c66:	59                        pop	ecx
  416c67:	85 c0                     test	eax, eax
  416c69:	74 02                     jz	416c6d
  416c6b:	ff d0                     call	eax
  416c6d:	68 ff 00 00 00           >push	dword 000000FFh
  416c72:	e8 02 00 00 00            call	416c79
  416c77:	59                        pop	ecx
  416c78:	c3                       >ret

416c79 <no name>:
  416c79:	55                        push	ebp
  416c7a:	8b ec                     mov	ebp, esp
  416c7c:	81 ec a4 01 00 00         sub	esp, 000001A4h
  416c82:	8b 55 08                  mov	edx, [ebp+08h]
  416c85:	33 c9                     xor	ecx, ecx
  416c87:	b8 a0 70 46 00            mov	eax, 004670A0h
  416c8c:	3b 10                    >cmp	edx, [eax]
  416c8e:	74 0b                     jz	416c9b
  416c90:	83 c0 08                  add	eax, 08h
  416c93:	41                        inc	ecx
  416c94:	3d 30 71 46 00            cmp	eax, 00467130h
  416c99:	7c f1                     jl	416c8c
  416c9b:	56                       >push	esi
  416c9c:	8b f1                     mov	esi, ecx
  416c9e:	c1 e6 03                  shl	esi, 03h
  416ca1:	3b 96 a0 70 46 00         cmp	edx, [esi+004670A0h]
  416ca7:	0f 85 1c 01 00 00         jnz	416dc9
  416cad:	a1 6c ad 46 00            mov	eax, [46AD6Ch]
  416cb2:	83 f8 01                  cmp	eax, 01h
  416cb5:	0f 84 e8 00 00 00         jz	416da3
  416cbb:	85 c0                     test	eax, eax
  416cbd:	75 0d                     jnz	416ccc
  416cbf:	83 3d 00 4b 46 00 01      cmp	dword [00464B00h], 01h
  416cc6:	0f 84 d7 00 00 00         jz	416da3
  416ccc:	81 fa fc 00 00 00        >cmp	edx, 000000FCh
  416cd2:	0f 84 f1 00 00 00         jz	416dc9
  416cd8:	8d 85 5c fe ff ff         lea	eax, [ebp-000001A4h]
  416cde:	68 04 01 00 00            push	dword 00000104h
  416ce3:	50                        push	eax
  416ce4:	6a 00                     push	dword 00000000h
  416ce6:	ff 15 68 f3 44 00         call	dword [0044F368h]	; <GetModuleFileNameA>
  416cec:	85 c0                     test	eax, eax
  416cee:	75 13                     jnz	416d03
  416cf0:	8d 85 5c fe ff ff         lea	eax, [ebp-000001A4h]
  416cf6:	68 e4 47 45 00            push	dword 004547E4h
  416cfb:	50                        push	eax
  416cfc:	e8 df 89 ff ff            call	40f6e0
  416d01:	59                        pop	ecx
  416d02:	59                        pop	ecx
  416d03:	8d 85 5c fe ff ff        >lea	eax, [ebp-000001A4h]
  416d09:	57                        push	edi
  416d0a:	50                        push	eax
  416d0b:	8d bd 5c fe ff ff         lea	edi, [ebp-000001A4h]
  416d11:	e8 ca 82 ff ff            call	40efe0
  416d16:	40                        inc	eax
  416d17:	59                        pop	ecx
  416d18:	83 f8 3c                  cmp	eax, 3Ch
  416d1b:	76 29                     jbe	416d46
  416d1d:	8d 85 5c fe ff ff         lea	eax, [ebp-000001A4h]
  416d23:	50                        push	eax
  416d24:	e8 b7 82 ff ff            call	40efe0
  416d29:	8b f8                     mov	edi, eax
  416d2b:	8d 85 5c fe ff ff         lea	eax, [ebp-000001A4h]
  416d31:	83 e8 3b                  sub	eax, 3Bh
  416d34:	6a 03                     push	dword 00000003h
  416d36:	03 f8                     add	edi, eax
  416d38:	68 e0 47 45 00            push	dword 004547E0h
  416d3d:	57                        push	edi
  416d3e:	e8 8d 26 00 00            call	4193d0
  416d43:	83 c4 10                  add	esp, 10h
  416d46:	8d 85 60 ff ff ff        >lea	eax, [ebp-000000A0h]
  416d4c:	68 c4 47 45 00            push	dword 004547C4h
  416d51:	50                        push	eax
  416d52:	e8 89 89 ff ff            call	40f6e0
  416d57:	8d 85 60 ff ff ff         lea	eax, [ebp-000000A0h]
  416d5d:	57                        push	edi
  416d5e:	50                        push	eax
  416d5f:	e8 8c 89 ff ff            call	40f6f0
  416d64:	8d 85 60 ff ff ff         lea	eax, [ebp-000000A0h]
  416d6a:	68 c0 47 45 00            push	dword 004547C0h
  416d6f:	50                        push	eax
  416d70:	e8 7b 89 ff ff            call	40f6f0
  416d75:	ff b6 a4 70 46 00         push	dword [esi+004670A4h]
  416d7b:	8d 85 60 ff ff ff         lea	eax, [ebp-000000A0h]
  416d81:	50                        push	eax
  416d82:	e8 69 89 ff ff            call	40f6f0
  416d87:	68 10 20 01 00            push	dword 00012010h
  416d8c:	8d 85 60 ff ff ff         lea	eax, [ebp-000000A0h]
  416d92:	68 98 47 45 00            push	dword 00454798h
  416d97:	50                        push	eax
  416d98:	e8 a4 25 00 00            call	419341
  416d9d:	83 c4 2c                  add	esp, 2Ch
  416da0:	5f                        pop	edi
  416da1:	eb 26                     jmp	416dc9
  416da3:	8d 45 08                 >lea	eax, [ebp+08h]
  416da6:	8d b6 a4 70 46 00         lea	esi, [esi+004670A4h]
  416dac:	6a 00                     push	dword 00000000h
  416dae:	50                        push	eax
  416daf:	ff 36                     push	dword [esi]
  416db1:	e8 2a 82 ff ff            call	40efe0
  416db6:	59                        pop	ecx
  416db7:	50                        push	eax
  416db8:	ff 36                     push	dword [esi]
  416dba:	6a f4                     push	dword FFFFFFF4h
  416dbc:	ff 15 8c f2 44 00         call	dword [0044F28Ch]	; <GetStdHandle>
  416dc2:	50                        push	eax
  416dc3:	ff 15 48 f3 44 00         call	dword [0044F348h]	; <WriteFile>
  416dc9:	5e                       >pop	esi
  416dca:	c9                        leave
  416dcb:	c3                        ret
     ...

416e9a <no name>:
  416e9a:	a1 74 af 46 00            mov	eax, [46AF74h]
  416e9f:	85 c0                     test	eax, eax
  416ea1:	74 0f                     jz	416eb2
  416ea3:	ff 74 24 04               push	dword [esp+04h]
  416ea7:	ff d0                     call	eax
  416ea9:	85 c0                     test	eax, eax
  416eab:	59                        pop	ecx
  416eac:	74 04                     jz	416eb2
  416eae:	6a 01                     push	dword 00000001h
  416eb0:	58                        pop	eax
  416eb1:	c3                        ret
  416eb2:	33 c0                    >xor	eax, eax
  416eb4:	c3                        ret

416eb5 <no name>:
  416eb5:	55                        push	ebp
  416eb6:	8b ec                     mov	ebp, esp
  416eb8:	6a ff                     push	dword FFFFFFFFh
  416eba:	68 00 48 45 00            push	dword 00454800h
  416ebf:	68 50 63 41 00            push	dword 00416350h
  416ec4:	64 a1 00 00 00 00         mov	eax, [fs:0000h]
  416eca:	50                        push	eax
  416ecb:	64 89 25 00 00 00 00      mov	[fs:00000000h], esp
  416ed2:	83 ec 18                  sub	esp, 18h
  416ed5:	53                        push	ebx
  416ed6:	56                        push	esi
  416ed7:	57                        push	edi
  416ed8:	8b 75 08                  mov	esi, [ebp+08h]
  416edb:	0f af 75 0c               imul	esi, [ebp+0Ch]
  416edf:	89 75 0c                  mov	[ebp+0Ch], esi
  416ee2:	89 75 e4                  mov	[ebp-1Ch], esi
  416ee5:	83 fe e0                  cmp	esi, E0h
  416ee8:	77 14                     ja	416efe
  416eea:	33 db                     xor	ebx, ebx
  416eec:	3b f3                     cmp	esi, ebx
  416eee:	75 03                     jnz	416ef3
  416ef0:	6a 01                     push	dword 00000001h
  416ef2:	5e                        pop	esi
  416ef3:	83 c6 0f                 >add	esi, 0Fh
  416ef6:	83 e6 f0                  and	esi, F0h
  416ef9:	89 75 0c                  mov	[ebp+0Ch], esi
  416efc:	eb 02                     jmp	416f00
  416efe:	33 db                    >xor	ebx, ebx
  416f00:	89 5d e0                 >mov	[ebp-20h], ebx
  416f03:	83 fe e0                  cmp	esi, E0h
  416f06:	0f 87 a8 00 00 00         ja	416fb4
  416f0c:	a1 08 c8 46 00            mov	eax, [46C808h]
  416f11:	83 f8 03                  cmp	eax, 03h
  416f14:	75 41                     jnz	416f57
  416f16:	8b 7d e4                  mov	edi, [ebp-1Ch]
  416f19:	3b 3d 00 c8 46 00         cmp	edi, [0046C800h]
  416f1f:	77 7c                     ja	416f9d
  416f21:	6a 09                     push	dword 00000009h
  416f23:	e8 7f cc ff ff            call	413ba7
  416f28:	59                        pop	ecx
  416f29:	89 5d fc                  mov	[ebp-04h], ebx
  416f2c:	57                        push	edi
  416f2d:	e8 1d e0 ff ff            call	414f4f
  416f32:	59                        pop	ecx
  416f33:	89 45 e0                  mov	[ebp-20h], eax
  416f36:	83 4d fc ff               or	dword [ebp-04h], FFh
  416f3a:	e8 0f 00 00 00            call	416f4e
  416f3f:	39 5d e0                  cmp	[ebp-20h], ebx
  416f42:	74 5e                     jz	416fa2
  416f44:	ff 75 e4                  push	dword [ebp-1Ch]
  416f47:	eb 48                     jmp	416f91
     ...

416f4e <no name>:
  416f4e:	6a 09                     push	dword 00000009h
  416f50:	e8 b3 cc ff ff            call	413c08
  416f55:	59                        pop	ecx
  416f56:	c3                        ret
  416f57:	83 f8 02                 >cmp	eax, 02h
  416f5a:	75 41                     jnz	416f9d
  416f5c:	3b 35 ec 6f 46 00         cmp	esi, [00466FECh]
  416f62:	77 39                     ja	416f9d
  416f64:	6a 09                     push	dword 00000009h
  416f66:	e8 3c cc ff ff            call	413ba7
  416f6b:	59                        pop	ecx
  416f6c:	c7 45 fc 01 00 00 00      mov	dword [ebp-04h], 00000001h
  416f73:	8b c6                     mov	eax, esi
  416f75:	c1 e8 04                  shr	eax, 04h
  416f78:	50                        push	eax
  416f79:	e8 96 ee ff ff            call	415e14
  416f7e:	59                        pop	ecx
  416f7f:	89 45 e0                  mov	[ebp-20h], eax
  416f82:	83 4d fc ff               or	dword [ebp-04h], FFh
  416f86:	e8 4c 00 00 00            call	416fd7
  416f8b:	39 5d e0                  cmp	[ebp-20h], ebx
  416f8e:	74 12                     jz	416fa2
  416f90:	56                        push	esi
  416f91:	53                       >push	ebx
  416f92:	ff 75 e0                  push	dword [ebp-20h]
  416f95:	e8 e6 7f ff ff            call	40ef80
  416f9a:	83 c4 0c                  add	esp, 0Ch
  416f9d:	39 5d e0                 >cmp	[ebp-20h], ebx
  416fa0:	75 3e                     jnz	416fe0
  416fa2:	56                       >push	esi
  416fa3:	6a 08                     push	dword 00000008h
  416fa5:	ff 35 04 c8 46 00         push	dword [0046C804h]
  416fab:	ff 15 24 f2 44 00         call	dword [0044F224h]	; <HeapAlloc>
  416fb1:	89 45 e0                  mov	[ebp-20h], eax
  416fb4:	39 5d e0                 >cmp	[ebp-20h], ebx
  416fb7:	75 27                     jnz	416fe0
  416fb9:	39 1d 70 af 46 00         cmp	[0046AF70h], ebx
  416fbf:	74 1f                     jz	416fe0
  416fc1:	56                        push	esi
  416fc2:	e8 d3 fe ff ff            call	416e9a
  416fc7:	59                        pop	ecx
  416fc8:	85 c0                     test	eax, eax
  416fca:	0f 85 30 ff ff ff         jnz	416f00
  416fd0:	eb 11                     jmp	416fe3
     ...

416fd7 <no name>:
  416fd7:	6a 09                     push	dword 00000009h
  416fd9:	e8 2a cc ff ff            call	413c08
  416fde:	59                        pop	ecx
  416fdf:	c3                        ret
  416fe0:	8b 45 e0                 >mov	eax, [ebp-20h]
  416fe3:	8b 4d f0                 >mov	ecx, [ebp-10h]
  416fe6:	64 89 0d 00 00 00 00      mov	[fs:00000000h], ecx
  416fed:	5f                        pop	edi
  416fee:	5e                        pop	esi
  416fef:	5b                        pop	ebx
  416ff0:	c9                        leave
  416ff1:	c3                        ret
     ...

4179a0 <no name>:
  4179a0:	55                        push	ebp
  4179a1:	8b ec                     mov	ebp, esp
  4179a3:	57                        push	edi
  4179a4:	56                        push	esi
  4179a5:	53                        push	ebx
  4179a6:	8b 4d 10                  mov	ecx, [ebp+10h]
  4179a9:	e3 26                     jcxz	4179d1
  4179ab:	8b d9                     mov	ebx, ecx
  4179ad:	8b 7d 08                  mov	edi, [ebp+08h]
  4179b0:	8b f7                     mov	esi, edi
  4179b2:	33 c0                     xor	eax, eax
  4179b4:	f2 ae                     repne scasb
  4179b6:	f7 d9                     neg	ecx
  4179b8:	03 cb                     add	ecx, ebx
  4179ba:	8b fe                     mov	edi, esi
  4179bc:	8b 75 0c                  mov	esi, [ebp+0Ch]
  4179bf:	f3 a6                     repe cmpsb
  4179c1:	8a 46 ff                  mov	al, [esi-01h]
  4179c4:	33 c9                     xor	ecx, ecx
  4179c6:	3a 47 ff                  cmp	al, [edi-01h]
  4179c9:	77 04                     ja	4179cf
  4179cb:	74 04                     jz	4179d1
  4179cd:	49                        dec	ecx
  4179ce:	49                        dec	ecx
  4179cf:	f7 d1                    >not	ecx
  4179d1:	8b c1                    >mov	eax, ecx
  4179d3:	5b                        pop	ebx
  4179d4:	5e                        pop	esi
  4179d5:	5f                        pop	edi
  4179d6:	c9                        leave
  4179d7:	c3                        ret

4179d8 <no name>:
  4179d8:	55                        push	ebp
  4179d9:	8b ec                     mov	ebp, esp
  4179db:	6a ff                     push	dword FFFFFFFFh
  4179dd:	68 90 48 45 00            push	dword 00454890h
  4179e2:	68 50 63 41 00            push	dword 00416350h
  4179e7:	64 a1 00 00 00 00         mov	eax, [fs:0000h]
  4179ed:	50                        push	eax
  4179ee:	64 89 25 00 00 00 00      mov	[fs:00000000h], esp
  4179f5:	83 ec 18                  sub	esp, 18h
  4179f8:	53                        push	ebx
  4179f9:	56                        push	esi
  4179fa:	57                        push	edi
  4179fb:	89 65 e8                  mov	[ebp-18h], esp
  4179fe:	a1 78 af 46 00            mov	eax, [46AF78h]
  417a03:	33 db                     xor	ebx, ebx
  417a05:	3b c3                     cmp	eax, ebx
  417a07:	75 3e                     jnz	417a47
  417a09:	8d 45 e4                  lea	eax, [ebp-1Ch]
  417a0c:	50                        push	eax
  417a0d:	6a 01                     push	dword 00000001h
  417a0f:	5e                        pop	esi
  417a10:	56                        push	esi
  417a11:	68 7c 44 45 00            push	dword 0045447Ch
  417a16:	56                        push	esi
  417a17:	ff 15 98 f2 44 00         call	dword [0044F298h]	; <GetStringTypeW>
  417a1d:	85 c0                     test	eax, eax
  417a1f:	74 04                     jz	417a25
  417a21:	8b c6                     mov	eax, esi
  417a23:	eb 1d                     jmp	417a42
  417a25:	8d 45 e4                 >lea	eax, [ebp-1Ch]
  417a28:	50                        push	eax
  417a29:	56                        push	esi
  417a2a:	68 78 44 45 00            push	dword 00454478h
  417a2f:	56                        push	esi
  417a30:	53                        push	ebx
  417a31:	ff 15 94 f2 44 00         call	dword [0044F294h]	; <GetStringTypeA>
  417a37:	85 c0                     test	eax, eax
  417a39:	0f 84 ce 00 00 00         jz	417b0d
  417a3f:	6a 02                     push	dword 00000002h
  417a41:	58                        pop	eax
  417a42:	a3 78 af 46 00           >mov	[46AF78h], eax
  417a47:	83 f8 02                 >cmp	eax, 02h
  417a4a:	75 24                     jnz	417a70
  417a4c:	8b 45 1c                  mov	eax, [ebp+1Ch]
  417a4f:	3b c3                     cmp	eax, ebx
  417a51:	75 05                     jnz	417a58
  417a53:	a1 84 af 46 00            mov	eax, [46AF84h]
  417a58:	ff 75 14                 >push	dword [ebp+14h]
  417a5b:	ff 75 10                  push	dword [ebp+10h]
  417a5e:	ff 75 0c                  push	dword [ebp+0Ch]
  417a61:	ff 75 08                  push	dword [ebp+08h]
  417a64:	50                        push	eax
  417a65:	ff 15 94 f2 44 00         call	dword [0044F294h]	; <GetStringTypeA>
  417a6b:	e9 9f 00 00 00            jmp	417b0f
  417a70:	83 f8 01                 >cmp	eax, 01h
  417a73:	0f 85 94 00 00 00         jnz	417b0d
  417a79:	39 5d 18                  cmp	[ebp+18h], ebx
  417a7c:	75 08                     jnz	417a86
  417a7e:	a1 94 af 46 00            mov	eax, [46AF94h]
  417a83:	89 45 18                  mov	[ebp+18h], eax
  417a86:	53                       >push	ebx
  417a87:	53                        push	ebx
  417a88:	ff 75 10                  push	dword [ebp+10h]
  417a8b:	ff 75 0c                  push	dword [ebp+0Ch]
  417a8e:	8b 45 20                  mov	eax, [ebp+20h]
  417a91:	f7 d8                     neg	eax
  417a93:	1b c0                     sbb	eax, eax
  417a95:	83 e0 08                  and	eax, 08h
  417a98:	40                        inc	eax
  417a99:	50                        push	eax
  417a9a:	ff 75 18                  push	dword [ebp+18h]
  417a9d:	ff 15 34 f4 44 00         call	dword [0044F434h]	; <MultiByteToWideChar>
  417aa3:	89 45 e0                  mov	[ebp-20h], eax
  417aa6:	3b c3                     cmp	eax, ebx
  417aa8:	74 63                     jz	417b0d
  417aaa:	89 5d fc                  mov	[ebp-04h], ebx
  417aad:	8d 3c 00                  lea	edi, [eax+eax*1]
  417ab0:	8b c7                     mov	eax, edi
  417ab2:	83 c0 03                  add	eax, 03h
  417ab5:	24 fc                     and	al, FCh
  417ab7:	e8 74 92 ff ff            call	410d30
  417abc:	89 65 e8                  mov	[ebp-18h], esp
  417abf:	8b f4                     mov	esi, esp
  417ac1:	89 75 dc                  mov	[ebp-24h], esi
  417ac4:	57                        push	edi
  417ac5:	53                        push	ebx
  417ac6:	56                        push	esi
  417ac7:	e8 b4 74 ff ff            call	40ef80
  417acc:	83 c4 0c                  add	esp, 0Ch
  417acf:	eb 0b                     jmp	417adc
     ...
  417adc:	83 4d fc ff              >or	dword [ebp-04h], FFh
  417ae0:	3b f3                     cmp	esi, ebx
  417ae2:	74 29                     jz	417b0d
  417ae4:	ff 75 e0                  push	dword [ebp-20h]
  417ae7:	56                        push	esi
  417ae8:	ff 75 10                  push	dword [ebp+10h]
  417aeb:	ff 75 0c                  push	dword [ebp+0Ch]
  417aee:	6a 01                     push	dword 00000001h
  417af0:	ff 75 18                  push	dword [ebp+18h]
  417af3:	ff 15 34 f4 44 00         call	dword [0044F434h]	; <MultiByteToWideChar>
  417af9:	3b c3                     cmp	eax, ebx
  417afb:	74 10                     jz	417b0d
  417afd:	ff 75 14                  push	dword [ebp+14h]
  417b00:	50                        push	eax
  417b01:	56                        push	esi
  417b02:	ff 75 08                  push	dword [ebp+08h]
  417b05:	ff 15 98 f2 44 00         call	dword [0044F298h]	; <GetStringTypeW>
  417b0b:	eb 02                     jmp	417b0f
  417b0d:	33 c0                    >xor	eax, eax
  417b0f:	8d 65 cc                 >lea	esp, [ebp-34h]
  417b12:	8b 4d f0                  mov	ecx, [ebp-10h]
  417b15:	64 89 0d 00 00 00 00      mov	[fs:00000000h], ecx
  417b1c:	5f                        pop	edi
  417b1d:	5e                        pop	esi
  417b1e:	5b                        pop	ebx
  417b1f:	c9                        leave
  417b20:	c3                        ret
     ...

4192c7 <no name>:
  4192c7:	6a 04                     push	dword 00000004h
  4192c9:	6a 00                     push	dword 00000000h
  4192cb:	ff 74 24 0c               push	dword [esp+0Ch]
  4192cf:	e8 3c 00 00 00            call	419310
  4192d4:	83 c4 0c                  add	esp, 0Ch
  4192d7:	c3                        ret
     ...

419310 <no name>:
  419310:	0f b6 44 24 04            movzx	eax, byte [esp+04h]
  419315:	8a 4c 24 0c               mov	cl, [esp+0Ch]
  419319:	84 88 41 c9 46 00         test	[eax+0046C941h], cl
  41931f:	75 1c                     jnz	41933d
  419321:	83 7c 24 08 00            cmp	dword [esp+08h], 00h
  419326:	74 0e                     jz	419336
  419328:	0f b7 04 45 9a 4d 46      movzx	eax, word [eax*2+00464D9Ah]
		00 
  419330:	23 44 24 08               and	eax, [esp+08h]
  419334:	eb 02                     jmp	419338
  419336:	33 c0                    >xor	eax, eax
  419338:	85 c0                    >test	eax, eax
  41933a:	75 01                     jnz	41933d
  41933c:	c3                        ret
  41933d:	6a 01                    >push	dword 00000001h
  41933f:	58                        pop	eax
  419340:	c3                        ret

419341 <no name>:
  419341:	53                        push	ebx
  419342:	33 db                     xor	ebx, ebx
  419344:	39 1d 68 b0 46 00         cmp	[0046B068h], ebx
  41934a:	56                        push	esi
  41934b:	57                        push	edi
  41934c:	75 42                     jnz	419390
  41934e:	68 60 49 45 00            push	dword 00454960h
  419353:	ff 15 d4 f3 44 00         call	dword [0044F3D4h]	; <LoadLibraryA>
  419359:	8b f8                     mov	edi, eax
  41935b:	3b fb                     cmp	edi, ebx
  41935d:	74 67                     jz	4193c6
  41935f:	8b 35 f0 f3 44 00         mov	esi, [0044F3F0h]
  419365:	68 54 49 45 00            push	dword 00454954h
  41936a:	57                        push	edi
  41936b:	ff d6                     call	esi
  41936d:	85 c0                     test	eax, eax
  41936f:	a3 68 b0 46 00            mov	[46B068h], eax
  419374:	74 50                     jz	4193c6
  419376:	68 44 49 45 00            push	dword 00454944h
  41937b:	57                        push	edi
  41937c:	ff d6                     call	esi
  41937e:	68 30 49 45 00            push	dword 00454930h
  419383:	57                        push	edi
  419384:	a3 6c b0 46 00            mov	[46B06Ch], eax
  419389:	ff d6                     call	esi
  41938b:	a3 70 b0 46 00            mov	[46B070h], eax
  419390:	a1 6c b0 46 00           >mov	eax, [46B06Ch]
  419395:	85 c0                     test	eax, eax
  419397:	74 16                     jz	4193af
  419399:	ff d0                     call	eax
  41939b:	8b d8                     mov	ebx, eax
  41939d:	85 db                     test	ebx, ebx
  41939f:	74 0e                     jz	4193af
  4193a1:	a1 70 b0 46 00            mov	eax, [46B070h]
  4193a6:	85 c0                     test	eax, eax
  4193a8:	74 05                     jz	4193af
  4193aa:	53                        push	ebx
  4193ab:	ff d0                     call	eax
  4193ad:	8b d8                     mov	ebx, eax
  4193af:	ff 74 24 18              >push	dword [esp+18h]
  4193b3:	ff 74 24 18               push	dword [esp+18h]
  4193b7:	ff 74 24 18               push	dword [esp+18h]
  4193bb:	53                        push	ebx
  4193bc:	ff 15 68 b0 46 00         call	dword [0046B068h]
  4193c2:	5f                       >pop	edi
  4193c3:	5e                        pop	esi
  4193c4:	5b                        pop	ebx
  4193c5:	c3                        ret
  4193c6:	33 c0                    >xor	eax, eax
  4193c8:	eb f8                     jmp	4193c2
     ...

4193d0 <no name>:
  4193d0:	8b 4c 24 0c               mov	ecx, [esp+0Ch]
  4193d4:	57                        push	edi
  4193d5:	85 c9                     test	ecx, ecx
  4193d7:	74 7a                     jz	419453
  4193d9:	56                        push	esi
  4193da:	53                        push	ebx
  4193db:	8b d9                     mov	ebx, ecx
  4193dd:	8b 74 24 14               mov	esi, [esp+14h]
  4193e1:	f7 c6 03 00 00 00         test	esi, 00000003h
  4193e7:	8b 7c 24 10               mov	edi, [esp+10h]
  4193eb:	75 07                     jnz	4193f4
  4193ed:	c1 e9 02                  shr	ecx, 02h
  4193f0:	75 6f                     jnz	419461
  4193f2:	eb 21                     jmp	419415
  4193f4:	8a 06                    >mov	al, [esi]
  4193f6:	46                        inc	esi
  4193f7:	88 07                     mov	[edi], al
  4193f9:	47                        inc	edi
  4193fa:	49                        dec	ecx
  4193fb:	74 25                     jz	419422
  4193fd:	84 c0                     test	al, al
  4193ff:	74 29                     jz	41942a
  419401:	f7 c6 03 00 00 00         test	esi, 00000003h
  419407:	75 eb                     jnz	4193f4
  419409:	8b d9                     mov	ebx, ecx
  41940b:	c1 e9 02                  shr	ecx, 02h
  41940e:	75 51                     jnz	419461
  419410:	83 e3 03                 >and	ebx, 03h
  419413:	74 0d                     jz	419422
  419415:	8a 06                    >mov	al, [esi]
  419417:	46                        inc	esi
  419418:	88 07                     mov	[edi], al
  41941a:	47                        inc	edi
  41941b:	84 c0                     test	al, al
  41941d:	74 2f                     jz	41944e
  41941f:	4b                        dec	ebx
  419420:	75 f3                     jnz	419415
  419422:	8b 44 24 10              >mov	eax, [esp+10h]
  419426:	5b                        pop	ebx
  419427:	5e                        pop	esi
  419428:	5f                        pop	edi
  419429:	c3                        ret
  41942a:	f7 c7 03 00 00 00        >test	edi, 00000003h
  419430:	74 12                     jz	419444
  419432:	88 07                    >mov	[edi], al
  419434:	47                        inc	edi
  419435:	49                        dec	ecx
  419436:	0f 84 8a 00 00 00         jz	4194c6
  41943c:	f7 c7 03 00 00 00         test	edi, 00000003h
  419442:	75 ee                     jnz	419432
  419444:	8b d9                    >mov	ebx, ecx
  419446:	c1 e9 02                  shr	ecx, 02h
  419449:	75 6c                     jnz	4194b7
  41944b:	88 07                    >mov	[edi], al
  41944d:	47                        inc	edi
  41944e:	4b                       >dec	ebx
  41944f:	75 fa                     jnz	41944b
  419451:	5b                        pop	ebx
  419452:	5e                        pop	esi
  419453:	8b 44 24 08              >mov	eax, [esp+08h]
  419457:	5f                        pop	edi
  419458:	c3                        ret
  419459:	89 17                    >mov	[edi], edx
  41945b:	83 c7 04                  add	edi, 04h
  41945e:	49                        dec	ecx
  41945f:	74 af                     jz	419410
  419461:	ba ff fe fe 7e           >mov	edx, 7EFEFEFFh
  419466:	8b 06                     mov	eax, [esi]
  419468:	03 d0                     add	edx, eax
  41946a:	83 f0 ff                  xor	eax, FFh
  41946d:	33 c2                     xor	eax, edx
  41946f:	8b 16                     mov	edx, [esi]
  419471:	83 c6 04                  add	esi, 04h
  419474:	a9 00 01 01 81            test	eax, 81010100h
  419479:	74 de                     jz	419459
  41947b:	84 d2                     test	dl, dl
  41947d:	74 2c                     jz	4194ab
  41947f:	84 f6                     test	dh, dh
  419481:	74 1e                     jz	4194a1
  419483:	f7 c2 00 00 ff 00         test	edx, 00FF0000h
  419489:	74 0c                     jz	419497
  41948b:	f7 c2 00 00 00 ff         test	edx, FF000000h
  419491:	75 c6                     jnz	419459
  419493:	89 17                     mov	[edi], edx
  419495:	eb 18                     jmp	4194af
  419497:	81 e2 ff ff 00 00        >and	edx, 0000FFFFh
  41949d:	89 17                     mov	[edi], edx
  41949f:	eb 0e                     jmp	4194af
  4194a1:	81 e2 ff 00 00 00        >and	edx, 000000FFh
  4194a7:	89 17                     mov	[edi], edx
  4194a9:	eb 04                     jmp	4194af
  4194ab:	33 d2                    >xor	edx, edx
  4194ad:	89 17                     mov	[edi], edx
  4194af:	83 c7 04                 >add	edi, 04h
  4194b2:	33 c0                     xor	eax, eax
  4194b4:	49                        dec	ecx
  4194b5:	74 0a                     jz	4194c1
  4194b7:	33 c0                    >xor	eax, eax
  4194b9:	89 07                    >mov	[edi], eax
  4194bb:	83 c7 04                  add	edi, 04h
  4194be:	49                        dec	ecx
  4194bf:	75 f8                     jnz	4194b9
  4194c1:	83 e3 03                 >and	ebx, 03h
  4194c4:	75 85                     jnz	41944b
  4194c6:	8b 44 24 10              >mov	eax, [esp+10h]
  4194ca:	5b                        pop	ebx
  4194cb:	5e                        pop	esi
  4194cc:	5f                        pop	edi
  4194cd:	c3                        ret
     ...

42ef37 <no name>:
  42ef37:	ff 74 24 10               push	dword [esp+10h]
  42ef3b:	ff 74 24 10               push	dword [esp+10h]
  42ef3f:	ff 74 24 10               push	dword [esp+10h]
  42ef43:	ff 74 24 10               push	dword [esp+10h]
  42ef47:	e8 35 e3 00 00            call	43d281
  42ef4c:	c2 10 00                  ret	0010h
     ...

43206e <no name>:
  43206e:	55                        push	ebp
  43206f:	8b ec                     mov	ebp, esp
  432071:	51                        push	ecx
  432072:	8d 45 fc                  lea	eax, [ebp-04h]
  432075:	68 f8 d4 45 00            push	dword 0045D4F8h
  43207a:	50                        push	eax
  43207b:	c7 45 fc f0 a9 46 00      mov	dword [ebp-04h], 0046A9F0h
  432082:	e8 e3 de fd ff            call	40ff6a
  432087:	55                        push	ebp
  432088:	8b ec                     mov	ebp, esp
  43208a:	51                        push	ecx
  43208b:	8d 45 fc                  lea	eax, [ebp-04h]
  43208e:	68 40 d5 45 00            push	dword 0045D540h
  432093:	50                        push	eax
  432094:	c7 45 fc 58 a9 46 00      mov	dword [ebp-04h], 0046A958h
  43209b:	e8 ca de fd ff            call	40ff6a
  4320a0:	b8 c8 40 45 00            mov	eax, 004540C8h
  4320a5:	c3                        ret
     ...

43a011 <no name>:
  43a011:	e8 8b ee 00 00            call	448ea1
  43a016:	8b 40 04                  mov	eax, [eax+04h]
  43a019:	85 c0                     test	eax, eax
  43a01b:	75 08                     jnz	43a025
  43a01d:	e8 59 ee 00 00            call	448e7b
  43a022:	8b 40 04                  mov	eax, [eax+04h]
  43a025:	c3                       >ret
     ...

43a14b <no name>:
  43a14b:	e8 2b ed 00 00            call	448e7b
  43a150:	80 78 14 00               cmp	byte [eax+14h], 00h
  43a154:	75 53                     jnz	43a1a9
  43a156:	56                        push	esi
  43a157:	e8 8f ea 00 00            call	448beb
  43a15c:	8b f0                     mov	esi, eax
  43a15e:	ff 15 e0 f3 44 00         call	dword [0044F3E0h]	; <GetCurrentThreadId>
  43a164:	50                        push	eax
  43a165:	6a 00                     push	dword 00000000h
  43a167:	68 21 a6 43 00            push	dword 0043A621h
  43a16c:	6a ff                     push	dword FFFFFFFFh
  43a16e:	ff 15 cc f6 44 00         call	dword [0044F6CCh]	; <SetWindowsHookExA>
  43a174:	68 07 78 44 00            push	dword 00447807h
  43a179:	b9 c8 aa 46 00            mov	ecx, 0046AAC8h
  43a17e:	89 46 30                  mov	[esi+30h], eax
  43a181:	e8 aa f5 00 00            call	449730
  43a186:	8b f0                     mov	esi, eax
  43a188:	83 7e 14 00               cmp	dword [esi+14h], 00h
  43a18c:	74 0b                     jz	43a199
  43a18e:	e8 e8 ec 00 00            call	448e7b
  43a193:	ff 70 08                  push	dword [eax+08h]
  43a196:	ff 56 14                  call	dword [esi+14h]
  43a199:	68 77 86 44 00           >push	dword 00448677h
  43a19e:	b9 c4 aa 46 00            mov	ecx, 0046AAC4h
  43a1a3:	e8 c6 f4 00 00            call	44966e
  43a1a8:	5e                        pop	esi
  43a1a9:	c3                       >ret
     ...

43c1ca <no name>:
  43c1ca:	56                        push	esi
  43c1cb:	e8 ab cc 00 00            call	448e7b
  43c1d0:	ff 74 24 10               push	dword [esp+10h]
  43c1d4:	8b 74 24 10               mov	esi, [esp+10h]
  43c1d8:	8b 40 0c                  mov	eax, [eax+0Ch]
  43c1db:	56                        push	esi
  43c1dc:	ff 74 24 10               push	dword [esp+10h]
  43c1e0:	50                        push	eax
  43c1e1:	ff 15 30 f5 44 00         call	dword [0044F530h]	; <LoadStringA>
  43c1e7:	85 c0                     test	eax, eax
  43c1e9:	75 02                     jnz	43c1ed
  43c1eb:	20 06                     and	[esi], al
  43c1ed:	5e                       >pop	esi
  43c1ee:	c2 0c 00                  ret	000Ch
     ...

43d281 <no name>:
  43d281:	53                        push	ebx
  43d282:	56                        push	esi
  43d283:	57                        push	edi
  43d284:	83 cb ff                  or	ebx, FFh
  43d287:	e8 85 cd ff ff            call	43a011
  43d28c:	8b f0                     mov	esi, eax
  43d28e:	e8 e8 bb 00 00            call	448e7b
  43d293:	ff 74 24 1c               push	dword [esp+1Ch]
  43d297:	8b 78 04                  mov	edi, [eax+04h]
  43d29a:	ff 74 24 1c               push	dword [esp+1Ch]
  43d29e:	ff 74 24 1c               push	dword [esp+1Ch]
  43d2a2:	ff 74 24 1c               push	dword [esp+1Ch]
  43d2a6:	e8 e6 d1 00 00            call	44a491
  43d2ab:	85 c0                     test	eax, eax
  43d2ad:	74 3b                     jz	43d2ea
  43d2af:	85 ff                     test	edi, edi
  43d2b1:	74 0e                     jz	43d2c1
  43d2b3:	8b 07                     mov	eax, [edi]
  43d2b5:	8b cf                     mov	ecx, edi
  43d2b7:	ff 90 84 00 00 00         call	dword [eax+00000084h]
  43d2bd:	85 c0                     test	eax, eax
  43d2bf:	74 29                     jz	43d2ea
  43d2c1:	8b 06                    >mov	eax, [esi]
  43d2c3:	8b ce                     mov	ecx, esi
  43d2c5:	ff 50 50                  call	dword [eax+50h]
  43d2c8:	85 c0                     test	eax, eax
  43d2ca:	75 15                     jnz	43d2e1
  43d2cc:	8b 4e 1c                  mov	ecx, [esi+1Ch]
  43d2cf:	85 c9                     test	ecx, ecx
  43d2d1:	74 05                     jz	43d2d8
  43d2d3:	8b 01                     mov	eax, [ecx]
  43d2d5:	ff 50 58                  call	dword [eax+58h]
  43d2d8:	8b 06                    >mov	eax, [esi]
  43d2da:	8b ce                     mov	ecx, esi
  43d2dc:	ff 50 68                  call	dword [eax+68h]
  43d2df:	eb 07                     jmp	43d2e8
  43d2e1:	8b 06                    >mov	eax, [esi]
  43d2e3:	8b ce                     mov	ecx, esi
  43d2e5:	ff 50 54                  call	dword [eax+54h]
  43d2e8:	8b d8                    >mov	ebx, eax
  43d2ea:	e8 8c d4 00 00           >call	44a77b
  43d2ef:	5f                        pop	edi
  43d2f0:	8b c3                     mov	eax, ebx
  43d2f2:	5e                        pop	esi
  43d2f3:	5b                        pop	ebx
  43d2f4:	c2 10 00                  ret	0010h
     ...

448beb <no name>:
  448beb:	68 a2 77 44 00            push	dword 004477A2h
  448bf0:	b9 c8 a8 46 00            mov	ecx, 0046A8C8h
  448bf5:	e8 74 0a 00 00            call	44966e
  448bfa:	c3                        ret
     ...

448e7b <no name>:
  448e7b:	68 a2 77 44 00            push	dword 004477A2h
  448e80:	b9 c8 a8 46 00            mov	ecx, 0046A8C8h
  448e85:	e8 e4 07 00 00            call	44966e
  448e8a:	8b 40 04                  mov	eax, [eax+04h]
  448e8d:	85 c0                     test	eax, eax
  448e8f:	75 0f                     jnz	448ea0
  448e91:	68 ed 8e 44 00            push	dword 00448EEDh
  448e96:	b9 c4 a8 46 00            mov	ecx, 0046A8C4h
  448e9b:	e8 90 08 00 00            call	449730
  448ea0:	c3                       >ret

448ea1 <no name>:
  448ea1:	e8 d5 ff ff ff            call	448e7b
  448ea6:	05 70 10 00 00            add	eax, 00001070h
  448eab:	68 54 7f 44 00            push	dword 00447F54h
  448eb0:	8b c8                     mov	ecx, eax
  448eb2:	e8 b7 07 00 00            call	44966e
  448eb7:	c3                        ret
     ...

4491a2 <no name>:
  4491a2:	8b 51 04                  mov	edx, [ecx+04h]
  4491a5:	8b 44 24 04               mov	eax, [esp+04h]
  4491a9:	56                        push	esi
  4491aa:	8b 31                     mov	esi, [ecx]
  4491ac:	89 34 02                  mov	[edx+eax*1], esi
  4491af:	89 01                     mov	[ecx], eax
  4491b1:	5e                        pop	esi
  4491b2:	c2 04 00                  ret	0004h
     ...

4491fb <no name>:
  4491fb:	56                        push	esi
  4491fc:	ff 74 24 08               push	dword [esp+08h]
  449200:	6a 40                     push	dword 00000040h
  449202:	ff 15 08 f3 44 00         call	dword [0044F308h]	; <LocalAlloc>
  449208:	8b f0                     mov	esi, eax
  44920a:	85 f6                     test	esi, esi
  44920c:	75 05                     jnz	449213
  44920e:	e8 5b 8e fe ff            call	43206e
  449213:	8b c6                    >mov	eax, esi
  449215:	5e                        pop	esi
  449216:	c2 04 00                  ret	0004h
     ...

44922d <no name>:
  44922d:	56                        push	esi
  44922e:	8b f1                     mov	esi, ecx
  449230:	33 c0                     xor	eax, eax
  449232:	89 46 14                  mov	[esi+14h], eax
  449235:	89 46 18                  mov	[esi+18h], eax
  449238:	c7 46 18 04 00 00 00      mov	dword [esi+18h], 00000004h
  44923f:	89 46 04                  mov	[esi+04h], eax
  449242:	c7 46 08 01 00 00 00      mov	dword [esi+08h], 00000001h
  449249:	89 46 0c                  mov	[esi+0Ch], eax
  44924c:	89 46 10                  mov	[esi+10h], eax
  44924f:	ff 15 00 f3 44 00         call	dword [0044F300h]	; <TlsAlloc>
  449255:	83 f8 ff                  cmp	eax, FFh
  449258:	89 06                     mov	[esi], eax
  44925a:	75 05                     jnz	449261
  44925c:	e8 0d 8e fe ff            call	43206e
  449261:	8d 46 1c                 >lea	eax, [esi+1Ch]
  449264:	50                        push	eax
  449265:	ff 15 04 f3 44 00         call	dword [0044F304h]	; <InitializeCriticalSection>
  44926b:	8b c6                     mov	eax, esi
  44926d:	5e                        pop	esi
  44926e:	c3                        ret
     ...

4492c6 <no name>:
  4492c6:	51                        push	ecx
  4492c7:	51                        push	ecx
  4492c8:	55                        push	ebp
  4492c9:	56                        push	esi
  4492ca:	8b f1                     mov	esi, ecx
  4492cc:	57                        push	edi
  4492cd:	8d 46 1c                  lea	eax, [esi+1Ch]
  4492d0:	50                        push	eax
  4492d1:	89 44 24 14               mov	[esp+14h], eax
  4492d5:	ff 15 e8 f2 44 00         call	dword [0044F2E8h]	; <EnterCriticalSection>
  4492db:	8b 6e 04                  mov	ebp, [esi+04h]
  4492de:	8b 7e 08                  mov	edi, [esi+08h]
  4492e1:	3b fd                     cmp	edi, ebp
  4492e3:	7d 0d                     jge	4492f2
  4492e5:	8b 46 10                  mov	eax, [esi+10h]
  4492e8:	f6 04 f8 01               test	byte [eax+edi*8], 01h
  4492ec:	0f 84 b9 00 00 00         jz	4493ab
  4492f2:	6a 01                    >push	dword 00000001h
  4492f4:	5f                        pop	edi
  4492f5:	3b ef                     cmp	ebp, edi
  4492f7:	7e 1b                     jle	449314
  4492f9:	8b 46 10                  mov	eax, [esi+10h]
  4492fc:	83 c0 08                  add	eax, 08h
  4492ff:	f6 00 01                 >test	byte [eax], 01h
  449302:	74 08                     jz	44930c
  449304:	47                        inc	edi
  449305:	83 c0 08                  add	eax, 08h
  449308:	3b fd                     cmp	edi, ebp
  44930a:	7c f3                     jl	4492ff
  44930c:	3b fd                    >cmp	edi, ebp
  44930e:	0f 8c 97 00 00 00         jl	4493ab
  449314:	8b 46 10                 >mov	eax, [esi+10h]
  449317:	83 c5 20                  add	ebp, 20h
  44931a:	85 c0                     test	eax, eax
  44931c:	53                        push	ebx
  44931d:	75 13                     jnz	449332
  44931f:	8b c5                     mov	eax, ebp
  449321:	c1 e0 03                  shl	eax, 03h
  449324:	50                        push	eax
  449325:	68 02 20 00 00            push	dword 00002002h
  44932a:	ff 15 ac f3 44 00         call	dword [0044F3ACh]	; <GlobalAlloc>
  449330:	eb 22                     jmp	449354
  449332:	50                       >push	eax
  449333:	ff 15 f8 f2 44 00         call	dword [0044F2F8h]	; <GlobalHandle>
  449339:	8b d8                     mov	ebx, eax
  44933b:	53                        push	ebx
  44933c:	ff 15 04 f4 44 00         call	dword [0044F404h]	; <GlobalUnlock>
  449342:	8b c5                     mov	eax, ebp
  449344:	68 02 20 00 00            push	dword 00002002h
  449349:	c1 e0 03                  shl	eax, 03h
  44934c:	50                        push	eax
  44934d:	53                        push	ebx
  44934e:	ff 15 ec f2 44 00         call	dword [0044F2ECh]	; <GlobalReAlloc>
  449354:	8b 1d 00 f4 44 00        >mov	ebx, [0044F400h]
  44935a:	89 44 24 10               mov	[esp+10h], eax
  44935e:	85 c0                     test	eax, eax
  449360:	75 1b                     jnz	44937d
  449362:	ff 76 10                  push	dword [esi+10h]
  449365:	ff 15 f8 f2 44 00         call	dword [0044F2F8h]	; <GlobalHandle>
  44936b:	50                        push	eax
  44936c:	ff d3                     call	ebx
  44936e:	ff 74 24 14               push	dword [esp+14h]
  449372:	ff 15 f0 f2 44 00         call	dword [0044F2F0h]	; <LeaveCriticalSection>
  449378:	e8 f1 8c fe ff            call	43206e
  44937d:	ff 74 24 10              >push	dword [esp+10h]
  449381:	ff d3                     call	ebx
  449383:	8b d8                     mov	ebx, eax
  449385:	8b 46 04                  mov	eax, [esi+04h]
  449388:	8b c8                     mov	ecx, eax
  44938a:	69 c9 ff ff ff 1f         imul	ecx, ecx, 1FFFFFFFh
  449390:	03 cd                     add	ecx, ebp
  449392:	8d 04 c3                  lea	eax, [ebx+eax*8]
  449395:	c1 e1 03                  shl	ecx, 03h
  449398:	51                        push	ecx
  449399:	6a 00                     push	dword 00000000h
  44939b:	50                        push	eax
  44939c:	e8 df 5b fc ff            call	40ef80
  4493a1:	83 c4 0c                  add	esp, 0Ch
  4493a4:	89 5e 10                  mov	[esi+10h], ebx
  4493a7:	89 6e 04                  mov	[esi+04h], ebp
  4493aa:	5b                        pop	ebx
  4493ab:	3b 7e 0c                 >cmp	edi, [esi+0Ch]
  4493ae:	7c 06                     jl	4493b6
  4493b0:	8d 47 01                  lea	eax, [edi+01h]
  4493b3:	89 46 0c                  mov	[esi+0Ch], eax
  4493b6:	8b 46 10                 >mov	eax, [esi+10h]
  4493b9:	83 0c f8 01               or	dword [eax+edi*8], 01h
  4493bd:	ff 74 24 10               push	dword [esp+10h]
  4493c1:	8d 04 f8                  lea	eax, [eax+edi*8]
  4493c4:	8d 47 01                  lea	eax, [edi+01h]
  4493c7:	89 46 08                  mov	[esi+08h], eax
  4493ca:	ff 15 f0 f2 44 00         call	dword [0044F2F0h]	; <LeaveCriticalSection>
  4493d0:	8b c7                     mov	eax, edi
  4493d2:	5f                        pop	edi
  4493d3:	5e                        pop	esi
  4493d4:	5d                        pop	ebp
  4493d5:	59                        pop	ecx
  4493d6:	59                        pop	ecx
  4493d7:	c3                        ret
     ...

449435 <no name>:
  449435:	55                        push	ebp
  449436:	8b ec                     mov	ebp, esp
  449438:	51                        push	ecx
  449439:	53                        push	ebx
  44943a:	56                        push	esi
  44943b:	8b f1                     mov	esi, ecx
  44943d:	57                        push	edi
  44943e:	ff 36                     push	dword [esi]
  449440:	ff 15 dc f2 44 00         call	dword [0044F2DCh]	; <TlsGetValue>
  449446:	8b f8                     mov	edi, eax
  449448:	85 ff                     test	edi, edi
  44944a:	74 1a                     jz	449466
  44944c:	8b 45 08                  mov	eax, [ebp+08h]
  44944f:	8d 5f 08                  lea	ebx, [edi+08h]
  449452:	3b 03                     cmp	eax, [ebx]
  449454:	0f 8c b2 00 00 00         jl	44950c
  44945a:	83 7d 0c 00               cmp	dword [ebp+0Ch], 00h
  44945e:	0f 84 a8 00 00 00         jz	44950c
  449464:	eb 42                     jmp	4494a8
  449466:	6a 10                    >push	dword 00000010h
  449468:	e8 8e fd ff ff            call	4491fb
  44946d:	85 c0                     test	eax, eax
  44946f:	74 0a                     jz	44947b
  449471:	c7 00 d8 3c 45 00         mov	dword [eax], 00453CD8h
  449477:	8b f8                     mov	edi, eax
  449479:	eb 02                     jmp	44947d
  44947b:	33 ff                    >xor	edi, edi
  44947d:	83 67 08 00              >and	dword [edi+08h], 00h
  449481:	83 67 0c 00               and	dword [edi+0Ch], 00h
  449485:	8d 5f 08                  lea	ebx, [edi+08h]
  449488:	8d 46 1c                  lea	eax, [esi+1Ch]
  44948b:	50                        push	eax
  44948c:	89 7d fc                  mov	[ebp-04h], edi
  44948f:	ff 15 e8 f2 44 00         call	dword [0044F2E8h]	; <EnterCriticalSection>
  449495:	57                        push	edi
  449496:	8d 4e 14                  lea	ecx, [esi+14h]
  449499:	e8 04 fd ff ff            call	4491a2
  44949e:	8d 46 1c                  lea	eax, [esi+1Ch]
  4494a1:	50                        push	eax
  4494a2:	ff 15 f0 f2 44 00         call	dword [0044F2F0h]	; <LeaveCriticalSection>
  4494a8:	8b 47 0c                 >mov	eax, [edi+0Ch]
  4494ab:	85 c0                     test	eax, eax
  4494ad:	75 11                     jnz	4494c0
  4494af:	8b 46 0c                  mov	eax, [esi+0Ch]
  4494b2:	c1 e0 02                  shl	eax, 02h
  4494b5:	50                        push	eax
  4494b6:	6a 00                     push	dword 00000000h
  4494b8:	ff 15 08 f3 44 00         call	dword [0044F308h]	; <LocalAlloc>
  4494be:	eb 10                     jmp	4494d0
  4494c0:	8b 4e 0c                 >mov	ecx, [esi+0Ch]
  4494c3:	6a 02                     push	dword 00000002h
  4494c5:	c1 e1 02                  shl	ecx, 02h
  4494c8:	51                        push	ecx
  4494c9:	50                        push	eax
  4494ca:	ff 15 e0 f2 44 00         call	dword [0044F2E0h]	; <LocalReAlloc>
  4494d0:	85 c0                    >test	eax, eax
  4494d2:	89 47 0c                  mov	[edi+0Ch], eax
  4494d5:	75 05                     jnz	4494dc
  4494d7:	e8 92 8b fe ff            call	43206e
  4494dc:	8b 03                    >mov	eax, [ebx]
  4494de:	8b c8                     mov	ecx, eax
  4494e0:	69 c9 ff ff ff 3f         imul	ecx, ecx, 3FFFFFFFh
  4494e6:	03 4e 0c                  add	ecx, [esi+0Ch]
  4494e9:	c1 e1 02                  shl	ecx, 02h
  4494ec:	51                        push	ecx
  4494ed:	8b 4f 0c                  mov	ecx, [edi+0Ch]
  4494f0:	6a 00                     push	dword 00000000h
  4494f2:	8d 04 81                  lea	eax, [ecx+eax*4]
  4494f5:	50                        push	eax
  4494f6:	e8 85 5a fc ff            call	40ef80
  4494fb:	8b 46 0c                  mov	eax, [esi+0Ch]
  4494fe:	83 c4 0c                  add	esp, 0Ch
  449501:	89 03                     mov	[ebx], eax
  449503:	57                        push	edi
  449504:	ff 36                     push	dword [esi]
  449506:	ff 15 e4 f2 44 00         call	dword [0044F2E4h]	; <TlsSetValue>
  44950c:	8b 47 0c                 >mov	eax, [edi+0Ch]
  44950f:	8b 55 08                  mov	edx, [ebp+08h]
  449512:	8b 4d 0c                  mov	ecx, [ebp+0Ch]
  449515:	5f                        pop	edi
  449516:	5e                        pop	esi
  449517:	89 0c 90                  mov	[eax+edx*4], ecx
  44951a:	5b                        pop	ebx
  44951b:	c9                        leave
  44951c:	c2 08 00                  ret	0008h
     ...

44966e <no name>:
  44966e:	56                        push	esi
  44966f:	57                        push	edi
  449670:	8b f9                     mov	edi, ecx
  449672:	83 3f 00                  cmp	dword [edi], 00h
  449675:	75 2d                     jnz	4496a4
  449677:	8b 0d 8c aa 46 00         mov	ecx, [0046AA8Ch]
  44967d:	85 c9                     test	ecx, ecx
  44967f:	75 1c                     jnz	44969d
  449681:	b9 90 aa 46 00            mov	ecx, 0046AA90h
  449686:	8b c1                     mov	eax, ecx
  449688:	85 c0                     test	eax, eax
  44968a:	74 09                     jz	449695
  44968c:	e8 9c fb ff ff            call	44922d
  449691:	8b c8                     mov	ecx, eax
  449693:	eb 02                     jmp	449697
  449695:	33 c9                    >xor	ecx, ecx
  449697:	89 0d 8c aa 46 00        >mov	[0046AA8Ch], ecx
  44969d:	e8 24 fc ff ff           >call	4492c6
  4496a2:	89 07                     mov	[edi], eax
  4496a4:	a1 8c aa 46 00           >mov	eax, [46AA8Ch]
  4496a9:	8b 37                     mov	esi, [edi]
  4496ab:	ff 30                     push	dword [eax]
  4496ad:	ff 15 dc f2 44 00         call	dword [0044F2DCh]	; <TlsGetValue>
  4496b3:	85 c0                     test	eax, eax
  4496b5:	74 0d                     jz	4496c4
  4496b7:	3b 70 08                  cmp	esi, [eax+08h]
  4496ba:	7d 08                     jge	4496c4
  4496bc:	8b 40 0c                  mov	eax, [eax+0Ch]
  4496bf:	8b 34 b0                  mov	esi, [eax+esi*4]
  4496c2:	eb 02                     jmp	4496c6
  4496c4:	33 f6                    >xor	esi, esi
  4496c6:	85 f6                    >test	esi, esi
  4496c8:	75 14                     jnz	4496de
  4496ca:	ff 54 24 0c               call	dword [esp+0Ch]
  4496ce:	8b 0d 8c aa 46 00         mov	ecx, [0046AA8Ch]
  4496d4:	8b f0                     mov	esi, eax
  4496d6:	56                        push	esi
  4496d7:	ff 37                     push	dword [edi]
  4496d9:	e8 57 fd ff ff            call	449435
  4496de:	8b c6                    >mov	eax, esi
  4496e0:	5f                        pop	edi
  4496e1:	5e                        pop	esi
  4496e2:	c2 04 00                  ret	0004h
     ...

449730 <no name>:
  449730:	b8 e0 d1 44 00            mov	eax, 0044D1E0h
  449735:	e8 5e 57 fc ff            call	40ee98
  44973a:	51                        push	ecx
  44973b:	51                        push	ecx
  44973c:	53                        push	ebx
  44973d:	56                        push	esi
  44973e:	57                        push	edi
  44973f:	8b f1                     mov	esi, ecx
  449741:	33 ff                     xor	edi, edi
  449743:	89 65 f0                  mov	[ebp-10h], esp
  449746:	39 3e                     cmp	[esi], edi
  449748:	75 1e                     jnz	449768
  44974a:	6a 10                     push	dword 00000010h
  44974c:	e8 86 04 00 00            call	449bd7
  449751:	89 7d fc                  mov	[ebp-04h], edi
  449754:	39 3e                     cmp	[esi], edi
  449756:	75 05                     jnz	44975d
  449758:	ff 55 08                  call	dword [ebp+08h]
  44975b:	89 06                     mov	[esi], eax
  44975d:	83 4d fc ff              >or	dword [ebp-04h], FFh
  449761:	6a 10                     push	dword 00000010h
  449763:	e8 df 04 00 00            call	449c47
  449768:	8b 06                    >mov	eax, [esi]
  44976a:	8b 4d f4                  mov	ecx, [ebp-0Ch]
  44976d:	5f                        pop	edi
  44976e:	5e                        pop	esi
  44976f:	64 89 0d 00 00 00 00      mov	[fs:00000000h], ecx
  449776:	5b                        pop	ebx
  449777:	c9                        leave
  449778:	c2 04 00                  ret	0004h
     ...

449b44 <no name>:
  449b44:	83 3d 3c ad 46 00 00      cmp	dword [0046AD3Ch], 00h
  449b4b:	56                        push	esi
  449b4c:	75 34                     jnz	449b82
  449b4e:	6a 01                     push	dword 00000001h
  449b50:	5e                        pop	esi
  449b51:	89 35 3c ad 46 00         mov	[0046AD3Ch], esi
  449b57:	ff 15 dc f3 44 00         call	dword [0044F3DCh]	; <GetVersion>
  449b5d:	3c 04                     cmp	al, 04h
  449b5f:	73 0f                     jae	449b70
  449b61:	a9 00 00 00 80            test	eax, 80000000h
  449b66:	74 08                     jz	449b70
  449b68:	89 35 38 ad 46 00         mov	[0046AD38h], esi
  449b6e:	eb 12                     jmp	449b82
  449b70:	83 25 38 ad 46 00 00     >and	dword [0046AD38h], 00h
  449b77:	68 88 ab 46 00            push	dword 0046AB88h
  449b7c:	ff 15 04 f3 44 00         call	dword [0044F304h]	; <InitializeCriticalSection>
  449b82:	a1 3c ad 46 00           >mov	eax, [46AD3Ch]
  449b87:	5e                        pop	esi
  449b88:	c3                        ret
     ...

449bd7 <no name>:
  449bd7:	53                        push	ebx
  449bd8:	33 db                     xor	ebx, ebx
  449bda:	39 1d 3c ad 46 00         cmp	[0046AD3Ch], ebx
  449be0:	75 05                     jnz	449be7
  449be2:	e8 5d ff ff ff            call	449b44
  449be7:	39 1d 38 ad 46 00        >cmp	[0046AD38h], ebx
  449bed:	75 54                     jnz	449c43
  449bef:	56                        push	esi
  449bf0:	57                        push	edi
  449bf1:	8b 7c 24 10               mov	edi, [esp+10h]
  449bf5:	39 1c bd 40 ab 46 00      cmp	[edi*4+0046AB40h], ebx
  449bfc:	8b 1d e8 f2 44 00         mov	ebx, [0044F2E8h]
  449c02:	8d 34 bd 40 ab 46 00      lea	esi, [edi*4+0046AB40h]
  449c09:	75 29                     jnz	449c34
  449c0b:	55                        push	ebp
  449c0c:	bd 88 ab 46 00            mov	ebp, 0046AB88h
  449c11:	55                        push	ebp
  449c12:	ff d3                     call	ebx
  449c14:	83 3e 00                  cmp	dword [esi], 00h
  449c17:	75 13                     jnz	449c2c
  449c19:	8d 04 7f                  lea	eax, [edi+edi*2]
  449c1c:	8d 04 c5 a0 ab 46 00      lea	eax, [eax*8+0046ABA0h]
  449c23:	50                        push	eax
  449c24:	ff 15 04 f3 44 00         call	dword [0044F304h]	; <InitializeCriticalSection>
  449c2a:	ff 06                     inc	dword [esi]
  449c2c:	55                       >push	ebp
  449c2d:	ff 15 f0 f2 44 00         call	dword [0044F2F0h]	; <LeaveCriticalSection>
  449c33:	5d                        pop	ebp
  449c34:	8d 04 7f                 >lea	eax, [edi+edi*2]
  449c37:	8d 04 c5 a0 ab 46 00      lea	eax, [eax*8+0046ABA0h]
  449c3e:	50                        push	eax
  449c3f:	ff d3                     call	ebx
  449c41:	5f                        pop	edi
  449c42:	5e                        pop	esi
  449c43:	5b                       >pop	ebx
  449c44:	c2 04 00                  ret	0004h

449c47 <no name>:
  449c47:	83 3d 38 ad 46 00 00      cmp	dword [0046AD38h], 00h
  449c4e:	75 15                     jnz	449c65
  449c50:	8b 44 24 04               mov	eax, [esp+04h]
  449c54:	8d 04 40                  lea	eax, [eax+eax*2]
  449c57:	8d 04 c5 a0 ab 46 00      lea	eax, [eax*8+0046ABA0h]
  449c5e:	50                        push	eax
  449c5f:	ff 15 f0 f2 44 00         call	dword [0044F2F0h]	; <LeaveCriticalSection>
  449c65:	c2 04 00                 >ret	0004h
     ...

44a491 <no name>:
  44a491:	56                        push	esi
  44a492:	8b 35 10 f2 44 00         mov	esi, [0044F210h]
  44a498:	6a 00                     push	dword 00000000h
  44a49a:	ff d6                     call	esi
  44a49c:	66 0d 01 80               or	ax, 8001h
  44a4a0:	50                        push	eax
  44a4a1:	ff d6                     call	esi
  44a4a3:	e8 d3 e9 ff ff            call	448e7b
  44a4a8:	8b 74 24 08               mov	esi, [esp+08h]
  44a4ac:	89 70 08                  mov	[eax+08h], esi
  44a4af:	89 70 0c                  mov	[eax+0Ch], esi
  44a4b2:	e8 c4 e9 ff ff            call	448e7b
  44a4b7:	8b 40 04                  mov	eax, [eax+04h]
  44a4ba:	85 c0                     test	eax, eax
  44a4bc:	74 1f                     jz	44a4dd
  44a4be:	8b 4c 24 0c               mov	ecx, [esp+0Ch]
  44a4c2:	89 70 68                  mov	[eax+68h], esi
  44a4c5:	89 48 6c                  mov	[eax+6Ch], ecx
  44a4c8:	8b 4c 24 10               mov	ecx, [esp+10h]
  44a4cc:	89 48 70                  mov	[eax+70h], ecx
  44a4cf:	8b 4c 24 14               mov	ecx, [esp+14h]
  44a4d3:	89 48 74                  mov	[eax+74h], ecx
  44a4d6:	8b c8                     mov	ecx, eax
  44a4d8:	e8 17 00 00 00            call	44a4f4
  44a4dd:	e8 99 e9 ff ff           >call	448e7b
  44a4e2:	80 78 14 00               cmp	byte [eax+14h], 00h
  44a4e6:	5e                        pop	esi
  44a4e7:	75 05                     jnz	44a4ee
  44a4e9:	e8 5d fc fe ff            call	43a14b
  44a4ee:	6a 01                    >push	dword 00000001h
  44a4f0:	58                        pop	eax
  44a4f1:	c2 10 00                  ret	0010h

44a4f4 <no name>:
  44a4f4:	55                        push	ebp
  44a4f5:	8b ec                     mov	ebp, esp
  44a4f7:	81 ec 0c 03 00 00         sub	esp, 0000030Ch
  44a4fd:	53                        push	ebx
  44a4fe:	56                        push	esi
  44a4ff:	57                        push	edi
  44a500:	8b f1                     mov	esi, ecx
  44a502:	e8 74 e9 ff ff            call	448e7b
  44a507:	8b f8                     mov	edi, eax
  44a509:	8b 46 68                  mov	eax, [esi+68h]
  44a50c:	bb 04 01 00 00            mov	ebx, 00000104h
  44a511:	89 47 08                  mov	[edi+08h], eax
  44a514:	8b 46 68                  mov	eax, [esi+68h]
  44a517:	89 47 0c                  mov	[edi+0Ch], eax
  44a51a:	8d 85 f4 fd ff ff         lea	eax, [ebp-0000020Ch]
  44a520:	53                        push	ebx
  44a521:	50                        push	eax
  44a522:	ff 76 68                  push	dword [esi+68h]
  44a525:	ff 15 68 f3 44 00         call	dword [0044F368h]	; <GetModuleFileNameA>
  44a52b:	8d 85 f4 fd ff ff         lea	eax, [ebp-0000020Ch]
  44a531:	6a 2e                     push	dword 0000002Eh
  44a533:	50                        push	eax
  44a534:	e8 d1 69 fc ff            call	410f0a
  44a539:	80 20 00                  and	byte [eax], 00h
  44a53c:	59                        pop	ecx
  44a53d:	59                        pop	ecx
  44a53e:	89 45 fc                  mov	[ebp-04h], eax
  44a541:	8d 85 f8 fe ff ff         lea	eax, [ebp-00000108h]
  44a547:	53                        push	ebx
  44a548:	50                        push	eax
  44a549:	8d 85 f4 fd ff ff         lea	eax, [ebp-0000020Ch]
  44a54f:	50                        push	eax
  44a550:	e8 bc 00 00 00            call	44a611
  44a555:	33 db                     xor	ebx, ebx
  44a557:	39 9e 88 00 00 00         cmp	[esi+00000088h], ebx
  44a55d:	75 13                     jnz	44a572
  44a55f:	8d 85 f8 fe ff ff         lea	eax, [ebp-00000108h]
  44a565:	50                        push	eax
  44a566:	e8 18 65 fc ff            call	410a83
  44a56b:	59                        pop	ecx
  44a56c:	89 86 88 00 00 00         mov	[esi+00000088h], eax
  44a572:	39 5e 78                 >cmp	[esi+78h], ebx
  44a575:	75 32                     jnz	44a5a9
  44a577:	8d 85 f4 fc ff ff         lea	eax, [ebp-0000030Ch]
  44a57d:	68 00 01 00 00            push	dword 00000100h
  44a582:	50                        push	eax
  44a583:	68 00 e0 00 00            push	dword 0000E000h
  44a588:	e8 3d 1c ff ff            call	43c1ca
  44a58d:	85 c0                     test	eax, eax
  44a58f:	74 09                     jz	44a59a
  44a591:	8d 85 f4 fc ff ff         lea	eax, [ebp-0000030Ch]
  44a597:	50                        push	eax
  44a598:	eb 06                     jmp	44a5a0
  44a59a:	ff b6 88 00 00 00        >push	dword [esi+00000088h]
  44a5a0:	e8 de 64 fc ff           >call	410a83
  44a5a5:	59                        pop	ecx
  44a5a6:	89 46 78                  mov	[esi+78h], eax
  44a5a9:	8b 46 78                 >mov	eax, [esi+78h]
  44a5ac:	89 47 10                  mov	[edi+10h], eax
  44a5af:	39 9e 8c 00 00 00         cmp	[esi+0000008Ch], ebx
  44a5b5:	8d be 8c 00 00 00         lea	edi, [esi+0000008Ch]
  44a5bb:	75 21                     jnz	44a5de
  44a5bd:	8b 5d fc                  mov	ebx, [ebp-04h]
  44a5c0:	68 bc 40 45 00            push	dword 004540BCh
  44a5c5:	53                        push	ebx
  44a5c6:	ff 15 30 f4 44 00         call	dword [0044F430h]	; <lstrcpyA>
  44a5cc:	8d 85 f4 fd ff ff         lea	eax, [ebp-0000020Ch]
  44a5d2:	50                        push	eax
  44a5d3:	e8 ab 64 fc ff            call	410a83
  44a5d8:	89 07                     mov	[edi], eax
  44a5da:	80 23 00                  and	byte [ebx], 00h
  44a5dd:	59                        pop	ecx
  44a5de:	83 be 90 00 00 00 00     >cmp	dword [esi+00000090h], 00h
  44a5e5:	75 25                     jnz	44a60c
  44a5e7:	8d 85 f8 fe ff ff         lea	eax, [ebp-00000108h]
  44a5ed:	68 b4 40 45 00            push	dword 004540B4h
  44a5f2:	50                        push	eax
  44a5f3:	ff 15 2c f4 44 00         call	dword [0044F42Ch]	; <lstrcatA>
  44a5f9:	8d 85 f8 fe ff ff         lea	eax, [ebp-00000108h]
  44a5ff:	50                        push	eax
  44a600:	e8 7e 64 fc ff            call	410a83
  44a605:	59                        pop	ecx
  44a606:	89 86 90 00 00 00         mov	[esi+00000090h], eax
  44a60c:	5f                       >pop	edi
  44a60d:	5e                        pop	esi
  44a60e:	5b                        pop	ebx
  44a60f:	c9                        leave
  44a610:	c3                        ret

44a611 <no name>:
  44a611:	56                        push	esi
  44a612:	8b 74 24 08               mov	esi, [esp+08h]
  44a616:	57                        push	edi
  44a617:	8b fe                     mov	edi, esi
  44a619:	80 3e 00                 >cmp	byte [esi], 00h
  44a61c:	74 22                     jz	44a640
  44a61e:	8a 06                     mov	al, [esi]
  44a620:	3c 5c                     cmp	al, 5Ch
  44a622:	74 08                     jz	44a62c
  44a624:	3c 2f                     cmp	al, 2Fh
  44a626:	74 04                     jz	44a62c
  44a628:	3c 3a                     cmp	al, 3Ah
  44a62a:	75 09                     jnz	44a635
  44a62c:	56                       >push	esi
  44a62d:	e8 2d 67 fc ff            call	410d5f
  44a632:	59                        pop	ecx
  44a633:	8b f8                     mov	edi, eax
  44a635:	56                       >push	esi
  44a636:	e8 24 67 fc ff            call	410d5f
  44a63b:	59                        pop	ecx
  44a63c:	8b f0                     mov	esi, eax
  44a63e:	eb d9                     jmp	44a619
  44a640:	83 7c 24 10 00           >cmp	dword [esp+10h], 00h
  44a645:	75 0a                     jnz	44a651
  44a647:	57                        push	edi
  44a648:	ff 15 48 f4 44 00         call	dword [0044F448h]	; <lstrlenA>
  44a64e:	40                        inc	eax
  44a64f:	eb 11                     jmp	44a662
  44a651:	ff 74 24 14              >push	dword [esp+14h]
  44a655:	57                        push	edi
  44a656:	ff 74 24 18               push	dword [esp+18h]
  44a65a:	ff 15 c8 f3 44 00         call	dword [0044F3C8h]	; <lstrcpynA>
  44a660:	33 c0                     xor	eax, eax
  44a662:	5f                       >pop	edi
  44a663:	5e                        pop	esi
  44a664:	c2 0c 00                  ret	000Ch
     ...

44a77b <no name>:
  44a77b:	53                        push	ebx
  44a77c:	55                        push	ebp
  44a77d:	56                        push	esi
  44a77e:	57                        push	edi
  44a77f:	e8 f7 e6 ff ff            call	448e7b
  44a784:	6a 01                     push	dword 00000001h
  44a786:	8b e8                     mov	ebp, eax
  44a788:	e8 4a f4 ff ff            call	449bd7
  44a78d:	83 c5 34                  add	ebp, 34h
  44a790:	33 db                     xor	ebx, ebx
  44a792:	8b f5                     mov	esi, ebp
  44a794:	38 1e                    >cmp	[esi], bl
  44a796:	74 22                     jz	44a7ba
  44a798:	6a 0a                     push	dword 0000000Ah
  44a79a:	56                        push	esi
  44a79b:	e8 ff 5e fc ff            call	41069f
  44a7a0:	59                        pop	ecx
  44a7a1:	8b f8                     mov	edi, eax
  44a7a3:	59                        pop	ecx
  44a7a4:	88 1f                     mov	[edi], bl
  44a7a6:	e8 d0 e6 ff ff            call	448e7b
  44a7ab:	ff 70 08                  push	dword [eax+08h]
  44a7ae:	56                        push	esi
  44a7af:	ff 15 40 f6 44 00         call	dword [0044F640h]	; <UnregisterClassA>
  44a7b5:	8d 77 01                  lea	esi, [edi+01h]
  44a7b8:	eb da                     jmp	44a794
  44a7ba:	6a 01                    >push	dword 00000001h
  44a7bc:	88 5d 00                  mov	[ebp+00h], bl
  44a7bf:	e8 83 f4 ff ff            call	449c47
  44a7c4:	e8 b2 e6 ff ff            call	448e7b
  44a7c9:	8b 40 04                  mov	eax, [eax+04h]
  44a7cc:	3b c3                     cmp	eax, ebx
  44a7ce:	74 0c                     jz	44a7dc
  44a7d0:	8b 40 54                  mov	eax, [eax+54h]
  44a7d3:	3b c3                     cmp	eax, ebx
  44a7d5:	74 05                     jz	44a7dc
  44a7d7:	53                        push	ebx
  44a7d8:	6a 01                     push	dword 00000001h
  44a7da:	ff d0                     call	eax
  44a7dc:	e8 0a e4 ff ff           >call	448beb
  44a7e1:	8b f0                     mov	esi, eax
  44a7e3:	8b 8e cc 00 00 00         mov	ecx, [esi+000000CCh]
  44a7e9:	8d be cc 00 00 00         lea	edi, [esi+000000CCh]
  44a7ef:	3b cb                     cmp	ecx, ebx
  44a7f1:	74 0e                     jz	44a801
  44a7f3:	8b 01                     mov	eax, [ecx]
  44a7f5:	ff 90 b8 00 00 00         call	dword [eax+000000B8h]
  44a7fb:	85 c0                     test	eax, eax
  44a7fd:	74 02                     jz	44a801
  44a7ff:	89 1f                     mov	[edi], ebx
  44a801:	e8 75 e6 ff ff           >call	448e7b
  44a806:	38 58 14                  cmp	[eax+14h], bl
  44a809:	75 20                     jnz	44a82b
  44a80b:	8b 46 30                  mov	eax, [esi+30h]
  44a80e:	8b 3d b0 f5 44 00         mov	edi, [0044F5B0h]
  44a814:	3b c3                     cmp	eax, ebx
  44a816:	74 06                     jz	44a81e
  44a818:	50                        push	eax
  44a819:	ff d7                     call	edi
  44a81b:	89 5e 30                  mov	[esi+30h], ebx
  44a81e:	8b 46 2c                 >mov	eax, [esi+2Ch]
  44a821:	3b c3                     cmp	eax, ebx
  44a823:	74 06                     jz	44a82b
  44a825:	50                        push	eax
  44a826:	ff d7                     call	edi
  44a828:	89 5e 2c                  mov	[esi+2Ch], ebx
  44a82b:	5f                       >pop	edi
  44a82c:	5e                        pop	esi
  44a82d:	5d                        pop	ebp
  44a82e:	5b                        pop	ebx
  44a82f:	c3                        ret
     ...

Section .rdata (start = 0x4f000, length = 0x14000, minimum allocation = 0x13b44):
    Address: 4f000
    Flags: 0x40000040 (data, readable)
    Alignment: 1 (2**0)
  44f000 c6 28 06 00 b2 28 06 00 2e 28 06 00 ea 28 06 00  .(...(...(...(..
  44f010 da 28 06 00 0c 28 06 00 1a 28 06 00 8e 28 06 00  .(...(...(...(..
  44f020 3e 28 06 00 50 28 06 00 5e 28 06 00 6c 28 06 00  >(..P(..^(..l(..
  44f030 a0 28 06 00 7c 28 06 00 00 00 00 00 0e 00 00 80  .(..|(..........
  44f040 dc 29 06 00 0d 00 00 80 ca 29 06 00 11 00 00 80  .).......)......
  44f050 b8 29 06 00 8c 29 06 00 a0 29 06 00 78 29 06 00  .)...)...)..x)..
  44f060 00 00 00 00 d2 0a 06 00 58 0b 06 00 9e 0a 06 00  ........X.......
  44f070 f6 0a 06 00 38 0b 06 00 14 0b 06 00 aa 09 06 00  ....8...........
  44f080 6e 0a 06 00 42 0a 06 00 26 0a 06 00 08 0a 06 00  n...B...&.......
  44f090 da 09 06 00 7a 09 06 00 4e 09 06 00 30 09 06 00  ....z...N...0...
  44f0a0 1a 09 06 00 dc 08 06 00 00 00 00 00 1c 2b 06 00  .............+..
  44f0b0 32 2b 06 00 4e 22 06 00 5a 22 06 00 40 22 06 00  2+..N"..Z"..@"..
  44f0c0 72 22 06 00 82 22 06 00 66 22 06 00 a2 22 06 00  r"..."..f"..."..
  44f0d0 ba 22 06 00 8c 22 06 00 d6 22 06 00 e4 22 06 00  ."..."..."..."..
  44f0e0 c8 22 06 00 02 23 06 00 10 23 06 00 f4 22 06 00  ."...#...#..."..
  44f0f0 2c 23 06 00 38 23 06 00 20 23 06 00 4e 23 06 00  ,#..8#.. #..N#..
  44f100 60 23 06 00 42 23 06 00 7c 23 06 00 8e 23 06 00  `#..B#..|#...#..
  44f110 70 23 06 00 ce 23 06 00 e4 23 06 00 ba 23 06 00  p#...#...#...#..
  44f120 0e 24 06 00 20 24 06 00 f8 23 06 00 46 24 06 00  .$.. $...#..F$..
  44f130 5a 24 06 00 34 24 06 00 7c 24 06 00 90 24 06 00  Z$..4$..|$...$..
  44f140 6a 24 06 00 ac 24 06 00 b6 24 06 00 a0 24 06 00  j$...$...$...$..
  44f150 de 24 06 00 f6 24 06 00 c6 24 06 00 20 25 06 00  .$...$...$.. %..
  44f160 28 25 06 00 3a 25 06 00 46 25 06 00 54 25 06 00  (%..:%..F%..T%..
  44f170 6a 25 06 00 7a 25 06 00 8a 25 06 00 98 25 06 00  j%..z%...%...%..
  44f180 a8 25 06 00 ba 25 06 00 ce 25 06 00 e4 25 06 00  .%...%...%...%..
  44f190 f4 25 06 00 04 26 06 00 14 26 06 00 24 26 06 00  .%...&...&..$&..
  44f1a0 38 26 06 00 4a 26 06 00 5a 26 06 00 6e 26 06 00  8&..J&..Z&..n&..
  44f1b0 82 26 06 00 98 26 06 00 b2 26 06 00 be 26 06 00  .&...&...&...&..
  44f1c0 cc 26 06 00 d8 26 06 00 e6 26 06 00 f0 26 06 00  .&...&...&...&..
  44f1d0 fe 26 06 00 08 27 06 00 16 27 06 00 24 27 06 00  .&...'...'..$'..
  44f1e0 3c 27 06 00 52 27 06 00 5c 27 06 00 66 27 06 00  <'..R'..\'..f'..
  44f1f0 98 23 06 00 ac 23 06 00 08 25 06 00 00 00 00 00  .#...#...%......
  44f200 70 14 06 00 88 14 06 00 a2 14 06 00 ae 14 06 00  p...............
  44f210 60 14 06 00 c0 14 06 00 cc 14 06 00 de 14 06 00  `...............
  44f220 f0 14 06 00 fe 14 06 00 0a 15 06 00 1e 15 06 00  ................
  44f230 32 14 06 00 4a 14 06 00 4a 15 06 00 56 15 06 00  2...J...J...V...
  44f240 60 15 06 00 7a 15 06 00 8a 15 06 00 9a 15 06 00  `...z...........
  44f250 aa 15 06 00 ba 15 06 00 ca 15 06 00 e8 15 06 00  ................
  44f260 0a 14 06 00 18 14 06 00 3c 15 06 00 2e 15 06 00  ........<.......
  44f270 f2 13 06 00 4c 16 06 00 68 16 06 00 82 16 06 00  ....L...h.......
  44f280 9c 16 06 00 b4 16 06 00 ce 16 06 00 e0 16 06 00  ................
  44f290 f0 16 06 00 fe 16 06 00 10 17 06 00 22 17 06 00  ............"...
  44f2a0 32 17 06 00 42 17 06 00 52 17 06 00 64 17 06 00  2...B...R...d...
  44f2b0 76 17 06 00 8c 17 06 00 a2 17 06 00 ba 17 06 00  v...............
  44f2c0 ca 17 06 00 dc 17 06 00 ee 17 06 00 08 18 06 00  ................
  44f2d0 e6 13 06 00 da 13 06 00 c6 13 06 00 b8 13 06 00  ................
  44f2e0 a8 13 06 00 9a 13 06 00 82 13 06 00 72 13 06 00  ............r...
  44f2f0 5a 13 06 00 50 13 06 00 40 13 06 00 28 13 06 00  Z...P...@...(...
  44f300 1c 13 06 00 00 13 06 00 f2 12 06 00 e0 12 06 00  ................
  44f310 d2 12 06 00 be 12 06 00 ac 12 06 00 98 12 06 00  ................
  44f320 80 12 06 00 6e 12 06 00 62 12 06 00 54 12 06 00  ....n...b...T...
  44f330 48 12 06 00 38 12 06 00 2a 12 06 00 1e 12 06 00  H...8...*.......
  44f340 0a 12 06 00 f8 11 06 00 ec 11 06 00 e0 11 06 00  ................
  44f350 d2 11 06 00 be 11 06 00 ac 11 06 00 7a 11 06 00  ............z...
  44f360 02 16 06 00 9a 11 06 00 a0 0e 06 00 90 0e 06 00  ................
  44f370 8e 11 06 00 4a 11 06 00 6c 11 06 00 5e 11 06 00  ....J...l...^...
  44f380 02 11 06 00 36 11 06 00 20 11 06 00 be 10 06 00  ....6... .......
  44f390 e6 10 06 00 ce 10 06 00 8a 10 06 00 ae 10 06 00  ................
  44f3a0 9a 10 06 00 64 10 06 00 7e 10 06 00 70 10 06 00  ....d...~...p...
  44f3b0 10 16 06 00 1e 16 06 00 3a 10 06 00 8a 2a 06 00  ........:....*..
  44f3c0 b6 0e 06 00 50 10 06 00 44 10 06 00 0c 10 06 00  ....P...D.......
  44f3d0 2a 10 06 00 1a 10 06 00 d2 0f 06 00 fe 0f 06 00  *...............
  44f3e0 e8 0f 06 00 a2 0f 06 00 c6 0f 06 00 b4 0f 06 00  ................
  44f3f0 68 0f 06 00 8e 0f 06 00 7a 0f 06 00 3c 0f 06 00  h.......z...<...
  44f400 5a 0f 06 00 4a 0f 06 00 0c 0f 06 00 2c 0f 06 00  Z...J.......,...
  44f410 1c 0f 06 00 c6 0e 06 00 f6 0e 06 00 de 0e 06 00  ................
  44f420 2c 16 06 00 3c 16 06 00 a0 2a 06 00 08 0e 06 00  ,...<....*......
  44f430 14 0e 06 00 20 0e 06 00 36 0e 06 00 3e 0e 06 00  .... ...6...>...
  44f440 54 0e 06 00 62 0e 06 00 74 0e 06 00 80 0e 06 00  T...b...t.......
  44f450 00 00 00 00 18 29 06 00 2a 29 06 00 08 29 06 00  .....)..*)...)..
  44f460 38 29 06 00 4a 29 06 00 5c 29 06 00 00 00 00 00  8)..J)..\)......
  44f470 06 1f 06 00 18 1f 06 00 e8 1e 06 00 20 1f 06 00  ............ ...
  44f480 2c 1f 06 00 3a 1f 06 00 48 1f 06 00 54 1f 06 00  ,...:...H...T...
  44f490 66 1f 06 00 72 1f 06 00 80 1f 06 00 92 1f 06 00  f...r...........
  44f4a0 a6 1f 06 00 b6 1f 06 00 ca 1e 06 00 d8 1e 06 00  ................
  44f4b0 ea 1f 06 00 d8 1f 06 00 12 20 06 00 26 20 06 00  ......... ..& ..
  44f4c0 38 20 06 00 46 20 06 00 54 20 06 00 62 20 06 00  8 ..F ..T ..b ..
  44f4d0 70 20 06 00 7e 20 06 00 8c 20 06 00 9c 20 06 00  p ..~ ... ... ..
  44f4e0 b0 20 06 00 c8 20 06 00 da 20 06 00 c8 1f 06 00  . ... ... ......
  44f4f0 00 20 06 00 08 21 06 00 14 21 06 00 1e 21 06 00  . ...!...!...!..
  44f500 30 21 06 00 42 21 06 00 e6 20 06 00 68 21 06 00  0!..B!... ..h!..
  44f510 78 21 06 00 88 21 06 00 96 21 06 00 a4 21 06 00  x!...!...!...!..
  44f520 b0 21 06 00 be 21 06 00 ce 21 06 00 e4 21 06 00  .!...!...!...!..
  44f530 f8 21 06 00 06 22 06 00 14 22 06 00 22 22 06 00  .!..."..."..""..
  44f540 c8 1d 06 00 b6 1d 06 00 a6 1d 06 00 96 1d 06 00  ................
  44f550 86 1d 06 00 76 1d 06 00 64 1d 06 00 52 1d 06 00  ....v...d...R...
  44f560 42 1d 06 00 32 1d 06 00 22 1d 06 00 14 1d 06 00  B...2...".......
  44f570 0a 1d 06 00 fa 20 06 00 56 21 06 00 e0 1c 06 00  ..... ..V!......
  44f580 ce 1c 06 00 c0 1c 06 00 7c 1e 06 00 9e 1c 06 00  ........|.......
  44f590 88 1c 06 00 70 1c 06 00 5e 1c 06 00 4e 1c 06 00  ....p...^...N...
  44f5a0 40 1c 06 00 2e 1c 06 00 92 1e 06 00 ec 1b 06 00  @...............
  44f5b0 d6 1b 06 00 ca 1b 06 00 b8 1b 06 00 aa 1b 06 00  ................
  44f5c0 98 1b 06 00 88 1b 06 00 72 1b 06 00 66 1b 06 00  ........r...f...
  44f5d0 54 1b 06 00 44 1b 06 00 2a 1b 06 00 1a 1b 06 00  T...D...*.......
  44f5e0 02 1b 06 00 ec 1a 06 00 d8 1a 06 00 cc 1a 06 00  ................
  44f5f0 ba 1a 06 00 88 1a 06 00 6a 1a 06 00 5e 1a 06 00  ........j...^...
  44f600 4c 1a 06 00 3e 1a 06 00 2c 1a 06 00 1c 1a 06 00  L...>...,.......
  44f610 00 1a 06 00 ec 19 06 00 d8 19 06 00 cc 19 06 00  ................
  44f620 be 19 06 00 ae 19 06 00 a4 19 06 00 90 19 06 00  ................
  44f630 82 19 06 00 74 19 06 00 64 19 06 00 54 19 06 00  ....t...d...T...
  44f640 40 19 06 00 32 19 06 00 1c 19 06 00 10 19 06 00  @...2...........
  44f650 fa 18 06 00 e8 18 06 00 dc 18 06 00 ce 18 06 00  ................
  44f660 be 18 06 00 ac 18 06 00 a0 18 06 00 94 18 06 00  ................
  44f670 88 18 06 00 78 18 06 00 68 18 06 00 56 18 06 00  ....x...h...V...
  44f680 46 18 06 00 36 18 06 00 28 18 06 00 b4 1e 06 00  F...6...(.......
  44f690 a4 1e 06 00 e8 1d 06 00 fe 1d 06 00 b0 1c 06 00  ................
  44f6a0 6a 1e 06 00 5c 1e 06 00 50 1e 06 00 44 1e 06 00  j...\...P...D...
  44f6b0 2e 1e 06 00 1c 1e 06 00 10 1e 06 00 fc 1c 06 00  ................
  44f6c0 dc 1d 06 00 f0 1c 06 00 08 1c 06 00 1a 1c 06 00  ................
  44f6d0 a8 1a 06 00 9c 1a 06 00 f8 1b 06 00 10 2b 06 00  .............+..
  44f6e0 04 2b 06 00 f0 2a 06 00 e0 2a 06 00 d2 2a 06 00  .+...*...*...*..
  44f6f0 c6 2a 06 00 b4 2a 06 00 00 00 00 00 34 0c 06 00  .*...*......4...
  44f700 84 0c 06 00 ce 0d 06 00 90 0d 06 00 76 0d 06 00  ............v...
  44f710 fc 0c 06 00 d8 0c 06 00 b6 0c 06 00 9a 0c 06 00  ................
  44f720 16 0c 06 00 4e 0c 06 00 8c 0b 06 00 f0 0b 06 00  ....N...........
  44f730 00 00 00 00 52 2a 06 00 3c 2a 06 00 6c 2a 06 00  ....R*..<*..l*..
  44f740 00 00 00 00 c4 08 06 00 00 00 00 00 ee 27 06 00  .............'..
  44f750 d8 27 06 00 c8 27 06 00 00 00 00 00 92 27 06 00  .'...'.......'..
  44f760 82 27 06 00 a6 27 06 00 00 00 00 00 fc 29 06 00  .'...'.......)..
  44f770 0c 2a 06 00 1e 2a 06 00 00 00 00 00 00 00 00 00  .*...*..........
  44f780 00 00 00 00 24 b2 5f 3e 00 00 00 00 02 00 00 00  ....$._>........
  44f790 59 00 00 00 00 00 00 00 00 90 29 00 00 00 00 00  Y.........).....
  44f7a0 c8 06 45 00 a8 f7 44 00 0f 00 00 00 00 00 00 00  ..E...D.........
  44f7b0 00 00 00 00 00 00 00 00 0c 00 00 00 fc 16 40 00  ..............@.
  44f7c0 19 00 00 00 00 00 00 00 00 00 00 00 00 00 00 00  ................
  44f7d0 04 00 00 00 15 17 40 00 11 01 00 00 00 00 00 00  ......@.........
  44f7e0 05 00 00 00 05 00 00 00 0c 00 00 00 6a 18 40 00  ............j.@.
  44f7f0 11 01 00 00 00 00 00 00 04 00 00 00 04 00 00 00  ................
  44f800 0c 00 00 00 72 18 40 00 11 01 00 00 00 00 00 00  ....r.@.........
  44f810 06 00 00 00 06 00 00 00 0c 00 00 00 b0 18 40 00  ..............@.
  44f820 11 01 00 00 00 00 00 00 03 00 00 00 03 00 00 00  ................
  44f830 0c 00 00 00 b8 18 40 00 11 01 00 00 00 00 00 00  ......@.........
  44f840 07 00 00 00 07 00 00 00 0c 00 00 00 b8 18 40 00  ..............@.
  44f850 11 01 00 00 00 00 00 00 08 00 00 00 08 00 00 00  ................
  44f860 0c 00 00 00 7a 18 40 00 11 01 00 00 00 00 00 00  ....z.@.........
  44f870 09 00 00 00 09 00 00 00 0c 00 00 00 82 18 40 00  ..............@.
  44f880 00 00 00 00 00 00 00 00 00 00 00 00 00 00 00 00  ................
  44f890 00 00 00 00 00 00 00 00 b9 76 44 00 08 11 40 00  .........vD...@.
  44f8a0 8b 18 40 00 63 48 43 00 66 5f 43 00 3e 8a 43 00  ..@.cHC.f_C.>.C.
  44f8b0 44 8a 43 00 49 8a 43 00 4c 8a 43 00 4f 8a 43 00  D.C.I.C.L.C.O.C.
  44f8c0 38 12 40 00 f9 8a 43 00 9c 8a 43 00 e9 8a 43 00  8.@...C...C...C.
  44f8d0 a8 8a 43 00 a2 8a 43 00 e0 8a 43 00 e4 8a 43 00  ..C...C...C...C.
  44f8e0 f4 8a 43 00 ef 8a 43 00 ab 57 43 00 6d 5d 43 00  ..C...C..WC.m]C.
  44f8f0 77 5f 43 00 4d 5d 43 00 24 75 43 00 85 60 43 00  w_C.M]C.$uC..`C.
  44f900 c6 70 43 00 83 65 43 00 ae 82 43 00 b5 82 43 00  .pC..eC...C...C.
  44f910 a9 6c 43 00 35 6d 43 00 0b 60 43 00 20 12 40 00  .lC.5mC..`C. .@.
  44f920 bb 19 40 00 c7 19 40 00 ca 47 43 00 2f 8d 43 00  ..@...@..GC./.C.
  44f930 c0 66 43 00 04 67 43 00 c4 5f 43 00 65 5f 43 00  .fC..gC.._C.e_C.
  44f940 24 77 43 00 ef 50 43 00 4d 86 43 00 a1 4c 43 00  $wC..PC.M.C..LC.
  44f950 3e 12 40 00 4b 13 40 00 66 50 43 00 c7 12 40 00  >.@.K.@.fPC...@.
  44f960 43 12 40 00 87 4f 43 00 0c 7a 44 00 73 19 40 00  C.@..OC..zD.s.@.
  44f970 8b 18 40 00 07 7f 44 00 65 1a 40 00 8b 18 40 00  ..@...D.e.@...@.
  44f980 2f 89 43 00 66 5f 43 00 3e 8a 43 00 44 8a 43 00  /.C.f_C.>.C.D.C.
  44f990 49 8a 43 00 4c 8a 43 00 4f 8a 43 00 65 66 43 00  I.C.L.C.O.C.efC.
  44f9a0 f9 8a 43 00 9c 8a 43 00 e9 8a 43 00 a8 8a 43 00  ..C...C...C...C.
  44f9b0 a2 8a 43 00 e0 8a 43 00 e4 8a 43 00 f4 8a 43 00  ..C...C...C...C.
  44f9c0 ef 8a 43 00 ab 57 43 00 6d 5d 43 00 77 5f 43 00  ..C..WC.m]C.w_C.
  44f9d0 4d 5d 43 00 24 75 43 00 85 60 43 00 c6 70 43 00  M]C.$uC..`C..pC.
  44f9e0 83 65 43 00 ae 82 43 00 b5 82 43 00 a9 6c 43 00  .eC...C...C..lC.
  44f9f0 35 6d 43 00 0b 60 43 00 b8 19 40 00 bb 19 40 00  5mC..`C...@...@.
  44fa00 c7 19 40 00 0f 60 43 00 2f 8d 43 00 c0 66 43 00  ..@..`C./.C..fC.
  44fa10 04 67 43 00 c4 5f 43 00 65 5f 43 00 56 48 44 00  .gC.._C.e_C.VHD.
  44fa20 f4 7e 43 00 4d 86 43 00 d9 82 43 00 ed 06 43 00  .~C.M.C...C...C.
  44fa30 12 7a 44 00 20 1a 40 00 8b 18 40 00 00 00 00 00  .zD. .@...@.....
  44fa40 c8 06 45 00 48 fa 44 00 05 00 00 00 00 00 00 00  ..E.H.D.........
  44fa50 00 00 00 00 00 00 00 00 11 00 00 00 47 1c 40 00  ............G.@.
  44fa60 00 00 00 00 00 00 00 00 00 00 00 00 00 00 00 00  ................
  44fa70 00 00 00 00 00 00 00 00 b9 76 44 00 58 1b 40 00  .........vD.X.@.
  44fa80 8b 18 40 00 63 48 43 00 66 5f 43 00 3e 8a 43 00  ..@.cHC.f_C.>.C.
  44fa90 44 8a 43 00 49 8a 43 00 4c 8a 43 00 4f 8a 43 00  D.C.I.C.L.C.O.C.
  44faa0 be 1b 40 00 f9 8a 43 00 9c 8a 43 00 e9 8a 43 00  ..@...C...C...C.
  44fab0 a8 8a 43 00 a2 8a 43 00 e0 8a 43 00 e4 8a 43 00  ..C...C...C...C.
  44fac0 f4 8a 43 00 ef 8a 43 00 ab 57 43 00 6d 5d 43 00  ..C...C..WC.m]C.
  44fad0 77 5f 43 00 4d 5d 43 00 24 75 43 00 85 60 43 00  w_C.M]C.$uC..`C.
  44fae0 c6 70 43 00 83 65 43 00 ae 82 43 00 b5 82 43 00  .pC..eC...C...C.
  44faf0 a9 6c 43 00 35 6d 43 00 0b 60 43 00 a9 1b 40 00  .lC.5mC..`C...@.
  44fb00 bb 19 40 00 c7 19 40 00 ca 47 43 00 2f 8d 43 00  ..@...@..GC./.C.
  44fb10 c0 66 43 00 04 67 43 00 c4 5f 43 00 3b 1c 40 00  .fC..gC.._C.;.@.
  44fb20 24 77 43 00 ef 50 43 00 4d 86 43 00 a1 4c 43 00  $wC..PC.M.C..LC.
  44fb30 e0 4d 43 00 69 50 43 00 66 50 43 00 db 1b 40 00  .MC.iPC.fPC...@.
  44fb40 e7 50 43 00 87 4f 43 00 c8 06 45 00 50 fb 44 00  .PC..OC...E.P.D.
  44fb50 11 01 00 00 00 00 00 00 09 00 00 00 09 00 00 00  ................
  44fb60 0c 00 00 00 3b 20 40 00 11 01 00 00 00 00 00 00  ....; @.........
  44fb70 04 00 00 00 04 00 00 00 0c 00 00 00 92 20 40 00  ............. @.
  44fb80 19 00 00 00 00 00 00 00 00 00 00 00 00 00 00 00  ................
  44fb90 04 00 00 00 09 23 40 00 0f 00 00 00 00 00 00 00  .....#@.........
  44fba0 00 00 00 00 00 00 00 00 0c 00 00 00 84 25 40 00  .............%@.
  44fbb0 01 02 00 00 00 00 00 00 00 00 00 00 00 00 00 00  ................
  44fbc0 31 00 00 00 9d 25 40 00 02 02 00 00 00 00 00 00  1....%@.........
  44fbd0 00 00 00 00 00 00 00 00 31 00 00 00 a5 26 40 00  ........1....&@.
  44fbe0 13 01 00 00 00 00 00 00 00 00 00 00 00 00 00 00  ................
  44fbf0 0d 00 00 00 0e 27 40 00 00 00 00 00 00 00 00 00  .....'@.........
  44fc00 00 00 00 00 00 00 00 00 00 00 00 00 00 00 00 00  ................
  44fc10 b9 76 44 00 5f 1e 40 00 8b 18 40 00 63 48 43 00  .vD._.@...@.cHC.
  44fc20 66 5f 43 00 3e 8a 43 00 44 8a 43 00 49 8a 43 00  f_C.>.C.D.C.I.C.
  44fc30 4c 8a 43 00 4f 8a 43 00 cb 1f 40 00 f9 8a 43 00  L.C.O.C...@...C.
  44fc40 9c 8a 43 00 e9 8a 43 00 a8 8a 43 00 a2 8a 43 00  ..C...C...C...C.
  44fc50 e0 8a 43 00 e4 8a 43 00 f4 8a 43 00 ef 8a 43 00  ..C...C...C...C.
  44fc60 ab 57 43 00 6d 5d 43 00 77 5f 43 00 f6 20 40 00  .WC.m]C.w_C.. @.
  44fc70 24 75 43 00 85 60 43 00 c6 70 43 00 83 65 43 00  $uC..`C..pC..eC.
  44fc80 ae 82 43 00 b5 82 43 00 a9 6c 43 00 35 6d 43 00  ..C...C..lC.5mC.
  44fc90 0b 60 43 00 9a 1f 40 00 bb 19 40 00 c7 19 40 00  .`C...@...@...@.
  44fca0 ca 47 43 00 2f 8d 43 00 c0 66 43 00 04 67 43 00  .GC./.C..fC..gC.
  44fcb0 c4 5f 43 00 65 5f 43 00 24 77 43 00 ef 50 43 00  ._C.e_C.$wC..PC.
  44fcc0 4d 86 43 00 a1 4c 43 00 d1 1f 40 00 02 21 40 00  M.C..LC...@..!@.
  44fcd0 66 50 43 00 ce 50 43 00 d6 1f 40 00 87 4f 43 00  fPC..PC...@..OC.
  44fce0 68 31 46 00 bc 00 00 00 ff ff 00 00 b9 27 40 00  h1F..........'@.
  44fcf0 08 1b 45 00 00 00 00 00 30 1b 45 00 00 fd 44 00  ..E.....0.E...D.
  44fd00 11 01 00 00 00 00 00 00 04 80 00 00 04 80 00 00  ................
  44fd10 0c 00 00 00 b9 29 40 00 10 00 00 00 00 00 00 00  .....)@.........
  44fd20 00 00 00 00 00 00 00 00 0c 00 00 00 cd 29 40 00  .............)@.
  44fd30 11 01 00 00 00 00 00 00 0c 80 00 00 0c 80 00 00  ................
  44fd40 0c 00 00 00 ff 29 40 00 01 80 00 00 00 00 00 00  .....)@.........
  44fd50 00 00 00 00 00 00 00 00 0a 00 00 00 66 28 40 00  ............f(@.
  44fd60 02 80 00 00 00 00 00 00 00 00 00 00 00 00 00 00  ................
  44fd70 0a 00 00 00 80 28 40 00 03 80 00 00 00 00 00 00  .....(@.........
  44fd80 00 00 00 00 00 00 00 00 0a 00 00 00 9a 28 40 00  .............(@.
  44fd90 04 80 00 00 00 00 00 00 00 00 00 00 00 00 00 00  ................
  44fda0 0a 00 00 00 b4 28 40 00 05 80 00 00 00 00 00 00  .....(@.........
  44fdb0 00 00 00 00 00 00 00 00 0a 00 00 00 ce 28 40 00  .............(@.
  44fdc0 06 80 00 00 00 00 00 00 00 00 00 00 00 00 00 00  ................
  44fdd0 0a 00 00 00 e8 28 40 00 07 80 00 00 00 00 00 00  .....(@.........
  44fde0 00 00 00 00 00 00 00 00 0a 00 00 00 02 29 40 00  .............)@.
  44fdf0 08 80 00 00 00 00 00 00 00 00 00 00 00 00 00 00  ................
  44fe00 0a 00 00 00 36 29 40 00 09 80 00 00 00 00 00 00  ....6)@.........
  44fe10 00 00 00 00 00 00 00 00 0a 00 00 00 50 29 40 00  ............P)@.
  44fe20 0a 80 00 00 00 00 00 00 00 00 00 00 00 00 00 00  ................
  44fe30 0a 00 00 00 80 29 40 00 0b 80 00 00 00 00 00 00  .....)@.........
  44fe40 00 00 00 00 00 00 00 00 0a 00 00 00 9a 29 40 00  .............)@.
  44fe50 0c 80 00 00 00 00 00 00 00 00 00 00 00 00 00 00  ................
  44fe60 0a 00 00 00 1c 29 40 00 0d 80 00 00 00 00 00 00  .....)@.........
  44fe70 00 00 00 00 00 00 00 00 0a 00 00 00 6a 29 40 00  ............j)@.
  44fe80 0f 80 00 00 00 00 00 00 00 00 00 00 00 00 00 00  ................
  44fe90 0a 00 00 00 57 28 40 00 00 00 00 00 00 00 00 00  ....W(@.........
  44fea0 00 00 00 00 00 00 00 00 00 00 00 00 00 00 00 00  ................
  44feb0 ee 27 40 00 0c 28 40 00 8b 18 40 00 66 61 44 00  .'@..(@...@.faD.
  44fec0 66 5f 43 00 3e 8a 43 00 44 8a 43 00 49 8a 43 00  f_C.>.C.D.C.I.C.
  44fed0 4c 8a 43 00 4f 8a 43 00 f4 27 40 00 f9 8a 43 00  L.C.O.C..'@...C.
  44fee0 9c 8a 43 00 e9 8a 43 00 a8 8a 43 00 a2 8a 43 00  ..C...C...C...C.
  44fef0 e0 8a 43 00 e4 8a 43 00 f4 8a 43 00 ef 8a 43 00  ..C...C...C...C.
  44ff00 ab 57 43 00 6d 5d 43 00 77 5f 43 00 33 28 40 00  .WC.m]C.w_C.3(@.
  44ff10 24 75 43 00 85 60 43 00 c6 70 43 00 83 65 43 00  $uC..`C..pC..eC.
  44ff20 ae 82 43 00 b5 82 43 00 c4 57 44 00 35 6d 43 00  ..C...C..WD.5mC.
  44ff30 0b 60 43 00 b8 19 40 00 5b 58 44 00 77 59 44 00  .`C...@.[XD.wYD.
  44ff40 01 56 44 00 2f 8d 43 00 c0 66 43 00 04 67 43 00  .VD./.C..fC..gC.
  44ff50 c4 5f 43 00 78 56 44 00 24 77 43 00 f4 7e 43 00  ._C.xVD.$wC..~C.
  44ff60 50 86 43 00 d9 82 43 00 35 5e 44 00 b4 29 40 00  P.C...C.5^D..)@.
  44ff70 21 73 44 00 0d 6b 44 00 24 73 44 00 63 75 44 00  !sD..kD.$sD.cuD.
  44ff80 83 70 44 00 3f 6c 44 00 11 74 44 00 32 5d 44 00  .pD.?lD..tD.2]D.
  44ff90 42 6f 44 00 ff 5e 44 00 dd 55 44 00 9e 72 44 00  BoD..^D..UD..rD.
  44ffa0 c1 56 44 00 00 00 00 00 d0 20 45 00 b0 ff 44 00  .VD...... E...D.
  44ffb0 11 01 00 00 00 00 00 00 40 e1 00 00 40 e1 00 00  ........@...@...
  44ffc0 0c 00 00 00 b1 2d 40 00 11 01 00 00 00 00 00 00  .....-@.........
  44ffd0 00 e1 00 00 00 e1 00 00 0c 00 00 00 8b 34 44 00  .............4D.
  44ffe0 11 01 00 00 00 00 00 00 01 e1 00 00 01 e1 00 00  ................
  44fff0 0c 00 00 00 9b 34 44 00 00 00 00 00 00 00 00 00  .....4D.........
  450000 00 00 00 00 00 00 00 00 00 00 00 00 00 00 00 00  ................
  450010 c8 06 45 00 18 00 45 00 00 00 00 00 00 00 00 00  ..E...E.........
  450020 00 00 00 00 00 00 00 00 00 00 00 00 00 00 00 00  ................
  450030 76 85 44 00 62 2a 40 00 8b 18 40 00 2f 89 43 00  v.D.b*@...@./.C.
  450040 ae 8a 43 00 3e 8a 43 00 44 8a 43 00 49 8a 43 00  ..C.>.C.D.C.I.C.
  450050 4c 8a 43 00 4f 8a 43 00 41 2a 40 00 f9 8a 43 00  L.C.O.C.A*@...C.
  450060 9c 8a 43 00 e9 8a 43 00 a8 8a 43 00 a2 8a 43 00  ..C...C...C...C.
  450070 e0 8a 43 00 e4 8a 43 00 f4 8a 43 00 ef 8a 43 00  ..C...C...C...C.
  450080 b3 2a 40 00 fc 9c 43 00 9f a5 43 00 54 a8 43 00  .*@...C...C.T.C.
  450090 cc 9d 43 00 b0 a3 43 00 ea 2d 40 00 55 9d 43 00  ..C...C..-@.U.C.
  4500a0 ef a6 43 00 39 a8 43 00 1c a3 43 00 81 35 44 00  ..C.9.C...C..5D.
  4500b0 6b 35 44 00 af 80 44 00 58 35 44 00 46 36 44 00  k5D...D.X5D.F6D.
  4500c0 f9 34 44 00 cb 35 44 00 1e 9d 43 00 00 00 00 00  .4D..5D...C.....
  4500d0 b9 76 44 00 f0 2c 40 00 8b 18 40 00 63 48 43 00  .vD..,@...@.cHC.
  4500e0 66 5f 43 00 3e 8a 43 00 44 8a 43 00 49 8a 43 00  f_C.>.C.D.C.I.C.
  4500f0 4c 8a 43 00 4f 8a 43 00 ab 2d 40 00 f9 8a 43 00  L.C.O.C..-@...C.
  450100 9c 8a 43 00 e9 8a 43 00 a8 8a 43 00 a2 8a 43 00  ..C...C...C...C.
  450110 e0 8a 43 00 e4 8a 43 00 f4 8a 43 00 ef 8a 43 00  ..C...C...C...C.
  450120 ab 57 43 00 6d 5d 43 00 77 5f 43 00 4d 5d 43 00  .WC.m]C.w_C.M]C.
  450130 24 75 43 00 85 60 43 00 c6 70 43 00 83 65 43 00  $uC..`C..pC..eC.
  450140 ae 82 43 00 b5 82 43 00 a9 6c 43 00 35 6d 43 00  ..C...C..lC.5mC.
  450150 0b 60 43 00 11 2d 40 00 bb 19 40 00 c7 19 40 00  .`C..-@...@...@.
  450160 ca 47 43 00 2f 8d 43 00 c0 66 43 00 04 67 43 00  .GC./.C..fC..gC.
  450170 c4 5f 43 00 65 5f 43 00 24 77 43 00 ef 50 43 00  ._C.e_C.$wC..PC.
  450180 4d 86 43 00 a1 4c 43 00 e0 4d 43 00 14 2d 40 00  M.C..LC..MC..-@.
  450190 66 50 43 00 ce 50 43 00 e7 50 43 00 87 4f 43 00  fPC..PC..PC..OC.
  4501a0 ff ff ff ff 00 00 00 00 a8 35 46 00 c8 00 00 00  .........5F.....
  4501b0 ff ff 00 00 4a 38 40 00 00 24 45 00 00 00 00 00  ....J8@..$E.....
  4501c0 28 24 45 00 c8 01 45 00 11 01 00 00 00 00 00 00  ($E...E.........
  4501d0 07 80 00 00 07 80 00 00 0c 00 00 00 fb 6f 40 00  .............o@.
  4501e0 11 01 00 00 ff ff ff ff 07 80 00 00 07 80 00 00  ................
  4501f0 2c 00 00 00 2c 71 40 00 11 01 00 00 00 00 00 00  ,...,q@.........
  450200 05 80 00 00 05 80 00 00 0c 00 00 00 42 71 40 00  ............Bq@.
  450210 11 01 00 00 ff ff ff ff 05 80 00 00 05 80 00 00  ................
  450220 2c 00 00 00 3a 72 40 00 11 01 00 00 00 00 00 00  ,...:r@.........
  450230 08 80 00 00 08 80 00 00 0c 00 00 00 50 72 40 00  ............Pr@.
  450240 11 01 00 00 ff ff ff ff 08 80 00 00 08 80 00 00  ................
  450250 2c 00 00 00 49 73 40 00 11 01 00 00 00 00 00 00  ,...Is@.........
  450260 06 80 00 00 06 80 00 00 0c 00 00 00 5f 73 40 00  ............_s@.
  450270 11 01 00 00 ff ff ff ff 06 80 00 00 06 80 00 00  ................
  450280 2c 00 00 00 58 74 40 00 11 01 00 00 00 00 00 00  ,...Xt@.........
  450290 0a 80 00 00 0a 80 00 00 0c 00 00 00 6e 74 40 00  ............nt@.
  4502a0 11 01 00 00 ff ff ff ff 0a 80 00 00 0a 80 00 00  ................
  4502b0 2c 00 00 00 63 76 40 00 11 01 00 00 00 00 00 00  ,...cv@.........
  4502c0 09 80 00 00 09 80 00 00 0c 00 00 00 79 76 40 00  ............yv@.
  4502d0 11 01 00 00 ff ff ff ff 09 80 00 00 09 80 00 00  ................
  4502e0 2c 00 00 00 8b 76 40 00 11 01 00 00 00 00 00 00  ,....v@.........
  4502f0 0b 80 00 00 0b 80 00 00 0c 00 00 00 27 75 40 00  ............'u@.
  450300 00 00 00 00 00 00 00 00 00 00 00 00 00 00 00 00  ................
  450310 00 00 00 00 00 00 00 00 7f 38 40 00 cd 39 40 00  .........8@..9@.
  450320 f2 63 40 00 da fc 43 00 77 ec 43 00 3e 8a 43 00  .c@...C.w.C.>.C.
  450330 44 8a 43 00 49 8a 43 00 4c 8a 43 00 4f 8a 43 00  D.C.I.C.L.C.O.C.
  450340 85 38 40 00 f9 8a 43 00 9c 8a 43 00 e9 8a 43 00  .8@...C...C...C.
  450350 a8 8a 43 00 a2 8a 43 00 e0 8a 43 00 e4 8a 43 00  ..C...C...C...C.
  450360 f4 8a 43 00 ef 8a 43 00 9d ec 43 00 0d ee 43 00  ..C...C...C...C.
  450370 2f ac 40 00 33 ac 40 00 50 fc 43 00 54 fc 43 00  /.@.3.@.P.C.T.C.
  450380 bb ec 43 00 ba ec 43 00 b5 3a 40 00 38 f8 43 00  ..C...C..:@.8.C.
  450390 02 fa 43 00 a8 fb 43 00 77 f1 43 00 27 f7 43 00  ..C...C.w.C.'.C.
  4503a0 ea f7 43 00 c1 ed 43 00 72 f0 43 00 0a ee 43 00  ..C...C.r.C...C.
  4503b0 f1 ee 43 00 b6 ee 43 00 d4 ec 43 00 71 f1 43 00  ..C...C...C.q.C.
  4503c0 74 f1 43 00 00 fc 43 00 2b 6d 40 00 29 53 40 00  t.C...C.+m@.)S@.
  4503d0 64 61 40 00 03 7c 40 00 0c 79 40 00 1d 79 40 00  da@..|@..y@..y@.
  4503e0 20 79 40 00 29 79 40 00 3b 79 40 00 e3 79 40 00   y@.)y@.;y@..y@.
  4503f0 08 53 40 00 57 4e 40 00 5a 4e 40 00 5d 4e 40 00  .S@.WN@.ZN@.]N@.
  450400 60 4e 40 00 65 4e 40 00 d1 50 40 00 3b 4e 40 00  `N@.eN@..P@.;N@.
  450410 d5 f6 40 00 d5 f6 40 00 d5 f6 40 00 d5 f6 40 00  ..@...@...@...@.
  450420 d5 f6 40 00 d5 f6 40 00 29 53 40 00 29 53 40 00  ..@...@.)S@.)S@.
  450430 1f 7c 40 00 e4 7a 40 00 f5 7a 40 00 f8 7a 40 00  .|@..z@..z@..z@.
  450440 01 7b 40 00 13 7b 40 00 bb 7b 40 00 e9 8c 40 00  .{@..{@..{@...@.
  450450 60 88 40 00 a3 89 40 00 e9 86 40 00 eb 89 40 00  `.@...@...@...@.
  450460 f0 86 40 00 0d 87 40 00 81 87 40 00 3c 8a 40 00  ..@...@...@.<.@.
  450470 5a 8b 40 00 1b 88 40 00 20 88 40 00 23 88 40 00  Z.@...@. .@.#.@.
  450480 93 8c 40 00 be 8c 40 00 00 00 00 00 50 00 00 00  ..@...@.....P...
  450490 00 00 00 00 58 00 00 00 00 00 00 00 04 00 00 00  ....X...........
  4504a0 00 00 00 00 0c 00 00 00 00 00 00 00 04 00 00 00  ................
  4504b0 00 00 00 00 08 00 00 00 30 3c 46 00 24 03 00 00  ........0<F.$...
  4504c0 ff ff 00 00 77 af 40 00 40 27 45 00 00 00 00 00  ....w.@.@'E.....
  4504d0 68 27 45 00 d8 04 45 00 11 01 00 00 00 00 00 00  h'E...E.........
  4504e0 f5 03 00 00 f5 03 00 00 0c 00 00 00 4f ba 40 00  ............O.@.
  4504f0 0f 00 00 00 00 00 00 00 00 00 00 00 00 00 00 00  ................
  450500 0c 00 00 00 87 c8 40 00 11 01 00 00 00 00 00 00  ......@.........
  450510 f1 03 00 00 f1 03 00 00 0c 00 00 00 3f c9 40 00  ............?.@.
  450520 11 01 00 00 00 00 00 00 f0 03 00 00 f0 03 00 00  ................
  450530 0c 00 00 00 5b c9 40 00 11 01 00 00 00 00 00 00  ....[.@.........
  450540 ef 03 00 00 ef 03 00 00 0c 00 00 00 fd c9 40 00  ..............@.
  450550 11 01 00 00 00 00 00 00 07 04 00 00 07 04 00 00  ................
  450560 0c 00 00 00 f8 c9 40 00 02 80 00 00 00 00 00 00  ......@.........
  450570 00 00 00 00 00 00 00 00 0a 00 00 00 21 b8 40 00  ............!.@.
  450580 00 00 00 00 00 00 00 00 00 00 00 00 00 00 00 00  ................
  450590 00 00 00 00 00 00 00 00 ac af 40 00 17 b1 40 00  ..........@...@.
  4505a0 8b 18 40 00 77 01 44 00 66 5f 43 00 3e 8a 43 00  ..@.w.D.f_C.>.C.
  4505b0 44 8a 43 00 49 8a 43 00 4c 8a 43 00 4f 8a 43 00  D.C.I.C.L.C.O.C.
  4505c0 b2 af 40 00 f9 8a 43 00 9c 8a 43 00 e9 8a 43 00  ..@...C...C...C.
  4505d0 a8 8a 43 00 a2 8a 43 00 e0 8a 43 00 e4 8a 43 00  ..C...C...C...C.
  4505e0 f4 8a 43 00 ef 8a 43 00 ab 57 43 00 86 fd 43 00  ..C...C..WC...C.
  4505f0 77 5f 43 00 92 b2 40 00 e9 11 44 00 85 60 43 00  w_C...@...D..`C.
  450600 95 03 44 00 83 65 43 00 ae 82 43 00 b5 82 43 00  ..D..eC...C...C.
  450610 a9 6c 43 00 35 6d 43 00 0b 60 43 00 8f b2 40 00  .lC.5mC..`C...@.
  450620 bb 19 40 00 c7 19 40 00 52 ff 43 00 2f 8d 43 00  ..@...@.R.C./.C.
  450630 c0 66 43 00 04 67 43 00 c4 5f 43 00 03 01 44 00  .fC..gC.._C...D.
  450640 24 77 43 00 f4 7e 43 00 4d 86 43 00 ef ff 43 00  $wC..~C.M.C...C.
  450650 78 02 44 00 5b 14 44 00 2b 15 44 00 21 03 44 00  x.D.[.D.+.D.!.D.
  450660 26 03 44 00 36 03 44 00 2b 03 44 00 30 03 44 00  &.D.6.D.+.D.0.D.
  450670 19 03 44 00 ba 07 44 00 9e b2 40 00 bb fe 43 00  ..D...D...@...C.
  450680 de fe 43 00 32 b8 40 00 bc ff 43 00 db 04 44 00  ..C.2.@...C...D.
  450690 e1 04 44 00 66 02 44 00 e4 04 44 00 e7 04 44 00  ..D.f.D...D...D.
  4506a0 ff ff ff ff 00 00 00 00 c0 06 45 00 5c 00 00 00  ..........E.\...
  4506b0 ff ff 00 00 00 00 00 00 d8 08 45 00 00 00 00 00  ..........E.....
  4506c0 43 44 69 61 6c 6f 67 00 f8 08 45 00 d0 06 45 00  CDialog...E...E.
  4506d0 19 00 00 00 00 00 00 00 00 00 00 00 00 00 00 00  ................
  4506e0 04 00 00 00 6b 51 43 00 11 01 00 00 00 00 00 00  ....kQC.........
  4506f0 01 00 00 00 01 00 00 00 0c 00 00 00 b0 18 40 00  ..............@.
  450700 11 01 00 00 00 00 00 00 02 00 00 00 02 00 00 00  ................
  450710 0c 00 00 00 b8 18 40 00 65 03 00 00 00 00 00 00  ......@.e.......
  450720 00 00 00 00 00 00 00 00 0a 00 00 00 7f 51 43 00  .............QC.
  450730 66 03 00 00 00 00 00 00 00 00 00 00 00 00 00 00  f...............
  450740 0a 00 00 00 bd 51 43 00 10 01 00 00 00 00 00 00  .....QC.........
  450750 00 00 00 00 00 00 00 00 0a 00 00 00 88 4f 43 00  .............OC.
  450760 30 00 00 00 00 00 00 00 00 00 00 00 00 00 00 00  0...............
  450770 0a 00 00 00 63 4f 43 00 6f 03 00 00 00 00 00 00  ....cOC.o.......
  450780 00 00 00 00 00 00 00 00 0a 00 00 00 7f 7c 43 00  .............|C.
  450790 00 00 00 00 00 00 00 00 00 00 00 00 00 00 00 00  ................
  4507a0 00 00 00 00 00 00 00 00 45 64 69 74 00 00 00 00  ........Edit....
  4507b0 08 6d 45 00 b9 76 44 00 0a 49 43 00 8b 18 40 00  .mE..vD..IC...@.
  4507c0 63 48 43 00 66 5f 43 00 3e 8a 43 00 44 8a 43 00  cHC.f_C.>.C.D.C.
  4507d0 49 8a 43 00 4c 8a 43 00 4f 8a 43 00 c4 47 43 00  I.C.L.C.O.C..GC.
  4507e0 f9 8a 43 00 9c 8a 43 00 e9 8a 43 00 a8 8a 43 00  ..C...C...C...C.
  4507f0 a2 8a 43 00 e0 8a 43 00 e4 8a 43 00 f4 8a 43 00  ..C...C...C...C.
  450800 ef 8a 43 00 ab 57 43 00 6d 5d 43 00 77 5f 43 00  ..C..WC.m]C.w_C.
  450810 4d 5d 43 00 24 75 43 00 85 60 43 00 c6 70 43 00  M]C.$uC..`C..pC.
  450820 83 65 43 00 ae 82 43 00 b5 82 43 00 a9 6c 43 00  .eC...C...C..lC.
  450830 35 6d 43 00 0b 60 43 00 b8 19 40 00 bb 19 40 00  5mC..`C...@...@.
  450840 c7 19 40 00 ca 47 43 00 2f 8d 43 00 c0 66 43 00  ..@..GC./.C..fC.
  450850 04 67 43 00 c4 5f 43 00 65 5f 43 00 24 77 43 00  .gC.._C.e_C.$wC.
  450860 ef 50 43 00 4d 86 43 00 a1 4c 43 00 e0 4d 43 00  .PC.M.C..LC..MC.
  450870 69 50 43 00 66 50 43 00 ce 50 43 00 e7 50 43 00  iPC.fPC..PC..PC.
  450880 87 4f 43 00 48 65 6c 76 00 00 00 00 4d 53 20 53  .OC.Helv....MS S
  450890 61 6e 73 20 53 65 72 69 66 00 00 00 4d 53 20 53  ans Serif...MS S
  4508a0 68 65 6c 6c 20 44 6c 67 00 00 00 00 00 00 00 00  hell Dlg........
  4508b0 c8 08 45 00 3c 00 00 00 ff ff 00 00 f7 76 44 00  ..E.<........vD.
  4508c0 d8 08 45 00 00 00 00 00 43 54 65 6d 70 57 6e 64  ..E.....CTempWnd
  4508d0 00 00 00 00 00 00 00 00 f0 08 45 00 3c 00 00 00  ..........E.<...
  4508e0 ff ff 00 00 bf 76 44 00 88 0e 45 00 00 00 00 00  .....vD...E.....
  4508f0 43 57 6e 64 00 00 00 00 b8 0e 45 00 00 09 45 00  CWnd......E...E.
  450900 38 01 00 00 00 00 00 00 00 00 00 00 00 00 00 00  8...............
  450910 0a 00 00 00 3d 65 43 00 33 01 00 00 00 00 00 00  ....=eC.3.......
  450920 00 00 00 00 00 00 00 00 0a 00 00 00 3d 65 43 00  ............=eC.
  450930 35 01 00 00 00 00 00 00 00 00 00 00 00 00 00 00  5...............
  450940 0a 00 00 00 3d 65 43 00 34 01 00 00 00 00 00 00  ....=eC.4.......
  450950 00 00 00 00 00 00 00 00 0a 00 00 00 3d 65 43 00  ............=eC.
  450960 36 01 00 00 00 00 00 00 00 00 00 00 00 00 00 00  6...............
  450970 0a 00 00 00 3d 65 43 00 32 01 00 00 00 00 00 00  ....=eC.2.......
  450980 00 00 00 00 00 00 00 00 0a 00 00 00 3d 65 43 00  ............=eC.
  450990 37 01 00 00 00 00 00 00 00 00 00 00 00 00 00 00  7...............
  4509a0 0a 00 00 00 3d 65 43 00 2b 00 00 00 00 00 00 00  ....=eC.+.......
  4509b0 00 00 00 00 00 00 00 00 20 00 00 00 dc 61 43 00  ........ ....aC.
  4509c0 2c 00 00 00 00 00 00 00 00 00 00 00 00 00 00 00  ,...............
  4509d0 20 00 00 00 70 63 43 00 19 00 00 00 00 00 00 00   ...pcC.........
  4509e0 00 00 00 00 00 00 00 00 04 00 00 00 80 7b 43 00  .............{C.
  4509f0 39 00 00 00 00 00 00 00 00 00 00 00 00 00 00 00  9...............
  450a00 21 00 00 00 19 62 43 00 21 01 00 00 00 00 00 00  !....bC.!.......
  450a10 00 00 00 00 00 00 00 00 1b 00 00 00 36 7b 43 00  ............6{C.
  450a20 14 01 00 00 00 00 00 00 00 00 00 00 00 00 00 00  ................
  450a30 1d 00 00 00 f4 7a 43 00 15 01 00 00 00 00 00 00  .....zC.........
  450a40 00 00 00 00 00 00 00 00 1d 00 00 00 15 7b 43 00  .............{C.
  450a50 2d 00 00 00 00 00 00 00 00 00 00 00 00 00 00 00  -...............
  450a60 20 00 00 00 43 62 43 00 2f 00 00 00 00 00 00 00   ...CbC./.......
  450a70 00 00 00 00 00 00 00 00 06 00 00 00 63 62 43 00  ............cbC.
  450a80 2e 00 00 00 00 00 00 00 00 00 00 00 00 00 00 00  ................
  450a90 06 00 00 00 8e 62 43 00 82 00 00 00 00 00 00 00  .....bC.........
  450aa0 00 00 00 00 00 00 00 00 0c 00 00 00 53 5e 43 00  ............S^C.
  450ab0 10 02 00 00 00 00 00 00 00 00 00 00 00 00 00 00  ................
  450ac0 12 00 00 00 67 78 43 00 15 00 00 00 00 00 00 00  ....gxC.........
  450ad0 00 00 00 00 00 00 00 00 0c 00 00 00 b6 78 43 00  .............xC.
  450ae0 1b 00 00 00 00 00 00 00 00 00 00 00 00 00 00 00  ................
  450af0 1f 00 00 00 d2 79 43 00 53 00 00 00 00 00 00 00  .....yC.S.......
  450b00 00 00 00 00 00 00 00 00 2a 00 00 00 1d 7a 43 00  ........*....zC.
  450b10 1a 00 00 00 00 00 00 00 00 00 00 00 00 00 00 00  ................
  450b20 2f 00 00 00 33 79 43 00 02 00 00 00 00 00 00 00  /...3yC.........
  450b30 00 00 00 00 00 00 00 00 0c 00 00 00 35 5e 43 00  ............5^C.
  450b40 6e 03 00 00 00 00 00 00 00 00 00 00 00 00 00 00  n...............
  450b50 0a 00 00 00 94 78 43 00 7e 00 00 00 00 00 00 00  .....xC.~.......
  450b60 00 00 00 00 00 00 00 00 0a 00 00 00 81 7a 43 00  .............zC.
  450b70 00 c0 00 00 00 00 00 00 00 00 00 00 00 00 00 00  ................
  450b80 44 a6 46 00 ca 7a 43 00 00 00 00 00 00 00 00 00  D.F..zC.........
  450b90 00 00 00 00 00 00 00 00 00 00 00 00 00 00 00 00  ................
  450ba0 41 66 78 4f 6c 64 57 6e 64 50 72 6f 63 34 32 33  AfxOldWndProc423
  450bb0 00 00 00 00 41 66 78 57 6e 64 34 32 73 00 00 00  ....AfxWnd42s...
  450bc0 41 66 78 43 6f 6e 74 72 6f 6c 42 61 72 34 32 73  AfxControlBar42s
  450bd0 00 00 00 00 41 66 78 4d 44 49 46 72 61 6d 65 34  ....AfxMDIFrame4
  450be0 32 73 00 00 41 66 78 46 72 61 6d 65 4f 72 56 69  2s..AfxFrameOrVi
  450bf0 65 77 34 32 73 00 00 00 41 66 78 4f 6c 65 43 6f  ew42s...AfxOleCo
  450c00 6e 74 72 6f 6c 34 32 73 00 00 00 00 47 65 74 4d  ntrol42s....GetM
  450c10 6f 6e 69 74 6f 72 49 6e 66 6f 41 00 45 6e 75 6d  onitorInfoA.Enum
  450c20 44 69 73 70 6c 61 79 4d 6f 6e 69 74 6f 72 73 00  DisplayMonitors.
  450c30 4d 6f 6e 69 74 6f 72 46 72 6f 6d 50 6f 69 6e 74  MonitorFromPoint
  450c40 00 00 00 00 4d 6f 6e 69 74 6f 72 46 72 6f 6d 52  ....MonitorFromR
  450c50 65 63 74 00 4d 6f 6e 69 74 6f 72 46 72 6f 6d 57  ect.MonitorFromW
  450c60 69 6e 64 6f 77 00 00 00 47 65 74 53 79 73 74 65  indow...GetSyste
  450c70 6d 4d 65 74 72 69 63 73 00 00 00 00 55 53 45 52  mMetrics....USER
  450c80 33 32 00 00 44 49 53 50 4c 41 59 00 63 6f 6d 6d  32..DISPLAY.comm
  450c90 63 74 72 6c 5f 44 72 61 67 4c 69 73 74 4d 73 67  ctrl_DragListMsg
  450ca0 00 00 00 00 40 6d 45 00 f1 76 44 00 00 53 43 00  ....@mE..vD..SC.
  450cb0 8b 18 40 00 2f 89 43 00 66 5f 43 00 3e 8a 43 00  ..@./.C.f_C.>.C.
  450cc0 44 8a 43 00 49 8a 43 00 4c 8a 43 00 4f 8a 43 00  D.C.I.C.L.C.O.C.
  450cd0 65 66 43 00 f9 8a 43 00 9c 8a 43 00 e9 8a 43 00  efC...C...C...C.
  450ce0 a8 8a 43 00 a2 8a 43 00 e0 8a 43 00 e4 8a 43 00  ..C...C...C...C.
  450cf0 f4 8a 43 00 ef 8a 43 00 ab 57 43 00 6d 5d 43 00  ..C...C..WC.m]C.
  450d00 77 5f 43 00 4d 5d 43 00 24 75 43 00 85 60 43 00  w_C.M]C.$uC..`C.
  450d10 c6 70 43 00 83 65 43 00 ae 82 43 00 b5 82 43 00  .pC..eC...C...C.
  450d20 a9 6c 43 00 35 6d 43 00 0b 60 43 00 b8 19 40 00  .lC.5mC..`C...@.
  450d30 bb 19 40 00 c7 19 40 00 0f 60 43 00 2f 8d 43 00  ..@...@..`C./.C.
  450d40 c0 66 43 00 04 67 43 00 c4 5f 43 00 65 5f 43 00  .fC..gC.._C.e_C.
  450d50 24 77 43 00 f4 7e 43 00 4d 86 43 00 d9 82 43 00  $wC..~C.M.C...C.
  450d60 69 6d 65 00 41 66 78 3a 25 78 3a 25 78 3a 25 78  ime.Afx:%x:%x:%x
  450d70 3a 25 78 3a 25 78 00 00 41 66 78 3a 25 78 3a 25  :%x:%x..Afx:%x:%
  450d80 78 00 00 00 a8 6d 45 00 8f 6c 43 00 a0 6c 43 00  x....mE..lC..lC.
  450d90 a3 6c 43 00 a6 6c 43 00 49 6e 69 74 43 6f 6d 6d  .lC..lC.InitComm
  450da0 6f 6e 43 6f 6e 74 72 6f 6c 73 45 78 00 00 00 00  onControlsEx....
  450db0 43 4f 4d 43 54 4c 33 32 2e 44 4c 4c 00 00 00 00  COMCTL32.DLL....
  450dc0 00 6e 45 00 5c 77 44 00 37 77 44 00 8b 18 40 00  .nE.\wD.7wD...@.
  450dd0 2f 89 43 00 66 5f 43 00 3e 8a 43 00 44 8a 43 00  /.C.f_C.>.C.D.C.
  450de0 49 8a 43 00 4c 8a 43 00 4f 8a 43 00 65 66 43 00  I.C.L.C.O.C.efC.
  450df0 f9 8a 43 00 9c 8a 43 00 e9 8a 43 00 a8 8a 43 00  ..C...C...C...C.
  450e00 a2 8a 43 00 e0 8a 43 00 e4 8a 43 00 f4 8a 43 00  ..C...C...C...C.
  450e10 ef 8a 43 00 ab 57 43 00 6d 5d 43 00 77 5f 43 00  ..C..WC.m]C.w_C.
  450e20 4d 5d 43 00 24 75 43 00 85 60 43 00 c6 70 43 00  M]C.$uC..`C..pC.
  450e30 83 65 43 00 ae 82 43 00 b5 82 43 00 a9 6c 43 00  .eC...C...C..lC.
  450e40 35 6d 43 00 0b 60 43 00 b8 19 40 00 bb 19 40 00  5mC..`C...@...@.
  450e50 c7 19 40 00 0f 60 43 00 2f 8d 43 00 c0 66 43 00  ..@..`C./.C..fC.
  450e60 04 67 43 00 c4 5f 43 00 65 5f 43 00 24 77 43 00  .gC.._C.e_C.$wC.
  450e70 f4 7e 43 00 4d 86 43 00 d9 82 43 00 68 6e 45 00  .~C.M.C...C.hnE.
  450e80 1c 78 44 00 00 00 00 00 a0 0e 45 00 1c 00 00 00  .xD.......E.....
  450e90 ff ff 00 00 00 00 00 00 40 3b 45 00 00 00 00 00  ........@;E.....
  450ea0 43 43 6d 64 54 61 72 67 65 74 00 00 06 0f 0f 0f  CCmdTarget......
  450eb0 06 00 00 00 00 00 00 00 00 00 00 00 c0 0e 45 00  ..............E.
  450ec0 00 00 00 00 00 00 00 00 00 00 00 00 00 00 00 00  ................
  450ed0 00 00 00 00 00 00 00 00 00 00 00 00 e8 0e 45 00  ..............E.
  450ee0 98 3f 46 00 9c 3f 46 00 00 00 00 00 ff ff ff ff  .?F..?F.........
  450ef0 00 00 00 00 00 00 00 00 00 00 00 00 00 00 00 00  ................
  450f00 ff ff ff ff 00 00 00 00 00 00 00 00 18 0f 45 00  ..............E.
  450f10 a0 3f 46 00 00 00 00 00 00 00 00 00 ff ff ff ff  .?F.............
  450f20 00 00 00 00 00 00 00 00 00 00 00 00 00 00 00 00  ................
  450f30 ff ff ff ff 00 00 00 00 ff ff ff ff ff ff ff ff  ................
  450f40 00 00 00 00 48 0f 45 00 94 62 45 00 10 00 00 00  ....H.E..bE.....
  450f50 00 00 00 00 ff ff ff ff 00 00 00 00 60 0f 45 00  ............`.E.
  450f60 00 00 00 00 ff ff ff ff 00 00 00 00 70 0f 45 00  ............p.E.
  450f70 00 00 00 00 00 00 00 00 00 00 00 00 98 6e 45 00  .............nE.
  450f80 2f 8b 43 00 bf 8b 43 00 21 8c 43 00 77 8c 43 00  /.C...C.!.C.w.C.
  450f90 a8 0f 45 00 3c 00 00 00 ff ff 00 00 00 00 00 00  ..E.<...........
  450fa0 d8 08 45 00 00 00 00 00 43 53 63 72 6f 6c 6c 42  ..E.....CScrollB
  450fb0 61 72 00 00 00 00 00 00 d0 0f 45 00 3c 00 00 00  ar........E.<...
  450fc0 ff ff 00 00 00 00 00 00 d8 08 45 00 00 00 00 00  ..........E.....
  450fd0 43 45 64 69 74 00 00 00 f0 0f 45 00 3c 00 00 00  CEdit.....E.<...
  450fe0 ff ff 00 00 00 00 00 00 d8 08 45 00 00 00 00 00  ..........E.....
  450ff0 43 43 6f 6d 62 6f 42 6f 78 00 00 00 00 00 00 00  CComboBox.......
  451000 18 10 45 00 3c 00 00 00 ff ff 00 00 00 00 00 00  ..E.<...........
  451010 d8 08 45 00 00 00 00 00 43 4c 69 73 74 42 6f 78  ..E.....CListBox
  451020 00 00 00 00 00 00 00 00 40 10 45 00 3c 00 00 00  ........@.E.<...
  451030 ff ff 00 00 00 00 00 00 d8 08 45 00 00 00 00 00  ..........E.....
  451040 43 42 75 74 74 6f 6e 00 60 10 45 00 3c 00 00 00  CButton.`.E.<...
  451050 ff ff 00 00 00 00 00 00 d8 08 45 00 00 00 00 00  ..........E.....
  451060 43 53 74 61 74 69 63 00 53 54 41 54 49 43 00 00  CStatic.STATIC..
  451070 f0 6e 45 00 1d 79 44 00 9d 27 40 00 8b 18 40 00  .nE..yD..'@...@.
  451080 2f 89 43 00 66 5f 43 00 3e 8a 43 00 44 8a 43 00  /.C.f_C.>.C.D.C.
  451090 49 8a 43 00 4c 8a 43 00 4f 8a 43 00 65 66 43 00  I.C.L.C.O.C.efC.
  4510a0 f9 8a 43 00 9c 8a 43 00 e9 8a 43 00 a8 8a 43 00  ..C...C...C...C.
  4510b0 a2 8a 43 00 e0 8a 43 00 e4 8a 43 00 f4 8a 43 00  ..C...C...C...C.
  4510c0 ef 8a 43 00 ab 57 43 00 6d 5d 43 00 77 5f 43 00  ..C..WC.m]C.w_C.
  4510d0 4d 5d 43 00 24 75 43 00 85 60 43 00 c6 70 43 00  M]C.$uC..`C..pC.
  4510e0 83 65 43 00 ae 82 43 00 b5 82 43 00 a9 6c 43 00  .eC...C...C..lC.
  4510f0 35 6d 43 00 0b 60 43 00 b8 19 40 00 bb 19 40 00  5mC..`C...@...@.
  451100 c7 19 40 00 0f 60 43 00 2f 8d 43 00 c0 66 43 00  ..@..`C./.C..fC.
  451110 04 67 43 00 c4 5f 43 00 65 5f 43 00 24 77 43 00  .gC.._C.e_C.$wC.
  451120 f4 7e 43 00 4d 86 43 00 d9 82 43 00 42 55 54 54  .~C.M.C...C.BUTT
  451130 4f 4e 00 00 48 6f 45 00 23 79 44 00 3f e2 40 00  ON..HoE.#yD.?.@.
  451140 8b 18 40 00 2f 89 43 00 66 5f 43 00 3e 8a 43 00  ..@./.C.f_C.>.C.
  451150 44 8a 43 00 49 8a 43 00 4c 8a 43 00 4f 8a 43 00  D.C.I.C.L.C.O.C.
  451160 65 66 43 00 f9 8a 43 00 9c 8a 43 00 e9 8a 43 00  efC...C...C...C.
  451170 a8 8a 43 00 a2 8a 43 00 e0 8a 43 00 e4 8a 43 00  ..C...C...C...C.
  451180 f4 8a 43 00 ef 8a 43 00 ab 57 43 00 6d 5d 43 00  ..C...C..WC.m]C.
  451190 77 5f 43 00 4d 5d 43 00 24 75 43 00 85 60 43 00  w_C.M]C.$uC..`C.
  4511a0 c6 70 43 00 83 65 43 00 ae 82 43 00 b5 82 43 00  .pC..eC...C...C.
  4511b0 a9 6c 43 00 35 6d 43 00 0b 60 43 00 b8 19 40 00  .lC.5mC..`C...@.
  4511c0 bb 19 40 00 c7 19 40 00 0f 60 43 00 2f 8d 43 00  ..@...@..`C./.C.
  4511d0 c0 66 43 00 04 67 43 00 c4 5f 43 00 65 5f 43 00  .fC..gC.._C.e_C.
  4511e0 56 48 44 00 f4 7e 43 00 4d 86 43 00 d9 82 43 00  VHD..~C.M.C...C.
  4511f0 53 48 44 00 4c 49 53 54 42 4f 58 00 a0 6f 45 00  SHD.LISTBOX..oE.
  451200 29 79 44 00 5b e2 40 00 8b 18 40 00 2f 89 43 00  )yD.[.@...@./.C.
  451210 66 5f 43 00 3e 8a 43 00 44 8a 43 00 49 8a 43 00  f_C.>.C.D.C.I.C.
  451220 4c 8a 43 00 4f 8a 43 00 65 66 43 00 f9 8a 43 00  L.C.O.C.efC...C.
  451230 9c 8a 43 00 e9 8a 43 00 a8 8a 43 00 a2 8a 43 00  ..C...C...C...C.
  451240 e0 8a 43 00 e4 8a 43 00 f4 8a 43 00 ef 8a 43 00  ..C...C...C...C.
  451250 ab 57 43 00 6d 5d 43 00 77 5f 43 00 4d 5d 43 00  .WC.m]C.w_C.M]C.
  451260 24 75 43 00 85 60 43 00 c6 70 43 00 83 65 43 00  $uC..`C..pC..eC.
  451270 ae 82 43 00 b5 82 43 00 a9 6c 43 00 35 6d 43 00  ..C...C..lC.5mC.
  451280 0b 60 43 00 b8 19 40 00 bb 19 40 00 c7 19 40 00  .`C...@...@...@.
  451290 0f 60 43 00 2f 8d 43 00 c0 66 43 00 04 67 43 00  .`C./.C..fC..gC.
  4512a0 c4 5f 43 00 65 5f 43 00 fb 48 44 00 f4 7e 43 00  ._C.e_C..HD..~C.
  4512b0 4d 86 43 00 d9 82 43 00 dd 48 44 00 e0 48 44 00  M.C...C..HD..HD.
  4512c0 e3 48 44 00 e8 48 44 00 eb 48 44 00 f3 48 44 00  .HD..HD..HD..HD.
  4512d0 43 4f 4d 42 4f 42 4f 58 00 00 00 00 f8 6f 45 00  COMBOBOX.....oE.
  4512e0 2f 79 44 00 77 e2 40 00 8b 18 40 00 2f 89 43 00  /yD.w.@...@./.C.
  4512f0 66 5f 43 00 3e 8a 43 00 44 8a 43 00 49 8a 43 00  f_C.>.C.D.C.I.C.
  451300 4c 8a 43 00 4f 8a 43 00 65 66 43 00 f9 8a 43 00  L.C.O.C.efC...C.
  451310 9c 8a 43 00 e9 8a 43 00 a8 8a 43 00 a2 8a 43 00  ..C...C...C...C.
  451320 e0 8a 43 00 e4 8a 43 00 f4 8a 43 00 ef 8a 43 00  ..C...C...C...C.
  451330 ab 57 43 00 6d 5d 43 00 77 5f 43 00 4d 5d 43 00  .WC.m]C.w_C.M]C.
  451340 24 75 43 00 85 60 43 00 c6 70 43 00 83 65 43 00  $uC..`C..pC..eC.
  451350 ae 82 43 00 b5 82 43 00 a9 6c 43 00 35 6d 43 00  ..C...C..lC.5mC.
  451360 0b 60 43 00 b8 19 40 00 bb 19 40 00 c7 19 40 00  .`C...@...@...@.
  451370 0f 60 43 00 2f 8d 43 00 c0 66 43 00 04 67 43 00  .`C./.C..fC..gC.
  451380 c4 5f 43 00 65 5f 43 00 76 4a 44 00 f4 7e 43 00  ._C.e_C.vJD..~C.
  451390 4d 86 43 00 d9 82 43 00 68 4a 44 00 6b 4a 44 00  M.C...C.hJD.kJD.
  4513a0 6e 4a 44 00 73 4a 44 00 45 44 49 54 00 00 00 00  nJD.sJD.EDIT....
  4513b0 50 70 45 00 35 79 44 00 d3 19 40 00 8b 18 40 00  PpE.5yD...@...@.
  4513c0 2f 89 43 00 66 5f 43 00 3e 8a 43 00 44 8a 43 00  /.C.f_C.>.C.D.C.
  4513d0 49 8a 43 00 4c 8a 43 00 4f 8a 43 00 65 66 43 00  I.C.L.C.O.C.efC.
  4513e0 f9 8a 43 00 9c 8a 43 00 e9 8a 43 00 a8 8a 43 00  ..C...C...C...C.
  4513f0 a2 8a 43 00 e0 8a 43 00 e4 8a 43 00 f4 8a 43 00  ..C...C...C...C.
  451400 ef 8a 43 00 ab 57 43 00 6d 5d 43 00 77 5f 43 00  ..C..WC.m]C.w_C.
  451410 4d 5d 43 00 24 75 43 00 85 60 43 00 c6 70 43 00  M]C.$uC..`C..pC.
  451420 83 65 43 00 ae 82 43 00 b5 82 43 00 a9 6c 43 00  .eC...C...C..lC.
  451430 35 6d 43 00 0b 60 43 00 b8 19 40 00 bb 19 40 00  5mC..`C...@...@.
  451440 c7 19 40 00 0f 60 43 00 2f 8d 43 00 c0 66 43 00  ..@..`C./.C..fC.
  451450 04 67 43 00 c4 5f 43 00 65 5f 43 00 24 77 43 00  .gC.._C.e_C.$wC.
  451460 f4 7e 43 00 4d 86 43 00 d9 82 43 00 53 43 52 4f  .~C.M.C...C.SCRO
  451470 4c 4c 42 41 52 00 00 00 a8 70 45 00 3b 79 44 00  LLBAR....pE.;yD.
  451480 93 e2 40 00 8b 18 40 00 2f 89 43 00 66 5f 43 00  ..@...@./.C.f_C.
  451490 3e 8a 43 00 44 8a 43 00 49 8a 43 00 4c 8a 43 00  >.C.D.C.I.C.L.C.
  4514a0 4f 8a 43 00 65 66 43 00 f9 8a 43 00 9c 8a 43 00  O.C.efC...C...C.
  4514b0 e9 8a 43 00 a8 8a 43 00 a2 8a 43 00 e0 8a 43 00  ..C...C...C...C.
  4514c0 e4 8a 43 00 f4 8a 43 00 ef 8a 43 00 ab 57 43 00  ..C...C...C..WC.
  4514d0 6d 5d 43 00 77 5f 43 00 4d 5d 43 00 24 75 43 00  m]C.w_C.M]C.$uC.
  4514e0 85 60 43 00 c6 70 43 00 83 65 43 00 ae 82 43 00  .`C..pC..eC...C.
  4514f0 b5 82 43 00 a9 6c 43 00 35 6d 43 00 0b 60 43 00  ..C..lC.5mC..`C.
  451500 b8 19 40 00 bb 19 40 00 c7 19 40 00 0f 60 43 00  ..@...@...@..`C.
  451510 2f 8d 43 00 c0 66 43 00 04 67 43 00 c4 5f 43 00  /.C..fC..gC.._C.
  451520 65 5f 43 00 24 77 43 00 f4 7e 43 00 4d 86 43 00  e_C.$wC..~C.M.C.
  451530 d9 82 43 00 00 00 00 00 50 15 45 00 08 00 00 00  ..C.....P.E.....
  451540 ff ff 00 00 75 7a 44 00 48 16 45 00 00 00 00 00  ....uzD.H.E.....
  451550 43 54 65 6d 70 47 64 69 4f 62 6a 65 63 74 00 00  CTempGdiObject..
  451560 78 15 45 00 10 00 00 00 ff ff 00 00 24 7a 44 00  x.E.........$zD.
  451570 e8 16 45 00 00 00 00 00 43 54 65 6d 70 44 43 00  ..E.....CTempDC.
  451580 98 15 45 00 08 00 00 00 ff ff 00 00 00 00 00 00  ..E.............
  451590 48 16 45 00 00 00 00 00 43 52 67 6e 00 00 00 00  H.E.....CRgn....
  4515a0 b8 15 45 00 08 00 00 00 ff ff 00 00 00 00 00 00  ..E.............
  4515b0 48 16 45 00 00 00 00 00 43 50 61 6c 65 74 74 65  H.E.....CPalette
  4515c0 00 00 00 00 00 00 00 00 e0 15 45 00 08 00 00 00  ..........E.....
  4515d0 ff ff 00 00 00 00 00 00 48 16 45 00 00 00 00 00  ........H.E.....
  4515e0 43 42 69 74 6d 61 70 00 00 16 45 00 08 00 00 00  CBitmap...E.....
  4515f0 ff ff 00 00 00 00 00 00 48 16 45 00 00 00 00 00  ........H.E.....
  451600 43 46 6f 6e 74 00 00 00 20 16 45 00 08 00 00 00  CFont... .E.....
  451610 ff ff 00 00 00 00 00 00 48 16 45 00 00 00 00 00  ........H.E.....
  451620 43 42 72 75 73 68 00 00 40 16 45 00 08 00 00 00  CBrush..@.E.....
  451630 ff ff 00 00 00 00 00 00 48 16 45 00 00 00 00 00  ........H.E.....
  451640 43 50 65 6e 00 00 00 00 60 16 45 00 08 00 00 00  CPen....`.E.....
  451650 ff ff 00 00 e0 79 44 00 40 3b 45 00 00 00 00 00  .....yD.@;E.....
  451660 43 47 64 69 4f 62 6a 65 63 74 00 00 00 00 00 00  CGdiObject......
  451670 88 16 45 00 54 00 00 00 ff ff 00 00 00 00 00 00  ..E.T...........
  451680 e8 16 45 00 00 00 00 00 43 50 61 69 6e 74 44 43  ..E.....CPaintDC
  451690 00 00 00 00 00 00 00 00 b0 16 45 00 14 00 00 00  ..........E.....
  4516a0 ff ff 00 00 00 00 00 00 e8 16 45 00 00 00 00 00  ..........E.....
  4516b0 43 57 69 6e 64 6f 77 44 43 00 00 00 00 00 00 00  CWindowDC.......
  4516c0 d8 16 45 00 14 00 00 00 ff ff 00 00 00 00 00 00  ..E.............
  4516d0 e8 16 45 00 00 00 00 00 43 43 6c 69 65 6e 74 44  ..E.....CClientD
  4516e0 43 00 00 00 00 00 00 00 00 17 45 00 10 00 00 00  C.........E.....
  4516f0 ff ff 00 00 b1 79 44 00 40 3b 45 00 00 00 00 00  .....yD.@;E.....
  451700 43 44 43 00 00 00 00 00 20 17 45 00 98 00 00 00  CDC..... .E.....
  451710 ff ff 00 00 00 00 00 00 40 3c 45 00 00 00 00 00  ........@<E.....
  451720 43 55 73 65 72 45 78 63 65 70 74 69 6f 6e 00 00  CUserException..
  451730 48 17 45 00 98 00 00 00 ff ff 00 00 00 00 00 00  H.E.............
  451740 40 3c 45 00 00 00 00 00 43 52 65 73 6f 75 72 63  @<E.....CResourc
  451750 65 45 78 63 65 70 74 69 6f 6e 00 00 f8 70 45 00  eException...pE.
  451760 c8 79 44 00 0b d3 43 00 8b 18 40 00 62 d4 43 00  .yD...C...@.b.C.
  451770 6c d4 43 00 76 d4 43 00 7b d4 43 00 b8 d4 43 00  l.C.v.C.{.C...C.
  451780 e9 d4 43 00 3e d5 43 00 06 d6 43 00 b3 d6 43 00  ..C.>.C...C...C.
  451790 9a d7 43 00 c9 d7 43 00 f7 d7 43 00 43 d8 43 00  ..C...C...C.C.C.
  4517a0 8f d8 43 00 db d8 43 00 cb d9 43 00 17 da 43 00  ..C...C...C...C.
  4517b0 6f da 43 00 65 e3 40 00 79 e3 40 00 89 e3 40 00  o.C.e.@.y.@...@.
  4517c0 a5 e3 40 00 ca e3 40 00 02 e4 40 00 1e e4 40 00  ..@...@...@...@.
  4517d0 4e e4 40 00 47 65 74 4c 61 79 6f 75 74 00 00 00  N.@.GetLayout...
  4517e0 47 44 49 33 32 2e 44 4c 4c 00 00 00 53 65 74 4c  GDI32.DLL...SetL
  4517f0 61 79 6f 75 74 00 00 00 48 71 45 00 ce 79 44 00  ayout...HqE..yD.
  451800 43 e4 43 00 8b 18 40 00 62 d4 43 00 6c d4 43 00  C.C...@.b.C.l.C.
  451810 76 d4 43 00 7b d4 43 00 b8 d4 43 00 e9 d4 43 00  v.C.{.C...C...C.
  451820 3e d5 43 00 06 d6 43 00 b3 d6 43 00 9a d7 43 00  >.C...C...C...C.
  451830 c9 d7 43 00 f7 d7 43 00 43 d8 43 00 8f d8 43 00  ..C...C.C.C...C.
  451840 db d8 43 00 cb d9 43 00 17 da 43 00 6f da 43 00  ..C...C...C.o.C.
  451850 65 e3 40 00 79 e3 40 00 89 e3 40 00 a5 e3 40 00  e.@.y.@...@...@.
  451860 ca e3 40 00 02 e4 40 00 1e e4 40 00 4e e4 40 00  ..@...@...@.N.@.
  451870 98 71 45 00 d4 79 44 00 f7 e4 43 00 8b 18 40 00  .qE..yD...C...@.
  451880 62 d4 43 00 6c d4 43 00 76 d4 43 00 7b d4 43 00  b.C.l.C.v.C.{.C.
  451890 b8 d4 43 00 e9 d4 43 00 3e d5 43 00 06 d6 43 00  ..C...C.>.C...C.
  4518a0 b3 d6 43 00 9a d7 43 00 c9 d7 43 00 f7 d7 43 00  ..C...C...C...C.
  4518b0 43 d8 43 00 8f d8 43 00 db d8 43 00 cb d9 43 00  C.C...C...C...C.
  4518c0 17 da 43 00 6f da 43 00 65 e3 40 00 79 e3 40 00  ..C.o.C.e.@.y.@.
  4518d0 89 e3 40 00 a5 e3 40 00 ca e3 40 00 02 e4 40 00  ..@...@...@...@.
  4518e0 1e e4 40 00 4e e4 40 00 e8 71 45 00 da 79 44 00  ..@.N.@..qE..yD.
  4518f0 ab e5 43 00 8b 18 40 00 62 d4 43 00 6c d4 43 00  ..C...@.b.C.l.C.
  451900 76 d4 43 00 7b d4 43 00 b8 d4 43 00 e9 d4 43 00  v.C.{.C...C...C.
  451910 3e d5 43 00 06 d6 43 00 b3 d6 43 00 9a d7 43 00  >.C...C...C...C.
  451920 c9 d7 43 00 f7 d7 43 00 43 d8 43 00 8f d8 43 00  ..C...C.C.C...C.
  451930 db d8 43 00 cb d9 43 00 17 da 43 00 6f da 43 00  ..C...C...C.o.C.
  451940 65 e3 40 00 79 e3 40 00 89 e3 40 00 a5 e3 40 00  e.@.y.@...@...@.
  451950 ca e3 40 00 02 e4 40 00 1e e4 40 00 4e e4 40 00  ..@...@...@.N.@.
  451960 50 72 45 00 00 7a 44 00 05 19 40 00 8b 18 40 00  PrE..zD...@...@.
  451970 a0 72 45 00 06 7a 44 00 49 e3 40 00 8b 18 40 00  .rE..zD.I.@...@.
  451980 d8 72 45 00 fa 79 44 00 c0 18 40 00 8b 18 40 00  .rE..yD...@...@.
  451990 28 73 45 00 6f 7a 44 00 4a 7a 44 00 8b 18 40 00  (sE.ozD.JzD...@.
  4519a0 62 d4 43 00 6c d4 43 00 76 d4 43 00 7b d4 43 00  b.C.l.C.v.C.{.C.
  4519b0 b8 d4 43 00 e9 d4 43 00 3e d5 43 00 06 d6 43 00  ..C...C.>.C...C.
  4519c0 b3 d6 43 00 9a d7 43 00 c9 d7 43 00 f7 d7 43 00  ..C...C...C...C.
  4519d0 43 d8 43 00 8f d8 43 00 db d8 43 00 cb d9 43 00  C.C...C...C...C.
  4519e0 17 da 43 00 6f da 43 00 65 e3 40 00 79 e3 40 00  ..C.o.C.e.@.y.@.
  4519f0 89 e3 40 00 a5 e3 40 00 ca e3 40 00 02 e4 40 00  ..@...@...@...@.
  451a00 1e e4 40 00 4e e4 40 00 78 73 45 00 da 7a 44 00  ..@.N.@.xsE..zD.
  451a10 91 7a 44 00 8b 18 40 00 00 74 45 00 41 79 44 00  .zD...@..tE.AyD.
  451a20 d9 e2 40 00 8b 18 40 00 2b 20 43 00 49 b6 43 00  ..@...@.+ C.I.C.
  451a30 58 74 45 00 79 79 44 00 26 e3 40 00 8b 18 40 00  XtE.yyD.&.@...@.
  451a40 2b 20 43 00 49 b6 43 00 ff ff ff ff 25 75 00 00  + C.I.C.....%u..
  451a50 25 68 64 00 25 73 64 00 25 64 00 00 25 6c 64 00  %hd.%sd.%d..%ld.
  451a60 25 6c 75 00 53 6f 66 74 77 61 72 65 5c 00 00 00  %lu.Software\...
  451a70 73 79 73 74 65 6d 00 00 90 1a 45 00 5c 00 00 00  system....E.\...
  451a80 ff ff 00 00 00 00 00 00 28 10 45 00 00 00 00 00  ........(.E.....
  451a90 43 42 69 74 6d 61 70 42 75 74 74 6f 6e 00 00 00  CBitmapButton...
  451aa0 55 00 00 00 44 00 00 00 46 00 00 00 58 00 00 00  U...D...F...X...
  451ab0 a8 74 45 00 1e 7a 44 00 6a e4 40 00 8b 18 40 00  .tE..zD.j.@...@.
  451ac0 d8 1a 45 00 78 00 00 00 ff ff 00 00 00 00 00 00  ..E.x...........
  451ad0 d8 08 45 00 00 00 00 00 43 43 6f 6e 74 72 6f 6c  ..E.....CControl
  451ae0 42 61 72 00 00 00 00 00 00 1b 45 00 40 00 00 00  Bar.......E.@...
  451af0 ff ff 00 00 00 00 00 00 d8 08 45 00 00 00 00 00  ..........E.....
  451b00 43 56 69 65 77 00 00 00 20 1b 45 00 bc 00 00 00  CView... .E.....
  451b10 ff ff 00 00 0d 7f 44 00 d8 08 45 00 00 00 00 00  ......D...E.....
  451b20 43 46 72 61 6d 65 57 6e 64 00 00 00 00 00 00 00  CFrameWnd.......
  451b30 f8 08 45 00 38 1b 45 00 16 01 00 00 00 00 00 00  ..E.8.E.........
  451b40 00 00 00 00 00 00 00 00 15 00 00 00 5d 68 44 00  ............]hD.
  451b50 17 01 00 00 00 00 00 00 00 00 00 00 00 00 00 00  ................
  451b60 16 00 00 00 7b 68 44 00 1f 01 00 00 00 00 00 00  ....{hD.........
  451b70 00 00 00 00 00 00 00 00 30 00 00 00 fc 69 44 00  ........0....iD.
  451b80 75 03 00 00 00 00 00 00 00 00 00 00 00 00 00 00  u...............
  451b90 0a 00 00 00 51 6b 44 00 62 03 00 00 00 00 00 00  ....QkD.b.......
  451ba0 00 00 00 00 00 00 00 00 0a 00 00 00 74 6b 44 00  ............tkD.
  451bb0 76 03 00 00 00 00 00 00 00 00 00 00 00 00 00 00  v...............
  451bc0 0a 00 00 00 39 6c 44 00 63 03 00 00 00 00 00 00  ....9lD.c.......
  451bd0 00 00 00 00 00 00 00 00 0c 00 00 00 b2 72 44 00  .............rD.
  451be0 21 01 00 00 00 00 00 00 00 00 00 00 00 00 00 00  !...............
  451bf0 1b 00 00 00 4f 6c 44 00 14 01 00 00 00 00 00 00  ....OlD.........
  451c00 00 00 00 00 00 00 00 00 1d 00 00 00 0e 62 44 00  .............bD.
  451c10 15 01 00 00 00 00 00 00 00 00 00 00 00 00 00 00  ................
  451c20 1d 00 00 00 37 62 44 00 07 00 00 00 00 00 00 00  ....7bD.........
  451c30 00 00 00 00 00 00 00 00 17 00 00 00 37 67 44 00  ............7gD.
  451c40 01 00 00 00 00 00 00 00 00 00 00 00 00 00 00 00  ................
  451c50 09 00 00 00 54 5d 44 00 02 00 00 00 00 00 00 00  ....T]D.........
  451c60 00 00 00 00 00 00 00 00 0c 00 00 00 f2 60 44 00  .............`D.
  451c70 10 00 00 00 00 00 00 00 00 00 00 00 00 00 00 00  ................
  451c80 0c 00 00 00 fb 5f 44 00 05 00 00 00 00 00 00 00  ....._D.........
  451c90 00 00 00 00 00 00 00 00 11 00 00 00 8b 74 44 00  .............tD.
  451ca0 14 00 00 00 00 00 00 00 00 00 00 00 00 00 00 00  ................
  451cb0 01 00 00 00 aa 74 44 00 06 00 00 00 00 00 00 00  .....tD.........
  451cc0 00 00 00 00 00 00 00 00 1c 00 00 00 ee 62 44 00  .............bD.
  451cd0 86 00 00 00 00 00 00 00 00 00 00 00 00 00 00 00  ................
  451ce0 02 00 00 00 c2 63 44 00 12 01 00 00 00 00 00 00  .....cD.........
  451cf0 00 00 00 00 00 00 00 00 12 00 00 00 f9 63 44 00  .............cD.
  451d00 33 02 00 00 00 00 00 00 00 00 00 00 00 00 00 00  3...............
  451d10 0d 00 00 00 8e 64 44 00 11 00 00 00 00 00 00 00  .....dD.........
  451d20 00 00 00 00 00 00 00 00 23 00 00 00 00 65 44 00  ........#....eD.
  451d30 16 00 00 00 00 00 00 00 00 00 00 00 00 00 00 00  ................
  451d40 0d 00 00 00 25 65 44 00 20 00 00 00 00 00 00 00  ....%eD. .......
  451d50 00 00 00 00 00 00 00 00 03 00 00 00 2c 57 44 00  ............,WD.
  451d60 0a 00 00 00 00 00 00 00 00 00 00 00 00 00 00 00  ................
  451d70 0d 00 00 00 7e 5a 44 00 0f 03 00 00 00 00 00 00  ....~ZD.........
  451d80 00 00 00 00 00 00 00 00 23 00 00 00 a0 56 44 00  ........#....VD.
  451d90 11 03 00 00 00 00 00 00 00 00 00 00 00 00 00 00  ................
  451da0 17 00 00 00 84 56 44 00 65 03 00 00 00 00 00 00  .....VD.e.......
  451db0 00 00 00 00 00 00 00 00 0a 00 00 00 56 57 44 00  ............VWD.
  451dc0 66 03 00 00 00 00 00 00 00 00 00 00 00 00 00 00  f...............
  451dd0 0a 00 00 00 ae 57 44 00 6e 03 00 00 00 00 00 00  .....WD.n.......
  451de0 00 00 00 00 00 00 00 00 0a 00 00 00 60 62 44 00  ............`bD.
  451df0 11 01 00 00 ff ff ff ff 01 e8 00 00 01 e8 00 00  ................
  451e00 2c 00 00 00 6d 6d 44 00 11 01 00 00 00 00 00 00  ,...mmD.........
  451e10 01 e8 00 00 01 e8 00 00 02 00 00 00 a2 6d 44 00  .............mD.
  451e20 11 01 00 00 ff ff ff ff 00 e8 00 00 00 e8 00 00  ................
  451e30 2c 00 00 00 6d 6d 44 00 11 01 00 00 00 00 00 00  ,...mmD.........
  451e40 00 e8 00 00 00 e8 00 00 02 00 00 00 a2 6d 44 00  .............mD.
  451e50 11 01 00 00 ff ff ff ff 04 e8 00 00 04 e8 00 00  ................
  451e60 2c 00 00 00 6d 6d 44 00 11 01 00 00 00 00 00 00  ,...mmD.........
  451e70 04 e8 00 00 04 e8 00 00 02 00 00 00 a2 6d 44 00  .............mD.
  451e80 11 01 00 00 ff ff ff ff 01 e7 00 00 01 e7 00 00  ................
  451e90 2c 00 00 00 b2 6e 44 00 11 01 00 00 ff ff ff ff  ,....nD.........
  451ea0 02 e7 00 00 02 e7 00 00 2c 00 00 00 b2 6e 44 00  ........,....nD.
  451eb0 11 01 00 00 ff ff ff ff 03 e7 00 00 03 e7 00 00  ................
  451ec0 2c 00 00 00 b2 6e 44 00 11 01 00 00 ff ff ff ff  ,....nD.........
  451ed0 06 e7 00 00 06 e7 00 00 2c 00 00 00 b2 6e 44 00  ........,....nD.
  451ee0 11 01 00 00 ff ff ff ff 45 e1 00 00 45 e1 00 00  ........E...E...
  451ef0 2c 00 00 00 13 6f 44 00 4e 00 00 00 ee fd 00 00  ,....oD.N.......
  451f00 00 00 00 00 ff ff 00 00 29 00 00 00 db 6d 44 00  ........)....mD.
  451f10 4e 00 00 00 f8 fd 00 00 00 00 00 00 ff ff 00 00  N...............
  451f20 29 00 00 00 db 6d 44 00 e0 03 00 00 00 00 00 00  )....mD.........
  451f30 00 00 00 00 00 00 00 00 0a 00 00 00 5d 65 44 00  ............]eD.
  451f40 e8 03 00 00 00 00 00 00 00 00 00 00 00 00 00 00  ................
  451f50 0a 00 00 00 20 66 44 00 e1 03 00 00 00 00 00 00  .... fD.........
  451f60 00 00 00 00 00 00 00 00 0a 00 00 00 bb 66 44 00  .............fD.
  451f70 00 c0 00 00 00 00 00 00 00 00 00 00 00 00 00 00  ................
  451f80 a0 a8 46 00 c0 74 44 00 00 00 00 00 00 00 00 00  ..F..tD.........
  451f90 00 00 00 00 00 00 00 00 00 00 00 00 00 00 00 00  ................
  451fa0 4d 53 57 48 45 45 4c 5f 52 4f 4c 4c 4d 53 47 00  MSWHEEL_ROLLMSG.
  451fb0 00 75 45 00 42 7f 44 00 d3 54 44 00 8b 18 40 00  .uE.B.D..TD...@.
  451fc0 66 61 44 00 66 5f 43 00 3e 8a 43 00 44 8a 43 00  faD.f_C.>.C.D.C.
  451fd0 49 8a 43 00 4c 8a 43 00 4f 8a 43 00 0b 54 44 00  I.C.L.C.O.C..TD.
  451fe0 f9 8a 43 00 9c 8a 43 00 e9 8a 43 00 a8 8a 43 00  ..C...C...C...C.
  451ff0 a2 8a 43 00 e0 8a 43 00 e4 8a 43 00 f4 8a 43 00  ..C...C...C...C.
  452000 ef 8a 43 00 ab 57 43 00 6d 5d 43 00 77 5f 43 00  ..C..WC.m]C.w_C.
  452010 de 5b 44 00 24 75 43 00 85 60 43 00 c6 70 43 00  .[D.$uC..`C..pC.
  452020 83 65 43 00 ae 82 43 00 b5 82 43 00 c4 57 44 00  .eC...C...C..WD.
  452030 35 6d 43 00 0b 60 43 00 b8 19 40 00 5b 58 44 00  5mC..`C...@.[XD.
  452040 77 59 44 00 01 56 44 00 2f 8d 43 00 c0 66 43 00  wYD..VD./.C..fC.
  452050 04 67 43 00 c4 5f 43 00 78 56 44 00 24 77 43 00  .gC.._C.xVD.$wC.
  452060 f4 7e 43 00 50 86 43 00 d9 82 43 00 35 5e 44 00  .~C.P.C...C.5^D.
  452070 52 67 44 00 21 73 44 00 0d 6b 44 00 24 73 44 00  RgD.!sD..kD.$sD.
  452080 63 75 44 00 83 70 44 00 3f 6c 44 00 11 74 44 00  cuD..pD.?lD..tD.
  452090 32 5d 44 00 42 6f 44 00 ff 5e 44 00 dd 55 44 00  2]D.BoD..^D..UD.
  4520a0 9e 72 44 00 c1 56 44 00 20 2d 20 00 3a 25 64 00  .rD..VD. - .:%d.
  4520b0 c8 20 45 00 c0 00 00 00 ff ff 00 00 00 00 00 00  . E.............
  4520c0 68 22 45 00 00 00 00 00 43 57 69 6e 41 70 70 00  h"E.....CWinApp.
  4520d0 b8 0e 45 00 d8 20 45 00 11 01 00 00 00 00 00 00  ..E.. E.........
  4520e0 41 e1 00 00 41 e1 00 00 0c 00 00 00 fb e8 43 00  A...A.........C.
  4520f0 11 01 00 00 ff ff ff ff 10 e1 00 00 10 e1 00 00  ................
  452100 2c 00 00 00 a9 35 44 00 11 01 00 00 00 00 00 00  ,....5D.........
  452110 10 e1 00 00 1f e1 00 00 02 00 00 00 e5 35 44 00  .............5D.
  452120 00 00 00 00 00 00 00 00 00 00 00 00 00 00 00 00  ................
  452130 00 00 00 00 00 00 00 00 50 72 65 76 69 65 77 50  ........PreviewP
  452140 61 67 65 73 00 00 00 00 53 65 74 74 69 6e 67 73  ages....Settings
  452150 00 00 00 00 46 69 6c 65 25 64 00 00 52 65 63 65  ....File%d..Rece
  452160 6e 74 20 46 69 6c 65 20 4c 69 73 74 00 00 00 00  nt File List....
  452170 50 75 45 00 8e 7f 44 00 c0 75 45 00 76 85 44 00  PuE...D..uE.v.D.
  452180 93 80 44 00 8b 18 40 00 2f 89 43 00 ae 8a 43 00  ..D...@./.C...C.
  452190 3e 8a 43 00 44 8a 43 00 49 8a 43 00 4c 8a 43 00  >.C.D.C.I.C.L.C.
  4521a0 4f 8a 43 00 f6 9c 43 00 f9 8a 43 00 9c 8a 43 00  O.C...C...C...C.
  4521b0 e9 8a 43 00 a8 8a 43 00 a2 8a 43 00 e0 8a 43 00  ..C...C...C...C.
  4521c0 e4 8a 43 00 f4 8a 43 00 ef 8a 43 00 ef 80 44 00  ..C...C...C...D.
  4521d0 fc 9c 43 00 9f a5 43 00 54 a8 43 00 cc 9d 43 00  ..C...C.T.C...C.
  4521e0 b0 a3 43 00 40 85 44 00 55 9d 43 00 ef a6 43 00  ..C.@.D.U.C...C.
  4521f0 39 a8 43 00 1c a3 43 00 81 35 44 00 6b 35 44 00  9.C...C..5D.k5D.
  452200 af 80 44 00 58 35 44 00 46 36 44 00 f9 34 44 00  ..D.X5D.F6D..4D.
  452210 cb 35 44 00 1e 9d 43 00 10 76 45 00 04 b5 43 00  .5D...C..vE...C.
  452220 01 82 44 00 8b 18 40 00 74 82 44 00 41 75 74 6f  ..D...@.t.D.Auto
  452230 6d 61 74 69 6f 6e 00 00 45 6d 62 65 64 64 69 6e  mation..Embeddin
  452240 67 00 00 00 64 64 65 00 55 6e 72 65 67 73 65 72  g...dde.Unregser
  452250 76 65 72 00 55 6e 72 65 67 69 73 74 65 72 00 00  ver.Unregister..
  452260 70 00 00 00 70 74 00 00 80 22 45 00 68 00 00 00  p...pt..."E.h...
  452270 ff ff 00 00 00 00 00 00 88 0e 45 00 00 00 00 00  ..........E.....
  452280 43 57 69 6e 54 68 72 65 61 64 00 00 48 76 45 00  CWinThread..HvE.
  452290 71 86 44 00 e6 85 44 00 8b 18 40 00 2f 89 43 00  q.D...D...@./.C.
  4522a0 ae 8a 43 00 3e 8a 43 00 44 8a 43 00 49 8a 43 00  ..C.>.C.D.C.I.C.
  4522b0 4c 8a 43 00 4f 8a 43 00 96 8a 43 00 f9 8a 43 00  L.C.O.C...C...C.
  4522c0 9c 8a 43 00 e9 8a 43 00 a8 8a 43 00 a2 8a 43 00  ..C...C...C...C.
  4522d0 e0 8a 43 00 e4 8a 43 00 f4 8a 43 00 ef 8a 43 00  ..C...C...C...C.
  4522e0 2e a3 43 00 31 a3 43 00 9f a5 43 00 54 a8 43 00  ..C.1.C...C.T.C.
  4522f0 0d a4 43 00 b0 a3 43 00 09 a4 43 00 fc a5 43 00  ..C...C...C...C.
  452300 ef a6 43 00 39 a8 43 00 1c a3 43 00 98 76 45 00  ..C.9.C...C..vE.
  452310 8c 86 44 00 00 00 00 00 30 23 45 00 68 00 00 00  ..D.....0#E.h...
  452320 ff ff 00 00 00 00 00 00 20 40 45 00 00 00 00 00  ........ @E.....
  452330 43 53 69 6e 67 6c 65 44 6f 63 54 65 6d 70 6c 61  CSingleDocTempla
  452340 74 65 00 00 08 77 45 00 a7 86 44 00 36 e9 43 00  te...wE...D.6.C.
  452350 8b 18 40 00 5a 1f 44 00 ae 8a 43 00 3e 8a 43 00  ..@.Z.D...C.>.C.
  452360 44 8a 43 00 49 8a 43 00 4c 8a 43 00 4f 8a 43 00  D.C.I.C.L.C.O.C.
  452370 96 8a 43 00 f9 8a 43 00 9c 8a 43 00 e9 8a 43 00  ..C...C...C...C.
  452380 a8 8a 43 00 a2 8a 43 00 e0 8a 43 00 e4 8a 43 00  ..C...C...C...C.
  452390 f4 8a 43 00 ef 8a 43 00 7d 1b 44 00 5d e9 43 00  ..C...C.}.D.].C.
  4523a0 65 e9 43 00 79 e9 43 00 8f e9 43 00 c5 1c 44 00  e.C.y.C...C...D.
  4523b0 f0 1c 44 00 a5 1d 44 00 cc 1d 44 00 a9 1e 44 00  ..D...D...D...D.
  4523c0 bd 1e 44 00 f9 1e 44 00 a3 e9 43 00 50 eb 43 00  ..D...D...C.P.C.
  4523d0 29 1f 44 00 73 6f 66 74 77 61 72 65 00 00 00 00  ).D.software....
  4523e0 58 77 45 00 5c 8b 44 00 a8 77 45 00 84 8c 44 00  XwE.\.D..wE...D.
  4523f0 f8 77 45 00 7c 8d 44 00 48 78 45 00 15 8f 44 00  .wE.|.D.HxE...D.
  452400 18 24 45 00 50 00 00 00 ff ff 00 00 00 00 00 00  .$E.P...........
  452410 88 0e 45 00 00 00 00 00 43 44 6f 63 75 6d 65 6e  ..E.....CDocumen
  452420 74 00 00 00 00 00 00 00 b8 0e 45 00 30 24 45 00  t.........E.0$E.
  452430 11 01 00 00 00 00 00 00 02 e1 00 00 02 e1 00 00  ................
  452440 0c 00 00 00 89 ee 43 00 11 01 00 00 00 00 00 00  ......C.........
  452450 03 e1 00 00 03 e1 00 00 0c 00 00 00 a1 ee 43 00  ..............C.
  452460 11 01 00 00 00 00 00 00 04 e1 00 00 04 e1 00 00  ................
  452470 0c 00 00 00 a9 ee 43 00 00 00 00 00 00 00 00 00  ......C.........
  452480 00 00 00 00 00 00 00 00 00 00 00 00 00 00 00 00  ................
  452490 20 23 25 3b 2f 5c 00 00 4d 46 43 00 52 65 70 6c   #%;/\..MFC.Repl
  4524a0 61 63 65 46 69 6c 65 00 4b 45 52 4e 45 4c 33 32  aceFile.KERNEL32
  4524b0 00 00 00 00 b0 78 45 00 3b 8f 44 00 99 f7 43 00  .....xE.;.D...C.
  4524c0 8b 18 40 00 2c ac 43 00 c2 cd 43 00 44 ce 43 00  ..@.,.C...C.D.C.
  4524d0 c6 ce 43 00 05 e5 40 00 89 f3 43 00 e6 a9 43 00  ..C...@...C...C.
  4524e0 fd ab 43 00 29 ad 43 00 55 ad 43 00 78 ab 43 00  ..C.).C.U.C.x.C.
  4524f0 b2 ab 43 00 d7 ac 43 00 00 ad 43 00 30 f5 43 00  ..C...C...C.0.C.
  452500 55 ac 43 00 49 f5 43 00 82 ad 43 00 00 79 45 00  U.C.I.C...C..yE.
  452510 85 a4 44 00 bd e4 40 00 8b 18 40 00 e3 c9 43 00  ..D...@...@...C.
  452520 49 b6 43 00 25 2a 2e 2a 66 00 00 00 49 36 34 00  I.C.%*.*f...I64.
  452530 48 25 45 00 10 00 00 00 ff ff 00 00 00 00 00 00  H%E.............
  452540 40 3b 45 00 00 00 00 00 43 46 69 6c 65 00 00 00  @;E.....CFile...
  452550 ee 14 02 00 00 00 00 00 c0 00 00 00 00 00 00 46  ...............F
  452560 01 14 02 00 00 00 00 00 c0 00 00 00 00 00 00 46  ...............F
  452570 38 79 45 00 3b 8f 44 00 c3 a8 43 00 8b 18 40 00  8yE.;.D...C...@.
  452580 2c ac 43 00 c2 cd 43 00 44 ce 43 00 c6 ce 43 00  ,.C...C.D.C...C.
  452590 05 e5 40 00 5b aa 43 00 e6 a9 43 00 fd ab 43 00  ..@.[.C...C...C.
  4525a0 29 ad 43 00 55 ad 43 00 78 ab 43 00 b2 ab 43 00  ).C.U.C.x.C...C.
  4525b0 d7 ac 43 00 00 ad 43 00 b7 ac 43 00 55 ac 43 00  ..C...C...C.U.C.
  4525c0 76 ac 43 00 82 ad 43 00 44 6c 6c 47 65 74 43 6c  v.C...C.DllGetCl
  4525d0 61 73 73 4f 62 6a 65 63 74 00 00 00 7b 25 30 38  assObject...{%08
  4525e0 58 2d 25 30 34 58 2d 25 30 34 58 2d 25 30 32 58  X-%04X-%04X-%02X
  4525f0 25 30 32 58 2d 25 30 32 58 25 30 32 58 25 30 32  %02X-%02X%02X%02
  452600 58 25 30 32 58 25 30 32 58 25 30 32 58 7d 00 00  X%02X%02X%02X}..
  452610 49 6e 50 72 6f 63 53 65 72 76 65 72 33 32 00 00  InProcServer32..
  452620 43 4c 53 49 44 00 00 00 40 26 45 00 f8 01 00 00  CLSID...@&E.....
  452630 ff ff 00 00 00 00 00 00 a8 06 45 00 00 00 00 00  ..........E.....
  452640 43 46 69 6c 65 44 69 61 6c 6f 67 00 b0 79 45 00  CFileDialog..yE.
  452650 41 8f 44 00 95 17 43 00 8b 18 40 00 63 48 43 00  A.D...C...@.cHC.
  452660 66 5f 43 00 3e 8a 43 00 44 8a 43 00 49 8a 43 00  f_C.>.C.D.C.I.C.
  452670 4c 8a 43 00 4f 8a 43 00 a0 20 43 00 f9 8a 43 00  L.C.O.C.. C...C.
  452680 9c 8a 43 00 e9 8a 43 00 a8 8a 43 00 a2 8a 43 00  ..C...C...C...C.
  452690 e0 8a 43 00 e4 8a 43 00 f4 8a 43 00 ef 8a 43 00  ..C...C...C...C.
  4526a0 ab 57 43 00 6d 5d 43 00 77 5f 43 00 4d 5d 43 00  .WC.m]C.w_C.M]C.
  4526b0 24 75 43 00 85 60 43 00 c6 70 43 00 83 65 43 00  $uC..`C..pC..eC.
  4526c0 ae 82 43 00 b5 82 43 00 a9 6c 43 00 24 1f 43 00  ..C...C..lC.$.C.
  4526d0 0b 60 43 00 b8 19 40 00 bb 19 40 00 c7 19 40 00  .`C...@...@...@.
  4526e0 ca 47 43 00 2f 8d 43 00 c0 66 43 00 04 67 43 00  .GC./.C..fC..gC.
  4526f0 c4 5f 43 00 65 5f 43 00 24 77 43 00 ef 50 43 00  ._C.e_C.$wC..PC.
  452700 4d 86 43 00 a1 4c 43 00 b1 17 43 00 69 50 43 00  M.C..LC...C.iPC.
  452710 66 50 43 00 3d 22 43 00 54 22 43 00 87 4f 43 00  fPC.="C.T"C..OC.
  452720 fd 1e 43 00 02 1f 43 00 05 1f 43 00 08 1f 43 00  ..C...C...C...C.
  452730 21 1f 43 00 22 1f 43 00 23 1f 43 00 00 00 00 00  !.C.".C.#.C.....
  452740 58 27 45 00 7c 00 00 00 ff ff 00 00 00 00 00 00  X'E.|...........
  452750 a8 2a 45 00 00 00 00 00 43 46 6f 72 6d 56 69 65  .*E.....CFormVie
  452760 77 00 00 00 00 00 00 00 d8 2a 45 00 70 27 45 00  w........*E.p'E.
  452770 07 00 00 00 00 00 00 00 00 00 00 00 00 00 00 00  ................
  452780 17 00 00 00 18 ff 43 00 01 00 00 00 00 00 00 00  ......C.........
  452790 00 00 00 00 00 00 00 00 09 00 00 00 a9 fe 43 00  ..............C.
  4527a0 6f 03 00 00 00 00 00 00 00 00 00 00 00 00 00 00  o...............
  4527b0 0a 00 00 00 7f 7c 43 00 10 01 00 00 00 00 00 00  .....|C.........
  4527c0 00 00 00 00 00 00 00 00 0a 00 00 00 bf ff 43 00  ..............C.
  4527d0 00 00 00 00 00 00 00 00 00 00 00 00 00 00 00 00  ................
  4527e0 00 00 00 00 00 00 00 00 40 7a 45 00 47 8f 44 00  ........@zE.G.D.
  4527f0 46 fd 43 00 8b 18 40 00 77 01 44 00 66 5f 43 00  F.C...@.w.D.f_C.
  452800 3e 8a 43 00 44 8a 43 00 49 8a 43 00 4c 8a 43 00  >.C.D.C.I.C.L.C.
  452810 4f 8a 43 00 1d fd 43 00 f9 8a 43 00 9c 8a 43 00  O.C...C...C...C.
  452820 e9 8a 43 00 a8 8a 43 00 a2 8a 43 00 e0 8a 43 00  ..C...C...C...C.
  452830 e4 8a 43 00 f4 8a 43 00 ef 8a 43 00 ab 57 43 00  ..C...C...C..WC.
  452840 86 fd 43 00 77 5f 43 00 65 00 44 00 e9 11 44 00  ..C.w_C.e.D...D.
  452850 85 60 43 00 95 03 44 00 83 65 43 00 ae 82 43 00  .`C...D..eC...C.
  452860 b5 82 43 00 a9 6c 43 00 35 6d 43 00 0b 60 43 00  ..C..lC.5mC..`C.
  452870 b8 19 40 00 bb 19 40 00 c7 19 40 00 52 ff 43 00  ..@...@...@.R.C.
  452880 2f 8d 43 00 c0 66 43 00 04 67 43 00 c4 5f 43 00  /.C..fC..gC.._C.
  452890 03 01 44 00 24 77 43 00 f4 7e 43 00 4d 86 43 00  ..D.$wC..~C.M.C.
  4528a0 ef ff 43 00 78 02 44 00 5b 14 44 00 2b 15 44 00  ..C.x.D.[.D.+.D.
  4528b0 21 03 44 00 26 03 44 00 36 03 44 00 2b 03 44 00  !.D.&.D.6.D.+.D.
  4528c0 30 03 44 00 19 03 44 00 ba 07 44 00 96 fe 43 00  0.D...D...D...C.
  4528d0 bb fe 43 00 de fe 43 00 56 02 44 00 bc ff 43 00  ..C...C.V.D...C.
  4528e0 db 04 44 00 e1 04 44 00 66 02 44 00 e4 04 44 00  ..D...D.f.D...D.
  4528f0 e7 04 44 00 00 00 00 00 10 29 45 00 48 00 00 00  ..D......)E.H...
  452900 ff ff 00 00 00 00 00 00 e8 1a 45 00 00 00 00 00  ..........E.....
  452910 43 43 74 72 6c 56 69 65 77 00 00 00 00 00 00 00  CCtrlView.......
  452920 38 29 45 00 c4 00 00 00 ff ff 00 00 00 00 00 00  8)E.............
  452930 d8 08 45 00 00 00 00 00 43 53 70 6c 69 74 74 65  ..E.....CSplitte
  452940 72 57 6e 64 00 00 00 00 80 29 45 00 50 29 45 00  rWnd.....)E.P)E.
  452950 0f 00 00 00 00 00 00 00 00 00 00 00 00 00 00 00  ................
  452960 0c 00 00 00 24 06 44 00 00 00 00 00 00 00 00 00  ....$.D.........
  452970 00 00 00 00 00 00 00 00 00 00 00 00 00 00 00 00  ................
  452980 f8 08 45 00 88 29 45 00 0f 00 00 00 00 00 00 00  ..E..)E.........
  452990 00 00 00 00 00 00 00 00 0c 00 00 00 f4 01 44 00  ..............D.
  4529a0 21 00 00 00 00 00 00 00 00 00 00 00 00 00 00 00  !...............
  4529b0 08 00 00 00 9e 02 44 00 01 00 00 00 00 00 00 00  ......D.........
  4529c0 00 00 00 00 00 00 00 00 09 00 00 00 a4 00 44 00  ..............D.
  4529d0 02 00 00 00 00 00 00 00 00 00 00 00 00 00 00 00  ................
  4529e0 0c 00 00 00 d4 00 44 00 11 01 00 00 00 00 00 00  ......D.........
  4529f0 35 e1 00 00 35 e1 00 00 02 00 00 00 32 04 44 00  5...5.......2.D.
  452a00 11 01 00 00 ff ff ff ff 35 e1 00 00 35 e1 00 00  ........5...5...
  452a10 2c 00 00 00 0a 04 44 00 11 01 00 00 ff ff ff ff  ,.....D.........
  452a20 50 e1 00 00 50 e1 00 00 2c 00 00 00 4e 04 44 00  P...P...,...N.D.
  452a30 11 01 00 00 00 00 00 00 50 e1 00 00 50 e1 00 00  ........P...P...
  452a40 02 00 00 00 8c 04 44 00 11 01 00 00 ff ff ff ff  ......D.........
  452a50 51 e1 00 00 51 e1 00 00 2c 00 00 00 4e 04 44 00  Q...Q...,...N.D.
  452a60 11 01 00 00 00 00 00 00 51 e1 00 00 51 e1 00 00  ........Q...Q...
  452a70 02 00 00 00 8c 04 44 00 64 03 00 00 00 00 00 00  ......D.d.......
  452a80 00 00 00 00 00 00 00 00 0c 00 00 00 14 e5 40 00  ..............@.
  452a90 00 00 00 00 00 00 00 00 00 00 00 00 00 00 00 00  ................
  452aa0 00 00 00 00 00 00 00 00 c0 2a 45 00 6c 00 00 00  .........*E.l...
  452ab0 ff ff 00 00 00 00 00 00 e8 1a 45 00 00 00 00 00  ..........E.....
  452ac0 43 53 63 72 6f 6c 6c 56 69 65 77 00 00 00 00 00  CScrollView.....
  452ad0 00 00 00 00 00 00 00 00 80 29 45 00 e0 2a 45 00  .........)E..*E.
  452ae0 05 00 00 00 00 00 00 00 00 00 00 00 00 00 00 00  ................
  452af0 11 00 00 00 1c 0e 44 00 14 01 00 00 00 00 00 00  ......D.........
  452b00 00 00 00 00 00 00 00 00 1d 00 00 00 70 12 44 00  ............p.D.
  452b10 15 01 00 00 00 00 00 00 00 00 00 00 00 00 00 00  ................
  452b20 1d 00 00 00 b4 12 44 00 0a 02 00 00 00 00 00 00  ......D.........
  452b30 00 00 00 00 00 00 00 00 2e 00 00 00 fc 12 44 00  ..............D.
  452b40 00 00 00 00 00 00 00 00 00 00 00 00 00 00 00 00  ................
  452b50 00 00 00 00 00 00 00 00 4d 6f 75 73 65 5a 00 00  ........MouseZ..
  452b60 4d 61 67 65 6c 6c 61 6e 20 4d 53 57 48 45 45 4c  Magellan MSWHEEL
  452b70 00 00 00 00 57 68 65 65 6c 53 63 72 6f 6c 6c 4c  ....WheelScrollL
  452b80 69 6e 65 73 00 00 00 00 43 6f 6e 74 72 6f 6c 20  ines....Control 
  452b90 50 61 6e 65 6c 5c 44 65 73 6b 74 6f 70 00 00 00  Panel\Desktop...
  452ba0 4d 53 48 5f 53 43 52 4f 4c 4c 5f 4c 49 4e 45 53  MSH_SCROLL_LINES
  452bb0 5f 4d 53 47 00 00 00 00 80 7a 45 00 59 8f 44 00  _MSG.....zE.Y.D.
  452bc0 93 07 44 00 8b 18 40 00 77 01 44 00 66 5f 43 00  ..D...@.w.D.f_C.
  452bd0 3e 8a 43 00 44 8a 43 00 49 8a 43 00 4c 8a 43 00  >.C.D.C.I.C.L.C.
  452be0 4f 8a 43 00 29 06 44 00 f9 8a 43 00 9c 8a 43 00  O.C.).D...C...C.
  452bf0 e9 8a 43 00 a8 8a 43 00 a2 8a 43 00 e0 8a 43 00  ..C...C...C...C.
  452c00 e4 8a 43 00 f4 8a 43 00 ef 8a 43 00 ab 57 43 00  ..C...C...C..WC.
  452c10 6d 5d 43 00 77 5f 43 00 65 00 44 00 e9 11 44 00  m]C.w_C.e.D...D.
  452c20 85 60 43 00 95 03 44 00 83 65 43 00 ae 82 43 00  .`C...D..eC...C.
  452c30 b5 82 43 00 a9 6c 43 00 35 6d 43 00 0b 60 43 00  ..C..lC.5mC..`C.
  452c40 b8 19 40 00 bb 19 40 00 c7 19 40 00 0f 60 43 00  ..@...@...@..`C.
  452c50 2f 8d 43 00 c0 66 43 00 04 67 43 00 c4 5f 43 00  /.C..fC..gC.._C.
  452c60 03 01 44 00 24 77 43 00 f4 7e 43 00 4d 86 43 00  ..D.$wC..~C.M.C.
  452c70 d9 82 43 00 78 02 44 00 5b 14 44 00 2b 15 44 00  ..C.x.D.[.D.+.D.
  452c80 21 03 44 00 26 03 44 00 36 03 44 00 2b 03 44 00  !.D.&.D.6.D.+.D.
  452c90 30 03 44 00 19 03 44 00 ba 07 44 00 48 02 44 00  0.D...D...D.H.D.
  452ca0 7d 02 44 00 9b 02 44 00 56 02 44 00 d5 f6 40 00  }.D...D.V.D...@.
  452cb0 db 04 44 00 e1 04 44 00 66 02 44 00 e4 04 44 00  ..D...D.f.D...D.
  452cc0 e7 04 44 00 00 00 00 00 e0 2c 45 00 3c 00 00 00  ..D......,E.<...
  452cd0 ff ff 00 00 00 00 00 00 d8 08 45 00 00 00 00 00  ..........E.....
  452ce0 43 52 69 63 68 45 64 69 74 43 74 72 6c 00 00 00  CRichEditCtrl...
  452cf0 08 2d 45 00 08 00 00 00 ff ff 00 00 ca 8f 44 00  .-E...........D.
  452d00 18 2d 45 00 00 00 00 00 43 54 65 6d 70 49 6d 61  .-E.....CTempIma
  452d10 67 65 4c 69 73 74 00 00 30 2d 45 00 08 00 00 00  geList..0-E.....
  452d20 ff ff 00 00 ad 8f 44 00 40 3b 45 00 00 00 00 00  ......D.@;E.....
  452d30 43 49 6d 61 67 65 4c 69 73 74 00 00 00 00 00 00  CImageList......
  452d40 58 2d 45 00 3c 00 00 00 ff ff 00 00 00 00 00 00  X-E.<...........
  452d50 d8 08 45 00 00 00 00 00 43 53 74 61 74 75 73 42  ..E.....CStatusB
  452d60 61 72 43 74 72 6c 00 00 80 2d 45 00 3c 00 00 00  arCtrl...-E.<...
  452d70 ff ff 00 00 00 00 00 00 d8 08 45 00 00 00 00 00  ..........E.....
  452d80 43 54 6f 6f 6c 42 61 72 43 74 72 6c 00 00 00 00  CToolBarCtrl....
  452d90 a8 2d 45 00 3c 00 00 00 ff ff 00 00 00 00 00 00  .-E.<...........
  452da0 d8 08 45 00 00 00 00 00 43 4c 69 73 74 43 74 72  ..E.....CListCtr
  452db0 6c 00 00 00 00 00 00 00 d0 2d 45 00 3c 00 00 00  l........-E.<...
  452dc0 ff ff 00 00 00 00 00 00 d8 08 45 00 00 00 00 00  ..........E.....
  452dd0 43 54 72 65 65 43 74 72 6c 00 00 00 00 00 00 00  CTreeCtrl.......
  452de0 f8 2d 45 00 3c 00 00 00 ff ff 00 00 00 00 00 00  .-E.<...........
  452df0 d8 08 45 00 00 00 00 00 43 54 61 62 43 74 72 6c  ..E.....CTabCtrl
  452e00 00 00 00 00 00 00 00 00 20 2e 45 00 3c 00 00 00  ........ .E.<...
  452e10 ff ff 00 00 00 00 00 00 d8 08 45 00 00 00 00 00  ..........E.....
  452e20 43 41 6e 69 6d 61 74 65 43 74 72 6c 00 00 00 00  CAnimateCtrl....
  452e30 48 2e 45 00 3c 00 00 00 ff ff 00 00 00 00 00 00  H.E.<...........
  452e40 d8 08 45 00 00 00 00 00 43 48 6f 74 4b 65 79 43  ..E.....CHotKeyC
  452e50 74 72 6c 00 00 00 00 00 70 2e 45 00 3c 00 00 00  trl.....p.E.<...
  452e60 ff ff 00 00 00 00 00 00 d8 08 45 00 00 00 00 00  ..........E.....
  452e70 43 48 65 61 64 65 72 43 74 72 6c 00 00 00 00 00  CHeaderCtrl.....
  452e80 98 2e 45 00 3c 00 00 00 ff ff 00 00 00 00 00 00  ..E.<...........
  452e90 d8 0f 45 00 00 00 00 00 43 43 6f 6d 62 6f 42 6f  ..E.....CComboBo
  452ea0 78 45 78 00 00 00 00 00 c0 2e 45 00 3c 00 00 00  xEx.......E.<...
  452eb0 ff ff 00 00 00 00 00 00 d8 08 45 00 00 00 00 00  ..........E.....
  452ec0 43 50 72 6f 67 72 65 73 73 43 74 72 6c 00 00 00  CProgressCtrl...
  452ed0 e8 2e 45 00 3c 00 00 00 ff ff 00 00 00 00 00 00  ..E.<...........
  452ee0 d8 08 45 00 00 00 00 00 43 53 6c 69 64 65 72 43  ..E.....CSliderC
  452ef0 74 72 6c 00 00 00 00 00 10 2f 45 00 3c 00 00 00  trl....../E.<...
  452f00 ff ff 00 00 00 00 00 00 d8 08 45 00 00 00 00 00  ..........E.....
  452f10 43 53 70 69 6e 42 75 74 74 6f 6e 43 74 72 6c 00  CSpinButtonCtrl.
  452f20 38 2f 45 00 40 00 00 00 ff ff 00 00 00 00 00 00  8/E.@...........
  452f30 00 10 45 00 00 00 00 00 43 44 72 61 67 4c 69 73  ..E.....CDragLis
  452f40 74 42 6f 78 00 00 00 00 f8 08 45 00 50 2f 45 00  tBox......E.P/E.
  452f50 02 00 00 00 00 00 00 00 00 00 00 00 00 00 00 00  ................
  452f60 0c 00 00 00 b4 3b 43 00 00 00 00 00 00 00 00 00  .....;C.........
  452f70 00 00 00 00 00 00 00 00 00 00 00 00 00 00 00 00  ................
  452f80 f8 08 45 00 88 2f 45 00 02 00 00 00 00 00 00 00  ..E../E.........
  452f90 00 00 00 00 00 00 00 00 0c 00 00 00 b5 36 43 00  .............6C.
  452fa0 00 00 00 00 00 00 00 00 00 00 00 00 00 00 00 00  ................
  452fb0 00 00 00 00 00 00 00 00 f8 08 45 00 c0 2f 45 00  ..........E../E.
  452fc0 82 00 00 00 00 00 00 00 00 00 00 00 00 00 00 00  ................
  452fd0 0c 00 00 00 18 33 43 00 00 00 00 00 00 00 00 00  .....3C.........
  452fe0 00 00 00 00 00 00 00 00 00 00 00 00 00 00 00 00  ................
  452ff0 f8 08 45 00 f8 2f 45 00 01 00 00 00 00 00 00 00  ..E../E.........
  453000 00 00 00 00 00 00 00 00 09 00 00 00 69 2c 43 00  ............i,C.
  453010 00 00 00 00 00 00 00 00 00 00 00 00 00 00 00 00  ................
  453020 00 00 00 00 00 00 00 00 d8 7a 45 00 5f 8f 44 00  .........zE._.D.
  453030 3b e5 40 00 8b 18 40 00 2f 89 43 00 66 5f 43 00  ;.@...@./.C.f_C.
  453040 3e 8a 43 00 44 8a 43 00 49 8a 43 00 4c 8a 43 00  >.C.D.C.I.C.L.C.
  453050 4f 8a 43 00 65 66 43 00 f9 8a 43 00 9c 8a 43 00  O.C.efC...C...C.
  453060 e9 8a 43 00 a8 8a 43 00 a2 8a 43 00 e0 8a 43 00  ..C...C...C...C.
  453070 e4 8a 43 00 f4 8a 43 00 ef 8a 43 00 cd 27 43 00  ..C...C...C..'C.
  453080 6d 5d 43 00 77 5f 43 00 4d 5d 43 00 24 75 43 00  m]C.w_C.M]C.$uC.
  453090 85 60 43 00 c6 70 43 00 83 65 43 00 ae 82 43 00  .`C..pC..eC...C.
  4530a0 b5 82 43 00 a9 6c 43 00 35 6d 43 00 0b 60 43 00  ..C..lC.5mC..`C.
  4530b0 b8 19 40 00 bb 19 40 00 c7 19 40 00 0f 60 43 00  ..@...@...@..`C.
  4530c0 2f 8d 43 00 c0 66 43 00 04 67 43 00 c4 5f 43 00  /.C..fC..gC.._C.
  4530d0 65 5f 43 00 55 2a 43 00 f4 7e 43 00 4d 86 43 00  e_C.U*C..~C.M.C.
  4530e0 d9 82 43 00 dd 48 44 00 e0 48 44 00 e3 48 44 00  ..C..HD..HD..HD.
  4530f0 e8 48 44 00 eb 48 44 00 f3 48 44 00 39 29 43 00  .HD..HD..HD.9)C.
  453100 d7 27 43 00 03 28 43 00 10 28 43 00 5a 28 43 00  .'C..(C..(C.Z(C.
  453110 54 6f 6f 6c 62 61 72 57 69 6e 64 6f 77 33 32 00  ToolbarWindow32.
  453120 30 7b 45 00 a1 8f 44 00 57 e5 40 00 8b 18 40 00  0{E...D.W.@...@.
  453130 2f 89 43 00 66 5f 43 00 3e 8a 43 00 44 8a 43 00  /.C.f_C.>.C.D.C.
  453140 49 8a 43 00 4c 8a 43 00 4f 8a 43 00 11 2b 43 00  I.C.L.C.O.C..+C.
  453150 f9 8a 43 00 9c 8a 43 00 e9 8a 43 00 a8 8a 43 00  ..C...C...C...C.
  453160 a2 8a 43 00 e0 8a 43 00 e4 8a 43 00 f4 8a 43 00  ..C...C...C...C.
  453170 ef 8a 43 00 ab 57 43 00 6d 5d 43 00 77 5f 43 00  ..C..WC.m]C.w_C.
  453180 4d 5d 43 00 24 75 43 00 85 60 43 00 c6 70 43 00  M]C.$uC..`C..pC.
  453190 83 65 43 00 ae 82 43 00 b5 82 43 00 a9 6c 43 00  .eC...C...C..lC.
  4531a0 35 6d 43 00 0b 60 43 00 b8 19 40 00 bb 19 40 00  5mC..`C...@...@.
  4531b0 c7 19 40 00 0f 60 43 00 2f 8d 43 00 c0 66 43 00  ..@..`C./.C..fC.
  4531c0 04 67 43 00 c4 5f 43 00 65 5f 43 00 24 77 43 00  .gC.._C.e_C.$wC.
  4531d0 f4 7e 43 00 4d 86 43 00 d9 82 43 00 6d 73 63 74  .~C.M.C...C.msct
  4531e0 6c 73 5f 73 74 61 74 75 73 62 61 72 33 32 00 00  ls_statusbar32..
  4531f0 88 7b 45 00 a7 8f 44 00 73 e5 40 00 8b 18 40 00  .{E...D.s.@...@.
  453200 2f 89 43 00 66 5f 43 00 3e 8a 43 00 44 8a 43 00  /.C.f_C.>.C.D.C.
  453210 49 8a 43 00 4c 8a 43 00 4f 8a 43 00 65 66 43 00  I.C.L.C.O.C.efC.
  453220 f9 8a 43 00 9c 8a 43 00 e9 8a 43 00 a8 8a 43 00  ..C...C...C...C.
  453230 a2 8a 43 00 e0 8a 43 00 e4 8a 43 00 f4 8a 43 00  ..C...C...C...C.
  453240 ef 8a 43 00 ab 57 43 00 6d 5d 43 00 77 5f 43 00  ..C..WC.m]C.w_C.
  453250 4d 5d 43 00 24 75 43 00 85 60 43 00 c6 70 43 00  M]C.$uC..`C..pC.
  453260 83 65 43 00 ae 82 43 00 b5 82 43 00 a9 6c 43 00  .eC...C...C..lC.
  453270 35 6d 43 00 0b 60 43 00 b8 19 40 00 bb 19 40 00  5mC..`C...@...@.
  453280 c7 19 40 00 0f 60 43 00 2f 8d 43 00 c0 66 43 00  ..@..`C./.C..fC.
  453290 04 67 43 00 c4 5f 43 00 65 5f 43 00 83 2e 43 00  .gC.._C.e_C...C.
  4532a0 f4 7e 43 00 4d 86 43 00 d9 82 43 00 80 2e 43 00  .~C.M.C...C...C.
  4532b0 53 79 73 4c 69 73 74 56 69 65 77 33 32 00 00 00  SysListView32...
  4532c0 e0 7b 45 00 9b 8f 44 00 8f e5 40 00 8b 18 40 00  .{E...D...@...@.
  4532d0 2f 89 43 00 66 5f 43 00 3e 8a 43 00 44 8a 43 00  /.C.f_C.>.C.D.C.
  4532e0 49 8a 43 00 4c 8a 43 00 4f 8a 43 00 b1 2e 43 00  I.C.L.C.O.C...C.
  4532f0 f9 8a 43 00 9c 8a 43 00 e9 8a 43 00 a8 8a 43 00  ..C...C...C...C.
  453300 a2 8a 43 00 e0 8a 43 00 e4 8a 43 00 f4 8a 43 00  ..C...C...C...C.
  453310 ef 8a 43 00 ab 57 43 00 6d 5d 43 00 77 5f 43 00  ..C..WC.m]C.w_C.
  453320 4d 5d 43 00 24 75 43 00 85 60 43 00 c6 70 43 00  M]C.$uC..`C..pC.
  453330 83 65 43 00 ae 82 43 00 b5 82 43 00 a9 6c 43 00  .eC...C...C..lC.
  453340 35 6d 43 00 0b 60 43 00 b8 19 40 00 bb 19 40 00  5mC..`C...@...@.
  453350 c7 19 40 00 0f 60 43 00 2f 8d 43 00 c0 66 43 00  ..@..`C./.C..fC.
  453360 04 67 43 00 c4 5f 43 00 65 5f 43 00 b1 32 43 00  .gC.._C.e_C..2C.
  453370 f4 7e 43 00 4d 86 43 00 d9 82 43 00 ae 32 43 00  .~C.M.C...C..2C.
  453380 53 79 73 54 72 65 65 56 69 65 77 33 32 00 00 00  SysTreeView32...
  453390 38 7c 45 00 95 8f 44 00 ab e5 40 00 8b 18 40 00  8|E...D...@...@.
  4533a0 2f 89 43 00 66 5f 43 00 3e 8a 43 00 44 8a 43 00  /.C.f_C.>.C.D.C.
  4533b0 49 8a 43 00 4c 8a 43 00 4f 8a 43 00 a2 33 43 00  I.C.L.C.O.C..3C.
  4533c0 f9 8a 43 00 9c 8a 43 00 e9 8a 43 00 a8 8a 43 00  ..C...C...C...C.
  4533d0 a2 8a 43 00 e0 8a 43 00 e4 8a 43 00 f4 8a 43 00  ..C...C...C...C.
  4533e0 ef 8a 43 00 ab 57 43 00 6d 5d 43 00 77 5f 43 00  ..C..WC.m]C.w_C.
  4533f0 4d 5d 43 00 24 75 43 00 85 60 43 00 c6 70 43 00  M]C.$uC..`C..pC.
  453400 83 65 43 00 ae 82 43 00 b5 82 43 00 a9 6c 43 00  .eC...C...C..lC.
  453410 35 6d 43 00 0b 60 43 00 b8 19 40 00 bb 19 40 00  5mC..`C...@...@.
  453420 c7 19 40 00 0f 60 43 00 2f 8d 43 00 c0 66 43 00  ..@..`C./.C..fC.
  453430 04 67 43 00 c4 5f 43 00 65 5f 43 00 24 77 43 00  .gC.._C.e_C.$wC.
  453440 f4 7e 43 00 4d 86 43 00 d9 82 43 00 6d 73 63 74  .~C.M.C...C.msct
  453450 6c 73 5f 75 70 64 6f 77 6e 33 32 00 90 7c 45 00  ls_updown32..|E.
  453460 65 8f 44 00 e3 e5 40 00 8b 18 40 00 2f 89 43 00  e.D...@...@./.C.
  453470 66 5f 43 00 3e 8a 43 00 44 8a 43 00 49 8a 43 00  f_C.>.C.D.C.I.C.
  453480 4c 8a 43 00 4f 8a 43 00 65 66 43 00 f9 8a 43 00  L.C.O.C.efC...C.
  453490 9c 8a 43 00 e9 8a 43 00 a8 8a 43 00 a2 8a 43 00  ..C...C...C...C.
  4534a0 e0 8a 43 00 e4 8a 43 00 f4 8a 43 00 ef 8a 43 00  ..C...C...C...C.
  4534b0 ab 57 43 00 6d 5d 43 00 77 5f 43 00 4d 5d 43 00  .WC.m]C.w_C.M]C.
  4534c0 24 75 43 00 85 60 43 00 c6 70 43 00 83 65 43 00  $uC..`C..pC..eC.
  4534d0 ae 82 43 00 b5 82 43 00 a9 6c 43 00 35 6d 43 00  ..C...C..lC.5mC.
  4534e0 0b 60 43 00 b8 19 40 00 bb 19 40 00 c7 19 40 00  .`C...@...@...@.
  4534f0 0f 60 43 00 2f 8d 43 00 c0 66 43 00 04 67 43 00  .`C./.C..fC..gC.
  453500 c4 5f 43 00 65 5f 43 00 24 77 43 00 f4 7e 43 00  ._C.e_C.$wC..~C.
  453510 4d 86 43 00 d9 82 43 00 6d 73 63 74 6c 73 5f 74  M.C...C.msctls_t
  453520 72 61 63 6b 62 61 72 33 32 00 00 00 e8 7c 45 00  rackbar32....|E.
  453530 6b 8f 44 00 ff e5 40 00 8b 18 40 00 2f 89 43 00  k.D...@...@./.C.
  453540 66 5f 43 00 3e 8a 43 00 44 8a 43 00 49 8a 43 00  f_C.>.C.D.C.I.C.
  453550 4c 8a 43 00 4f 8a 43 00 65 66 43 00 f9 8a 43 00  L.C.O.C.efC...C.
  453560 9c 8a 43 00 e9 8a 43 00 a8 8a 43 00 a2 8a 43 00  ..C...C...C...C.
  453570 e0 8a 43 00 e4 8a 43 00 f4 8a 43 00 ef 8a 43 00  ..C...C...C...C.
  453580 ab 57 43 00 6d 5d 43 00 77 5f 43 00 4d 5d 43 00  .WC.m]C.w_C.M]C.
  453590 24 75 43 00 85 60 43 00 c6 70 43 00 83 65 43 00  $uC..`C..pC..eC.
  4535a0 ae 82 43 00 b5 82 43 00 a9 6c 43 00 35 6d 43 00  ..C...C..lC.5mC.
  4535b0 0b 60 43 00 b8 19 40 00 bb 19 40 00 c7 19 40 00  .`C...@...@...@.
  4535c0 0f 60 43 00 2f 8d 43 00 c0 66 43 00 04 67 43 00  .`C./.C..fC..gC.
  4535d0 c4 5f 43 00 65 5f 43 00 24 77 43 00 f4 7e 43 00  ._C.e_C.$wC..~C.
  4535e0 4d 86 43 00 d9 82 43 00 6d 73 63 74 6c 73 5f 70  M.C...C.msctls_p
  4535f0 72 6f 67 72 65 73 73 33 32 00 00 00 40 7d 45 00  rogress32...@}E.
  453600 71 8f 44 00 1b e6 40 00 8b 18 40 00 2f 89 43 00  q.D...@...@./.C.
  453610 66 5f 43 00 3e 8a 43 00 44 8a 43 00 49 8a 43 00  f_C.>.C.D.C.I.C.
  453620 4c 8a 43 00 4f 8a 43 00 65 66 43 00 f9 8a 43 00  L.C.O.C.efC...C.
  453630 9c 8a 43 00 e9 8a 43 00 a8 8a 43 00 a2 8a 43 00  ..C...C...C...C.
  453640 e0 8a 43 00 e4 8a 43 00 f4 8a 43 00 ef 8a 43 00  ..C...C...C...C.
  453650 ab 57 43 00 6d 5d 43 00 77 5f 43 00 4d 5d 43 00  .WC.m]C.w_C.M]C.
  453660 24 75 43 00 85 60 43 00 c6 70 43 00 83 65 43 00  $uC..`C..pC..eC.
  453670 ae 82 43 00 b5 82 43 00 a9 6c 43 00 35 6d 43 00  ..C...C..lC.5mC.
  453680 0b 60 43 00 b8 19 40 00 bb 19 40 00 c7 19 40 00  .`C...@...@...@.
  453690 0f 60 43 00 2f 8d 43 00 c0 66 43 00 04 67 43 00  .`C./.C..fC..gC.
  4536a0 c4 5f 43 00 65 5f 43 00 24 77 43 00 f4 7e 43 00  ._C.e_C.$wC..~C.
  4536b0 4d 86 43 00 d9 82 43 00 53 79 73 48 65 61 64 65  M.C...C.SysHeade
  4536c0 72 33 32 00 98 7d 45 00 7d 8f 44 00 37 e6 40 00  r32..}E.}.D.7.@.
  4536d0 8b 18 40 00 2f 89 43 00 66 5f 43 00 3e 8a 43 00  ..@./.C.f_C.>.C.
  4536e0 44 8a 43 00 49 8a 43 00 4c 8a 43 00 4f 8a 43 00  D.C.I.C.L.C.O.C.
  4536f0 65 66 43 00 f9 8a 43 00 9c 8a 43 00 e9 8a 43 00  efC...C...C...C.
  453700 a8 8a 43 00 a2 8a 43 00 e0 8a 43 00 e4 8a 43 00  ..C...C...C...C.
  453710 f4 8a 43 00 ef 8a 43 00 ab 57 43 00 6d 5d 43 00  ..C...C..WC.m]C.
  453720 77 5f 43 00 4d 5d 43 00 24 75 43 00 85 60 43 00  w_C.M]C.$uC..`C.
  453730 c6 70 43 00 83 65 43 00 ae 82 43 00 b5 82 43 00  .pC..eC...C...C.
  453740 a9 6c 43 00 35 6d 43 00 0b 60 43 00 b8 19 40 00  .lC.5mC..`C...@.
  453750 bb 19 40 00 c7 19 40 00 0f 60 43 00 2f 8d 43 00  ..@...@..`C./.C.
  453760 c0 66 43 00 04 67 43 00 c4 5f 43 00 65 5f 43 00  .fC..gC.._C.e_C.
  453770 4e 3a 43 00 f4 7e 43 00 4d 86 43 00 d9 82 43 00  N:C..~C.M.C...C.
  453780 4b 3a 43 00 6d 73 63 74 6c 73 5f 68 6f 74 6b 65  K:C.msctls_hotke
  453790 79 33 32 00 f0 7d 45 00 83 8f 44 00 c7 e5 40 00  y32..}E...D...@.
  4537a0 8b 18 40 00 2f 89 43 00 66 5f 43 00 3e 8a 43 00  ..@./.C.f_C.>.C.
  4537b0 44 8a 43 00 49 8a 43 00 4c 8a 43 00 4f 8a 43 00  D.C.I.C.L.C.O.C.
  4537c0 65 66 43 00 f9 8a 43 00 9c 8a 43 00 e9 8a 43 00  efC...C...C...C.
  4537d0 a8 8a 43 00 a2 8a 43 00 e0 8a 43 00 e4 8a 43 00  ..C...C...C...C.
  4537e0 f4 8a 43 00 ef 8a 43 00 ab 57 43 00 6d 5d 43 00  ..C...C..WC.m]C.
  4537f0 77 5f 43 00 4d 5d 43 00 24 75 43 00 85 60 43 00  w_C.M]C.$uC..`C.
  453800 c6 70 43 00 83 65 43 00 ae 82 43 00 b5 82 43 00  .pC..eC...C...C.
  453810 a9 6c 43 00 35 6d 43 00 0b 60 43 00 b8 19 40 00  .lC.5mC..`C...@.
  453820 bb 19 40 00 c7 19 40 00 0f 60 43 00 2f 8d 43 00  ..@...@..`C./.C.
  453830 c0 66 43 00 04 67 43 00 c4 5f 43 00 65 5f 43 00  .fC..gC.._C.e_C.
  453840 24 77 43 00 f4 7e 43 00 4d 86 43 00 d9 82 43 00  $wC..~C.M.C...C.
  453850 53 79 73 54 61 62 43 6f 6e 74 72 6f 6c 33 32 00  SysTabControl32.
  453860 48 7e 45 00 8f 8f 44 00 53 e6 40 00 8b 18 40 00  H~E...D.S.@...@.
  453870 2f 89 43 00 66 5f 43 00 3e 8a 43 00 44 8a 43 00  /.C.f_C.>.C.D.C.
  453880 49 8a 43 00 4c 8a 43 00 4f 8a 43 00 14 3b 43 00  I.C.L.C.O.C..;C.
  453890 f9 8a 43 00 9c 8a 43 00 e9 8a 43 00 a8 8a 43 00  ..C...C...C...C.
  4538a0 a2 8a 43 00 e0 8a 43 00 e4 8a 43 00 f4 8a 43 00  ..C...C...C...C.
  4538b0 ef 8a 43 00 ab 57 43 00 6d 5d 43 00 77 5f 43 00  ..C..WC.m]C.w_C.
  4538c0 4d 5d 43 00 24 75 43 00 85 60 43 00 c6 70 43 00  M]C.$uC..`C..pC.
  4538d0 83 65 43 00 ae 82 43 00 b5 82 43 00 a9 6c 43 00  .eC...C...C..lC.
  4538e0 35 6d 43 00 0b 60 43 00 b8 19 40 00 bb 19 40 00  5mC..`C...@...@.
  4538f0 c7 19 40 00 0f 60 43 00 2f 8d 43 00 c0 66 43 00  ..@..`C./.C..fC.
  453900 04 67 43 00 c4 5f 43 00 65 5f 43 00 86 3b 43 00  .gC.._C.e_C..;C.
  453910 f4 7e 43 00 4d 86 43 00 d9 82 43 00 83 3b 43 00  .~C.M.C...C..;C.
  453920 53 79 73 41 6e 69 6d 61 74 65 33 32 00 00 00 00  SysAnimate32....
  453930 a0 7e 45 00 89 8f 44 00 4a ca 40 00 8b 18 40 00  .~E...D.J.@...@.
  453940 2f 89 43 00 66 5f 43 00 3e 8a 43 00 44 8a 43 00  /.C.f_C.>.C.D.C.
  453950 49 8a 43 00 4c 8a 43 00 4f 8a 43 00 65 66 43 00  I.C.L.C.O.C.efC.
  453960 f9 8a 43 00 9c 8a 43 00 e9 8a 43 00 a8 8a 43 00  ..C...C...C...C.
  453970 a2 8a 43 00 e0 8a 43 00 e4 8a 43 00 f4 8a 43 00  ..C...C...C...C.
  453980 ef 8a 43 00 ab 57 43 00 6d 5d 43 00 77 5f 43 00  ..C..WC.m]C.w_C.
  453990 4d 5d 43 00 24 75 43 00 85 60 43 00 c6 70 43 00  M]C.$uC..`C..pC.
  4539a0 83 65 43 00 ae 82 43 00 b5 82 43 00 a9 6c 43 00  .eC...C...C..lC.
  4539b0 35 6d 43 00 0b 60 43 00 b8 19 40 00 bb 19 40 00  5mC..`C...@...@.
  4539c0 c7 19 40 00 0f 60 43 00 2f 8d 43 00 c0 66 43 00  ..@..`C./.C..fC.
  4539d0 04 67 43 00 c4 5f 43 00 65 5f 43 00 24 77 43 00  .gC.._C.e_C.$wC.
  4539e0 f4 7e 43 00 4d 86 43 00 d9 82 43 00 f8 7e 45 00  .~C.M.C...C..~E.
  4539f0 1b 90 44 00 6f e6 40 00 8b 18 40 00 2f 89 43 00  ..D.o.@...@./.C.
  453a00 66 5f 43 00 3e 8a 43 00 44 8a 43 00 49 8a 43 00  f_C.>.C.D.C.I.C.
  453a10 4c 8a 43 00 4f 8a 43 00 65 66 43 00 f9 8a 43 00  L.C.O.C.efC...C.
  453a20 9c 8a 43 00 e9 8a 43 00 a8 8a 43 00 a2 8a 43 00  ..C...C...C...C.
  453a30 e0 8a 43 00 e4 8a 43 00 f4 8a 43 00 ef 8a 43 00  ..C...C...C...C.
  453a40 ab 57 43 00 6d 5d 43 00 77 5f 43 00 4d 5d 43 00  .WC.m]C.w_C.M]C.
  453a50 24 75 43 00 85 60 43 00 c6 70 43 00 83 65 43 00  $uC..`C..pC..eC.
  453a60 ae 82 43 00 b5 82 43 00 a9 6c 43 00 35 6d 43 00  ..C...C..lC.5mC.
  453a70 0b 60 43 00 b8 19 40 00 bb 19 40 00 c7 19 40 00  .`C...@...@...@.
  453a80 0f 60 43 00 2f 8d 43 00 c0 66 43 00 04 67 43 00  .`C./.C..fC..gC.
  453a90 c4 5f 43 00 65 5f 43 00 24 77 43 00 f4 7e 43 00  ._C.e_C.$wC..~C.
  453aa0 4d 86 43 00 d9 82 43 00 48 7f 45 00 c4 8f 44 00  M.C...C.H.E...D.
  453ab0 e9 3d 43 00 8b 18 40 00 98 7f 45 00 15 90 44 00  .=C...@...E...D.
  453ac0 f0 8f 44 00 8b 18 40 00 e0 3a 45 00 08 00 00 00  ..D...@..:E.....
  453ad0 ff ff 00 00 81 90 44 00 f0 3a 45 00 00 00 00 00  ......D..:E.....
  453ae0 43 54 65 6d 70 4d 65 6e 75 00 00 00 00 00 00 00  CTempMenu.......
  453af0 08 3b 45 00 08 00 00 00 ff ff 00 00 61 90 44 00  .;E.........a.D.
  453b00 40 3b 45 00 00 00 00 00 43 4d 65 6e 75 00 00 00  @;E.....CMenu...
  453b10 e8 7f 45 00 7b 90 44 00 8b e6 40 00 8b 18 40 00  ..E.{.D...@...@.
  453b20 fe b4 43 00 01 b5 43 00 38 80 45 00 e6 90 44 00  ..C...C.8.E...D.
  453b30 9d 90 44 00 8b 18 40 00 fe b4 43 00 01 b5 43 00  ..D...@...C...C.
  453b40 58 3b 45 00 04 00 00 00 ff ff 00 00 00 00 00 00  X;E.............
  453b50 00 00 00 00 00 00 00 00 43 4f 62 6a 65 63 74 00  ........CObject.
  453b60 f0 5a 5b 42 f1 65 d1 11 96 11 00 00 f8 1e 0d 0d  .Z[B.e..........
  453b70 70 07 ad 72 9f 6a d1 11 bc ec 00 60 08 8f 44 4e  p..r.j.....`..DN
  453b80 51 20 ea b6 8a 04 d1 11 82 b9 00 c0 4f b9 94 2e  Q ..........O...
  453b90 50 20 ea b6 8a 04 d1 11 82 b9 00 c0 4f b9 94 2e  P ..........O...
  453ba0 3b 05 ec 44 0f 40 d0 11 9d cd 00 a0 c9 03 91 d3  ;..D.@..........
  453bb0 3a 05 ec 44 0f 40 d0 11 9d cd 00 a0 c9 03 91 d3  :..D.@..........
  453bc0 35 05 ec 44 0f 40 d0 11 9d cd 00 a0 c9 03 91 d3  5..D.@..........
  453bd0 63 6f 6d 62 6f 62 6f 78 00 00 00 00 00 00 00 00  combobox........
  453be0 f8 3b 45 00 98 00 00 00 ff ff 00 00 00 00 00 00  .;E.............
  453bf0 40 3c 45 00 00 00 00 00 43 4e 6f 74 53 75 70 70  @<E.....CNotSupp
  453c00 6f 72 74 65 64 45 78 63 65 70 74 69 6f 6e 00 00  ortedException..
  453c10 28 3c 45 00 98 00 00 00 ff ff 00 00 00 00 00 00  (<E.............
  453c20 40 3c 45 00 00 00 00 00 43 4d 65 6d 6f 72 79 45  @<E.....CMemoryE
  453c30 78 63 65 70 74 69 6f 6e 00 00 00 00 00 00 00 00  xception........
  453c40 58 3c 45 00 08 00 00 00 ff ff 00 00 00 00 00 00  X<E.............
  453c50 40 3b 45 00 00 00 00 00 43 45 78 63 65 70 74 69  @;E.....CExcepti
  453c60 6f 6e 00 00 90 80 45 00 32 91 44 00 fa e6 40 00  on....E.2.D...@.
  453c70 8b 18 40 00 2b 20 43 00 49 b6 43 00 e8 80 45 00  ..@.+ C.I.C...E.
  453c80 6a 91 44 00 47 e7 40 00 8b 18 40 00 2b 20 43 00  j.D.G.@...@.+ C.
  453c90 49 b6 43 00 41 42 43 44 45 46 47 48 49 4a 4b 4c  I.C.ABCDEFGHIJKL
  453ca0 4d 4e 4f 50 51 52 53 54 55 56 57 58 59 5a 61 62  MNOPQRSTUVWXYZab
  453cb0 63 64 65 66 67 68 69 6a 6b 6c 6d 6e 6f 70 71 72  cdefghijklmnopqr
  453cc0 73 74 75 76 77 78 79 7a 00 00 00 00 53 79 73 74  stuvwxyz....Syst
  453cd0 65 6d 00 00 38 81 45 00 1f 95 44 00 80 81 45 00  em..8.E...D...E.
  453ce0 6a e7 40 00 00 00 00 00 00 3d 45 00 1c 00 00 00  j.@......=E.....
  453cf0 ff ff 00 00 00 00 00 00 40 3b 45 00 00 00 00 00  ........@;E.....
  453d00 43 4d 61 70 50 74 72 54 6f 50 74 72 00 00 00 00  CMapPtrToPtr....
  453d10 d0 81 45 00 0f 98 44 00 e4 44 43 00 8b 18 40 00  ..E...D..DC...@.
  453d20 43 54 4c 33 44 33 32 2e 44 4c 4c 00 00 00 00 00  CTL3D32.DLL.....
  453d30 48 3d 45 00 20 00 00 00 ff ff 00 00 00 00 00 00  H=E. ...........
  453d40 40 3b 45 00 00 00 00 00 43 44 6f 63 4d 61 6e 61  @;E.....CDocMana
  453d50 67 65 72 00 00 00 00 00 c8 06 45 00 60 3d 45 00  ger.......E.`=E.
  453d60 11 01 00 00 02 00 00 00 64 00 00 00 64 00 00 00  ........d...d...
  453d70 0c 00 00 00 b0 18 40 00 00 00 00 00 00 00 00 00  ......@.........
  453d80 00 00 00 00 00 00 00 00 00 00 00 00 00 00 00 00  ................
  453d90 00 00 00 00 4e 75 6c 6c 46 69 6c 65 00 00 00 00  ....NullFile....
  453da0 5b 70 72 69 6e 74 74 6f 28 22 25 31 22 2c 22 25  [printto("%1","%
  453db0 32 22 2c 22 25 33 22 2c 22 25 34 22 29 5d 00 00  2","%3","%4")]..
  453dc0 5b 70 72 69 6e 74 28 22 25 31 22 29 5d 00 00 00  [print("%1")]...
  453dd0 5b 6f 70 65 6e 28 22 25 31 22 29 5d 00 00 00 00  [open("%1")]....
  453de0 64 64 65 65 78 65 63 00 20 2f 64 64 65 00 00 00  ddeexec. /dde...
  453df0 20 2f 70 74 20 22 25 31 22 20 22 25 32 22 20 22   /pt "%1" "%2" "
  453e00 25 33 22 20 22 25 34 22 00 00 00 00 20 2f 70 20  %3" "%4".... /p 
  453e10 22 25 31 22 00 00 00 00 20 22 25 31 22 00 00 00  "%1".... "%1"...
  453e20 63 6f 6d 6d 61 6e 64 00 2c 25 64 00 25 73 5c 53  command.,%d.%s\S
  453e30 68 65 6c 6c 4e 65 77 00 25 73 5c 44 65 66 61 75  hellNew.%s\Defau
  453e40 6c 74 49 63 6f 6e 00 00 25 73 5c 73 68 65 6c 6c  ltIcon..%s\shell
  453e50 5c 70 72 69 6e 74 74 6f 5c 25 73 00 25 73 5c 73  \printto\%s.%s\s
  453e60 68 65 6c 6c 5c 70 72 69 6e 74 5c 25 73 00 00 00  hell\print\%s...
  453e70 25 73 5c 73 68 65 6c 6c 5c 6f 70 65 6e 5c 25 73  %s\shell\open\%s
  453e80 00 00 00 00 20 82 45 00 73 a4 44 00 b3 9d 44 00  .... .E.s.D...D.
  453e90 8b 18 40 00 d1 3d 44 00 36 3e 44 00 3a 3e 44 00  ..@..=D.6>D.:>D.
  453ea0 36 a0 44 00 f9 18 44 00 4a 3e 44 00 69 3e 44 00  6.D...D.J>D.i>D.
  453eb0 3a 1a 44 00 87 3e 44 00 6b 40 44 00 4f 46 44 00  :.D..>D.k@D.OFD.
  453ec0 1b 47 44 00 2a 2e 2a 00 22 2c 22 00 5b 70 72 69  .GD.*.*.",".[pri
  453ed0 6e 74 74 6f 28 22 00 00 5b 70 72 69 6e 74 28 22  ntto("..[print("
  453ee0 00 00 00 00 5b 6f 70 65 6e 28 22 00 78 82 45 00  ....[open(".x.E.
  453ef0 b9 76 44 00 ff 46 44 00 8b 18 40 00 63 48 43 00  .vD..FD...@.cHC.
  453f00 66 5f 43 00 3e 8a 43 00 44 8a 43 00 49 8a 43 00  f_C.>.C.D.C.I.C.
  453f10 4c 8a 43 00 4f 8a 43 00 75 3c 44 00 f9 8a 43 00  L.C.O.C.u<D...C.
  453f20 9c 8a 43 00 e9 8a 43 00 a8 8a 43 00 a2 8a 43 00  ..C...C...C...C.
  453f30 e0 8a 43 00 e4 8a 43 00 f4 8a 43 00 ef 8a 43 00  ..C...C...C...C.
  453f40 ab 57 43 00 6d 5d 43 00 77 5f 43 00 4d 5d 43 00  .WC.m]C.w_C.M]C.
  453f50 24 75 43 00 85 60 43 00 c6 70 43 00 83 65 43 00  $uC..`C..pC..eC.
  453f60 ae 82 43 00 b5 82 43 00 a9 6c 43 00 35 6d 43 00  ..C...C..lC.5mC.
  453f70 0b 60 43 00 b8 19 40 00 bb 19 40 00 c7 19 40 00  .`C...@...@...@.
  453f80 ca 47 43 00 2f 8d 43 00 c0 66 43 00 04 67 43 00  .GC./.C..fC..gC.
  453f90 c4 5f 43 00 65 5f 43 00 24 77 43 00 ef 50 43 00  ._C.e_C.$wC..PC.
  453fa0 4d 86 43 00 a1 4c 43 00 e0 4d 43 00 7b 3c 44 00  M.C..LC..MC.{<D.
  453fb0 66 50 43 00 89 3d 44 00 e7 50 43 00 87 4f 43 00  fPC..=D..PC..OC.
  453fc0 d8 3f 45 00 1c 00 00 00 ff ff 00 00 00 00 00 00  .?E.............
  453fd0 40 3b 45 00 00 00 00 00 43 50 74 72 4c 69 73 74  @;E.....CPtrList
  453fe0 00 00 00 00 c8 82 45 00 79 a4 44 00 d1 41 43 00  ......E.y.D..AC.
  453ff0 8b 18 40 00 5c 2e 2e 2e 00 00 00 00 10 83 45 00  ..@.\.........E.
  454000 27 c5 43 00 b6 c4 43 00 68 c6 43 00 00 c9 43 00  '.C...C.h.C...C.
  454010 82 c8 43 00 f2 c3 43 00 26 25 64 20 00 00 00 00  ..C...C.&%d ....
  454020 38 40 45 00 64 00 00 00 ff ff 00 00 00 00 00 00  8@E.d...........
  454030 88 0e 45 00 00 00 00 00 43 44 6f 63 54 65 6d 70  ..E.....CDocTemp
  454040 6c 61 74 65 00 00 00 00 60 40 45 00 14 00 00 00  late....`@E.....
  454050 ff ff 00 00 00 00 00 00 40 3c 45 00 00 00 00 00  ........@<E.....
  454060 43 46 69 6c 65 45 78 63 65 70 74 69 6f 6e 00 00  CFileException..
  454070 88 40 45 00 10 00 00 00 ff ff 00 00 00 00 00 00  .@E.............
  454080 40 3c 45 00 00 00 00 00 43 41 72 63 68 69 76 65  @<E.....CArchive
  454090 45 78 63 65 70 74 69 6f 6e 00 00 00 60 83 45 00  Exception...`.E.
  4540a0 8b a4 44 00 55 e9 40 00 8b 18 40 00 a5 1f 44 00  ..D.U.@...@...D.
  4540b0 49 b6 43 00 2e 49 4e 49 00 00 00 00 2e 48 4c 50  I.C..INI.....HLP
  4540c0 00 00 00 00 00 00 00 00 c8 06 45 00 d0 40 45 00  ..........E..@E.
  4540d0 53 00 00 00 00 00 00 00 00 00 00 00 00 00 00 00  S...............
  4540e0 2a 00 00 00 59 22 43 00 00 00 00 00 00 00 00 00  *...Y"C.........
  4540f0 00 00 00 00 00 00 00 00 00 00 00 00 00 00 00 00  ................
  454100 63 6f 6d 6d 64 6c 67 5f 53 65 74 52 47 42 43 6f  commdlg_SetRGBCo
  454110 6c 6f 72 00 63 6f 6d 6d 64 6c 67 5f 68 65 6c 70  lor.commdlg_help
  454120 00 00 00 00 63 6f 6d 6d 64 6c 67 5f 43 6f 6c 6f  ....commdlg_Colo
  454130 72 4f 4b 00 63 6f 6d 6d 64 6c 67 5f 46 69 6c 65  rOK.commdlg_File
  454140 4e 61 6d 65 4f 4b 00 00 63 6f 6d 6d 64 6c 67 5f  NameOK..commdlg_
  454150 53 68 61 72 65 56 69 6f 6c 61 74 69 6f 6e 00 00  ShareViolation..
  454160 63 6f 6d 6d 64 6c 67 5f 4c 42 53 65 6c 43 68 61  commdlg_LBSelCha
  454170 6e 67 65 64 4e 6f 74 69 66 79 00 00 00 84 45 00  ngedNotify....E.
  454180 f9 3f 43 00 ee 3f 43 00 f4 3f 43 00 3d 40 43 00  .?C..?C..?C.=@C.
  454190 95 40 43 00 ee 40 43 00 6e 41 43 00 76 41 43 00  .@C..@C.nAC.vAC.
  4541a0 7e 41 43 00 86 41 43 00 8e 41 43 00 96 41 43 00  ~AC..AC..AC..AC.
  4541b0 9e 41 43 00 a6 41 43 00 25 30 32 64 00 00 00 00  .AC..AC.%02d....
  4541c0 48 84 45 00 d6 fd 40 00 ae fe 40 00 55 6e 6b 6e  H.E...@...@.Unkn
  4541d0 6f 77 6e 20 65 78 63 65 70 74 69 6f 6e 00 00 00  own exception...
  4541e0 90 84 45 00 e4 fe 40 00 63 73 6d e0 01 00 00 00  ..E...@.csm.....
  4541f0 00 00 00 00 00 00 00 00 03 00 00 00 20 05 93 19  ............ ...
  454200 00 00 00 00 00 00 00 00 ff ff ff ff 00 00 00 00  ................
  454210 2c 03 41 00 ff ff ff ff 00 00 00 00 84 03 41 00  ,.A...........A.
  454220 ff ff ff ff 2c 06 41 00 40 06 41 00 00 00 00 00  ....,.A.@.A.....
  454230 ff ff ff ff 00 00 00 00 ee 09 41 00 ff ff ff ff  ..........A.....
  454240 00 00 00 00 4a 0a 41 00 ff ff ff ff d4 0c 41 00  ....J.A.......A.
  454250 e8 0c 41 00 00 00 00 00 ff ff ff ff 00 00 00 00  ..A.............
  454260 21 14 41 00 ff ff ff ff 00 00 00 00 b6 14 41 00  !.A...........A.
  454270 ff ff ff ff 00 00 00 00 5d 15 41 00 ff ff ff ff  ........].A.....
  454280 00 00 00 00 d8 15 41 00 ff ff ff ff 00 00 00 00  ......A.........
  454290 bf 1a 41 00 00 00 00 00 ff ff ff ff 00 00 00 00  ..A.............
  4542a0 3f 1b 41 00 00 00 00 00 ff ff ff ff 93 1b 41 00  ?.A...........A.
  4542b0 9d 1b 41 00 48 3a 6d 6d 3a 73 73 00 64 64 64 64  ..A.H:mm:ss.dddd
  4542c0 2c 20 4d 4d 4d 4d 20 64 64 2c 20 79 79 79 79 00  , MMMM dd, yyyy.
  4542d0 4d 2f 64 2f 79 79 00 00 50 4d 00 00 41 4d 00 00  M/d/yy..PM..AM..
  4542e0 44 65 63 65 6d 62 65 72 00 00 00 00 4e 6f 76 65  December....Nove
  4542f0 6d 62 65 72 00 00 00 00 4f 63 74 6f 62 65 72 00  mber....October.
  454300 53 65 70 74 65 6d 62 65 72 00 00 00 41 75 67 75  September...Augu
  454310 73 74 00 00 4a 75 6c 79 00 00 00 00 4a 75 6e 65  st..July....June
  454320 00 00 00 00 41 70 72 69 6c 00 00 00 4d 61 72 63  ....April...Marc
  454330 68 00 00 00 46 65 62 72 75 61 72 79 00 00 00 00  h...February....
  454340 4a 61 6e 75 61 72 79 00 44 65 63 00 4e 6f 76 00  January.Dec.Nov.
  454350 4f 63 74 00 53 65 70 00 41 75 67 00 4a 75 6c 00  Oct.Sep.Aug.Jul.
  454360 4a 75 6e 00 4d 61 79 00 41 70 72 00 4d 61 72 00  Jun.May.Apr.Mar.
  454370 46 65 62 00 4a 61 6e 00 53 61 74 75 72 64 61 79  Feb.Jan.Saturday
  454380 00 00 00 00 46 72 69 64 61 79 00 00 54 68 75 72  ....Friday..Thur
  454390 73 64 61 79 00 00 00 00 57 65 64 6e 65 73 64 61  sday....Wednesda
  4543a0 79 00 00 00 54 75 65 73 64 61 79 00 4d 6f 6e 64  y...Tuesday.Mond
  4543b0 61 79 00 00 53 75 6e 64 61 79 00 00 53 61 74 00  ay..Sunday..Sat.
  4543c0 46 72 69 00 54 68 75 00 57 65 64 00 54 75 65 00  Fri.Thu.Wed.Tue.
  4543d0 4d 6f 6e 00 53 75 6e 00 61 2f 70 00 61 6d 2f 70  Mon.Sun.a/p.am/p
  4543e0 6d 00 00 00 00 00 00 00 ff ff ff ff d5 30 41 00  m............0A.
  4543f0 df 30 41 00 00 00 00 00 ff ff ff ff 00 00 00 00  .0A.............
  454400 64 32 41 00 00 00 00 00 42 32 41 00 4c 32 41 00  d2A.....B2A.L2A.
  454410 ff ff ff ff 9a 34 41 00 9e 34 41 00 00 00 00 00  .....4A..4A.....
  454420 ff ff ff ff fc 34 41 00 05 35 41 00 00 00 00 00  .....4A..5A.....
  454430 ff ff ff ff 00 00 00 00 70 37 41 00 00 00 00 00  ........p7A.....
  454440 5c 37 41 00 60 37 41 00 ff ff ff ff 00 00 00 00  \7A.`7A.........
  454450 de 37 41 00 00 00 00 00 ca 37 41 00 ce 37 41 00  .7A......7A..7A.
  454460 ff ff ff ff 00 00 00 00 66 39 41 00 ff ff ff ff  ........f9A.....
  454470 00 00 00 00 b6 3a 41 00 00 00 00 00 00 00 00 00  .....:A.........
  454480 ff ff ff ff d4 3d 41 00 d8 3d 41 00 ff ff ff ff  .....=A..=A.....
  454490 88 3e 41 00 8c 3e 41 00 00 00 00 00 00 00 f0 3f  .>A..>A........?
  4544a0 00 00 00 c0 7e 01 50 41 00 00 00 80 ff ff 47 41  ....~.PA......GA
  4544b0 49 73 50 72 6f 63 65 73 73 6f 72 46 65 61 74 75  IsProcessorFeatu
  4544c0 72 65 50 72 65 73 65 6e 74 00 00 00 00 00 00 00  rePresent.......
  4544d0 00 00 00 00 00 00 00 00 65 2b 30 30 30 00 00 00  ........e+000...
  4544e0 5f 5f 47 4c 4f 42 41 4c 5f 48 45 41 50 5f 53 45  __GLOBAL_HEAP_SE
  4544f0 4c 45 43 54 45 44 00 00 5f 5f 4d 53 56 43 52 54  LECTED..__MSVCRT
  454500 5f 48 45 41 50 5f 53 45 4c 45 43 54 00 00 00 00  _HEAP_SELECT....
  454510 72 75 6e 74 69 6d 65 20 65 72 72 6f 72 20 00 00  runtime error ..
  454520 54 4c 4f 53 53 20 65 72 72 6f 72 0d 0a 00 00 00  TLOSS error.....
  454530 53 49 4e 47 20 65 72 72 6f 72 0d 0a 00 00 00 00  SING error......
  454540 44 4f 4d 41 49 4e 20 65 72 72 6f 72 0d 0a 00 00  DOMAIN error....
  454550 52 36 30 32 38 0d 0a 2d 20 75 6e 61 62 6c 65 20  R6028..- unable 
  454560 74 6f 20 69 6e 69 74 69 61 6c 69 7a 65 20 68 65  to initialize he
  454570 61 70 0d 0a 00 00 00 00 52 36 30 32 37 0d 0a 2d  ap......R6027..-
  454580 20 6e 6f 74 20 65 6e 6f 75 67 68 20 73 70 61 63   not enough spac
  454590 65 20 66 6f 72 20 6c 6f 77 69 6f 20 69 6e 69 74  e for lowio init
  4545a0 69 61 6c 69 7a 61 74 69 6f 6e 0d 0a 00 00 00 00  ialization......
  4545b0 52 36 30 32 36 0d 0a 2d 20 6e 6f 74 20 65 6e 6f  R6026..- not eno
  4545c0 75 67 68 20 73 70 61 63 65 20 66 6f 72 20 73 74  ugh space for st
  4545d0 64 69 6f 20 69 6e 69 74 69 61 6c 69 7a 61 74 69  dio initializati
  4545e0 6f 6e 0d 0a 00 00 00 00 52 36 30 32 35 0d 0a 2d  on......R6025..-
  4545f0 20 70 75 72 65 20 76 69 72 74 75 61 6c 20 66 75   pure virtual fu
  454600 6e 63 74 69 6f 6e 20 63 61 6c 6c 0d 0a 00 00 00  nction call.....
  454610 52 36 30 32 34 0d 0a 2d 20 6e 6f 74 20 65 6e 6f  R6024..- not eno
  454620 75 67 68 20 73 70 61 63 65 20 66 6f 72 20 5f 6f  ugh space for _o
  454630 6e 65 78 69 74 2f 61 74 65 78 69 74 20 74 61 62  nexit/atexit tab
  454640 6c 65 0d 0a 00 00 00 00 52 36 30 31 39 0d 0a 2d  le......R6019..-
  454650 20 75 6e 61 62 6c 65 20 74 6f 20 6f 70 65 6e 20   unable to open 
  454660 63 6f 6e 73 6f 6c 65 20 64 65 76 69 63 65 0d 0a  console device..
  454670 00 00 00 00 52 36 30 31 38 0d 0a 2d 20 75 6e 65  ....R6018..- une
  454680 78 70 65 63 74 65 64 20 68 65 61 70 20 65 72 72  xpected heap err
  454690 6f 72 0d 0a 00 00 00 00 52 36 30 31 37 0d 0a 2d  or......R6017..-
  4546a0 20 75 6e 65 78 70 65 63 74 65 64 20 6d 75 6c 74   unexpected mult
  4546b0 69 74 68 72 65 61 64 20 6c 6f 63 6b 20 65 72 72  ithread lock err
  4546c0 6f 72 0d 0a 00 00 00 00 52 36 30 31 36 0d 0a 2d  or......R6016..-
  4546d0 20 6e 6f 74 20 65 6e 6f 75 67 68 20 73 70 61 63   not enough spac
  4546e0 65 20 66 6f 72 20 74 68 72 65 61 64 20 64 61 74  e for thread dat
  4546f0 61 0d 0a 00 0d 0a 61 62 6e 6f 72 6d 61 6c 20 70  a.....abnormal p
  454700 72 6f 67 72 61 6d 20 74 65 72 6d 69 6e 61 74 69  rogram terminati
  454710 6f 6e 0d 0a 00 00 00 00 52 36 30 30 39 0d 0a 2d  on......R6009..-
  454720 20 6e 6f 74 20 65 6e 6f 75 67 68 20 73 70 61 63   not enough spac
  454730 65 20 66 6f 72 20 65 6e 76 69 72 6f 6e 6d 65 6e  e for environmen
  454740 74 0d 0a 00 52 36 30 30 38 0d 0a 2d 20 6e 6f 74  t...R6008..- not
  454750 20 65 6e 6f 75 67 68 20 73 70 61 63 65 20 66 6f   enough space fo
  454760 72 20 61 72 67 75 6d 65 6e 74 73 0d 0a 00 00 00  r arguments.....
  454770 52 36 30 30 32 0d 0a 2d 20 66 6c 6f 61 74 69 6e  R6002..- floatin
  454780 67 20 70 6f 69 6e 74 20 6e 6f 74 20 6c 6f 61 64  g point not load
  454790 65 64 0d 0a 00 00 00 00 4d 69 63 72 6f 73 6f 66  ed......Microsof
  4547a0 74 20 56 69 73 75 61 6c 20 43 2b 2b 20 52 75 6e  t Visual C++ Run
  4547b0 74 69 6d 65 20 4c 69 62 72 61 72 79 00 00 00 00  time Library....
  4547c0 0a 0a 00 00 52 75 6e 74 69 6d 65 20 45 72 72 6f  ....Runtime Erro
  4547d0 72 21 0a 0a 50 72 6f 67 72 61 6d 3a 20 00 00 00  r!..Program: ...
  4547e0 2e 2e 2e 00 3c 70 72 6f 67 72 61 6d 20 6e 61 6d  ....<program nam
  4547f0 65 20 75 6e 6b 6e 6f 77 6e 3e 00 00 00 00 00 00  e unknown>......
  454800 ff ff ff ff 00 00 00 00 49 6f 41 00 ff ff ff ff  ........IoA.....
  454810 00 00 00 00 d2 6f 41 00 06 00 00 06 00 01 00 00  .....oA.........
  454820 10 00 03 06 00 06 02 10 04 45 45 45 05 05 05 05  .........EEE....
  454830 05 35 30 00 50 00 00 00 00 20 28 38 50 58 07 08  .50.P.... (8PX..
  454840 00 37 30 30 57 50 07 00 00 20 20 08 00 00 00 00  .700WP...  .....
  454850 08 60 68 60 60 60 60 00 00 70 70 78 78 78 78 08  .`h````..ppxxxx.
  454860 07 08 00 00 07 00 08 08 08 00 00 08 00 08 00 07  ................
  454870 08 00 00 00 28 00 6e 00 75 00 6c 00 6c 00 29 00  ....(.n.u.l.l.).
  454880 00 00 00 00 28 6e 75 6c 6c 29 00 00 00 00 00 00  ....(null)......
  454890 ff ff ff ff d1 7a 41 00 d5 7a 41 00 53 75 6e 4d  .....zA..zA.SunM
  4548a0 6f 6e 54 75 65 57 65 64 54 68 75 46 72 69 53 61  onTueWedThuFriSa
  4548b0 74 00 00 00 4a 61 6e 46 65 62 4d 61 72 41 70 72  t...JanFebMarApr
  4548c0 4d 61 79 4a 75 6e 4a 75 6c 41 75 67 53 65 70 4f  MayJunJulAugSepO
  4548d0 63 74 4e 6f 76 44 65 63 00 00 00 00 54 5a 00 00  ctNovDec....TZ..
  4548e0 4c 43 5f 54 49 4d 45 00 4c 43 5f 4e 55 4d 45 52  LC_TIME.LC_NUMER
  4548f0 49 43 00 00 4c 43 5f 4d 4f 4e 45 54 41 52 59 00  IC..LC_MONETARY.
  454900 4c 43 5f 43 54 59 50 45 00 00 00 00 4c 43 5f 43  LC_CTYPE....LC_C
  454910 4f 4c 4c 41 54 45 00 00 4c 43 5f 41 4c 4c 00 00  OLLATE..LC_ALL..
  454920 3d 3b 00 00 3d 00 00 00 5f 2e 2c 00 5f 00 00 00  =;..=..._.,._...
  454930 47 65 74 4c 61 73 74 41 63 74 69 76 65 50 6f 70  GetLastActivePop
  454940 75 70 00 00 47 65 74 41 63 74 69 76 65 57 69 6e  up..GetActiveWin
  454950 64 6f 77 00 4d 65 73 73 61 67 65 42 6f 78 41 00  dow.MessageBoxA.
  454960 75 73 65 72 33 32 2e 64 6c 6c 00 00 50 61 72 61  user32.dll..Para
  454970 67 75 61 79 00 00 00 00 55 72 75 67 75 61 79 00  guay....Uruguay.
  454980 43 68 69 6c 65 00 00 00 45 63 75 61 64 6f 72 00  Chile...Ecuador.
  454990 41 72 67 65 6e 74 69 6e 61 00 00 00 50 65 72 75  Argentina...Peru
  4549a0 00 00 00 00 43 6f 6c 6f 6d 62 69 61 00 00 00 00  ....Colombia....
  4549b0 56 65 6e 65 7a 75 65 6c 61 00 00 00 44 6f 6d 69  Venezuela...Domi
  4549c0 6e 69 63 61 6e 20 52 65 70 75 62 6c 69 63 00 00  nican Republic..
  4549d0 53 6f 75 74 68 20 41 66 72 69 63 61 00 00 00 00  South Africa....
  4549e0 50 61 6e 61 6d 61 00 00 4c 75 78 65 6d 62 6f 75  Panama..Luxembou
  4549f0 72 67 00 00 43 6f 73 74 61 20 52 69 63 61 00 00  rg..Costa Rica..
  454a00 53 77 69 74 7a 65 72 6c 61 6e 64 00 47 75 61 74  Switzerland.Guat
  454a10 65 6d 61 6c 61 00 00 00 43 61 6e 61 64 61 00 00  emala...Canada..
  454a20 53 70 61 6e 69 73 68 20 2d 20 4d 6f 64 65 72 6e  Spanish - Modern
  454a30 20 53 6f 72 74 00 00 00 41 75 73 74 72 61 6c 69   Sort...Australi
  454a40 61 00 00 00 45 6e 67 6c 69 73 68 00 41 75 73 74  a...English.Aust
  454a50 72 69 61 00 47 65 72 6d 61 6e 00 00 42 65 6c 67  ria.German..Belg
  454a60 69 75 6d 00 4d 65 78 69 63 6f 00 00 53 70 61 6e  ium.Mexico..Span
  454a70 69 73 68 00 42 61 73 71 75 65 00 00 53 77 65 64  ish.Basque..Swed
  454a80 65 6e 00 00 53 77 65 64 69 73 68 00 49 63 65 6c  en..Swedish.Icel
  454a90 61 6e 64 00 49 63 65 6c 61 6e 64 69 63 00 00 00  and.Icelandic...
  454aa0 46 72 61 6e 63 65 00 00 46 72 65 6e 63 68 00 00  France..French..
  454ab0 46 69 6e 6c 61 6e 64 00 46 69 6e 6e 69 73 68 00  Finland.Finnish.
  454ac0 53 70 61 69 6e 00 00 00 53 70 61 6e 69 73 68 20  Spain...Spanish 
  454ad0 2d 20 54 72 61 64 69 74 69 6f 6e 61 6c 20 53 6f  - Traditional So
  454ae0 72 74 00 00 75 6e 69 74 65 64 2d 73 74 61 74 65  rt..united-state
  454af0 73 00 00 00 75 6e 69 74 65 64 2d 6b 69 6e 67 64  s...united-kingd
  454b00 6f 6d 00 00 74 72 69 6e 69 64 61 64 20 26 20 74  om..trinidad & t
  454b10 6f 62 61 67 6f 00 00 00 73 6f 75 74 68 2d 6b 6f  obago...south-ko
  454b20 72 65 61 00 73 6f 75 74 68 2d 61 66 72 69 63 61  rea.south-africa
  454b30 00 00 00 00 73 6f 75 74 68 20 6b 6f 72 65 61 00  ....south korea.
  454b40 73 6f 75 74 68 20 61 66 72 69 63 61 00 00 00 00  south africa....
  454b50 73 6c 6f 76 61 6b 00 00 70 75 65 72 74 6f 2d 72  slovak..puerto-r
  454b60 69 63 6f 00 70 72 2d 63 68 69 6e 61 00 00 00 00  ico.pr-china....
  454b70 70 72 20 63 68 69 6e 61 00 00 00 00 6e 7a 00 00  pr china....nz..
  454b80 6e 65 77 2d 7a 65 61 6c 61 6e 64 00 68 6f 6e 67  new-zealand.hong
  454b90 2d 6b 6f 6e 67 00 00 00 68 6f 6c 6c 61 6e 64 00  -kong...holland.
  454ba0 67 72 65 61 74 20 62 72 69 74 61 69 6e 00 00 00  great britain...
  454bb0 65 6e 67 6c 61 6e 64 00 63 7a 65 63 68 00 00 00  england.czech...
  454bc0 63 68 69 6e 61 00 00 00 62 72 69 74 61 69 6e 00  china...britain.
  454bd0 61 6d 65 72 69 63 61 00 75 73 61 00 75 73 00 00  america.usa.us..
  454be0 75 6b 00 00 73 77 69 73 73 00 00 00 73 77 65 64  uk..swiss...swed
  454bf0 69 73 68 2d 66 69 6e 6c 61 6e 64 00 73 70 61 6e  ish-finland.span
  454c00 69 73 68 2d 76 65 6e 65 7a 75 65 6c 61 00 00 00  ish-venezuela...
  454c10 73 70 61 6e 69 73 68 2d 75 72 75 67 75 61 79 00  spanish-uruguay.
  454c20 73 70 61 6e 69 73 68 2d 70 75 65 72 74 6f 20 72  spanish-puerto r
  454c30 69 63 6f 00 73 70 61 6e 69 73 68 2d 70 65 72 75  ico.spanish-peru
  454c40 00 00 00 00 73 70 61 6e 69 73 68 2d 70 61 72 61  ....spanish-para
  454c50 67 75 61 79 00 00 00 00 73 70 61 6e 69 73 68 2d  guay....spanish-
  454c60 70 61 6e 61 6d 61 00 00 73 70 61 6e 69 73 68 2d  panama..spanish-
  454c70 6e 69 63 61 72 61 67 75 61 00 00 00 73 70 61 6e  nicaragua...span
  454c80 69 73 68 2d 6d 6f 64 65 72 6e 00 00 73 70 61 6e  ish-modern..span
  454c90 69 73 68 2d 6d 65 78 69 63 61 6e 00 73 70 61 6e  ish-mexican.span
  454ca0 69 73 68 2d 68 6f 6e 64 75 72 61 73 00 00 00 00  ish-honduras....
  454cb0 73 70 61 6e 69 73 68 2d 67 75 61 74 65 6d 61 6c  spanish-guatemal
  454cc0 61 00 00 00 73 70 61 6e 69 73 68 2d 65 6c 20 73  a...spanish-el s
  454cd0 61 6c 76 61 64 6f 72 00 73 70 61 6e 69 73 68 2d  alvador.spanish-
  454ce0 65 63 75 61 64 6f 72 00 73 70 61 6e 69 73 68 2d  ecuador.spanish-
  454cf0 64 6f 6d 69 6e 69 63 61 6e 20 72 65 70 75 62 6c  dominican republ
  454d00 69 63 00 00 73 70 61 6e 69 73 68 2d 63 6f 73 74  ic..spanish-cost
  454d10 61 20 72 69 63 61 00 00 73 70 61 6e 69 73 68 2d  a rica..spanish-
  454d20 63 6f 6c 6f 6d 62 69 61 00 00 00 00 73 70 61 6e  colombia....span
  454d30 69 73 68 2d 63 68 69 6c 65 00 00 00 73 70 61 6e  ish-chile...span
  454d40 69 73 68 2d 62 6f 6c 69 76 69 61 00 73 70 61 6e  ish-bolivia.span
  454d50 69 73 68 2d 61 72 67 65 6e 74 69 6e 61 00 00 00  ish-argentina...
  454d60 70 6f 72 74 75 67 75 65 73 65 2d 62 72 61 7a 69  portuguese-brazi
  454d70 6c 69 61 6e 00 00 00 00 6e 6f 72 77 65 67 69 61  lian....norwegia
  454d80 6e 2d 6e 79 6e 6f 72 73 6b 00 00 00 6e 6f 72 77  n-nynorsk...norw
  454d90 65 67 69 61 6e 2d 62 6f 6b 6d 61 6c 00 00 00 00  egian-bokmal....
  454da0 6e 6f 72 77 65 67 69 61 6e 00 00 00 69 74 61 6c  norwegian...ital
  454db0 69 61 6e 2d 73 77 69 73 73 00 00 00 69 72 69 73  ian-swiss...iris
  454dc0 68 2d 65 6e 67 6c 69 73 68 00 00 00 67 65 72 6d  h-english...germ
  454dd0 61 6e 2d 73 77 69 73 73 00 00 00 00 67 65 72 6d  an-swiss....germ
  454de0 61 6e 2d 6c 75 78 65 6d 62 6f 75 72 67 00 00 00  an-luxembourg...
  454df0 67 65 72 6d 61 6e 2d 6c 69 63 68 74 65 6e 73 74  german-lichtenst
  454e00 65 69 6e 00 67 65 72 6d 61 6e 2d 61 75 73 74 72  ein.german-austr
  454e10 69 61 6e 00 66 72 65 6e 63 68 2d 73 77 69 73 73  ian.french-swiss
  454e20 00 00 00 00 66 72 65 6e 63 68 2d 6c 75 78 65 6d  ....french-luxem
  454e30 62 6f 75 72 67 00 00 00 66 72 65 6e 63 68 2d 63  bourg...french-c
  454e40 61 6e 61 64 69 61 6e 00 66 72 65 6e 63 68 2d 62  anadian.french-b
  454e50 65 6c 67 69 61 6e 00 00 65 6e 67 6c 69 73 68 2d  elgian..english-
  454e60 75 73 61 00 65 6e 67 6c 69 73 68 2d 75 73 00 00  usa.english-us..
  454e70 65 6e 67 6c 69 73 68 2d 75 6b 00 00 65 6e 67 6c  english-uk..engl
  454e80 69 73 68 2d 74 72 69 6e 69 64 61 64 20 79 20 74  ish-trinidad y t
  454e90 6f 62 61 67 6f 00 00 00 65 6e 67 6c 69 73 68 2d  obago...english-
  454ea0 73 6f 75 74 68 20 61 66 72 69 63 61 00 00 00 00  south africa....
  454eb0 65 6e 67 6c 69 73 68 2d 6e 7a 00 00 65 6e 67 6c  english-nz..engl
  454ec0 69 73 68 2d 6a 61 6d 61 69 63 61 00 65 6e 67 6c  ish-jamaica.engl
  454ed0 69 73 68 2d 69 72 65 00 65 6e 67 6c 69 73 68 2d  ish-ire.english-
  454ee0 63 61 72 69 62 62 65 61 6e 00 00 00 65 6e 67 6c  caribbean...engl
  454ef0 69 73 68 2d 63 61 6e 00 65 6e 67 6c 69 73 68 2d  ish-can.english-
  454f00 62 65 6c 69 7a 65 00 00 65 6e 67 6c 69 73 68 2d  belize..english-
  454f10 61 75 73 00 65 6e 67 6c 69 73 68 2d 61 6d 65 72  aus.english-amer
  454f20 69 63 61 6e 00 00 00 00 64 75 74 63 68 2d 62 65  ican....dutch-be
  454f30 6c 67 69 61 6e 00 00 00 63 68 69 6e 65 73 65 2d  lgian...chinese-
  454f40 74 72 61 64 69 74 69 6f 6e 61 6c 00 63 68 69 6e  traditional.chin
  454f50 65 73 65 2d 73 69 6e 67 61 70 6f 72 65 00 00 00  ese-singapore...
  454f60 63 68 69 6e 65 73 65 2d 73 69 6d 70 6c 69 66 69  chinese-simplifi
  454f70 65 64 00 00 63 68 69 6e 65 73 65 2d 68 6f 6e 67  ed..chinese-hong
  454f80 6b 6f 6e 67 00 00 00 00 63 68 69 6e 65 73 65 00  kong....chinese.
  454f90 63 68 69 00 63 68 68 00 63 61 6e 61 64 69 61 6e  chi.chh.canadian
  454fa0 00 00 00 00 62 65 6c 67 69 61 6e 00 61 75 73 74  ....belgian.aust
  454fb0 72 61 6c 69 61 6e 00 00 61 6d 65 72 69 63 61 6e  ralian..american
  454fc0 2d 65 6e 67 6c 69 73 68 00 00 00 00 61 6d 65 72  -english....amer
  454fd0 69 63 61 6e 20 65 6e 67 6c 69 73 68 00 00 00 00  ican english....
  454fe0 61 6d 65 72 69 63 61 6e 00 00 00 00 4f 43 50 00  american....OCP.
  454ff0 41 43 50 00 31 23 51 4e 41 4e 00 00 31 23 49 4e  ACP.1#QNAN..1#IN
  455000 46 00 00 00 31 23 49 4e 44 00 00 00 31 23 53 4e  F...1#IND...1#SN
  455010 41 4e 00 00 00 00 00 00 ff ff ff ff d5 c4 41 00  AN............A.
  455020 d9 c4 41 00 ff ff ff ff 32 c5 41 00 36 c5 41 00  ..A.....2.A.6.A.
  455030 ff ff ff ff 14 cc 41 00 18 cc 41 00 ff ff ff ff  ......A...A.....
  455040 83 cc 41 00 87 cc 41 00 ff ff ff ff 04 d0 41 00  ..A...A.......A.
  455050 08 d0 41 00 00 00 00 00 ff ff ff ff 1d d1 41 00  ..A...........A.
  455060 21 d1 41 00 33 02 f3 80 df b7 d2 11 a3 3b 00 60  !.A.3........;.`
  455070 97 df 5b d4 e4 f4 3e e1 f2 d2 d0 11 98 16 00 c0  ..[...>.........
  455080 4f d9 19 72 94 9a 6a 59 3e 01 d1 11 8d 34 00 a0  O..r..jY>....4..
  455090 c9 0f 27 19 10 66 b9 40 22 b5 d1 11 b3 b4 00 aa  ..'..f.@".......
  4550a0 00 6e fd e7 10 a8 93 94 38 ec d0 11 bc 46 00 aa  .n......8....F..
  4550b0 00 6c e2 f5 12 0a 9f 5c 9e 95 d0 11 a3 a4 00 a0  .l.....\........
  4550c0 c9 08 26 36 b4 7e c1 a6 65 2d d2 11 83 8f 00 c0  ..&6.~..e-......
  4550d0 4f d9 18 d0 64 a6 3c 74 eb 0d d1 11 98 25 00 c0  O...d.<t.....%..
  4550e0 4f d9 19 72 f4 ba 5e 16 51 6d d2 11 83 ad 00 c0  O..r..^.Qm......
  4550f0 4f d9 18 d0 eb af e7 d1 2e 6a d0 11 8c 78 00 c0  O........j...x..
  455100 4f d9 18 b4 ec 8e 27 8c ab 3e d1 11 8c b0 00 c0  O.....'..>......
  455110 4f d9 18 d0 20 c0 9c ed b9 08 d1 11 98 23 00 c0  O... ........#..
  455120 4f d9 19 72 c0 13 53 6d 62 8c d1 11 b2 cd 00 60  O..r..Smb......`
  455130 97 df 8c 11 80 ff 34 44 4c ef ce 11 ae 65 08 00  ......4DL....e..
  455140 2b 2e 12 62 b0 e2 2b d8 64 57 d0 11 a9 6e 00 c0  +..b..+.dW...n..
  455150 4f d7 05 a2 21 bf 5c 0e 5f d1 d0 11 83 01 00 aa  O...!.\._.......
  455160 00 5b 43 83 e0 05 d6 87 11 c5 cf 11 89 a9 00 a0  .[C.............
  455170 c9 05 41 29 40 fc ad fa 77 b7 69 4b aa 81 77 03  ..A)@...w.iK..w.
  455180 5e f0 e6 e8 e3 a4 21 46 d6 f0 73 47 8a 9c 46 e7  ^.....!F..sG..F.
  455190 7b 17 48 40 28 e2 81 39 59 f5 d3 11 8e 3a 00 c0  {.H@(..9Y....:..
  4551a0 4f 68 37 d5 ab b3 eb 1c 10 7c 9a 49 a4 17 92 ca  Oh7......|.I....
  4551b0 16 c4 cb 83 27 e2 81 39 59 f5 d3 11 8e 3a 00 c0  ....'..9Y....:..
  4551c0 4f 68 37 d5 26 e2 81 39 59 f5 d3 11 8e 3a 00 c0  Oh7.&..9Y....:..
  4551d0 4f 68 37 d5 25 e2 81 39 59 f5 d3 11 8e 3a 00 c0  Oh7.%..9Y....:..
  4551e0 4f 68 37 d5 24 e2 81 39 59 f5 d3 11 8e 3a 00 c0  Oh7.$..9Y....:..
  4551f0 4f 68 37 d5 00 a3 69 d9 ff e7 d0 11 a9 3b 00 a0  Oh7...i......;..
  455200 c9 0f 27 19 26 48 c7 53 99 ab 33 4d ac a4 31 17  ..'.&H.S..3M..1.
  455210 f5 1d 37 88 a2 0f f1 fe 5e 35 06 4e 93 81 9b 24  ..7.....^5.N...$
  455220 d7 f7 cc 88 5d 93 9a 88 1e 97 12 4b b9 0c 24 df  ....]......K..$.
  455230 c9 e1 e5 e8 00 b5 e1 49 36 46 d3 11 97 f7 00 c0  .......I6F......
  455240 4f 45 d0 b3 10 8d e1 01 8b 4d d2 11 85 5d 00 60  OE.......M...].`
  455250 08 05 93 67 b4 f3 50 30 b5 98 cf 11 bb 82 00 aa  ...g..P0........
  455260 00 bd ce 0b b3 f3 50 30 b5 98 cf 11 bb 82 00 aa  ......P0........
  455270 00 bd ce 0b bb f3 50 30 b5 98 cf 11 bb 82 00 aa  ......P0........
  455280 00 bd ce 0b 86 f7 5b de 7a 47 d2 11 83 9d 00 c0  ......[.zG......
  455290 4f d9 18 d0 8b 27 57 46 1b 41 d2 11 83 9a 00 c0  O....'WF.A......
  4552a0 4f d9 18 d0 8a 27 57 46 1b 41 d2 11 83 9a 00 c0  O....'WF.A......
  4552b0 4f d9 18 d0 92 84 51 12 b2 00 d2 11 9f a5 9e 34  O.....Q........4
  4552c0 20 52 41 53 5f 65 b8 ff b9 81 ce 4f b8 9c 9a 6b   RAS_e.....O...k
  4552d0 a7 6d 13 e7 93 84 51 12 b2 00 d2 11 9f a5 9e 34  .m....Q........4
  4552e0 20 52 41 53 e1 0b 70 0e b6 9d d1 11 a1 ce 00 c0   RAS..p.........
  4552f0 4f d7 5d 13 90 1c 69 49 17 7e 1a 10 a9 1c 08 00  O.]...iI.~......
  455300 2b 2e cd a9 35 4b 17 9b ff 40 d2 11 a2 7e 00 c0  +...5K...@...~..
  455310 4f c3 08 71 e4 19 ac ae ae 89 08 45 b9 b7 bb 86  O..q.......E....
  455320 7a be e2 ed 2e 37 a3 56 9c ce d2 11 9f 0e 00 60  z....7.V.......`
  455330 97 c6 86 f6 80 54 27 f2 82 f7 91 42 bd 94 f1 36  .....T'....B...6
  455340 93 51 3a ec 34 4b 17 9b ff 40 d2 11 a2 7e 00 c0  .Q:.4K...@...~..
  455350 4f c3 08 71 21 8b 8d 32 29 77 fc 4b 95 4c 90 2b  O..q!..2)w.K.L.+
  455360 32 9d 56 b0 33 4b 17 9b ff 40 d2 11 a2 7e 00 c0  2.V.3K...@...~..
  455370 4f c3 08 71 a1 1d b8 14 35 01 31 4d 96 d9 6c bf  O..q....5.1M..l.
  455380 c9 67 1a 99 30 f1 25 b7 ef 47 1a 10 a5 f1 02 60  .g..0.%..G.....`
  455390 8c 9e eb ac a6 6a 63 28 3d 95 d2 11 b5 d6 00 c0  .....jc(=.......
  4553a0 4f d9 18 d0 8c f6 f2 93 1b 1d d3 11 a3 0e 00 c0  O...............
  4553b0 4f 79 ab d1 52 e9 57 70 1b bd d1 11 89 19 00 c0  Oy..R.Wp........
  4553c0 4f c2 c8 36 a0 c7 cc cf 82 a2 d1 11 90 82 00 60  O..6...........`
  4553d0 08 05 93 82 d8 b5 e4 2c 8f a2 d2 11 86 c5 00 c0  .......,........
  4553e0 4f 8e ea 99 b8 34 8f 17 82 a2 d2 11 86 c5 00 c0  O....4..........
  4553f0 4f 8e ea 99 80 69 79 1e c5 9c d1 11 a8 3f 00 c0  O....iy......?..
  455400 4f c9 9d 61 30 04 70 fb 2c 95 d1 11 94 6f 00 00  O..a0.p.,....o..
  455410 00 00 00 00 50 87 a6 93 1a 95 d1 11 94 6f 00 00  ....P........o..
  455420 00 00 00 00 c4 74 2e 0d 34 3c d2 11 a2 7e 00 c0  .....t..4<...~..
  455430 4f c3 08 71 02 4f f1 24 1c 7b d1 11 83 8f 00 00  O..q.O.$.{......
  455440 f8 04 61 cf 01 4f f1 24 1c 7b d1 11 83 8f 00 00  ..a..O.$.{......
  455450 f8 04 61 cf 04 50 02 e8 42 1c d2 11 be 2c 00 a0  ..a..P..B....,..
  455460 c9 a8 3d a1 fd 34 70 a0 aa 6c 54 49 ac 3f 97 a2  ..=..4p..lTI.?..
  455470 72 16 f9 8a 90 a5 6c c4 3f 3c d2 11 be e6 00 00  r.....l.?<......
  455480 f8 05 ca 57 c0 05 a1 d2 d5 87 d1 11 83 91 00 00  ...W............
  455490 f8 04 61 cf 41 60 c2 74 d1 70 d1 11 b7 5a 00 a0  ..a.A`.t.p...Z..
  4554a0 c9 05 64 fe e2 54 27 b2 74 45 d1 11 98 88 00 60  ..d..T'.tE.....`
  4554b0 97 de ac f9 e0 2e 50 52 80 ec d0 11 89 ab 00 c0  ......PR........
  4554c0 4f c2 97 2d 00 eb 90 f4 40 12 d1 11 98 88 00 60  O..-....@......`
  4554d0 97 de ac f9 00 87 04 75 1f ef d0 11 98 88 00 60  .......u.......`
  4554e0 97 de ac f9 40 e5 91 b0 e3 83 cf 11 a7 13 00 20  ....@.......... 
  4554f0 af d7 97 62 40 be 96 4c 5c 91 cf 11 99 d3 00 aa  ...b@..L\.......
  455500 00 4a e8 37 04 7c bc eb 5e 31 d2 11 b6 2f 00 60  .J.7.|..^1.../.`
  455510 97 df 5b d4 52 38 38 f8 d3 fc d1 11 a6 b9 00 60  ..[.R88........`
  455520 97 df 5b d4 93 db 35 69 e8 21 cc 4c be b9 9f e3  ..[...5i.!.L....
  455530 c7 7a 29 7a 65 27 bb 00 77 6a d0 11 a5 35 00 c0  .z)ze'..wj...5..
  455540 4f d7 d0 62 41 a6 56 67 71 de d0 11 83 1b 00 aa  O..bA.Vgq.......
  455550 00 5b 43 83 f1 36 c0 03 86 a1 d0 11 82 4a 00 aa  .[C..6.......J..
  455560 00 5b 43 83 64 27 bb 00 77 6a d0 11 a5 35 00 c0  .[C.d'..wj...5..
  455570 4f d7 d0 62 63 27 bb 00 77 6a d0 11 a5 35 00 c0  O..bc'..wj...5..
  455580 4f d7 d0 62 21 6d 95 91 76 92 d1 11 92 1a 00 60  O..b!m..v......`
  455590 97 df 5b d4 a0 41 01 47 86 51 d2 11 bb b6 00 60  ..[..A.G.Q.....`
  4555a0 97 7b 46 4c b0 30 a1 77 fd 94 d0 11 a5 44 00 c0  .{FL.0.w.....D..
  4555b0 4f d7 d0 62 61 27 bb 00 77 6a d0 11 a5 35 00 c0  O..ba'..wj...5..
  4555c0 4f d7 d0 62 60 27 bb 00 77 6a d0 11 a5 35 00 c0  O..b`'..wj...5..
  4555d0 4f d7 d0 62 00 ae bf cf a6 17 d0 11 99 cb 00 c0  O..b............
  4555e0 4f d6 44 97 40 4a 37 3c e4 ba cf 11 bf 7d 00 aa  O.D.@J7<.....}..
  4555f0 00 69 46 ee a0 0d bb ca 57 da cf 11 99 74 00 20  .iF.....W....t. 
  455600 af d7 97 62 80 3b f2 fb f0 e3 1b 10 84 88 00 aa  ...b.;..........
  455610 00 3e 56 f8 40 3b f2 fb f0 e3 1b 10 84 88 00 aa  .>V.@;..........
  455620 00 3e 56 f8 b1 e2 2b d8 64 57 d0 11 a9 6e 00 c0  .>V...+.dW...n..
  455630 4f d7 05 a2 7c de c3 49 29 d3 d0 11 ab 73 00 c0  O...|..I)....s..
  455640 4f c3 3e 80 24 a6 ef 8e e9 d1 5b 44 94 b7 74 fb  O.>.$.....[D..t.
  455650 ce 2e a1 1a 90 b2 eb 8b d0 52 d0 11 b7 f4 00 c0  .........R......
  455660 4f d7 06 ec e5 25 f1 65 e1 7b 10 48 ba 9d d2 71  O....%.e.{.H...q
  455670 c8 43 2c e3 00 77 7e 13 73 35 cf 11 ae 69 08 00  .C,..w~.s5...i..
  455680 2b 2e 12 62 e0 a5 1f 0e 73 35 cf 11 ae 69 08 00  +..b....s5...i..
  455690 2b 2e 12 62 c0 00 90 08 73 35 cf 11 ae 69 08 00  +..b....s5...i..
  4556a0 2b 2e 12 62 e0 d0 57 00 73 35 cf 11 ae 69 08 00  +..b..W.s5...i..
  4556b0 2b 2e 12 62 a0 b7 0e 71 ed 45 d0 11 92 4a 00 20  +..b...q.E...J. 
  4556c0 af c7 ac 4d c8 0c e8 7f 47 c2 d0 11 b9 3a 00 a0  ...M....G....:..
  4556d0 c9 03 12 e1 26 ae 4d 5b 07 b8 d0 11 98 15 00 c0  ....&.M[........
  4556e0 4f d9 19 72 10 7f f0 4a 31 d2 d0 11 b9 42 00 a0  O..r...J1....B..
  4556f0 c9 03 12 e1 80 fe 12 6d 11 79 cf 11 95 34 00 00  .......m.y...4..
  455700 c0 5b ae 0b a0 e0 fc bc 17 ec d0 11 8d 10 00 a0  .[..............
  455710 c9 0f 27 19 80 cf bd 1e 00 a2 d0 11 a3 a4 00 c0  ..'.............
  455720 4f d7 06 ec 2b 58 fd 6d e3 92 d1 11 98 a3 00 c0  O...+X.m........
  455730 4f b6 87 da 8c 11 c8 48 24 b9 d1 11 98 d5 00 c0  O......H$.......
  455740 4f b6 87 da 66 92 a3 4e 11 72 9f 40 b6 22 f6 3d  O...f..N.r.@.".=
  455750 bd 16 c5 33 00 8d 78 85 07 68 d0 11 b8 10 00 c0  ...3..x..h......
  455760 4f d7 06 ec 34 5e 0b f1 3b dd a7 42 aa 7d 2f 4e  O...4^..;..B.}/N
  455770 c5 4b b0 9b 81 1f b5 63 68 c8 d0 11 99 9c 00 c0  .K.....ch.......
  455780 4f d6 55 e1 df 4f f0 ce 72 fe d2 11 87 a5 00 c0  O.U..O..r.......
  455790 4f 68 37 cf 20 e3 47 20 a9 f2 ce 11 ae 65 08 00  Oh7. .G .....e..
  4557a0 2b 2e 12 62 16 95 33 10 94 28 d2 11 90 39 00 c0  +..b..3..(...9..
  4557b0 4f 8e eb 3e 00 42 6c 0c 89 c5 d0 11 99 9a 00 c0  O..>.Bl.........
  4557c0 4f d6 55 e1 70 8a 68 7d 13 c6 d0 11 99 9b 00 c0  O.U.p.h}........
  4557d0 4f d6 55 e1 7a 65 d2 47 27 7b d0 11 8c a9 00 a0  O.U.ze.G'{......
  4557e0 c9 2d bf e8 c2 2f 34 2a 26 7b d0 11 8c a9 00 a0  .-.../4*&{......
  4557f0 c9 2d bf e8 92 83 db f1 31 73 d0 11 8c 99 00 a0  .-......1s......
  455800 c9 2d bf e8 aa 4f 28 68 48 6a d0 11 8c 78 00 c0  .-...O(hHj...x..
  455810 4f d9 18 b4 af f1 73 e7 65 3a 66 48 85 7d 84 6f  O.....s.e:fH.}.o
  455820 c9 c4 59 8a d1 ce fa 0a 28 e8 d1 11 91 87 b5 32  ..Y.....(......2
  455830 f1 e9 57 5d f0 64 5f 98 10 d4 02 4e be 22 da 07  ..W].d_....N."..
  455840 f2 b5 c5 e1 80 ba d8 ad 2b 00 d0 11 8f 0f 00 c0  ........+.......
  455850 4f d7 d0 62 a4 4d e4 5e 32 6d e3 46 86 bc 07 54  O..b.M.^2m.F...T
  455860 0d ed d0 e0 a2 56 f6 09 af 41 0c 48 88 f7 16 cc  .....V...A.H....
  455870 0d 16 46 15 a0 f6 60 ac d9 0f d0 11 99 cb 00 c0  ..F...`.........
  455880 4f d6 44 97 83 29 d5 5c 49 94 d2 11 96 3a 00 c0  O.D..).\I....:..
  455890 4f 79 ad f0 ae b4 e2 45 c3 b1 d0 11 b9 2f 00 a0  Oy.....E...../..
  4558a0 c9 03 12 e1 80 9e e3 88 78 35 cf 11 ae 69 08 00  ........x5...i..
  4558b0 2b 2e 12 62 a1 1f ce 8b 21 09 1b 10 b1 ff 00 dd  +..b....!.......
  4558c0 01 0c cc 48 00 15 02 00 00 00 00 00 c0 00 00 00  ...H............
  4558d0 00 00 00 46 fe 14 02 00 00 00 00 00 c0 00 00 00  ...F............
  4558e0 00 00 00 46 fc 14 02 00 00 00 00 00 c0 00 00 00  ...F............
  4558f0 00 00 00 46 fb 14 02 00 00 00 00 00 c0 00 00 00  ...F............
  455900 00 00 00 46 fa 14 02 00 00 00 00 00 c0 00 00 00  ...F............
  455910 00 00 00 46 f9 14 02 00 00 00 00 00 c0 00 00 00  ...F............
  455920 00 00 00 46 f8 14 02 00 00 00 00 00 c0 00 00 00  ...F............
  455930 00 00 00 46 f7 14 02 00 00 00 00 00 c0 00 00 00  ...F............
  455940 00 00 00 46 f6 14 02 00 00 00 00 00 c0 00 00 00  ...F............
  455950 00 00 00 46 f5 14 02 00 00 00 00 00 c0 00 00 00  ...F............
  455960 00 00 00 46 f4 14 02 00 00 00 00 00 c0 00 00 00  ...F............
  455970 00 00 00 46 f3 14 02 00 00 00 00 00 c0 00 00 00  ...F............
  455980 00 00 00 46 f2 14 02 00 00 00 00 00 c0 00 00 00  ...F............
  455990 00 00 00 46 f1 14 02 00 00 00 00 00 c0 00 00 00  ...F............
  4559a0 00 00 00 46 f0 14 02 00 00 00 00 00 c0 00 00 00  ...F............
  4559b0 00 00 00 46 ef 14 02 00 00 00 00 00 c0 00 00 00  ...F............
  4559c0 00 00 00 46 ee 14 02 00 00 00 00 00 c0 00 00 00  ...F............
  4559d0 00 00 00 46 ed 14 02 00 00 00 00 00 c0 00 00 00  ...F............
  4559e0 00 00 00 46 ec 14 02 00 00 00 00 00 c0 00 00 00  ...F............
  4559f0 00 00 00 46 eb 14 02 00 00 00 00 00 c0 00 00 00  ...F............
  455a00 00 00 00 46 ea 14 02 00 00 00 00 00 c0 00 00 00  ...F............
  455a10 00 00 00 46 e9 14 02 00 00 00 00 00 c0 00 00 00  ...F............
  455a20 00 00 00 46 e8 14 02 00 00 00 00 00 c0 00 00 00  ...F............
  455a30 00 00 00 46 e6 14 02 00 00 00 00 00 c0 00 00 00  ...F............
  455a40 00 00 00 46 e5 14 02 00 00 00 00 00 c0 00 00 00  ...F............
  455a50 00 00 00 46 e4 14 02 00 00 00 00 00 c0 00 00 00  ...F............
  455a60 00 00 00 46 e3 14 02 00 00 00 00 00 c0 00 00 00  ...F............
  455a70 00 00 00 46 e2 14 02 00 00 00 00 00 c0 00 00 00  ...F............
  455a80 00 00 00 46 e1 14 02 00 00 00 00 00 c0 00 00 00  ...F............
  455a90 00 00 00 46 d3 14 02 00 00 00 00 00 c0 00 00 00  ...F............
  455aa0 00 00 00 46 d2 14 02 00 00 00 00 00 c0 00 00 00  ...F............
  455ab0 00 00 00 46 d1 14 02 00 00 00 00 00 c0 00 00 00  ...F............
  455ac0 00 00 00 46 d0 14 02 00 00 00 00 00 c0 00 00 00  ...F............
  455ad0 00 00 00 46 a1 14 02 00 00 00 00 00 c0 00 00 00  ...F............
  455ae0 00 00 00 46 a0 14 02 00 00 00 00 00 c0 00 00 00  ...F............
  455af0 00 00 00 46 94 14 02 00 00 00 00 00 c0 00 00 00  ...F............
  455b00 00 00 00 46 93 14 02 00 00 00 00 00 c0 00 00 00  ...F............
  455b10 00 00 00 46 92 14 02 00 00 00 00 00 c0 00 00 00  ...F............
  455b20 00 00 00 46 91 14 02 00 00 00 00 00 c0 00 00 00  ...F............
  455b30 00 00 00 46 90 14 02 00 00 00 00 00 c0 00 00 00  ...F............
  455b40 00 00 00 46 ba 8f 0d 45 25 ad d0 11 98 a8 08 00  ...F...E%.......
  455b50 36 1b 11 03 80 a2 27 22 ea 3a 69 10 a2 de 08 00  6.....'".:i.....
  455b60 2b 30 30 9d 20 20 ec 21 ea 3a 69 10 a2 dd 08 00  +00.  .!.:i.....
  455b70 2b 30 30 9d 40 f0 5f 64 81 50 1b 10 9f 08 00 aa  +00.@._d.P......
  455b80 00 2f 95 4e a0 4b 36 f3 b9 65 ce 11 a9 ba 00 aa  ./.N.K6..e......
  455b90 00 4a e8 37 80 53 1c 87 a0 42 69 10 a2 ea 08 00  .J.7.S...Bi.....
  455ba0 2b 30 30 9d e0 4f d0 20 ea 3a 69 10 a2 d8 08 00  +00..O. .:i.....
  455bb0 2b 30 30 9d c0 54 a7 54 f0 4b d1 11 83 ee 00 a0  +00..T.T.K......
  455bc0 c9 0d c8 49 90 2a 54 c0 f0 4b d1 11 83 ee 00 a0  ...I.*T..K......
  455bd0 c9 0d c8 49 80 66 e0 46 f0 4b d1 11 83 ee 00 a0  ...I.f.F.K......
  455be0 c9 0d c8 49 60 2c 8d 20 ea 3a 69 10 a2 d7 08 00  ...I`,. .:i.....
  455bf0 2b 30 30 9d 01 14 02 00 00 00 00 00 c0 00 00 00  +00.............
  455c00 00 00 00 46 00 14 02 00 00 00 00 00 c0 00 00 00  ...F............
  455c10 00 00 00 46 34 00 00 00 00 00 00 00 c0 00 00 00  ...F4...........
  455c20 00 00 00 46 55 0d 38 72 2b 8d a3 43 85 13 2b 6e  ...FU.8r+..C..+n
  455c30 f3 14 34 e9 ce 01 00 00 00 00 00 00 c0 00 00 00  ..4.............
  455c40 00 00 00 46 d4 01 00 00 00 00 00 00 c0 00 00 00  ...F............
  455c50 00 00 00 46 d5 01 00 00 00 00 00 00 c0 00 00 00  ...F............
  455c60 00 00 00 46 c6 01 00 00 00 00 00 00 c0 00 00 00  ...F............
  455c70 00 00 00 46 c0 01 00 00 00 00 00 00 c0 00 00 00  ...F............
  455c80 00 00 00 46 c1 01 00 00 00 00 00 00 c0 00 00 00  ...F............
  455c90 00 00 00 46 de 90 79 94 28 cc d2 11 a0 f7 00 80  ...F..y.(.......
  455ca0 5f 85 8f b1 08 c7 9d 96 76 5c d1 11 8d 86 00 00  _.......v\......
  455cb0 f8 04 b0 57 cf 3a 2f db 86 2f d1 11 8e 04 00 c0  ...W.:/../......
  455cc0 4f b9 98 9a ce 3a 2f db 86 2f d1 11 8e 04 00 c0  O....:/../......
  455cd0 4f b9 98 9a cd 3a 2f db 86 2f d1 11 8e 04 00 c0  O....:/../......
  455ce0 4f b9 98 9a cc 3a 2f db 86 2f d1 11 8e 04 00 c0  O....:/../......
  455cf0 4f b9 98 9a cb 3a 2f db 86 2f d1 11 8e 04 00 c0  O....:/../......
  455d00 4f b9 98 9a ca 3a 2f db 86 2f d1 11 8e 04 00 c0  O....:/../......
  455d10 4f b9 98 9a 48 01 00 00 00 00 00 00 c0 00 00 00  O...H...........
  455d20 00 00 00 46 47 01 00 00 00 00 00 00 c0 00 00 00  ...FG...........
  455d30 00 00 00 46 45 01 00 00 00 00 00 00 c0 00 00 00  ...FE...........
  455d40 00 00 00 46 26 00 00 00 00 00 00 00 c0 00 00 00  ...F&...........
  455d50 00 00 00 46 2b 00 00 00 00 00 00 00 c0 00 00 00  ...F+...........
  455d60 00 00 00 46 e8 b9 0c eb 96 79 d2 11 87 2e 00 00  ...F.....y......
  455d70 f8 08 08 59 49 01 00 00 00 00 00 00 c0 00 00 00  ...YI...........
  455d80 00 00 00 46 30 3a 73 1c 1c 2a ce 11 ad e5 00 aa  ...F0:s..*......
  455d90 00 44 77 3d 2a 00 00 00 00 00 00 00 c0 00 00 00  .Dw=*...........
  455da0 00 00 00 46 29 00 00 00 00 00 00 00 c0 00 00 00  ...F)...........
  455db0 00 00 00 46 25 00 00 00 00 00 00 00 c0 00 00 00  ...F%...........
  455dc0 00 00 00 46 33 00 00 00 00 00 00 00 c0 00 00 00  ...F3...........
  455dd0 00 00 00 46 32 00 00 00 00 00 00 00 c0 00 00 00  ...F2...........
  455de0 00 00 00 46 31 00 00 00 00 00 00 00 c0 00 00 00  ...F1...........
  455df0 00 00 00 46 30 00 00 00 00 00 00 00 c0 00 00 00  ...F0...........
  455e00 00 00 00 46 92 4d 6d 0e 38 67 cf 11 96 08 00 aa  ...F.Mm.8g......
  455e10 00 68 0d b4 46 01 00 00 00 00 00 00 c0 00 00 00  .h..F...........
  455e20 00 00 00 46 22 00 00 00 00 00 00 00 c0 00 00 00  ...F"...........
  455e30 00 00 00 46 34 c8 19 8d 79 88 d1 11 83 e9 00 c0  ...F4...y.......
  455e40 4f c2 c6 d4 ae f6 0b bc 78 88 d1 11 83 e9 00 c0  O.......x.......
  455e50 4f c2 c6 d4 7a d4 f3 30 47 64 d1 11 8e 3c 00 c0  O...z..0Gd...<..
  455e60 4f b9 38 6d 90 4d 6d 0e 38 67 cf 11 96 08 00 aa  O.8m.Mm.8g......
  455e70 00 68 0d b4 a0 58 d7 a9 17 46 cf 11 95 fc 00 aa  .h...X...F......
  455e80 00 68 0d b4 10 f0 ca 99 5e 41 cf 11 88 14 00 aa  .h......^A......
  455e90 00 b5 69 f5 44 01 00 00 00 00 00 00 c0 00 00 00  ..i.D...........
  455ea0 00 00 00 46 40 01 00 00 00 00 00 00 c0 00 00 00  ...F@...........
  455eb0 00 00 00 46 3e 01 00 00 00 00 00 00 c0 00 00 00  ...F>...........
  455ec0 00 00 00 46 3d 01 00 00 00 00 00 00 c0 00 00 00  ...F=...........
  455ed0 00 00 00 46 a0 c4 08 10 13 76 cf 11 9a f1 00 20  ...F.....v..... 
  455ee0 af 6e 72 f4 d0 69 f5 d5 3b 59 1a 10 b5 69 08 00  .nr..i..;Y...i..
  455ef0 2b 2d bf 7a fc 6a f5 d5 3b 59 1a 10 b5 69 08 00  +-.z.j..;Y...i..
  455f00 2b 2d bf 7a 34 6a f5 d5 3b 59 1a 10 b5 69 08 00  +-.z4j..;Y...i..
  455f10 2b 2d bf 7a 19 85 a0 58 c8 24 35 49 b4 82 3f d8  +-.z...X.$5I..?.
  455f20 23 33 3a 4f 00 56 b1 25 15 01 d0 11 bf 0d 00 aa  #3:O.V.%........
  455f30 00 b8 df d2 b6 9f 02 a5 34 3c d1 11 9c 99 00 c0  ........4<......
  455f40 4f b9 98 aa d0 31 4f 59 19 7f d0 11 b1 94 00 a0  O....1OY........
  455f50 c9 0d c8 bf 60 6b f5 d5 3b 59 1a 10 b5 69 08 00  ....`k..;Y...i..
  455f60 2b 2d bf 7a 16 00 00 00 00 00 00 00 c0 00 00 00  +-.z............
  455f70 00 00 00 46 10 01 00 00 00 00 00 00 c0 00 00 00  ...F............
  455f80 00 00 00 46 0e 01 00 00 00 00 00 00 c0 00 00 00  ...F............
  455f90 00 00 00 46 51 01 00 00 00 00 00 00 c0 00 00 00  ...FQ...........
  455fa0 00 00 00 46 25 01 00 00 00 00 00 00 c0 00 00 00  ...F%...........
  455fb0 00 00 00 46 50 01 00 00 00 00 00 00 c0 00 00 00  ...FP...........
  455fc0 00 00 00 46 0f 01 00 00 00 00 00 00 c0 00 00 00  ...F............
  455fd0 00 00 00 46 12 00 00 00 00 00 00 00 c0 00 00 00  ...F............
  455fe0 00 00 00 46 05 01 00 00 00 00 00 00 c0 00 00 00  ...F............
  455ff0 00 00 00 46 03 01 00 00 00 00 00 00 c0 00 00 00  ...F............
  456000 00 00 00 46 0a 00 00 00 00 00 00 00 c0 00 00 00  ...F............
  456010 00 00 00 46 0a 01 00 00 00 00 00 00 c0 00 00 00  ...F............
  456020 00 00 00 46 0b 01 00 00 00 00 00 00 c0 00 00 00  ...F............
  456030 00 00 00 46 0b 00 00 00 00 00 00 00 c0 00 00 00  ...F............
  456040 00 00 00 46 0d 00 00 00 00 00 00 00 c0 00 00 00  ...F............
  456050 00 00 00 46 0c 00 00 00 00 00 00 00 c0 00 00 00  ...F............
  456060 00 00 00 46 30 3a 73 0c 1c 2a ce 11 ad e5 00 aa  ...F0:s..*......
  456070 00 44 77 3d 01 01 00 00 00 00 00 00 c0 00 00 00  .Dw=............
  456080 00 00 00 46 c0 6b 9f f2 21 50 ce 11 aa 15 00 00  ...F.k..!P......
  456090 69 01 29 3f 0f 00 00 00 00 00 00 00 c0 00 00 00  i.)?............
  4560a0 00 00 00 46 09 01 00 00 00 00 00 00 c0 00 00 00  ...F............
  4560b0 00 00 00 46 0c 01 00 00 00 00 00 00 c0 00 00 00  ...F............
  4560c0 00 00 00 46 10 00 00 00 00 00 00 00 c0 00 00 00  ...F............
  4560d0 00 00 00 46 26 01 00 00 00 00 00 00 c0 00 00 00  ...F&...........
  4560e0 00 00 00 46 02 01 00 00 00 00 00 00 c0 00 00 00  ...F............
  4560f0 00 00 00 46 0e 00 00 00 00 00 00 00 c0 00 00 00  ...F............
  456100 00 00 00 46 00 01 00 00 00 00 00 00 c0 00 00 00  ...F............
  456110 00 00 00 46 21 00 00 00 00 00 00 00 c0 00 00 00  ...F!...........
  456120 00 00 00 46 20 00 0e 00 00 00 00 00 c0 00 00 00  ...F ...........
  456130 00 00 00 46 20 00 00 00 00 00 00 00 c0 00 00 00  ...F ...........
  456140 00 00 00 46 19 00 00 00 00 00 00 00 c0 00 00 00  ...F............
  456150 00 00 00 46 18 00 00 00 00 00 00 00 c0 00 00 00  ...F............
  456160 00 00 00 46 1d 00 00 00 00 00 00 00 c0 00 00 00  ...F............
  456170 00 00 00 46 02 00 00 00 00 00 00 00 c0 00 00 00  ...F............
  456180 00 00 00 46 cf 01 00 00 00 00 00 00 c0 00 00 00  ...F............
  456190 00 00 00 46 03 00 00 00 00 00 00 00 c0 00 00 00  ...F............
  4561a0 00 00 00 46 00 2a 27 55 cb 42 ce 11 81 35 00 aa  ...F.*'U.B...5..
  4561b0 00 4b b8 51 40 ca 27 31 6e 44 ce 11 81 35 00 aa  .K.Q@.'1nD...5..
  4561c0 00 4b b8 51 2f 00 00 00 00 00 00 00 c0 00 00 00  .K.Q/...........
  4561d0 00 00 00 46 2d 00 00 00 00 00 00 00 c0 00 00 00  ...F-...........
  4561e0 00 00 00 46 2e 00 00 00 00 00 00 00 c0 00 00 00  ...F............
  4561f0 00 00 00 46 60 3d 0b df 8f 54 1b 10 8e 65 08 00  ...F`=...T...e..
  456200 2b 2b d1 19 40 33 f0 22 7d 54 1b 10 8e 65 08 00  ++..@3."}T...e..
  456210 2b 2b d1 19 20 b1 f2 1c 7d 54 1b 10 8e 65 08 00  ++.. ...}T...e..
  456220 2b 2b d1 19 10 04 02 00 00 00 00 00 c0 00 00 00  ++..............
  456230 00 00 00 46 11 04 02 00 00 00 00 00 c0 00 00 00  ...F............
  456240 00 00 00 46 02 04 02 00 00 00 00 00 c0 00 00 00  ...F............
  456250 00 00 00 46 12 04 02 00 00 00 00 00 c0 00 00 00  ...F............
  456260 00 00 00 46 01 04 02 00 00 00 00 00 c0 00 00 00  ...F............
  456270 00 00 00 46 03 04 02 00 00 00 00 00 c0 00 00 00  ...F............
  456280 00 00 00 46 04 04 02 00 00 00 00 00 c0 00 00 00  ...F............
  456290 00 00 00 46 00 04 02 00 00 00 00 00 c0 00 00 00  ...F............
  4562a0 00 00 00 46 0f 04 02 00 00 00 00 00 c0 00 00 00  ...F............
  4562b0 00 00 00 46 06 04 02 00 00 00 00 00 c0 00 00 00  ...F............
  4562c0 00 00 00 46 0e 04 02 00 00 00 00 00 c0 00 00 00  ...F............
  4562d0 00 00 00 46 05 04 02 00 00 00 00 00 c0 00 00 00  ...F............
  4562e0 00 00 00 46 01 00 00 00 00 00 00 00 c0 00 00 00  ...F............
  4562f0 00 00 00 46 00 00 0e 00 00 00 00 00 c0 00 00 00  ...F............
  456300 00 00 00 46 00 00 00 00 00 00 00 00 c0 00 00 00  ...F............
  456310 00 00 00 46 04 01 00 00 00 00 00 00 c0 00 00 00  ...F............
  456320 00 00 00 46 22 01 00 00 00 00 00 00 c0 00 00 00  ...F"...........
  456330 00 00 00 46 21 01 00 00 00 00 00 00 c0 00 00 00  ...F!...........
  456340 00 00 00 46 27 01 00 00 00 00 00 00 c0 00 00 00  ...F'...........
  456350 00 00 00 46 0d 01 00 00 00 00 00 00 c0 00 00 00  ...F............
  456360 00 00 00 46 2a 01 00 00 00 00 00 00 c0 00 00 00  ...F*...........
  456370 00 00 00 46 19 01 00 00 00 00 00 00 c0 00 00 00  ...F............
  456380 00 00 00 46 13 01 00 00 00 00 00 00 c0 00 00 00  ...F............
  456390 00 00 00 46 16 01 00 00 00 00 00 00 c0 00 00 00  ...F............
  4563a0 00 00 00 46 17 01 00 00 00 00 00 00 c0 00 00 00  ...F............
  4563b0 00 00 00 46 15 01 00 00 00 00 00 00 c0 00 00 00  ...F............
  4563c0 00 00 00 46 1c 01 00 00 00 00 00 00 c0 00 00 00  ...F............
  4563d0 00 00 00 46 1d 01 00 00 00 00 00 00 c0 00 00 00  ...F............
  4563e0 00 00 00 46 14 01 00 00 00 00 00 00 c0 00 00 00  ...F............
  4563f0 00 00 00 46 12 01 00 00 00 00 00 00 c0 00 00 00  ...F............
  456400 00 00 00 46 18 01 00 00 00 00 00 00 c0 00 00 00  ...F............
  456410 00 00 00 46 1b 01 00 00 00 00 00 00 c0 00 00 00  ...F............
  456420 00 00 00 46 1a 01 00 00 00 00 00 00 c0 00 00 00  ...F............
  456430 00 00 00 46 29 01 00 00 00 00 00 00 c0 00 00 00  ...F)...........
  456440 00 00 00 46 28 01 00 00 00 00 00 00 c0 00 00 00  ...F(...........
  456450 00 00 00 46 1e 01 00 00 00 00 00 00 c0 00 00 00  ...F............
  456460 00 00 00 46 11 01 00 00 00 00 00 00 c0 00 00 00  ...F............
  456470 00 00 00 46 f8 84 45 00 5e de 41 00 24 dd 41 00  ...F..E.^.A.$.A.
  456480 41 de 41 00 73 74 72 69 6e 67 20 74 6f 6f 20 6c  A.A.string too l
  456490 6f 6e 67 00 30 85 45 00 8b dd 41 00 24 dd 41 00  ong.0.E...A.$.A.
  4564a0 31 dd 41 00 80 85 45 00 46 df 41 00 24 dd 41 00  1.A...E.F.A.$.A.
  4564b0 29 df 41 00 69 6e 76 61 6c 69 64 20 73 74 72 69  ).A.invalid stri
  4564c0 6e 67 20 70 6f 73 69 74 69 6f 6e 00 00 86 45 00  ng position...E.
  4564d0 58 8c 40 00 50 86 45 00 1d 8c 40 00 b8 86 45 00  X.@.P.E...@...E.
  4564e0 3c 8c 40 00 50 87 45 00 d7 e8 41 00 50 e4 41 00  <.@.P.E...A.P.A.
  4564f0 86 e5 41 00 e9 86 40 00 33 e6 41 00 60 e6 41 00  ..A...@.3.A.`.A.
  456500 0d 87 40 00 81 87 40 00 75 e7 41 00 e4 e7 41 00  ..@...@.u.A...A.
  456510 93 e8 41 00 be e8 41 00 23 88 40 00 e8 86 45 00  ..A...A.#.@...E.
  456520 77 8c 40 00 dd 86 40 00 e3 86 40 00 e9 86 40 00  w.@...@...@...@.
  456530 ec 86 40 00 f0 86 40 00 0d 87 40 00 81 87 40 00  ..@...@...@...@.
  456540 f7 87 40 00 09 88 40 00 1b 88 40 00 20 88 40 00  ..@...@...@. .@.
  456550 23 88 40 00 b8 87 45 00 fd f6 41 00 08 88 45 00  #.@...E...A...E.
  456560 c2 f6 41 00 58 88 45 00 e1 f6 41 00 00 00 00 00  ..A.X.E...A.....
  456570 04 00 00 00 00 00 00 00 08 00 00 00 a8 88 45 00  ..............E.
  456580 38 f7 41 00 12 f2 41 00 5a f3 41 00 17 f0 41 00  8.A...A.Z.A...A.
  456590 11 f4 41 00 3f f4 41 00 40 f0 41 00 c7 f0 41 00  ..A.?.A.@.A...A.
  4565a0 5d f5 41 00 cc f5 41 00 7b f6 41 00 a9 f6 41 00  ].A...A.{.A...A.
  4565b0 9f f1 41 00 f0 88 45 00 1c f7 41 00 09 f0 41 00  ..A...E...A...A.
  4565c0 10 f0 41 00 17 f0 41 00 1a f0 41 00 1f f0 41 00  ..A...A...A...A.
  4565d0 40 f0 41 00 c7 f0 41 00 4f f1 41 00 73 f1 41 00  @.A...A.O.A.s.A.
  4565e0 97 f1 41 00 9c f1 41 00 9f f1 41 00 00 00 00 00  ..A...A...A.....
  4565f0 00 00 00 00 00 00 00 00 58 89 45 00 32 fb 41 00  ........X.E.2.A.
  456600 f8 f9 41 00 15 fb 41 00 69 6f 73 3a 3a 65 6f 66  ..A...A.ios::eof
  456610 62 69 74 20 73 65 74 00 69 6f 73 3a 3a 66 61 69  bit set.ios::fai
  456620 6c 62 69 74 20 73 65 74 00 00 00 00 69 6f 73 3a  lbit set....ios:
  456630 3a 62 61 64 62 69 74 20 73 65 74 00 90 89 45 00  :badbit set...E.
  456640 5f fa 41 00 f8 f9 41 00 05 fa 41 00 c0 89 45 00  _.A...A...A...E.
  456650 0b fd 41 00 69 6e 76 61 6c 69 64 20 69 6f 73 3a  ..A.invalid ios:
  456660 3a 69 77 6f 72 64 2f 70 77 6f 72 64 20 69 6e 64  :iword/pword ind
  456670 65 78 00 00 00 01 00 00 2a 00 00 00 58 8a 45 00  ex......*...X.E.
  456680 38 03 42 00 f0 89 45 00 7b ad 40 00 62 61 64 20  8.B...E.{.@.bad 
  456690 6c 6f 63 61 6c 65 20 6e 61 6d 65 00 10 8b 45 00  locale name...E.
  4566a0 fa 13 42 00 a1 0b 42 00 a4 0b 42 00 a8 0b 42 00  ..B...B...B...B.
  4566b0 93 0f 42 00 ad 0f 42 00 c7 0f 42 00 18 8c 45 00  ..B...B...B...E.
  4566c0 fb a9 40 00 51 a9 40 00 55 a9 40 00 59 a9 40 00  ..@.Q.@.U.@.Y.@.
  4566d0 8f a9 40 00 c5 a9 40 00 a8 8a 45 00 1d 14 42 00  ..@...@...E...B.
  4566e0 30 13 42 00 b2 12 42 00 34 12 42 00 dc 11 42 00  0.B...B.4.B...B.
  4566f0 84 11 42 00 dc 0f 42 00 c8 8b 45 00 5c 9e 40 00  ..B...B...E.\.@.
  456700 66 9d 40 00 bc 9c 40 00 12 9c 40 00 68 9b 40 00  f.@...@...@.h.@.
  456710 ba 9a 40 00 0c 9a 40 00 44 99 40 00 78 98 40 00  ..@...@.D.@.x.@.
  456720 ce 96 40 00 78 8b 45 00 1e af 40 00 b4 ae 40 00  ..@.x.E...@...@.
  456730 a0 ae 40 00 f3 ae 40 00 df ae 40 00 25 70 00 00  ..@...@...@.%p..
  456740 65 00 00 00 45 00 00 00 2c 00 00 00 68 8c 45 00  e...E...,...h.E.
  456750 6b ac 40 00 ae fe 40 00 4e ac 40 00 00 00 00 00  k.@...@.N.@.....
  456760 9a 99 99 99 99 99 b9 3f 00 00 00 00 00 00 24 40  .......?......$@
  456770 00 00 00 00 62 61 64 20 61 6c 6c 6f 63 61 74 69  ....bad allocati
  456780 6f 6e 00 00 b8 8c 45 00 0f 26 42 00 ae fe 40 00  on....E..&B...@.
  456790 f2 25 42 00 38 91 45 00 56 2d 42 00 4c 2d 42 00  .%B.8.E.V-B.L-B.
  4567a0 4f 2d 42 00 53 2d 42 00 a8 2b 42 00 2a 2c 42 00  O-B.S-B..+B.*,B.
  4567b0 fd 2c 42 00 a8 8d 45 00 be 46 42 00 76 2f 42 00  .,B...E..FB.v/B.
  4567c0 10 8e 45 00 62 48 42 00 a7 43 42 00 ab 43 42 00  ..E.bHB..CB..CB.
  4567d0 6f 44 42 00 a0 45 42 00 de 45 42 00 1c 46 42 00  oDB..EB..EB..FB.
  4567e0 68 8e 45 00 46 48 42 00 a9 42 42 00 ae 42 42 00  h.E.FHB..BB..BB.
  4567f0 b3 42 42 00 e9 42 42 00 1f 43 42 00 55 43 42 00  .BB..BB..CB.UCB.
  456800 8b 43 42 00 8f 43 42 00 9b 43 42 00 f0 8e 45 00  .CB..CB..CB...E.
  456810 2a 48 42 00 a9 42 42 00 ae 42 42 00 b3 42 42 00  *HB..BB..BB..BB.
  456820 e9 42 42 00 1f 43 42 00 55 43 42 00 8b 43 42 00  .BB..CB.UCB..CB.
  456830 8f 43 42 00 9b 43 42 00 40 8f 45 00 07 48 42 00  .CB..CB.@.E..HB.
  456840 6d 41 42 00 39 40 42 00 90 8f 45 00 e4 47 42 00  mAB.9@B...E..GB.
  456850 af 3f 42 00 7a 3e 42 00 48 90 45 00 a5 47 42 00  .?B.z>B.H.E..GB.
  456860 01 3e 42 00 06 3e 42 00 77 3e 42 00 98 90 45 00  .>B..>B.w>B...E.
  456870 82 47 42 00 c5 3c 42 00 08 3d 42 00 df 3d 42 00  .GB..<B..=B..=B.
  456880 e8 90 45 00 3a 47 42 00 19 3c 42 00 1e 3c 42 00  ..E.:GB..<B..<B.
  456890 23 3c 42 00 59 3c 42 00 8f 3c 42 00 08 8d 45 00  #<B.Y<B..<B...E.
  4568a0 17 47 42 00 47 3b 42 00 c9 3a 42 00 4b 3a 42 00  .GB.G;B..:B.K:B.
  4568b0 f3 39 42 00 9b 39 42 00 e8 37 42 00 58 8d 45 00  .9B..9B..7B.X.E.
  4568c0 f4 46 42 00 ea 36 42 00 40 36 42 00 96 35 42 00  .FB..6B.@6B..5B.
  4568d0 ec 34 42 00 3e 34 42 00 90 33 42 00 c8 32 42 00  .4B.>4B..3B..2B.
  4568e0 fc 31 42 00 52 30 42 00 e0 8f 45 00 82 46 42 00  .1B.R0B...E..FB.
  4568f0 ae 2d 42 00 87 2d 42 00 ed 2d 42 00 19 2e 42 00  .-B..-B..-B...B.
  456900 76 2e 42 00 45 2e 42 00 d4 2e 42 00 a3 2e 42 00  v.B.E.B...B...B.
  456910 10 2f 42 00 01 2f 42 00 4a 2f 42 00 3d 2f 42 00  ./B../B.J/B.=/B.
  456920 21 25 78 00 00 00 00 00 25 2e 30 4c 66 00 00 00  !%x.....%.0Lf...
  456930 bb bd d7 d9 df 7c db 3d 82 4d c7 72 61 42 33 47  .....|.=.M.raB3G
  456940 70 91 45 00 da 48 42 00 a9 42 42 00 ae 42 42 00  p.E..HB..BB..BB.
  456950 b3 42 42 00 e9 42 42 00 1f 43 42 00 55 43 42 00  .BB..BB..CB.UCB.
  456960 8b 43 42 00 8f 43 42 00 9b 43 42 00 79 65 73 00  .CB..CB..CB.yes.
  456970 6e 6f 00 00 3a 53 75 6e 3a 53 75 6e 64 61 79 3a  no..:Sun:Sunday:
  456980 4d 6f 6e 3a 4d 6f 6e 64 61 79 3a 54 75 65 3a 54  Mon:Monday:Tue:T
  456990 75 65 73 64 61 79 3a 57 65 64 3a 57 65 64 6e 65  uesday:Wed:Wedne
  4569a0 73 64 61 79 3a 54 68 75 3a 54 68 75 72 73 64 61  sday:Thu:Thursda
  4569b0 79 3a 46 72 69 3a 46 72 69 64 61 79 3a 53 61 74  y:Fri:Friday:Sat
  4569c0 3a 53 61 74 75 72 64 61 79 00 00 00 3a 4a 61 6e  :Saturday...:Jan
  4569d0 3a 4a 61 6e 75 61 72 79 3a 46 65 62 3a 46 65 62  :January:Feb:Feb
  4569e0 72 75 61 72 79 3a 4d 61 72 3a 4d 61 72 63 68 3a  ruary:Mar:March:
  4569f0 41 70 72 3a 41 70 72 69 6c 3a 4d 61 79 3a 4d 61  Apr:April:May:Ma
  456a00 79 3a 4a 75 6e 3a 4a 75 6e 65 3a 4a 75 6c 3a 4a  y:Jun:June:Jul:J
  456a10 75 6c 79 3a 41 75 67 3a 41 75 67 75 73 74 3a 53  uly:Aug:August:S
  456a20 65 70 3a 53 65 70 74 65 6d 62 65 72 3a 4f 63 74  ep:September:Oct
  456a30 3a 4f 63 74 6f 62 65 72 3a 4e 6f 76 3a 4e 6f 76  :October:Nov:Nov
  456a40 65 6d 62 65 72 3a 44 65 63 3a 44 65 63 65 6d 62  ember:Dec:Decemb
  456a50 65 72 00 00 2d 00 00 00 24 2b 76 78 00 00 00 00  er..-...$+vx....
  456a60 2b 76 24 78 2b 76 24 78 76 24 2b 78 76 2b 24 78  +v$x+v$xv$+xv+$x
  456a70 76 24 2b 78 2b 24 76 78 2b 24 76 78 24 76 2b 78  v$+x+$vx+$vx$v+x
  456a80 2b 24 76 78 24 2b 76 78 2b 76 20 24 2b 76 20 24  +$vx$+vx+v $+v $
  456a90 76 20 24 2b 76 2b 20 24 76 20 24 2b 2b 24 20 76  v $+v+ $v $++$ v
  456aa0 2b 24 20 76 24 20 76 2b 2b 24 20 76 24 20 2b 76  +$ v$ v++$ v$ +v
  456ab0 00 00 00 00 c0 91 45 00 8f 92 42 00 97 90 42 00  ......E...B...B.
  456ac0 10 92 45 00 50 92 42 00 eb 8d 42 00 ef 8d 42 00  ..E.P.B...B...B.
  456ad0 a0 8e 42 00 b5 8f 42 00 f3 8f 42 00 31 90 42 00  ..B...B...B.1.B.
  456ae0 68 92 45 00 34 92 42 00 ef 8c 42 00 f3 8c 42 00  h.E.4.B...B...B.
  456af0 f7 8c 42 00 2d 8d 42 00 63 8d 42 00 99 8d 42 00  ..B.-.B.c.B...B.
  456b00 cf 8d 42 00 d3 8d 42 00 df 8d 42 00 d8 92 45 00  ..B...B...B...E.
  456b10 18 92 42 00 ef 8c 42 00 f3 8c 42 00 f7 8c 42 00  ..B...B...B...B.
  456b20 2d 8d 42 00 63 8d 42 00 99 8d 42 00 cf 8d 42 00  -.B.c.B...B...B.
  456b30 d3 8d 42 00 df 8d 42 00 28 93 45 00 f5 91 42 00  ..B...B.(.E...B.
  456b40 d7 8b 42 00 ad 8a 42 00 78 93 45 00 d2 91 42 00  ..B...B.x.E...B.
  456b50 23 8a 42 00 f5 88 42 00 c8 93 45 00 93 91 42 00  #.B...B...E...B.
  456b60 7c 88 42 00 81 88 42 00 f2 88 42 00 18 94 45 00  |.B...B...B...E.
  456b70 70 91 42 00 4e 87 42 00 8c 87 42 00 5b 88 42 00  p.B.N.B...B.[.B.
  456b80 50 94 45 00 fe 92 42 00 ef 8c 42 00 f3 8c 42 00  P.E...B...B...B.
  456b90 f7 8c 42 00 2d 8d 42 00 63 8d 42 00 99 8d 42 00  ..B.-.B.c.B...B.
  456ba0 cf 8d 42 00 d3 8d 42 00 df 8d 42 00 00 00 00 00  ..B...B...B.....
  456bb0 42 75 74 74 6f 6e 00 00 00 00 00 00 00 00 00 00  Button..........
  456bc0 00 00 00 00 b0 de 42 00 d0 d1 42 00 01 00 00 00  ......B...B.....
  456bd0 4c 69 73 74 42 6f 78 00 00 00 00 00 00 00 00 00  ListBox.........
  456be0 00 00 00 00 80 e8 42 00 50 d2 42 00 02 00 00 00  ......B.P.B.....
  456bf0 45 64 69 74 00 00 00 00 00 00 00 00 00 00 00 00  Edit............
  456c00 00 00 00 00 20 e6 42 00 00 d2 42 00 04 00 00 00  .... .B...B.....
  456c10 43 6f 6d 62 6f 42 6f 78 00 00 00 00 00 00 00 00  ComboBox........
  456c20 00 00 00 00 b0 e8 42 00 e0 d2 42 00 08 00 00 00  ......B...B.....
  456c30 53 74 61 74 69 63 00 00 00 00 00 00 00 00 00 00  Static..........
  456c40 00 00 00 00 80 eb 42 00 b0 d3 42 00 30 00 00 00  ......B...B.0...
  456c50 43 6f 6d 62 6f 4c 42 6f 78 00 00 00 00 00 00 00  ComboLBox.......
  456c60 00 00 00 00 80 e8 42 00 a0 d2 42 00 02 00 00 00  ......B...B.....
  456c70 14 00 0f 00 10 00 12 00 05 00 08 00 11 00 06 00  ................
  456c80 60 3e 46 00 00 00 00 00 00 00 00 00 ff ff ff ff  `>F.............
  456c90 00 00 00 00 00 00 00 00 78 3e 46 00 01 00 00 00  ........x>F.....
  456ca0 00 00 00 00 ff ff ff ff 00 00 00 00 00 00 00 00  ................
  456cb0 98 3e 46 00 02 00 00 00 00 00 00 00 ff ff ff ff  .>F.............
  456cc0 00 00 00 00 00 00 00 00 b0 3e 46 00 03 00 00 00  .........>F.....
  456cd0 00 00 00 00 ff ff ff ff 00 00 00 00 00 00 00 00  ................
  456ce0 c8 6c 45 00 b0 6c 45 00 98 6c 45 00 80 6c 45 00  .lE..lE..lE..lE.
  456cf0 00 00 00 00 00 00 00 00 00 00 00 00 00 00 00 00  ................
  456d00 04 00 00 00 e0 6c 45 00 00 00 00 00 00 00 00 00  .....lE.........
  456d10 00 00 00 00 b0 3e 46 00 f8 6c 45 00 00 00 00 00  .....>F..lE.....
  456d20 b0 6c 45 00 98 6c 45 00 80 6c 45 00 00 00 00 00  .lE..lE..lE.....
  456d30 00 00 00 00 00 00 00 00 03 00 00 00 20 6d 45 00  ............ mE.
  456d40 00 00 00 00 00 00 00 00 00 00 00 00 98 3e 46 00  .............>F.
  456d50 30 6d 45 00 00 00 00 00 e8 3e 46 00 00 00 00 00  0mE......>F.....
  456d60 00 00 00 00 ff ff ff ff 00 00 00 00 00 00 00 00  ................
  456d70 00 3f 46 00 01 00 00 00 00 00 00 00 ff ff ff ff  .?F.............
  456d80 00 00 00 00 00 00 00 00 70 6d 45 00 58 6d 45 00  ........pmE.XmE.
  456d90 00 00 00 00 00 00 00 00 00 00 00 00 00 00 00 00  ................
  456da0 02 00 00 00 88 6d 45 00 00 00 00 00 00 00 00 00  .....mE.........
  456db0 00 00 00 00 00 3f 46 00 98 6d 45 00 00 00 00 00  .....?F..mE.....
  456dc0 40 3f 46 00 03 00 00 00 00 00 00 00 ff ff ff ff  @?F.............
  456dd0 00 00 00 00 00 00 00 00 c0 6d 45 00 b0 6c 45 00  .........mE..lE.
  456de0 98 6c 45 00 80 6c 45 00 00 00 00 00 00 00 00 00  .lE..lE.........
  456df0 00 00 00 00 00 00 00 00 04 00 00 00 d8 6d 45 00  .............mE.
  456e00 00 00 00 00 00 00 00 00 00 00 00 00 40 3f 46 00  ............@?F.
  456e10 f0 6d 45 00 00 00 00 00 58 3f 46 00 00 00 00 00  .mE.....X?F.....
  456e20 00 00 00 00 ff ff ff ff 00 00 00 00 00 00 00 00  ................
  456e30 78 3f 46 00 01 00 00 00 00 00 00 00 ff ff ff ff  x?F.............
  456e40 00 00 00 00 00 00 00 00 30 6e 45 00 18 6e 45 00  ........0nE..nE.
  456e50 00 00 00 00 00 00 00 00 00 00 00 00 00 00 00 00  ................
  456e60 02 00 00 00 48 6e 45 00 00 00 00 00 00 00 00 00  ....HnE.........
  456e70 00 00 00 00 78 3f 46 00 58 6e 45 00 58 6d 45 00  ....x?F.XnE.XmE.
  456e80 00 00 00 00 00 00 00 00 00 00 00 00 00 00 00 00  ................
  456e90 01 00 00 00 7c 6e 45 00 00 00 00 00 00 00 00 00  ....|nE.........
  456ea0 00 00 00 00 e8 3e 46 00 88 6e 45 00 00 00 00 00  .....>F..nE.....
  456eb0 a8 3f 46 00 03 00 00 00 00 00 00 00 ff ff ff ff  .?F.............
  456ec0 00 00 00 00 00 00 00 00 b0 6e 45 00 b0 6c 45 00  .........nE..lE.
  456ed0 98 6c 45 00 80 6c 45 00 00 00 00 00 00 00 00 00  .lE..lE.........
  456ee0 00 00 00 00 00 00 00 00 04 00 00 00 c8 6e 45 00  .............nE.
  456ef0 00 00 00 00 00 00 00 00 00 00 00 00 a8 3f 46 00  .............?F.
  456f00 e0 6e 45 00 00 00 00 00 c0 3f 46 00 03 00 00 00  .nE......?F.....
  456f10 00 00 00 00 ff ff ff ff 00 00 00 00 00 00 00 00  ................
  456f20 08 6f 45 00 b0 6c 45 00 98 6c 45 00 80 6c 45 00  .oE..lE..lE..lE.
  456f30 00 00 00 00 00 00 00 00 00 00 00 00 00 00 00 00  ................
  456f40 04 00 00 00 20 6f 45 00 00 00 00 00 00 00 00 00  .... oE.........
  456f50 00 00 00 00 c0 3f 46 00 38 6f 45 00 00 00 00 00  .....?F.8oE.....
  456f60 d8 3f 46 00 03 00 00 00 00 00 00 00 ff ff ff ff  .?F.............
  456f70 00 00 00 00 00 00 00 00 60 6f 45 00 b0 6c 45 00  ........`oE..lE.
  456f80 98 6c 45 00 80 6c 45 00 00 00 00 00 00 00 00 00  .lE..lE.........
  456f90 00 00 00 00 00 00 00 00 04 00 00 00 78 6f 45 00  ............xoE.
  456fa0 00 00 00 00 00 00 00 00 00 00 00 00 d8 3f 46 00  .............?F.
  456fb0 90 6f 45 00 00 00 00 00 f0 3f 46 00 03 00 00 00  .oE......?F.....
  456fc0 00 00 00 00 ff ff ff ff 00 00 00 00 00 00 00 00  ................
  456fd0 b8 6f 45 00 b0 6c 45 00 98 6c 45 00 80 6c 45 00  .oE..lE..lE..lE.
  456fe0 00 00 00 00 00 00 00 00 00 00 00 00 00 00 00 00  ................
  456ff0 04 00 00 00 d0 6f 45 00 00 00 00 00 00 00 00 00  .....oE.........
  457000 00 00 00 00 f0 3f 46 00 e8 6f 45 00 00 00 00 00  .....?F..oE.....
  457010 08 40 46 00 03 00 00 00 00 00 00 00 ff ff ff ff  .@F.............
  457020 00 00 00 00 00 00 00 00 10 70 45 00 b0 6c 45 00  .........pE..lE.
  457030 98 6c 45 00 80 6c 45 00 00 00 00 00 00 00 00 00  .lE..lE.........
  457040 00 00 00 00 00 00 00 00 04 00 00 00 28 70 45 00  ............(pE.
  457050 00 00 00 00 00 00 00 00 00 00 00 00 08 40 46 00  .............@F.
  457060 40 70 45 00 00 00 00 00 20 40 46 00 03 00 00 00  @pE..... @F.....
  457070 00 00 00 00 ff ff ff ff 00 00 00 00 00 00 00 00  ................
  457080 68 70 45 00 b0 6c 45 00 98 6c 45 00 80 6c 45 00  hpE..lE..lE..lE.
  457090 00 00 00 00 00 00 00 00 00 00 00 00 00 00 00 00  ................
  4570a0 04 00 00 00 80 70 45 00 00 00 00 00 00 00 00 00  .....pE.........
  4570b0 00 00 00 00 20 40 46 00 98 70 45 00 00 00 00 00  .... @F..pE.....
  4570c0 40 40 46 00 01 00 00 00 00 00 00 00 ff ff ff ff  @@F.............
  4570d0 00 00 00 00 00 00 00 00 c0 70 45 00 80 6c 45 00  .........pE..lE.
  4570e0 00 00 00 00 00 00 00 00 00 00 00 00 00 00 00 00  ................
  4570f0 02 00 00 00 d8 70 45 00 00 00 00 00 00 00 00 00  .....pE.........
  457100 00 00 00 00 40 40 46 00 e8 70 45 00 00 00 00 00  ....@@F..pE.....
  457110 58 40 46 00 02 00 00 00 00 00 00 00 ff ff ff ff  X@F.............
  457120 00 00 00 00 00 00 00 00 10 71 45 00 c0 70 45 00  .........qE..pE.
  457130 80 6c 45 00 00 00 00 00 00 00 00 00 00 00 00 00  .lE.............
  457140 03 00 00 00 28 71 45 00 00 00 00 00 00 00 00 00  ....(qE.........
  457150 00 00 00 00 58 40 46 00 38 71 45 00 00 00 00 00  ....X@F.8qE.....
  457160 70 40 46 00 02 00 00 00 00 00 00 00 ff ff ff ff  p@F.............
  457170 00 00 00 00 00 00 00 00 60 71 45 00 c0 70 45 00  ........`qE..pE.
  457180 80 6c 45 00 00 00 00 00 00 00 00 00 00 00 00 00  .lE.............
  457190 03 00 00 00 78 71 45 00 00 00 00 00 00 00 00 00  ....xqE.........
  4571a0 00 00 00 00 70 40 46 00 88 71 45 00 00 00 00 00  ....p@F..qE.....
  4571b0 88 40 46 00 02 00 00 00 00 00 00 00 ff ff ff ff  .@F.............
  4571c0 00 00 00 00 00 00 00 00 b0 71 45 00 c0 70 45 00  .........qE..pE.
  4571d0 80 6c 45 00 00 00 00 00 00 00 00 00 00 00 00 00  .lE.............
  4571e0 03 00 00 00 c8 71 45 00 00 00 00 00 00 00 00 00  .....qE.........
  4571f0 00 00 00 00 88 40 46 00 d8 71 45 00 00 00 00 00  .....@F..qE.....
  457200 a0 40 46 00 01 00 00 00 00 00 00 00 ff ff ff ff  .@F.............
  457210 00 00 00 00 00 00 00 00 c0 40 46 00 02 00 00 00  .........@F.....
  457220 00 00 00 00 ff ff ff ff 00 00 00 00 00 00 00 00  ................
  457230 18 72 45 00 00 72 45 00 80 6c 45 00 00 00 00 00  .rE..rE..lE.....
  457240 00 00 00 00 00 00 00 00 03 00 00 00 30 72 45 00  ............0rE.
  457250 00 00 00 00 00 00 00 00 00 00 00 00 c0 40 46 00  .............@F.
  457260 40 72 45 00 00 00 00 00 d8 40 46 00 02 00 00 00  @rE......@F.....
  457270 00 00 00 00 ff ff ff ff 00 00 00 00 00 00 00 00  ................
  457280 68 72 45 00 00 72 45 00 80 6c 45 00 00 00 00 00  hrE..rE..lE.....
  457290 00 00 00 00 00 00 00 00 03 00 00 00 80 72 45 00  .............rE.
  4572a0 00 00 00 00 00 00 00 00 00 00 00 00 d8 40 46 00  .............@F.
  4572b0 90 72 45 00 00 00 00 00 00 72 45 00 80 6c 45 00  .rE......rE..lE.
  4572c0 00 00 00 00 00 00 00 00 00 00 00 00 00 00 00 00  ................
  4572d0 02 00 00 00 b8 72 45 00 00 00 00 00 00 00 00 00  .....rE.........
  4572e0 00 00 00 00 a0 40 46 00 c8 72 45 00 00 00 00 00  .....@F..rE.....
  4572f0 f0 40 46 00 02 00 00 00 00 00 00 00 ff ff ff ff  .@F.............
  457300 00 00 00 00 00 00 00 00 f0 72 45 00 c0 70 45 00  .........rE..pE.
  457310 80 6c 45 00 00 00 00 00 00 00 00 00 00 00 00 00  .lE.............
  457320 03 00 00 00 08 73 45 00 00 00 00 00 00 00 00 00  .....sE.........
  457330 00 00 00 00 f0 40 46 00 18 73 45 00 00 00 00 00  .....@F..sE.....
  457340 08 41 46 00 02 00 00 00 00 00 00 00 ff ff ff ff  .AF.............
  457350 00 00 00 00 00 00 00 00 40 73 45 00 00 72 45 00  ........@sE..rE.
  457360 80 6c 45 00 00 00 00 00 00 00 00 00 00 00 00 00  .lE.............
  457370 03 00 00 00 58 73 45 00 00 00 00 00 00 00 00 00  ....XsE.........
  457380 00 00 00 00 08 41 46 00 68 73 45 00 00 00 00 00  .....AF.hsE.....
  457390 98 41 46 00 01 00 00 00 00 00 00 00 ff ff ff ff  .AF.............
  4573a0 00 00 00 00 00 00 00 00 b8 41 46 00 02 00 00 00  .........AF.....
  4573b0 00 00 00 00 ff ff ff ff 00 00 00 00 00 00 00 00  ................
  4573c0 d8 41 46 00 03 00 00 00 00 00 00 00 ff ff ff ff  .AF.............
  4573d0 00 00 00 00 00 00 00 00 c0 73 45 00 a8 73 45 00  .........sE..sE.
  4573e0 90 73 45 00 80 6c 45 00 00 00 00 00 00 00 00 00  .sE..lE.........
  4573f0 00 00 00 00 00 00 00 00 04 00 00 00 d8 73 45 00  .............sE.
  457400 00 00 00 00 00 00 00 00 00 00 00 00 d8 41 46 00  .............AF.
  457410 f0 73 45 00 00 00 00 00 00 42 46 00 03 00 00 00  .sE......BF.....
  457420 00 00 00 00 ff ff ff ff 00 00 00 00 00 00 00 00  ................
  457430 18 74 45 00 a8 73 45 00 90 73 45 00 80 6c 45 00  .tE..sE..sE..lE.
  457440 00 00 00 00 00 00 00 00 00 00 00 00 00 00 00 00  ................
  457450 04 00 00 00 30 74 45 00 00 00 00 00 00 00 00 00  ....0tE.........
  457460 00 00 00 00 00 42 46 00 48 74 45 00 00 00 00 00  .....BF.HtE.....
  457470 40 42 46 00 02 00 00 00 00 00 00 00 ff ff ff ff  @BF.............
  457480 00 00 00 00 00 00 00 00 70 74 45 00 00 72 45 00  ........ptE..rE.
  457490 80 6c 45 00 00 00 00 00 00 00 00 00 00 00 00 00  .lE.............
  4574a0 03 00 00 00 88 74 45 00 00 00 00 00 00 00 00 00  .....tE.........
  4574b0 00 00 00 00 40 42 46 00 98 74 45 00 00 00 00 00  ....@BF..tE.....
  4574c0 58 42 46 00 03 00 00 00 00 00 00 00 ff ff ff ff  XBF.............
  4574d0 00 00 00 00 00 00 00 00 c0 74 45 00 b0 6c 45 00  .........tE..lE.
  4574e0 98 6c 45 00 80 6c 45 00 00 00 00 00 00 00 00 00  .lE..lE.........
  4574f0 00 00 00 00 00 00 00 00 04 00 00 00 d8 74 45 00  .............tE.
  457500 00 00 00 00 00 00 00 00 00 00 00 00 58 42 46 00  ............XBF.
  457510 f0 74 45 00 00 00 00 00 78 42 46 00 01 00 00 00  .tE.....xBF.....
  457520 00 00 00 00 ff ff ff ff 00 00 00 00 00 00 00 00  ................
  457530 18 75 45 00 18 6e 45 00 00 00 00 00 00 00 00 00  .uE..nE.........
  457540 00 00 00 00 00 00 00 00 02 00 00 00 30 75 45 00  ............0uE.
  457550 00 00 00 00 00 00 00 00 00 00 00 00 78 42 46 00  ............xBF.
  457560 40 75 45 00 00 00 00 00 98 42 46 00 02 00 00 00  @uE......BF.....
  457570 00 00 00 00 ff ff ff ff 00 00 00 00 00 00 00 00  ................
  457580 b8 42 46 00 03 00 00 00 00 00 00 00 ff ff ff ff  .BF.............
  457590 00 00 00 00 00 00 00 00 80 75 45 00 68 75 45 00  .........uE.huE.
  4575a0 98 6c 45 00 80 6c 45 00 00 00 00 00 00 00 00 00  .lE..lE.........
  4575b0 00 00 00 00 00 00 00 00 04 00 00 00 98 75 45 00  .............uE.
  4575c0 00 00 00 00 00 00 00 00 00 00 00 00 b8 42 46 00  .............BF.
  4575d0 b0 75 45 00 00 00 00 00 d0 42 46 00 01 00 00 00  .uE......BF.....
  4575e0 00 00 00 00 ff ff ff ff 00 00 00 00 00 00 00 00  ................
  4575f0 d8 75 45 00 80 6c 45 00 00 00 00 00 00 00 00 00  .uE..lE.........
  457600 00 00 00 00 00 00 00 00 02 00 00 00 f0 75 45 00  .............uE.
  457610 00 00 00 00 00 00 00 00 00 00 00 00 d0 42 46 00  .............BF.
  457620 00 76 45 00 00 00 00 00 68 75 45 00 98 6c 45 00  .vE.....huE..lE.
  457630 80 6c 45 00 00 00 00 00 00 00 00 00 00 00 00 00  .lE.............
  457640 03 00 00 00 28 76 45 00 00 00 00 00 00 00 00 00  ....(vE.........
  457650 00 00 00 00 98 42 46 00 38 76 45 00 00 00 00 00  .....BF.8vE.....
  457660 f0 42 46 00 01 00 00 00 00 00 00 00 ff ff ff ff  .BF.............
  457670 00 00 00 00 00 00 00 00 60 76 45 00 18 6e 45 00  ........`vE..nE.
  457680 00 00 00 00 00 00 00 00 00 00 00 00 00 00 00 00  ................
  457690 02 00 00 00 78 76 45 00 00 00 00 00 00 00 00 00  ....xvE.........
  4576a0 00 00 00 00 f0 42 46 00 88 76 45 00 00 00 00 00  .....BF..vE.....
  4576b0 10 43 46 00 02 00 00 00 00 00 00 00 ff ff ff ff  .CF.............
  4576c0 00 00 00 00 00 00 00 00 30 43 46 00 03 00 00 00  ........0CF.....
  4576d0 00 00 00 00 ff ff ff ff 00 00 00 00 00 00 00 00  ................
  4576e0 c8 76 45 00 b0 76 45 00 98 6c 45 00 80 6c 45 00  .vE..vE..lE..lE.
  4576f0 00 00 00 00 00 00 00 00 00 00 00 00 00 00 00 00  ................
  457700 04 00 00 00 e0 76 45 00 00 00 00 00 00 00 00 00  .....vE.........
  457710 00 00 00 00 30 43 46 00 f8 76 45 00 00 00 00 00  ....0CF..vE.....
  457720 58 43 46 00 01 00 00 00 00 00 00 00 ff ff ff ff  XCF.............
  457730 00 00 00 00 00 00 00 00 20 77 45 00 18 6e 45 00  ........ wE..nE.
  457740 00 00 00 00 00 00 00 00 00 00 00 00 00 00 00 00  ................
  457750 02 00 00 00 38 77 45 00 00 00 00 00 00 00 00 00  ....8wE.........
  457760 00 00 00 00 58 43 46 00 48 77 45 00 00 00 00 00  ....XCF.HwE.....
  457770 78 43 46 00 01 00 00 00 00 00 00 00 ff ff ff ff  xCF.............
  457780 00 00 00 00 00 00 00 00 70 77 45 00 18 6e 45 00  ........pwE..nE.
  457790 00 00 00 00 00 00 00 00 00 00 00 00 00 00 00 00  ................
  4577a0 02 00 00 00 88 77 45 00 00 00 00 00 00 00 00 00  .....wE.........
  4577b0 00 00 00 00 78 43 46 00 98 77 45 00 00 00 00 00  ....xCF..wE.....
  4577c0 98 43 46 00 01 00 00 00 00 00 00 00 ff ff ff ff  .CF.............
  4577d0 00 00 00 00 00 00 00 00 c0 77 45 00 18 6e 45 00  .........wE..nE.
  4577e0 00 00 00 00 00 00 00 00 00 00 00 00 00 00 00 00  ................
  4577f0 02 00 00 00 d8 77 45 00 00 00 00 00 00 00 00 00  .....wE.........
  457800 00 00 00 00 98 43 46 00 e8 77 45 00 00 00 00 00  .....CF..wE.....
  457810 c0 43 46 00 02 00 00 00 00 00 00 00 ff ff ff ff  .CF.............
  457820 00 00 00 00 00 00 00 00 10 78 45 00 70 77 45 00  .........xE.pwE.
  457830 18 6e 45 00 00 00 00 00 00 00 00 00 00 00 00 00  .nE.............
  457840 03 00 00 00 28 78 45 00 00 00 00 00 00 00 00 00  ....(xE.........
  457850 00 00 00 00 c0 43 46 00 38 78 45 00 00 00 00 00  .....CF.8xE.....
  457860 e8 43 46 00 01 00 00 00 00 00 00 00 ff ff ff ff  .CF.............
  457870 00 00 00 00 00 00 00 00 00 44 46 00 02 00 00 00  .........DF.....
  457880 00 00 00 00 ff ff ff ff 00 00 00 00 00 00 00 00  ................
  457890 78 78 45 00 60 78 45 00 80 6c 45 00 00 00 00 00  xxE.`xE..lE.....
  4578a0 00 00 00 00 00 00 00 00 03 00 00 00 90 78 45 00  .............xE.
  4578b0 00 00 00 00 00 00 00 00 00 00 00 00 00 44 46 00  .............DF.
  4578c0 a0 78 45 00 00 00 00 00 20 44 46 00 02 00 00 00  .xE..... DF.....
  4578d0 00 00 00 00 ff ff ff ff 00 00 00 00 00 00 00 00  ................
  4578e0 c8 78 45 00 90 73 45 00 80 6c 45 00 00 00 00 00  .xE..sE..lE.....
  4578f0 00 00 00 00 00 00 00 00 03 00 00 00 e0 78 45 00  .............xE.
  457900 00 00 00 00 00 00 00 00 00 00 00 00 20 44 46 00  ............ DF.
  457910 f0 78 45 00 00 00 00 00 60 78 45 00 80 6c 45 00  .xE.....`xE..lE.
  457920 00 00 00 00 00 00 00 00 00 00 00 00 00 00 00 00  ................
  457930 02 00 00 00 18 79 45 00 00 00 00 00 00 00 00 00  .....yE.........
  457940 00 00 00 00 e8 43 46 00 28 79 45 00 00 00 00 00  .....CF.(yE.....
  457950 40 44 46 00 04 00 00 00 00 00 00 00 ff ff ff ff  @DF.............
  457960 00 00 00 00 00 00 00 00 60 44 46 00 05 00 00 00  ........`DF.....
  457970 00 00 00 00 ff ff ff ff 00 00 00 00 00 00 00 00  ................
  457980 68 79 45 00 50 79 45 00 c8 6c 45 00 b0 6c 45 00  hyE.PyE..lE..lE.
  457990 98 6c 45 00 80 6c 45 00 00 00 00 00 00 00 00 00  .lE..lE.........
  4579a0 00 00 00 00 00 00 00 00 06 00 00 00 80 79 45 00  .............yE.
  4579b0 00 00 00 00 00 00 00 00 00 00 00 00 60 44 46 00  ............`DF.
  4579c0 a0 79 45 00 00 00 00 00 80 44 46 00 03 00 00 00  .yE......DF.....
  4579d0 00 00 00 00 ff ff ff ff 00 00 00 00 00 00 00 00  ................
  4579e0 98 44 46 00 04 00 00 00 00 00 00 00 ff ff ff ff  .DF.............
  4579f0 00 00 00 00 00 00 00 00 b8 44 46 00 05 00 00 00  .........DF.....
  457a00 00 00 00 00 ff ff ff ff 00 00 00 00 00 00 00 00  ................
  457a10 f8 79 45 00 e0 79 45 00 c8 79 45 00 b0 6c 45 00  .yE..yE..yE..lE.
  457a20 98 6c 45 00 80 6c 45 00 00 00 00 00 00 00 00 00  .lE..lE.........
  457a30 00 00 00 00 00 00 00 00 06 00 00 00 10 7a 45 00  .............zE.
  457a40 00 00 00 00 00 00 00 00 00 00 00 00 b8 44 46 00  .............DF.
  457a50 30 7a 45 00 00 00 00 00 e0 79 45 00 c8 79 45 00  0zE......yE..yE.
  457a60 b0 6c 45 00 98 6c 45 00 80 6c 45 00 00 00 00 00  .lE..lE..lE.....
  457a70 00 00 00 00 00 00 00 00 05 00 00 00 58 7a 45 00  ............XzE.
  457a80 00 00 00 00 00 00 00 00 00 00 00 00 98 44 46 00  .............DF.
  457a90 70 7a 45 00 00 00 00 00 d0 44 46 00 04 00 00 00  pzE......DF.....
  457aa0 00 00 00 00 ff ff ff ff 00 00 00 00 00 00 00 00  ................
  457ab0 98 7a 45 00 60 6f 45 00 b0 6c 45 00 98 6c 45 00  .zE.`oE..lE..lE.
  457ac0 80 6c 45 00 00 00 00 00 00 00 00 00 00 00 00 00  .lE.............
  457ad0 05 00 00 00 b0 7a 45 00 00 00 00 00 00 00 00 00  .....zE.........
  457ae0 00 00 00 00 d0 44 46 00 c8 7a 45 00 00 00 00 00  .....DF..zE.....
  457af0 f0 44 46 00 03 00 00 00 00 00 00 00 ff ff ff ff  .DF.............
  457b00 00 00 00 00 00 00 00 00 f0 7a 45 00 b0 6c 45 00  .........zE..lE.
  457b10 98 6c 45 00 80 6c 45 00 00 00 00 00 00 00 00 00  .lE..lE.........
  457b20 00 00 00 00 00 00 00 00 04 00 00 00 08 7b 45 00  .............{E.
  457b30 00 00 00 00 00 00 00 00 00 00 00 00 f0 44 46 00  .............DF.
  457b40 20 7b 45 00 00 00 00 00 10 45 46 00 03 00 00 00   {E......EF.....
  457b50 00 00 00 00 ff ff ff ff 00 00 00 00 00 00 00 00  ................
  457b60 48 7b 45 00 b0 6c 45 00 98 6c 45 00 80 6c 45 00  H{E..lE..lE..lE.
  457b70 00 00 00 00 00 00 00 00 00 00 00 00 00 00 00 00  ................
  457b80 04 00 00 00 60 7b 45 00 00 00 00 00 00 00 00 00  ....`{E.........
  457b90 00 00 00 00 10 45 46 00 78 7b 45 00 00 00 00 00  .....EF.x{E.....
  457ba0 30 45 46 00 03 00 00 00 00 00 00 00 ff ff ff ff  0EF.............
  457bb0 00 00 00 00 00 00 00 00 a0 7b 45 00 b0 6c 45 00  .........{E..lE.
  457bc0 98 6c 45 00 80 6c 45 00 00 00 00 00 00 00 00 00  .lE..lE.........
  457bd0 00 00 00 00 00 00 00 00 04 00 00 00 b8 7b 45 00  .............{E.
  457be0 00 00 00 00 00 00 00 00 00 00 00 00 30 45 46 00  ............0EF.
  457bf0 d0 7b 45 00 00 00 00 00 48 45 46 00 03 00 00 00  .{E.....HEF.....
  457c00 00 00 00 00 ff ff ff ff 00 00 00 00 00 00 00 00  ................
  457c10 f8 7b 45 00 b0 6c 45 00 98 6c 45 00 80 6c 45 00  .{E..lE..lE..lE.
  457c20 00 00 00 00 00 00 00 00 00 00 00 00 00 00 00 00  ................
  457c30 04 00 00 00 10 7c 45 00 00 00 00 00 00 00 00 00  .....|E.........
  457c40 00 00 00 00 48 45 46 00 28 7c 45 00 00 00 00 00  ....HEF.(|E.....
  457c50 60 45 46 00 03 00 00 00 00 00 00 00 ff ff ff ff  `EF.............
  457c60 00 00 00 00 00 00 00 00 50 7c 45 00 b0 6c 45 00  ........P|E..lE.
  457c70 98 6c 45 00 80 6c 45 00 00 00 00 00 00 00 00 00  .lE..lE.........
  457c80 00 00 00 00 00 00 00 00 04 00 00 00 68 7c 45 00  ............h|E.
  457c90 00 00 00 00 00 00 00 00 00 00 00 00 60 45 46 00  ............`EF.
  457ca0 80 7c 45 00 00 00 00 00 80 45 46 00 03 00 00 00  .|E......EF.....
  457cb0 00 00 00 00 ff ff ff ff 00 00 00 00 00 00 00 00  ................
  457cc0 a8 7c 45 00 b0 6c 45 00 98 6c 45 00 80 6c 45 00  .|E..lE..lE..lE.
  457cd0 00 00 00 00 00 00 00 00 00 00 00 00 00 00 00 00  ................
  457ce0 04 00 00 00 c0 7c 45 00 00 00 00 00 00 00 00 00  .....|E.........
  457cf0 00 00 00 00 80 45 46 00 d8 7c 45 00 00 00 00 00  .....EF..|E.....
  457d00 a0 45 46 00 03 00 00 00 00 00 00 00 ff ff ff ff  .EF.............
  457d10 00 00 00 00 00 00 00 00 00 7d 45 00 b0 6c 45 00  .........}E..lE.
  457d20 98 6c 45 00 80 6c 45 00 00 00 00 00 00 00 00 00  .lE..lE.........
  457d30 00 00 00 00 00 00 00 00 04 00 00 00 18 7d 45 00  .............}E.
  457d40 00 00 00 00 00 00 00 00 00 00 00 00 a0 45 46 00  .............EF.
  457d50 30 7d 45 00 00 00 00 00 c0 45 46 00 03 00 00 00  0}E......EF.....
  457d60 00 00 00 00 ff ff ff ff 00 00 00 00 00 00 00 00  ................
  457d70 58 7d 45 00 b0 6c 45 00 98 6c 45 00 80 6c 45 00  X}E..lE..lE..lE.
  457d80 00 00 00 00 00 00 00 00 00 00 00 00 00 00 00 00  ................
  457d90 04 00 00 00 70 7d 45 00 00 00 00 00 00 00 00 00  ....p}E.........
  457da0 00 00 00 00 c0 45 46 00 88 7d 45 00 00 00 00 00  .....EF..}E.....
  457db0 e0 45 46 00 03 00 00 00 00 00 00 00 ff ff ff ff  .EF.............
  457dc0 00 00 00 00 00 00 00 00 b0 7d 45 00 b0 6c 45 00  .........}E..lE.
  457dd0 98 6c 45 00 80 6c 45 00 00 00 00 00 00 00 00 00  .lE..lE.........
  457de0 00 00 00 00 00 00 00 00 04 00 00 00 c8 7d 45 00  .............}E.
  457df0 00 00 00 00 00 00 00 00 00 00 00 00 e0 45 46 00  .............EF.
  457e00 e0 7d 45 00 00 00 00 00 00 46 46 00 03 00 00 00  .}E......FF.....
  457e10 00 00 00 00 ff ff ff ff 00 00 00 00 00 00 00 00  ................
  457e20 08 7e 45 00 b0 6c 45 00 98 6c 45 00 80 6c 45 00  .~E..lE..lE..lE.
  457e30 00 00 00 00 00 00 00 00 00 00 00 00 00 00 00 00  ................
  457e40 04 00 00 00 20 7e 45 00 00 00 00 00 00 00 00 00  .... ~E.........
  457e50 00 00 00 00 00 46 46 00 38 7e 45 00 00 00 00 00  .....FF.8~E.....
  457e60 18 46 46 00 03 00 00 00 00 00 00 00 ff ff ff ff  .FF.............
  457e70 00 00 00 00 00 00 00 00 60 7e 45 00 b0 6c 45 00  ........`~E..lE.
  457e80 98 6c 45 00 80 6c 45 00 00 00 00 00 00 00 00 00  .lE..lE.........
  457e90 00 00 00 00 00 00 00 00 04 00 00 00 78 7e 45 00  ............x~E.
  457ea0 00 00 00 00 00 00 00 00 00 00 00 00 18 46 46 00  .............FF.
  457eb0 90 7e 45 00 00 00 00 00 38 46 46 00 03 00 00 00  .~E.....8FF.....
  457ec0 00 00 00 00 ff ff ff ff 00 00 00 00 00 00 00 00  ................
  457ed0 b8 7e 45 00 b0 6c 45 00 98 6c 45 00 80 6c 45 00  .~E..lE..lE..lE.
  457ee0 00 00 00 00 00 00 00 00 00 00 00 00 00 00 00 00  ................
  457ef0 04 00 00 00 d0 7e 45 00 00 00 00 00 00 00 00 00  .....~E.........
  457f00 00 00 00 00 38 46 46 00 e8 7e 45 00 00 00 00 00  ....8FF..~E.....
  457f10 58 46 46 00 01 00 00 00 00 00 00 00 ff ff ff ff  XFF.............
  457f20 00 00 00 00 00 00 00 00 10 7f 45 00 80 6c 45 00  ..........E..lE.
  457f30 00 00 00 00 00 00 00 00 00 00 00 00 00 00 00 00  ................
  457f40 02 00 00 00 28 7f 45 00 00 00 00 00 00 00 00 00  ....(.E.........
  457f50 00 00 00 00 58 46 46 00 38 7f 45 00 00 00 00 00  ....XFF.8.E.....
  457f60 78 46 46 00 02 00 00 00 00 00 00 00 ff ff ff ff  xFF.............
  457f70 00 00 00 00 00 00 00 00 60 7f 45 00 10 7f 45 00  ........`.E...E.
  457f80 80 6c 45 00 00 00 00 00 00 00 00 00 00 00 00 00  .lE.............
  457f90 03 00 00 00 78 7f 45 00 00 00 00 00 00 00 00 00  ....x.E.........
  457fa0 00 00 00 00 78 46 46 00 88 7f 45 00 00 00 00 00  ....xFF...E.....
  457fb0 98 46 46 00 01 00 00 00 00 00 00 00 ff ff ff ff  .FF.............
  457fc0 00 00 00 00 00 00 00 00 b0 7f 45 00 80 6c 45 00  ..........E..lE.
  457fd0 00 00 00 00 00 00 00 00 00 00 00 00 00 00 00 00  ................
  457fe0 02 00 00 00 c8 7f 45 00 00 00 00 00 00 00 00 00  ......E.........
  457ff0 00 00 00 00 98 46 46 00 d8 7f 45 00 00 00 00 00  .....FF...E.....
  458000 b0 46 46 00 02 00 00 00 00 00 00 00 ff ff ff ff  .FF.............
  458010 00 00 00 00 00 00 00 00 00 80 45 00 b0 7f 45 00  ..........E...E.
  458020 80 6c 45 00 00 00 00 00 00 00 00 00 00 00 00 00  .lE.............
  458030 03 00 00 00 18 80 45 00 00 00 00 00 00 00 00 00  ......E.........
  458040 00 00 00 00 b0 46 46 00 28 80 45 00 00 00 00 00  .....FF.(.E.....
  458050 20 47 46 00 03 00 00 00 00 00 00 00 ff ff ff ff   GF.............
  458060 00 00 00 00 00 00 00 00 50 80 45 00 a8 73 45 00  ........P.E..sE.
  458070 90 73 45 00 80 6c 45 00 00 00 00 00 00 00 00 00  .sE..lE.........
  458080 00 00 00 00 00 00 00 00 04 00 00 00 68 80 45 00  ............h.E.
  458090 00 00 00 00 00 00 00 00 00 00 00 00 20 47 46 00  ............ GF.
  4580a0 80 80 45 00 00 00 00 00 40 47 46 00 03 00 00 00  ..E.....@GF.....
  4580b0 00 00 00 00 ff ff ff ff 00 00 00 00 00 00 00 00  ................
  4580c0 a8 80 45 00 a8 73 45 00 90 73 45 00 80 6c 45 00  ..E..sE..sE..lE.
  4580d0 00 00 00 00 00 00 00 00 00 00 00 00 00 00 00 00  ................
  4580e0 04 00 00 00 c0 80 45 00 00 00 00 00 00 00 00 00  ......E.........
  4580f0 00 00 00 00 40 47 46 00 d8 80 45 00 00 00 00 00  ....@GF...E.....
  458100 68 47 46 00 01 00 00 00 00 00 00 00 ff ff ff ff  hGF.............
  458110 00 00 00 00 00 00 00 00 00 81 45 00 18 6e 45 00  ..........E..nE.
  458120 00 00 00 00 00 00 00 00 00 00 00 00 00 00 00 00  ................
  458130 02 00 00 00 18 81 45 00 00 00 00 00 00 00 00 00  ......E.........
  458140 00 00 00 00 68 47 46 00 28 81 45 00 00 00 00 00  ....hGF.(.E.....
  458150 88 47 46 00 00 00 00 00 00 00 00 00 ff ff ff ff  .GF.............
  458160 00 00 00 00 00 00 00 00 50 81 45 00 00 00 00 00  ........P.E.....
  458170 00 00 00 00 00 00 00 00 01 00 00 00 68 81 45 00  ............h.E.
  458180 00 00 00 00 00 00 00 00 00 00 00 00 88 47 46 00  .............GF.
  458190 70 81 45 00 00 00 00 00 a8 47 46 00 01 00 00 00  p.E......GF.....
  4581a0 00 00 00 00 ff ff ff ff 00 00 00 00 00 00 00 00  ................
  4581b0 98 81 45 00 80 6c 45 00 00 00 00 00 00 00 00 00  ..E..lE.........
  4581c0 00 00 00 00 00 00 00 00 02 00 00 00 b0 81 45 00  ..............E.
  4581d0 00 00 00 00 00 00 00 00 00 00 00 00 a8 47 46 00  .............GF.
  4581e0 c0 81 45 00 00 00 00 00 c8 47 46 00 01 00 00 00  ..E......GF.....
  4581f0 00 00 00 00 ff ff ff ff 00 00 00 00 00 00 00 00  ................
  458200 e8 81 45 00 80 6c 45 00 00 00 00 00 00 00 00 00  ..E..lE.........
  458210 00 00 00 00 00 00 00 00 02 00 00 00 00 82 45 00  ..............E.
  458220 00 00 00 00 00 00 00 00 00 00 00 00 c8 47 46 00  .............GF.
  458230 10 82 45 00 00 00 00 00 e8 47 46 00 04 00 00 00  ..E......GF.....
  458240 00 00 00 00 ff ff ff ff 00 00 00 00 00 00 00 00  ................
  458250 38 82 45 00 c8 6c 45 00 b0 6c 45 00 98 6c 45 00  8.E..lE..lE..lE.
  458260 80 6c 45 00 00 00 00 00 00 00 00 00 00 00 00 00  .lE.............
  458270 05 00 00 00 50 82 45 00 00 00 00 00 00 00 00 00  ....P.E.........
  458280 00 00 00 00 e8 47 46 00 68 82 45 00 00 00 00 00  .....GF.h.E.....
  458290 08 48 46 00 01 00 00 00 00 00 00 00 ff ff ff ff  .HF.............
  4582a0 00 00 00 00 00 00 00 00 90 82 45 00 80 6c 45 00  ..........E..lE.
  4582b0 00 00 00 00 00 00 00 00 00 00 00 00 00 00 00 00  ................
  4582c0 02 00 00 00 a8 82 45 00 00 00 00 00 00 00 00 00  ......E.........
  4582d0 00 00 00 00 08 48 46 00 b8 82 45 00 00 00 00 00  .....HF...E.....
  4582e0 20 48 46 00 00 00 00 00 00 00 00 00 ff ff ff ff   HF.............
  4582f0 00 00 00 00 00 00 00 00 e0 82 45 00 00 00 00 00  ..........E.....
  458300 00 00 00 00 00 00 00 00 01 00 00 00 f8 82 45 00  ..............E.
  458310 00 00 00 00 00 00 00 00 00 00 00 00 20 48 46 00  ............ HF.
  458320 00 83 45 00 00 00 00 00 60 48 46 00 02 00 00 00  ..E.....`HF.....
  458330 00 00 00 00 ff ff ff ff 00 00 00 00 00 00 00 00  ................
  458340 28 83 45 00 90 73 45 00 80 6c 45 00 00 00 00 00  (.E..sE..lE.....
  458350 00 00 00 00 00 00 00 00 03 00 00 00 40 83 45 00  ............@.E.
  458360 00 00 00 00 00 00 00 00 00 00 00 00 60 48 46 00  ............`HF.
  458370 50 83 45 00 00 00 00 00 a0 48 46 00 00 00 00 00  P.E......HF.....
  458380 00 00 00 00 ff ff ff ff 00 00 00 00 00 00 00 00  ................
  458390 b8 48 46 00 01 00 00 00 00 00 00 00 ff ff ff ff  .HF.............
  4583a0 00 00 00 00 00 00 00 00 d8 48 46 00 02 00 00 00  .........HF.....
  4583b0 00 00 00 00 ff ff ff ff 00 00 00 00 00 00 00 00  ................
  4583c0 f0 48 46 00 03 00 00 00 00 00 00 00 ff ff ff ff  .HF.............
  4583d0 00 00 00 00 00 00 00 00 c0 83 45 00 a8 83 45 00  ..........E...E.
  4583e0 90 83 45 00 78 83 45 00 00 00 00 00 00 00 00 00  ..E.x.E.........
  4583f0 00 00 00 00 00 00 00 00 04 00 00 00 d8 83 45 00  ..............E.
  458400 00 00 00 00 00 00 00 00 00 00 00 00 f0 48 46 00  .............HF.
  458410 f0 83 45 00 00 00 00 00 b8 3b 46 00 00 00 00 00  ..E......;F.....
  458420 00 00 00 00 ff ff ff ff 00 00 00 00 00 00 00 00  ................
  458430 18 84 45 00 00 00 00 00 00 00 00 00 00 00 00 00  ..E.............
  458440 01 00 00 00 30 84 45 00 00 00 00 00 00 00 00 00  ....0.E.........
  458450 00 00 00 00 b8 3b 46 00 38 84 45 00 00 00 00 00  .....;F.8.E.....
  458460 20 49 46 00 00 00 00 00 00 00 00 00 ff ff ff ff   IF.............
  458470 00 00 00 00 00 00 00 00 60 84 45 00 00 00 00 00  ........`.E.....
  458480 00 00 00 00 00 00 00 00 01 00 00 00 78 84 45 00  ............x.E.
  458490 00 00 00 00 00 00 00 00 00 00 00 00 20 49 46 00  ............ IF.
  4584a0 80 84 45 00 00 00 00 00 a0 80 46 00 01 00 00 00  ..E.......F.....
  4584b0 00 00 00 00 ff ff ff ff 00 00 00 00 00 00 00 00  ................
  4584c0 c0 80 46 00 02 00 00 00 00 00 00 00 ff ff ff ff  ..F.............
  4584d0 00 00 00 00 00 00 00 00 c0 84 45 00 a8 84 45 00  ..........E...E.
  4584e0 18 84 45 00 00 00 00 00 00 00 00 00 00 00 00 00  ..E.............
  4584f0 03 00 00 00 d8 84 45 00 00 00 00 00 00 00 00 00  ......E.........
  458500 00 00 00 00 c0 80 46 00 e8 84 45 00 00 00 00 00  ......F...E.....
  458510 a8 84 45 00 18 84 45 00 00 00 00 00 00 00 00 00  ..E...E.........
  458520 00 00 00 00 00 00 00 00 02 00 00 00 10 85 45 00  ..............E.
  458530 00 00 00 00 00 00 00 00 00 00 00 00 a0 80 46 00  ..............F.
  458540 20 85 45 00 00 00 00 00 e0 80 46 00 02 00 00 00   .E.......F.....
  458550 00 00 00 00 ff ff ff ff 00 00 00 00 00 00 00 00  ................
  458560 48 85 45 00 a8 84 45 00 18 84 45 00 00 00 00 00  H.E...E...E.....
  458570 00 00 00 00 00 00 00 00 03 00 00 00 60 85 45 00  ............`.E.
  458580 00 00 00 00 00 00 00 00 00 00 00 00 e0 80 46 00  ..............F.
  458590 70 85 45 00 00 00 00 00 08 81 46 00 00 00 00 00  p.E.......F.....
  4585a0 00 00 00 00 00 00 00 00 04 00 00 00 00 00 00 00  ................
  4585b0 28 81 46 00 01 00 00 00 00 00 00 00 00 00 00 00  (.F.............
  4585c0 04 00 00 00 10 00 00 00 60 81 46 00 02 00 00 00  ........`.F.....
  4585d0 00 00 00 00 ff ff ff ff 00 00 00 00 00 00 00 00  ................
  4585e0 c8 85 45 00 b0 85 45 00 98 85 45 00 00 00 00 00  ..E...E...E.....
  4585f0 00 00 00 00 00 00 00 00 03 00 00 00 e0 85 45 00  ..............E.
  458600 00 00 00 00 08 00 00 00 00 00 00 00 60 81 46 00  ............`.F.
  458610 f0 85 45 00 00 00 00 00 a0 81 46 00 02 00 00 00  ..E.......F.....
  458620 00 00 00 00 ff ff ff ff 00 00 00 00 00 00 00 00  ................
  458630 18 86 45 00 b0 85 45 00 98 85 45 00 00 00 00 00  ..E...E...E.....
  458640 00 00 00 00 00 00 00 00 03 00 00 00 30 86 45 00  ............0.E.
  458650 00 00 00 00 04 00 00 00 00 00 00 00 a0 81 46 00  ..............F.
  458660 40 86 45 00 00 00 00 00 08 81 46 00 00 00 00 00  @.E.......F.....
  458670 00 00 00 00 ff ff ff ff 00 00 00 00 00 00 00 00  ................
  458680 28 81 46 00 01 00 00 00 00 00 00 00 ff ff ff ff  (.F.............
  458690 00 00 00 00 00 00 00 00 80 86 45 00 68 86 45 00  ..........E.h.E.
  4586a0 00 00 00 00 00 00 00 00 00 00 00 00 00 00 00 00  ................
  4586b0 02 00 00 00 98 86 45 00 00 00 00 00 00 00 00 00  ......E.........
  4586c0 00 00 00 00 28 81 46 00 a8 86 45 00 00 87 45 00  ....(.F...E...E.
  4586d0 00 00 00 00 00 00 00 00 00 00 00 00 00 00 00 00  ................
  4586e0 01 00 00 00 cc 86 45 00 00 00 00 00 00 00 00 00  ......E.........
  4586f0 00 00 00 00 e0 81 46 00 d8 86 45 00 00 00 00 00  ......F...E.....
  458700 e0 81 46 00 00 00 00 00 00 00 00 00 ff ff ff ff  ..F.............
  458710 00 00 00 00 00 00 00 00 20 82 46 00 01 00 00 00  ........ .F.....
  458720 00 00 00 00 ff ff ff ff 00 00 00 00 00 00 00 00  ................
  458730 18 87 45 00 00 87 45 00 00 00 00 00 00 00 00 00  ..E...E.........
  458740 00 00 00 00 00 00 00 00 02 00 00 00 30 87 45 00  ............0.E.
  458750 00 00 00 00 00 00 00 00 00 00 00 00 20 82 46 00  ............ .F.
  458760 40 87 45 00 00 00 00 00 60 82 46 00 01 00 00 00  @.E.....`.F.....
  458770 00 00 00 00 00 00 00 00 04 00 00 00 10 00 00 00  ................
  458780 98 82 46 00 02 00 00 00 00 00 00 00 ff ff ff ff  ..F.............
  458790 00 00 00 00 00 00 00 00 80 87 45 00 68 87 45 00  ..........E.h.E.
  4587a0 98 85 45 00 00 00 00 00 00 00 00 00 00 00 00 00  ..E.............
  4587b0 03 00 00 00 98 87 45 00 00 00 00 00 08 00 00 00  ......E.........
  4587c0 00 00 00 00 98 82 46 00 a8 87 45 00 00 00 00 00  ......F...E.....
  4587d0 d8 82 46 00 02 00 00 00 00 00 00 00 ff ff ff ff  ..F.............
  4587e0 00 00 00 00 00 00 00 00 d0 87 45 00 68 87 45 00  ..........E.h.E.
  4587f0 98 85 45 00 00 00 00 00 00 00 00 00 00 00 00 00  ..E.............
  458800 03 00 00 00 e8 87 45 00 00 00 00 00 04 00 00 00  ......E.........
  458810 00 00 00 00 d8 82 46 00 f8 87 45 00 00 00 00 00  ......F...E.....
  458820 60 82 46 00 01 00 00 00 00 00 00 00 ff ff ff ff  `.F.............
  458830 00 00 00 00 00 00 00 00 20 88 45 00 68 86 45 00  ........ .E.h.E.
  458840 00 00 00 00 00 00 00 00 00 00 00 00 00 00 00 00  ................
  458850 02 00 00 00 38 88 45 00 00 00 00 00 00 00 00 00  ....8.E.........
  458860 00 00 00 00 60 82 46 00 48 88 45 00 00 00 00 00  ....`.F.H.E.....
  458870 18 83 46 00 01 00 00 00 00 00 00 00 ff ff ff ff  ..F.............
  458880 00 00 00 00 00 00 00 00 70 88 45 00 c0 88 45 00  ........p.E...E.
  458890 00 00 00 00 00 00 00 00 00 00 00 00 00 00 00 00  ................
  4588a0 02 00 00 00 88 88 45 00 00 00 00 00 00 00 00 00  ......E.........
  4588b0 00 00 00 00 18 83 46 00 98 88 45 00 00 00 00 00  ......F...E.....
  4588c0 58 83 46 00 00 00 00 00 00 00 00 00 ff ff ff ff  X.F.............
  4588d0 00 00 00 00 00 00 00 00 c0 88 45 00 00 00 00 00  ..........E.....
  4588e0 00 00 00 00 00 00 00 00 01 00 00 00 d8 88 45 00  ..............E.
  4588f0 00 00 00 00 00 00 00 00 00 00 00 00 58 83 46 00  ............X.F.
  458900 e0 88 45 00 00 00 00 00 98 83 46 00 01 00 00 00  ..E.......F.....
  458910 00 00 00 00 ff ff ff ff 00 00 00 00 00 00 00 00  ................
  458920 b8 83 46 00 02 00 00 00 00 00 00 00 ff ff ff ff  ..F.............
  458930 00 00 00 00 00 00 00 00 20 89 45 00 08 89 45 00  ........ .E...E.
  458940 18 84 45 00 00 00 00 00 00 00 00 00 00 00 00 00  ..E.............
  458950 03 00 00 00 38 89 45 00 00 00 00 00 00 00 00 00  ....8.E.........
  458960 00 00 00 00 b8 83 46 00 48 89 45 00 00 00 00 00  ......F.H.E.....
  458970 08 89 45 00 18 84 45 00 00 00 00 00 00 00 00 00  ..E...E.........
  458980 00 00 00 00 00 00 00 00 02 00 00 00 70 89 45 00  ............p.E.
  458990 00 00 00 00 00 00 00 00 00 00 00 00 98 83 46 00  ..............F.
  4589a0 80 89 45 00 68 86 45 00 00 00 00 00 00 00 00 00  ..E.h.E.........
  4589b0 00 00 00 00 00 00 00 00 01 00 00 00 a4 89 45 00  ..............E.
  4589c0 00 00 00 00 00 00 00 00 00 00 00 00 08 81 46 00  ..............F.
  4589d0 b0 89 45 00 08 8a 45 00 00 00 00 00 00 00 00 00  ..E...E.........
  4589e0 00 00 00 00 00 00 00 00 01 00 00 00 d4 89 45 00  ..............E.
  4589f0 00 00 00 00 00 00 00 00 00 00 00 00 e0 83 46 00  ..............F.
  458a00 e0 89 45 00 00 00 00 00 e0 83 46 00 00 00 00 00  ..E.......F.....
  458a10 00 00 00 00 ff ff ff ff 00 00 00 00 00 00 00 00  ................
  458a20 00 84 46 00 01 00 00 00 00 00 00 00 ff ff ff ff  ..F.............
  458a30 00 00 00 00 00 00 00 00 20 8a 45 00 08 8a 45 00  ........ .E...E.
  458a40 00 00 00 00 00 00 00 00 00 00 00 00 00 00 00 00  ................
  458a50 02 00 00 00 38 8a 45 00 00 00 00 00 00 00 00 00  ....8.E.........
  458a60 00 00 00 00 00 84 46 00 48 8a 45 00 00 00 00 00  ......F.H.E.....
  458a70 28 84 46 00 01 00 00 00 00 00 00 00 ff ff ff ff  (.F.............
  458a80 00 00 00 00 00 00 00 00 70 8a 45 00 08 8a 45 00  ........p.E...E.
  458a90 00 00 00 00 00 00 00 00 00 00 00 00 00 00 00 00  ................
  458aa0 02 00 00 00 88 8a 45 00 00 00 00 00 00 00 00 00  ......E.........
  458ab0 00 00 00 00 28 84 46 00 98 8a 45 00 00 00 00 00  ....(.F...E.....
  458ac0 80 84 46 00 01 00 00 00 00 00 00 00 ff ff ff ff  ..F.............
  458ad0 00 00 00 00 00 00 00 00 a0 84 46 00 02 00 00 00  ..........F.....
  458ae0 00 00 00 00 ff ff ff ff 00 00 00 00 00 00 00 00  ................
  458af0 d8 8a 45 00 c0 8a 45 00 08 8a 45 00 00 00 00 00  ..E...E...E.....
  458b00 00 00 00 00 00 00 00 00 03 00 00 00 f0 8a 45 00  ..............E.
  458b10 00 00 00 00 00 00 00 00 00 00 00 00 a0 84 46 00  ..............F.
  458b20 00 8b 45 00 00 00 00 00 c0 84 46 00 01 00 00 00  ..E.......F.....
  458b30 00 00 00 00 ff ff ff ff 00 00 00 00 00 00 00 00  ................
  458b40 e0 84 46 00 02 00 00 00 00 00 00 00 ff ff ff ff  ..F.............
  458b50 00 00 00 00 00 00 00 00 40 8b 45 00 28 8b 45 00  ........@.E.(.E.
  458b60 08 8a 45 00 00 00 00 00 00 00 00 00 00 00 00 00  ..E.............
  458b70 03 00 00 00 58 8b 45 00 00 00 00 00 00 00 00 00  ....X.E.........
  458b80 00 00 00 00 e0 84 46 00 68 8b 45 00 00 00 00 00  ......F.h.E.....
  458b90 00 85 46 00 01 00 00 00 00 00 00 00 ff ff ff ff  ..F.............
  458ba0 00 00 00 00 00 00 00 00 90 8b 45 00 08 8a 45 00  ..........E...E.
  458bb0 00 00 00 00 00 00 00 00 00 00 00 00 00 00 00 00  ................
  458bc0 02 00 00 00 a8 8b 45 00 00 00 00 00 00 00 00 00  ......E.........
  458bd0 00 00 00 00 00 85 46 00 b8 8b 45 00 00 00 00 00  ......F...E.....
  458be0 58 85 46 00 01 00 00 00 00 00 00 00 ff ff ff ff  X.F.............
  458bf0 00 00 00 00 00 00 00 00 e0 8b 45 00 08 8a 45 00  ..........E...E.
  458c00 00 00 00 00 00 00 00 00 00 00 00 00 00 00 00 00  ................
  458c10 02 00 00 00 f8 8b 45 00 00 00 00 00 00 00 00 00  ......E.........
  458c20 00 00 00 00 58 85 46 00 08 8c 45 00 00 00 00 00  ....X.F...E.....
  458c30 d0 3b 46 00 01 00 00 00 00 00 00 00 ff ff ff ff  .;F.............
  458c40 00 00 00 00 00 00 00 00 30 8c 45 00 18 84 45 00  ........0.E...E.
  458c50 00 00 00 00 00 00 00 00 00 00 00 00 00 00 00 00  ................
  458c60 02 00 00 00 48 8c 45 00 00 00 00 00 00 00 00 00  ....H.E.........
  458c70 00 00 00 00 d0 3b 46 00 58 8c 45 00 00 00 00 00  .....;F.X.E.....
  458c80 78 85 46 00 01 00 00 00 00 00 00 00 ff ff ff ff  x.F.............
  458c90 00 00 00 00 00 00 00 00 80 8c 45 00 18 84 45 00  ..........E...E.
  458ca0 00 00 00 00 00 00 00 00 00 00 00 00 00 00 00 00  ................
  458cb0 02 00 00 00 98 8c 45 00 00 00 00 00 00 00 00 00  ......E.........
  458cc0 00 00 00 00 78 85 46 00 a8 8c 45 00 00 00 00 00  ....x.F...E.....
  458cd0 98 85 46 00 01 00 00 00 00 00 00 00 ff ff ff ff  ..F.............
  458ce0 00 00 00 00 00 00 00 00 d0 8c 45 00 08 8a 45 00  ..........E...E.
  458cf0 00 00 00 00 00 00 00 00 00 00 00 00 00 00 00 00  ................
  458d00 02 00 00 00 e8 8c 45 00 00 00 00 00 00 00 00 00  ......E.........
  458d10 00 00 00 00 98 85 46 00 f8 8c 45 00 00 00 00 00  ......F...E.....
  458d20 f0 85 46 00 01 00 00 00 00 00 00 00 ff ff ff ff  ..F.............
  458d30 00 00 00 00 00 00 00 00 20 8d 45 00 08 8a 45 00  ........ .E...E.
  458d40 00 00 00 00 00 00 00 00 00 00 00 00 00 00 00 00  ................
  458d50 02 00 00 00 38 8d 45 00 00 00 00 00 00 00 00 00  ....8.E.........
  458d60 00 00 00 00 f0 85 46 00 48 8d 45 00 00 00 00 00  ......F.H.E.....
  458d70 48 86 46 00 02 00 00 00 00 00 00 00 ff ff ff ff  H.F.............
  458d80 00 00 00 00 00 00 00 00 70 8d 45 00 c0 8d 45 00  ........p.E...E.
  458d90 08 8a 45 00 00 00 00 00 00 00 00 00 00 00 00 00  ..E.............
  458da0 03 00 00 00 88 8d 45 00 00 00 00 00 00 00 00 00  ......E.........
  458db0 00 00 00 00 48 86 46 00 98 8d 45 00 00 00 00 00  ....H.F...E.....
  458dc0 a0 86 46 00 01 00 00 00 00 00 00 00 ff ff ff ff  ..F.............
  458dd0 00 00 00 00 00 00 00 00 c0 86 46 00 02 00 00 00  ..........F.....
  458de0 00 00 00 00 ff ff ff ff 00 00 00 00 00 00 00 00  ................
  458df0 d8 8d 45 00 c0 8d 45 00 08 8a 45 00 00 00 00 00  ..E...E...E.....
  458e00 00 00 00 00 00 00 00 00 03 00 00 00 f0 8d 45 00  ..............E.
  458e10 00 00 00 00 00 00 00 00 00 00 00 00 c0 86 46 00  ..............F.
  458e20 00 8e 45 00 00 00 00 00 18 87 46 00 03 00 00 00  ..E.......F.....
  458e30 00 00 00 00 ff ff ff ff 00 00 00 00 00 00 00 00  ................
  458e40 28 8e 45 00 98 8e 45 00 80 8e 45 00 08 8a 45 00  (.E...E...E...E.
  458e50 00 00 00 00 00 00 00 00 00 00 00 00 00 00 00 00  ................
  458e60 04 00 00 00 40 8e 45 00 00 00 00 00 00 00 00 00  ....@.E.........
  458e70 00 00 00 00 18 87 46 00 58 8e 45 00 00 00 00 00  ......F.X.E.....
  458e80 40 87 46 00 01 00 00 00 00 00 00 00 ff ff ff ff  @.F.............
  458e90 00 00 00 00 00 00 00 00 60 87 46 00 02 00 00 00  ........`.F.....
  458ea0 00 00 00 00 ff ff ff ff 00 00 00 00 00 00 00 00  ................
  458eb0 80 87 46 00 03 00 00 00 00 00 00 00 ff ff ff ff  ..F.............
  458ec0 00 00 00 00 00 00 00 00 b0 8e 45 00 98 8e 45 00  ..........E...E.
  458ed0 80 8e 45 00 08 8a 45 00 00 00 00 00 00 00 00 00  ..E...E.........
  458ee0 00 00 00 00 00 00 00 00 04 00 00 00 c8 8e 45 00  ..............E.
  458ef0 00 00 00 00 00 00 00 00 00 00 00 00 80 87 46 00  ..............F.
  458f00 e0 8e 45 00 00 00 00 00 a8 87 46 00 01 00 00 00  ..E.......F.....
  458f10 00 00 00 00 ff ff ff ff 00 00 00 00 00 00 00 00  ................
  458f20 08 8f 45 00 08 8a 45 00 00 00 00 00 00 00 00 00  ..E...E.........
  458f30 00 00 00 00 00 00 00 00 02 00 00 00 20 8f 45 00  ............ .E.
  458f40 00 00 00 00 00 00 00 00 00 00 00 00 a8 87 46 00  ..............F.
  458f50 30 8f 45 00 00 00 00 00 00 88 46 00 01 00 00 00  0.E.......F.....
  458f60 00 00 00 00 ff ff ff ff 00 00 00 00 00 00 00 00  ................
  458f70 58 8f 45 00 08 8a 45 00 00 00 00 00 00 00 00 00  X.E...E.........
  458f80 00 00 00 00 00 00 00 00 02 00 00 00 70 8f 45 00  ............p.E.
  458f90 00 00 00 00 00 00 00 00 00 00 00 00 00 88 46 00  ..............F.
  458fa0 80 8f 45 00 00 00 00 00 58 88 46 00 02 00 00 00  ..E.....X.F.....
  458fb0 00 00 00 00 ff ff ff ff 00 00 00 00 00 00 00 00  ................
  458fc0 a8 8f 45 00 28 8b 45 00 08 8a 45 00 00 00 00 00  ..E.(.E...E.....
  458fd0 00 00 00 00 00 00 00 00 03 00 00 00 c0 8f 45 00  ..............E.
  458fe0 00 00 00 00 00 00 00 00 00 00 00 00 58 88 46 00  ............X.F.
  458ff0 d0 8f 45 00 00 00 00 00 78 88 46 00 01 00 00 00  ..E.....x.F.....
  459000 00 00 00 00 ff ff ff ff 00 00 00 00 00 00 00 00  ................
  459010 98 88 46 00 02 00 00 00 00 00 00 00 ff ff ff ff  ..F.............
  459020 00 00 00 00 00 00 00 00 10 90 45 00 f8 8f 45 00  ..........E...E.
  459030 08 8a 45 00 00 00 00 00 00 00 00 00 00 00 00 00  ..E.............
  459040 03 00 00 00 28 90 45 00 00 00 00 00 00 00 00 00  ....(.E.........
  459050 00 00 00 00 98 88 46 00 38 90 45 00 00 00 00 00  ......F.8.E.....
  459060 b8 88 46 00 01 00 00 00 00 00 00 00 ff ff ff ff  ..F.............
  459070 00 00 00 00 00 00 00 00 60 90 45 00 08 8a 45 00  ........`.E...E.
  459080 00 00 00 00 00 00 00 00 00 00 00 00 00 00 00 00  ................
  459090 02 00 00 00 78 90 45 00 00 00 00 00 00 00 00 00  ....x.E.........
  4590a0 00 00 00 00 b8 88 46 00 88 90 45 00 00 00 00 00  ......F...E.....
  4590b0 d8 88 46 00 01 00 00 00 00 00 00 00 ff ff ff ff  ..F.............
  4590c0 00 00 00 00 00 00 00 00 b0 90 45 00 08 8a 45 00  ..........E...E.
  4590d0 00 00 00 00 00 00 00 00 00 00 00 00 00 00 00 00  ................
  4590e0 02 00 00 00 c8 90 45 00 00 00 00 00 00 00 00 00  ......E.........
  4590f0 00 00 00 00 d8 88 46 00 d8 90 45 00 00 00 00 00  ......F...E.....
  459100 f8 88 46 00 02 00 00 00 00 00 00 00 ff ff ff ff  ..F.............
  459110 00 00 00 00 00 00 00 00 00 91 45 00 c0 8a 45 00  ..........E...E.
  459120 08 8a 45 00 00 00 00 00 00 00 00 00 00 00 00 00  ..E.............
  459130 03 00 00 00 18 91 45 00 00 00 00 00 00 00 00 00  ......E.........
  459140 00 00 00 00 f8 88 46 00 28 91 45 00 00 00 00 00  ......F.(.E.....
  459150 98 8e 45 00 80 8e 45 00 08 8a 45 00 00 00 00 00  ..E...E...E.....
  459160 00 00 00 00 00 00 00 00 03 00 00 00 50 91 45 00  ............P.E.
  459170 00 00 00 00 00 00 00 00 00 00 00 00 60 87 46 00  ............`.F.
  459180 60 91 45 00 00 00 00 00 18 89 46 00 02 00 00 00  `.E.......F.....
  459190 00 00 00 00 ff ff ff ff 00 00 00 00 00 00 00 00  ................
  4591a0 88 91 45 00 c0 8d 45 00 08 8a 45 00 00 00 00 00  ..E...E...E.....
  4591b0 00 00 00 00 00 00 00 00 03 00 00 00 a0 91 45 00  ..............E.
  4591c0 00 00 00 00 00 00 00 00 00 00 00 00 18 89 46 00  ..............F.
  4591d0 b0 91 45 00 00 00 00 00 70 89 46 00 02 00 00 00  ..E.....p.F.....
  4591e0 00 00 00 00 ff ff ff ff 00 00 00 00 00 00 00 00  ................
  4591f0 d8 91 45 00 c0 8d 45 00 08 8a 45 00 00 00 00 00  ..E...E...E.....
  459200 00 00 00 00 00 00 00 00 03 00 00 00 f0 91 45 00  ..............E.
  459210 00 00 00 00 00 00 00 00 00 00 00 00 70 89 46 00  ............p.F.
  459220 00 92 45 00 00 00 00 00 c8 89 46 00 03 00 00 00  ..E.......F.....
  459230 00 00 00 00 ff ff ff ff 00 00 00 00 00 00 00 00  ................
  459240 28 92 45 00 80 92 45 00 80 8e 45 00 08 8a 45 00  (.E...E...E...E.
  459250 00 00 00 00 00 00 00 00 00 00 00 00 00 00 00 00  ................
  459260 04 00 00 00 40 92 45 00 00 00 00 00 00 00 00 00  ....@.E.........
  459270 00 00 00 00 c8 89 46 00 58 92 45 00 00 00 00 00  ......F.X.E.....
  459280 f0 89 46 00 02 00 00 00 00 00 00 00 ff ff ff ff  ..F.............
  459290 00 00 00 00 00 00 00 00 10 8a 46 00 03 00 00 00  ..........F.....
  4592a0 00 00 00 00 ff ff ff ff 00 00 00 00 00 00 00 00  ................
  4592b0 98 92 45 00 80 92 45 00 80 8e 45 00 08 8a 45 00  ..E...E...E...E.
  4592c0 00 00 00 00 00 00 00 00 00 00 00 00 00 00 00 00  ................
  4592d0 04 00 00 00 b0 92 45 00 00 00 00 00 00 00 00 00  ......E.........
  4592e0 00 00 00 00 10 8a 46 00 c8 92 45 00 00 00 00 00  ......F...E.....
  4592f0 38 8a 46 00 01 00 00 00 00 00 00 00 ff ff ff ff  8.F.............
  459300 00 00 00 00 00 00 00 00 f0 92 45 00 08 8a 45 00  ..........E...E.
  459310 00 00 00 00 00 00 00 00 00 00 00 00 00 00 00 00  ................
  459320 02 00 00 00 08 93 45 00 00 00 00 00 00 00 00 00  ......E.........
  459330 00 00 00 00 38 8a 46 00 18 93 45 00 00 00 00 00  ....8.F...E.....
  459340 90 8a 46 00 01 00 00 00 00 00 00 00 ff ff ff ff  ..F.............
  459350 00 00 00 00 00 00 00 00 40 93 45 00 08 8a 45 00  ........@.E...E.
  459360 00 00 00 00 00 00 00 00 00 00 00 00 00 00 00 00  ................
  459370 02 00 00 00 58 93 45 00 00 00 00 00 00 00 00 00  ....X.E.........
  459380 00 00 00 00 90 8a 46 00 68 93 45 00 00 00 00 00  ......F.h.E.....
  459390 e8 8a 46 00 02 00 00 00 00 00 00 00 ff ff ff ff  ..F.............
  4593a0 00 00 00 00 00 00 00 00 90 93 45 00 f8 8f 45 00  ..........E...E.
  4593b0 08 8a 45 00 00 00 00 00 00 00 00 00 00 00 00 00  ..E.............
  4593c0 03 00 00 00 a8 93 45 00 00 00 00 00 00 00 00 00  ......E.........
  4593d0 00 00 00 00 e8 8a 46 00 b8 93 45 00 00 00 00 00  ......F...E.....
  4593e0 08 8b 46 00 01 00 00 00 00 00 00 00 ff ff ff ff  ..F.............
  4593f0 00 00 00 00 00 00 00 00 e0 93 45 00 08 8a 45 00  ..........E...E.
  459400 00 00 00 00 00 00 00 00 00 00 00 00 00 00 00 00  ................
  459410 02 00 00 00 f8 93 45 00 00 00 00 00 00 00 00 00  ......E.........
  459420 00 00 00 00 08 8b 46 00 08 94 45 00 00 00 00 00  ......F...E.....
  459430 80 92 45 00 80 8e 45 00 08 8a 45 00 00 00 00 00  ..E...E...E.....
  459440 00 00 00 00 00 00 00 00 03 00 00 00 30 94 45 00  ............0.E.
  459450 00 00 00 00 00 00 00 00 00 00 00 00 f0 89 46 00  ..............F.
  459460 40 94 45 00 00 00 00 00 20 05 93 19 0e 00 00 00  @.E..... .......
  459470 88 94 45 00 00 00 00 00 00 00 00 00 00 00 00 00  ..E.............
  459480 00 00 00 00 00 00 00 00 ff ff ff ff 30 a8 44 00  ............0.D.
  459490 00 00 00 00 38 a8 44 00 01 00 00 00 43 a8 44 00  ....8.D.....C.D.
  4594a0 02 00 00 00 4e a8 44 00 03 00 00 00 59 a8 44 00  ....N.D.....Y.D.
  4594b0 04 00 00 00 64 a8 44 00 05 00 00 00 72 a8 44 00  ....d.D.....r.D.
  4594c0 06 00 00 00 80 a8 44 00 07 00 00 00 8e a8 44 00  ......D.......D.
  4594d0 08 00 00 00 9c a8 44 00 09 00 00 00 aa a8 44 00  ......D.......D.
  4594e0 0a 00 00 00 b8 a8 44 00 0b 00 00 00 c6 a8 44 00  ......D.......D.
  4594f0 0c 00 00 00 d4 a8 44 00 20 05 93 19 0f 00 00 00  ......D. .......
  459500 18 95 45 00 00 00 00 00 00 00 00 00 00 00 00 00  ..E.............
  459510 00 00 00 00 00 00 00 00 ff ff ff ff ec a8 44 00  ..............D.
  459520 00 00 00 00 f4 a8 44 00 01 00 00 00 ff a8 44 00  ......D.......D.
  459530 02 00 00 00 0a a9 44 00 03 00 00 00 15 a9 44 00  ......D.......D.
  459540 04 00 00 00 20 a9 44 00 05 00 00 00 2e a9 44 00  .... .D.......D.
  459550 06 00 00 00 3c a9 44 00 07 00 00 00 4a a9 44 00  ....<.D.....J.D.
  459560 08 00 00 00 58 a9 44 00 09 00 00 00 66 a9 44 00  ....X.D.....f.D.
  459570 0a 00 00 00 74 a9 44 00 0b 00 00 00 82 a9 44 00  ....t.D.......D.
  459580 0c 00 00 00 90 a9 44 00 0c 00 00 00 9e a9 44 00  ......D.......D.
  459590 20 05 93 19 06 00 00 00 b0 95 45 00 00 00 00 00   .........E.....
  4595a0 00 00 00 00 00 00 00 00 00 00 00 00 00 00 00 00  ................
  4595b0 ff ff ff ff b0 a9 44 00 00 00 00 00 b8 a9 44 00  ......D.......D.
  4595c0 00 00 00 00 c0 a9 44 00 ff ff ff ff c8 a9 44 00  ......D.......D.
  4595d0 00 00 00 00 d0 a9 44 00 ff ff ff ff d8 a9 44 00  ......D.......D.
  4595e0 20 05 93 19 01 00 00 00 00 96 45 00 00 00 00 00   .........E.....
  4595f0 00 00 00 00 00 00 00 00 00 00 00 00 00 00 00 00  ................
  459600 ff ff ff ff ec a9 44 00 20 05 93 19 01 00 00 00  ......D. .......
  459610 28 96 45 00 00 00 00 00 00 00 00 00 00 00 00 00  (.E.............
  459620 00 00 00 00 00 00 00 00 ff ff ff ff 00 aa 44 00  ..............D.
  459630 20 05 93 19 01 00 00 00 50 96 45 00 00 00 00 00   .......P.E.....
  459640 00 00 00 00 00 00 00 00 00 00 00 00 00 00 00 00  ................
  459650 ff ff ff ff 14 aa 44 00 20 05 93 19 01 00 00 00  ......D. .......
  459660 78 96 45 00 00 00 00 00 00 00 00 00 00 00 00 00  x.E.............
  459670 00 00 00 00 00 00 00 00 ff ff ff ff 28 aa 44 00  ............(.D.
  459680 20 05 93 19 01 00 00 00 a0 96 45 00 00 00 00 00   .........E.....
  459690 00 00 00 00 00 00 00 00 00 00 00 00 00 00 00 00  ................
  4596a0 ff ff ff ff 3c aa 44 00 20 05 93 19 08 00 00 00  ....<.D. .......
  4596b0 c8 96 45 00 00 00 00 00 00 00 00 00 00 00 00 00  ..E.............
  4596c0 00 00 00 00 00 00 00 00 ff ff ff ff 50 aa 44 00  ............P.D.
  4596d0 00 00 00 00 58 aa 44 00 01 00 00 00 63 aa 44 00  ....X.D.....c.D.
  4596e0 02 00 00 00 6e aa 44 00 03 00 00 00 79 aa 44 00  ....n.D.....y.D.
  4596f0 02 00 00 00 81 aa 44 00 01 00 00 00 89 aa 44 00  ......D.......D.
  459700 00 00 00 00 91 aa 44 00 20 05 93 19 01 00 00 00  ......D. .......
  459710 28 97 45 00 00 00 00 00 00 00 00 00 00 00 00 00  (.E.............
  459720 00 00 00 00 00 00 00 00 ff ff ff ff a4 aa 44 00  ..............D.
  459730 20 05 93 19 01 00 00 00 50 97 45 00 00 00 00 00   .......P.E.....
  459740 00 00 00 00 00 00 00 00 00 00 00 00 00 00 00 00  ................
  459750 ff ff ff ff b8 aa 44 00 20 05 93 19 10 00 00 00  ......D. .......
  459760 78 97 45 00 00 00 00 00 00 00 00 00 00 00 00 00  x.E.............
  459770 00 00 00 00 00 00 00 00 ff ff ff ff cc aa 44 00  ..............D.
  459780 00 00 00 00 d4 aa 44 00 01 00 00 00 df aa 44 00  ......D.......D.
  459790 02 00 00 00 ea aa 44 00 03 00 00 00 f5 aa 44 00  ......D.......D.
  4597a0 04 00 00 00 00 ab 44 00 05 00 00 00 0b ab 44 00  ......D.......D.
  4597b0 06 00 00 00 16 ab 44 00 07 00 00 00 21 ab 44 00  ......D.....!.D.
  4597c0 08 00 00 00 2f ab 44 00 09 00 00 00 3d ab 44 00  ..../.D.....=.D.
  4597d0 0a 00 00 00 4b ab 44 00 0b 00 00 00 59 ab 44 00  ....K.D.....Y.D.
  4597e0 0c 00 00 00 67 ab 44 00 0d 00 00 00 75 ab 44 00  ....g.D.....u.D.
  4597f0 0e 00 00 00 83 ab 44 00 20 05 93 19 13 00 00 00  ......D. .......
  459800 18 98 45 00 00 00 00 00 00 00 00 00 00 00 00 00  ..E.............
  459810 00 00 00 00 00 00 00 00 ff ff ff ff 9c ab 44 00  ..............D.
  459820 00 00 00 00 a4 ab 44 00 01 00 00 00 af ab 44 00  ......D.......D.
  459830 02 00 00 00 ba ab 44 00 03 00 00 00 c5 ab 44 00  ......D.......D.
  459840 04 00 00 00 d0 ab 44 00 05 00 00 00 db ab 44 00  ......D.......D.
  459850 06 00 00 00 e6 ab 44 00 07 00 00 00 f1 ab 44 00  ......D.......D.
  459860 08 00 00 00 ff ab 44 00 09 00 00 00 0d ac 44 00  ......D.......D.
  459870 0a 00 00 00 1b ac 44 00 0b 00 00 00 29 ac 44 00  ......D.....).D.
  459880 0c 00 00 00 37 ac 44 00 0d 00 00 00 45 ac 44 00  ....7.D.....E.D.
  459890 0e 00 00 00 53 ac 44 00 0f 00 00 00 61 ac 44 00  ....S.D.....a.D.
  4598a0 07 00 00 00 69 ac 44 00 06 00 00 00 71 ac 44 00  ....i.D.....q.D.
  4598b0 20 05 93 19 07 00 00 00 d0 98 45 00 00 00 00 00   .........E.....
  4598c0 00 00 00 00 00 00 00 00 00 00 00 00 00 00 00 00  ................
  4598d0 ff ff ff ff 84 ac 44 00 00 00 00 00 8c ac 44 00  ......D.......D.
  4598e0 01 00 00 00 94 ac 44 00 02 00 00 00 9c ac 44 00  ......D.......D.
  4598f0 03 00 00 00 a4 ac 44 00 02 00 00 00 a4 ac 44 00  ......D.......D.
  459900 05 00 00 00 ac ac 44 00 20 05 93 19 0a 00 00 00  ......D. .......
  459910 28 99 45 00 00 00 00 00 00 00 00 00 00 00 00 00  (.E.............
  459920 00 00 00 00 00 00 00 00 ff ff ff ff c0 ac 44 00  ..............D.
  459930 00 00 00 00 c8 ac 44 00 00 00 00 00 d0 ac 44 00  ......D.......D.
  459940 ff ff ff ff d8 ac 44 00 00 00 00 00 e0 ac 44 00  ......D.......D.
  459950 00 00 00 00 e8 ac 44 00 ff ff ff ff f0 ac 44 00  ......D.......D.
  459960 00 00 00 00 f8 ac 44 00 00 00 00 00 00 ad 44 00  ......D.......D.
  459970 ff ff ff ff 08 ad 44 00 20 05 93 19 01 00 00 00  ......D. .......
  459980 98 99 45 00 00 00 00 00 00 00 00 00 00 00 00 00  ..E.............
  459990 00 00 00 00 00 00 00 00 ff ff ff ff 1c ad 44 00  ..............D.
  4599a0 20 05 93 19 01 00 00 00 c0 99 45 00 00 00 00 00   .........E.....
  4599b0 00 00 00 00 00 00 00 00 00 00 00 00 00 00 00 00  ................
  4599c0 ff ff ff ff 30 ad 44 00 20 05 93 19 04 00 00 00  ....0.D. .......
  4599d0 e8 99 45 00 00 00 00 00 00 00 00 00 00 00 00 00  ..E.............
  4599e0 00 00 00 00 00 00 00 00 ff ff ff ff 44 ad 44 00  ............D.D.
  4599f0 ff ff ff ff 4d ad 44 00 01 00 00 00 55 ad 44 00  ....M.D.....U.D.
  459a00 02 00 00 00 5d ad 44 00 20 05 93 19 01 00 00 00  ....].D. .......
  459a10 28 9a 45 00 00 00 00 00 00 00 00 00 00 00 00 00  (.E.............
  459a20 00 00 00 00 00 00 00 00 ff ff ff ff 70 ad 44 00  ............p.D.
  459a30 20 05 93 19 01 00 00 00 50 9a 45 00 00 00 00 00   .......P.E.....
  459a40 00 00 00 00 00 00 00 00 00 00 00 00 00 00 00 00  ................
  459a50 ff ff ff ff 84 ad 44 00 20 05 93 19 02 00 00 00  ......D. .......
  459a60 78 9a 45 00 01 00 00 00 88 9a 45 00 00 00 00 00  x.E.......E.....
  459a70 00 00 00 00 00 00 00 00 ff ff ff ff 00 00 00 00  ................
  459a80 ff ff ff ff 00 00 00 00 00 00 00 00 00 00 00 00  ................
  459a90 01 00 00 00 01 00 00 00 a0 9a 45 00 00 00 00 00  ..........E.....
  459aa0 00 00 00 00 00 00 00 00 00 00 00 00 07 30 40 00  .............0@.
  459ab0 20 05 93 19 01 00 00 00 d0 9a 45 00 00 00 00 00   .........E.....
  459ac0 00 00 00 00 00 00 00 00 00 00 00 00 00 00 00 00  ................
  459ad0 ff ff ff ff a4 ad 44 00 20 05 93 19 01 00 00 00  ......D. .......
  459ae0 f8 9a 45 00 00 00 00 00 00 00 00 00 00 00 00 00  ..E.............
  459af0 00 00 00 00 00 00 00 00 ff ff ff ff b8 ad 44 00  ..............D.
  459b00 20 05 93 19 01 00 00 00 20 9b 45 00 00 00 00 00   ....... .E.....
  459b10 00 00 00 00 00 00 00 00 00 00 00 00 00 00 00 00  ................
  459b20 ff ff ff ff cc ad 44 00 20 05 93 19 01 00 00 00  ......D. .......
  459b30 48 9b 45 00 00 00 00 00 00 00 00 00 00 00 00 00  H.E.............
  459b40 00 00 00 00 00 00 00 00 ff ff ff ff e0 ad 44 00  ..............D.
  459b50 20 05 93 19 01 00 00 00 70 9b 45 00 00 00 00 00   .......p.E.....
  459b60 00 00 00 00 00 00 00 00 00 00 00 00 00 00 00 00  ................
  459b70 ff ff ff ff f4 ad 44 00 20 05 93 19 01 00 00 00  ......D. .......
  459b80 98 9b 45 00 00 00 00 00 00 00 00 00 00 00 00 00  ..E.............
  459b90 00 00 00 00 00 00 00 00 ff ff ff ff 08 ae 44 00  ..............D.
  459ba0 20 05 93 19 02 00 00 00 c0 9b 45 00 00 00 00 00   .........E.....
  459bb0 00 00 00 00 00 00 00 00 00 00 00 00 00 00 00 00  ................
  459bc0 ff ff ff ff 1c ae 44 00 00 00 00 00 25 ae 44 00  ......D.....%.D.
  459bd0 20 05 93 19 02 00 00 00 f0 9b 45 00 00 00 00 00   .........E.....
  459be0 00 00 00 00 00 00 00 00 00 00 00 00 00 00 00 00  ................
  459bf0 ff ff ff ff 38 ae 44 00 ff ff ff ff 40 ae 44 00  ....8.D.....@.D.
  459c00 20 05 93 19 01 00 00 00 20 9c 45 00 00 00 00 00   ....... .E.....
  459c10 00 00 00 00 00 00 00 00 00 00 00 00 00 00 00 00  ................
  459c20 ff ff ff ff 54 ae 44 00 20 05 93 19 06 00 00 00  ....T.D. .......
  459c30 48 9c 45 00 00 00 00 00 00 00 00 00 00 00 00 00  H.E.............
  459c40 00 00 00 00 00 00 00 00 ff ff ff ff 68 ae 44 00  ............h.D.
  459c50 00 00 00 00 70 ae 44 00 01 00 00 00 7b ae 44 00  ....p.D.....{.D.
  459c60 02 00 00 00 86 ae 44 00 03 00 00 00 94 ae 44 00  ......D.......D.
  459c70 03 00 00 00 9d ae 44 00 20 05 93 19 04 00 00 00  ......D. .......
  459c80 98 9c 45 00 00 00 00 00 00 00 00 00 00 00 00 00  ..E.............
  459c90 00 00 00 00 00 00 00 00 ff ff ff ff b0 ae 44 00  ..............D.
  459ca0 00 00 00 00 b8 ae 44 00 01 00 00 00 c3 ae 44 00  ......D.......D.
  459cb0 02 00 00 00 ce ae 44 00 20 05 93 19 02 00 00 00  ......D. .......
  459cc0 d8 9c 45 00 00 00 00 00 00 00 00 00 00 00 00 00  ..E.............
  459cd0 00 00 00 00 00 00 00 00 ff ff ff ff e8 ae 44 00  ..............D.
  459ce0 ff ff ff ff f2 ae 44 00 20 05 93 19 81 00 00 00  ......D. .......
  459cf0 08 9d 45 00 00 00 00 00 00 00 00 00 00 00 00 00  ..E.............
  459d00 00 00 00 00 00 00 00 00 ff ff ff ff 08 af 44 00  ..............D.
  459d10 00 00 00 00 10 af 44 00 01 00 00 00 18 af 44 00  ......D.......D.
  459d20 02 00 00 00 20 af 44 00 00 00 00 00 20 af 44 00  .... .D..... .D.
  459d30 04 00 00 00 18 af 44 00 04 00 00 00 2b af 44 00  ......D.....+.D.
  459d40 06 00 00 00 33 af 44 00 07 00 00 00 3b af 44 00  ....3.D.....;.D.
  459d50 04 00 00 00 3b af 44 00 09 00 00 00 33 af 44 00  ....;.D.....3.D.
  459d60 09 00 00 00 49 af 44 00 0b 00 00 00 51 af 44 00  ....I.D.....Q.D.
  459d70 0c 00 00 00 59 af 44 00 09 00 00 00 59 af 44 00  ....Y.D.....Y.D.
  459d80 0e 00 00 00 51 af 44 00 0e 00 00 00 67 af 44 00  ....Q.D.....g.D.
  459d90 10 00 00 00 6f af 44 00 11 00 00 00 77 af 44 00  ....o.D.....w.D.
  459da0 0e 00 00 00 77 af 44 00 13 00 00 00 6f af 44 00  ....w.D.....o.D.
  459db0 13 00 00 00 85 af 44 00 15 00 00 00 8d af 44 00  ......D.......D.
  459dc0 16 00 00 00 95 af 44 00 13 00 00 00 95 af 44 00  ......D.......D.
  459dd0 18 00 00 00 8d af 44 00 18 00 00 00 a3 af 44 00  ......D.......D.
  459de0 1a 00 00 00 ab af 44 00 1b 00 00 00 b3 af 44 00  ......D.......D.
  459df0 18 00 00 00 b3 af 44 00 1d 00 00 00 ab af 44 00  ......D.......D.
  459e00 1d 00 00 00 c1 af 44 00 1f 00 00 00 c9 af 44 00  ......D.......D.
  459e10 20 00 00 00 d1 af 44 00 1d 00 00 00 d1 af 44 00   .....D.......D.
  459e20 22 00 00 00 c9 af 44 00 22 00 00 00 df af 44 00  ".....D.".....D.
  459e30 24 00 00 00 e7 af 44 00 25 00 00 00 ef af 44 00  $.....D.%.....D.
  459e40 22 00 00 00 ef af 44 00 27 00 00 00 e7 af 44 00  ".....D.'.....D.
  459e50 27 00 00 00 fd af 44 00 29 00 00 00 05 b0 44 00  '.....D.).....D.
  459e60 2a 00 00 00 0d b0 44 00 27 00 00 00 0d b0 44 00  *.....D.'.....D.
  459e70 2c 00 00 00 05 b0 44 00 2c 00 00 00 1b b0 44 00  ,.....D.,.....D.
  459e80 2e 00 00 00 23 b0 44 00 2f 00 00 00 2b b0 44 00  ....#.D./...+.D.
  459e90 2c 00 00 00 2b b0 44 00 31 00 00 00 23 b0 44 00  ,...+.D.1...#.D.
  459ea0 31 00 00 00 39 b0 44 00 33 00 00 00 41 b0 44 00  1...9.D.3...A.D.
  459eb0 34 00 00 00 49 b0 44 00 31 00 00 00 49 b0 44 00  4...I.D.1...I.D.
  459ec0 36 00 00 00 41 b0 44 00 36 00 00 00 57 b0 44 00  6...A.D.6...W.D.
  459ed0 38 00 00 00 5f b0 44 00 39 00 00 00 67 b0 44 00  8..._.D.9...g.D.
  459ee0 36 00 00 00 67 b0 44 00 3b 00 00 00 5f b0 44 00  6...g.D.;..._.D.
  459ef0 3b 00 00 00 75 b0 44 00 3d 00 00 00 7d b0 44 00  ;...u.D.=...}.D.
  459f00 3e 00 00 00 85 b0 44 00 3b 00 00 00 85 b0 44 00  >.....D.;.....D.
  459f10 40 00 00 00 7d b0 44 00 40 00 00 00 93 b0 44 00  @...}.D.@.....D.
  459f20 42 00 00 00 9b b0 44 00 43 00 00 00 a3 b0 44 00  B.....D.C.....D.
  459f30 40 00 00 00 a3 b0 44 00 45 00 00 00 9b b0 44 00  @.....D.E.....D.
  459f40 45 00 00 00 b1 b0 44 00 47 00 00 00 b9 b0 44 00  E.....D.G.....D.
  459f50 48 00 00 00 c1 b0 44 00 45 00 00 00 c1 b0 44 00  H.....D.E.....D.
  459f60 4a 00 00 00 b9 b0 44 00 4a 00 00 00 cf b0 44 00  J.....D.J.....D.
  459f70 4c 00 00 00 d7 b0 44 00 4d 00 00 00 df b0 44 00  L.....D.M.....D.
  459f80 4a 00 00 00 df b0 44 00 4f 00 00 00 d7 b0 44 00  J.....D.O.....D.
  459f90 4f 00 00 00 ed b0 44 00 51 00 00 00 f5 b0 44 00  O.....D.Q.....D.
  459fa0 52 00 00 00 fd b0 44 00 4f 00 00 00 fd b0 44 00  R.....D.O.....D.
  459fb0 54 00 00 00 f5 b0 44 00 54 00 00 00 0b b1 44 00  T.....D.T.....D.
  459fc0 56 00 00 00 13 b1 44 00 57 00 00 00 1b b1 44 00  V.....D.W.....D.
  459fd0 54 00 00 00 1b b1 44 00 59 00 00 00 13 b1 44 00  T.....D.Y.....D.
  459fe0 59 00 00 00 29 b1 44 00 5b 00 00 00 31 b1 44 00  Y...).D.[...1.D.
  459ff0 5c 00 00 00 39 b1 44 00 59 00 00 00 39 b1 44 00  \...9.D.Y...9.D.
  45a000 5e 00 00 00 31 b1 44 00 5e 00 00 00 47 b1 44 00  ^...1.D.^...G.D.
  45a010 60 00 00 00 4f b1 44 00 61 00 00 00 57 b1 44 00  `...O.D.a...W.D.
  45a020 62 00 00 00 5f b1 44 00 62 00 00 00 67 b1 44 00  b..._.D.b...g.D.
  45a030 5e 00 00 00 67 b1 44 00 65 00 00 00 57 b1 44 00  ^...g.D.e...W.D.
  45a040 66 00 00 00 4f b1 44 00 65 00 00 00 75 b1 44 00  f...O.D.e...u.D.
  45a050 68 00 00 00 80 b1 44 00 69 00 00 00 88 b1 44 00  h.....D.i.....D.
  45a060 6a 00 00 00 90 b1 44 00 6a 00 00 00 98 b1 44 00  j.....D.j.....D.
  45a070 65 00 00 00 98 b1 44 00 6d 00 00 00 88 b1 44 00  e.....D.m.....D.
  45a080 6e 00 00 00 80 b1 44 00 6d 00 00 00 a6 b1 44 00  n.....D.m.....D.
  45a090 70 00 00 00 ae b1 44 00 71 00 00 00 b6 b1 44 00  p.....D.q.....D.
  45a0a0 72 00 00 00 be b1 44 00 6d 00 00 00 be b1 44 00  r.....D.m.....D.
  45a0b0 74 00 00 00 b6 b1 44 00 75 00 00 00 ae b1 44 00  t.....D.u.....D.
  45a0c0 74 00 00 00 cc b1 44 00 77 00 00 00 d4 b1 44 00  t.....D.w.....D.
  45a0d0 78 00 00 00 dc b1 44 00 79 00 00 00 e7 b1 44 00  x.....D.y.....D.
  45a0e0 74 00 00 00 e7 b1 44 00 7b 00 00 00 dc b1 44 00  t.....D.{.....D.
  45a0f0 7c 00 00 00 d4 b1 44 00 7b 00 00 00 f5 b1 44 00  |.....D.{.....D.
  45a100 7b 00 00 00 fd b1 44 00 7b 00 00 00 05 b2 44 00  {.....D.{.....D.
  45a110 20 05 93 19 02 00 00 00 30 a1 45 00 00 00 00 00   .......0.E.....
  45a120 00 00 00 00 00 00 00 00 00 00 00 00 00 00 00 00  ................
  45a130 ff ff ff ff 18 b2 44 00 00 00 00 00 23 b2 44 00  ......D.....#.D.
  45a140 20 05 93 19 01 00 00 00 60 a1 45 00 00 00 00 00   .......`.E.....
  45a150 00 00 00 00 00 00 00 00 00 00 00 00 00 00 00 00  ................
  45a160 ff ff ff ff 38 b2 44 00 20 05 93 19 03 00 00 00  ....8.D. .......
  45a170 88 a1 45 00 00 00 00 00 00 00 00 00 00 00 00 00  ..E.............
  45a180 00 00 00 00 00 00 00 00 ff ff ff ff 60 b2 44 00  ............`.D.
  45a190 00 00 00 00 50 b2 44 00 01 00 00 00 58 b2 44 00  ....P.D.....X.D.
  45a1a0 20 05 93 19 06 00 00 00 c0 a1 45 00 00 00 00 00   .........E.....
  45a1b0 00 00 00 00 00 00 00 00 00 00 00 00 00 00 00 00  ................
  45a1c0 ff ff ff ff ac b2 44 00 00 00 00 00 84 b2 44 00  ......D.......D.
  45a1d0 01 00 00 00 8c b2 44 00 02 00 00 00 94 b2 44 00  ......D.......D.
  45a1e0 02 00 00 00 9c b2 44 00 04 00 00 00 a4 b2 44 00  ......D.......D.
  45a1f0 20 05 93 19 03 00 00 00 10 a2 45 00 00 00 00 00   .........E.....
  45a200 00 00 00 00 00 00 00 00 00 00 00 00 00 00 00 00  ................
  45a210 ff ff ff ff e0 b2 44 00 00 00 00 00 d0 b2 44 00  ......D.......D.
  45a220 01 00 00 00 d8 b2 44 00 20 05 93 19 05 00 00 00  ......D. .......
  45a230 48 a2 45 00 00 00 00 00 00 00 00 00 00 00 00 00  H.E.............
  45a240 00 00 00 00 00 00 00 00 ff ff ff ff 04 b3 44 00  ..............D.
  45a250 00 00 00 00 1b b3 44 00 01 00 00 00 23 b3 44 00  ......D.....#.D.
  45a260 01 00 00 00 2b b3 44 00 03 00 00 00 33 b3 44 00  ....+.D.....3.D.
  45a270 20 05 93 19 0e 00 00 00 90 a2 45 00 00 00 00 00   .........E.....
  45a280 00 00 00 00 00 00 00 00 00 00 00 00 00 00 00 00  ................
  45a290 ff ff ff ff 48 b3 44 00 00 00 00 00 50 b3 44 00  ....H.D.....P.D.
  45a2a0 01 00 00 00 58 b3 44 00 02 00 00 00 60 b3 44 00  ....X.D.....`.D.
  45a2b0 00 00 00 00 60 b3 44 00 04 00 00 00 58 b3 44 00  ....`.D.....X.D.
  45a2c0 04 00 00 00 6b b3 44 00 06 00 00 00 73 b3 44 00  ....k.D.....s.D.
  45a2d0 07 00 00 00 7b b3 44 00 04 00 00 00 7b b3 44 00  ....{.D.....{.D.
  45a2e0 09 00 00 00 73 b3 44 00 09 00 00 00 86 b3 44 00  ....s.D.......D.
  45a2f0 09 00 00 00 8e b3 44 00 09 00 00 00 96 b3 44 00  ......D.......D.
  45a300 20 05 93 19 01 00 00 00 20 a3 45 00 00 00 00 00   ....... .E.....
  45a310 00 00 00 00 00 00 00 00 00 00 00 00 00 00 00 00  ................
  45a320 ff ff ff ff a8 b3 44 00 20 05 93 19 01 00 00 00  ......D. .......
  45a330 48 a3 45 00 00 00 00 00 00 00 00 00 00 00 00 00  H.E.............
  45a340 00 00 00 00 00 00 00 00 ff ff ff ff c0 b3 44 00  ..............D.
  45a350 20 05 93 19 19 00 00 00 70 a3 45 00 00 00 00 00   .......p.E.....
  45a360 00 00 00 00 00 00 00 00 00 00 00 00 00 00 00 00  ................
  45a370 ff ff ff ff d8 b3 44 00 00 00 00 00 e0 b3 44 00  ......D.......D.
  45a380 01 00 00 00 eb b3 44 00 02 00 00 00 f9 b3 44 00  ......D.......D.
  45a390 03 00 00 00 07 b4 44 00 04 00 00 00 15 b4 44 00  ......D.......D.
  45a3a0 05 00 00 00 23 b4 44 00 06 00 00 00 31 b4 44 00  ....#.D.....1.D.
  45a3b0 07 00 00 00 3f b4 44 00 08 00 00 00 4d b4 44 00  ....?.D.....M.D.
  45a3c0 09 00 00 00 5b b4 44 00 0a 00 00 00 69 b4 44 00  ....[.D.....i.D.
  45a3d0 0b 00 00 00 77 b4 44 00 0c 00 00 00 85 b4 44 00  ....w.D.......D.
  45a3e0 0d 00 00 00 93 b4 44 00 0e 00 00 00 a1 b4 44 00  ......D.......D.
  45a3f0 0f 00 00 00 af b4 44 00 10 00 00 00 bd b4 44 00  ......D.......D.
  45a400 11 00 00 00 cb b4 44 00 12 00 00 00 d9 b4 44 00  ......D.......D.
  45a410 13 00 00 00 e7 b4 44 00 14 00 00 00 f5 b4 44 00  ......D.......D.
  45a420 15 00 00 00 03 b5 44 00 14 00 00 00 11 b5 44 00  ......D.......D.
  45a430 13 00 00 00 19 b5 44 00 20 05 93 19 01 00 00 00  ......D. .......
  45a440 58 a4 45 00 00 00 00 00 00 00 00 00 00 00 00 00  X.E.............
  45a450 00 00 00 00 00 00 00 00 ff ff ff ff 2c b5 44 00  ............,.D.
  45a460 20 05 93 19 02 00 00 00 80 a4 45 00 00 00 00 00   .........E.....
  45a470 00 00 00 00 00 00 00 00 00 00 00 00 00 00 00 00  ................
  45a480 ff ff ff ff 40 b5 44 00 00 00 00 00 48 b5 44 00  ....@.D.....H.D.
  45a490 20 05 93 19 16 00 00 00 b0 a4 45 00 00 00 00 00   .........E.....
  45a4a0 00 00 00 00 00 00 00 00 00 00 00 00 00 00 00 00  ................
  45a4b0 ff ff ff ff 5c b5 44 00 ff ff ff ff 64 b5 44 00  ....\.D.....d.D.
  45a4c0 01 00 00 00 6c b5 44 00 ff ff ff ff 74 b5 44 00  ....l.D.....t.D.
  45a4d0 03 00 00 00 7c b5 44 00 04 00 00 00 84 b5 44 00  ....|.D.......D.
  45a4e0 ff ff ff ff 8c b5 44 00 06 00 00 00 94 b5 44 00  ......D.......D.
  45a4f0 07 00 00 00 9c b5 44 00 08 00 00 00 a4 b5 44 00  ......D.......D.
  45a500 09 00 00 00 ac b5 44 00 ff ff ff ff b4 b5 44 00  ......D.......D.
  45a510 0b 00 00 00 bc b5 44 00 0c 00 00 00 c4 b5 44 00  ......D.......D.
  45a520 0d 00 00 00 cc b5 44 00 0e 00 00 00 d4 b5 44 00  ......D.......D.
  45a530 ff ff ff ff dc b5 44 00 10 00 00 00 e4 b5 44 00  ......D.......D.
  45a540 11 00 00 00 ec b5 44 00 ff ff ff ff f4 b5 44 00  ......D.......D.
  45a550 13 00 00 00 ff b5 44 00 14 00 00 00 0a b6 44 00  ......D.......D.
  45a560 20 05 93 19 02 00 00 00 80 a5 45 00 00 00 00 00   .........E.....
  45a570 00 00 00 00 00 00 00 00 00 00 00 00 00 00 00 00  ................
  45a580 ff ff ff ff 1c b6 44 00 00 00 00 00 24 b6 44 00  ......D.....$.D.
  45a590 20 05 93 19 01 00 00 00 b0 a5 45 00 00 00 00 00   .........E.....
  45a5a0 00 00 00 00 00 00 00 00 00 00 00 00 00 00 00 00  ................
  45a5b0 ff ff ff ff 3c b6 44 00 20 05 93 19 03 00 00 00  ....<.D. .......
  45a5c0 d8 a5 45 00 00 00 00 00 00 00 00 00 00 00 00 00  ..E.............
  45a5d0 00 00 00 00 00 00 00 00 ff ff ff ff 50 b6 44 00  ............P.D.
  45a5e0 00 00 00 00 58 b6 44 00 01 00 00 00 63 b6 44 00  ....X.D.....c.D.
  45a5f0 20 05 93 19 01 00 00 00 10 a6 45 00 00 00 00 00   .........E.....
  45a600 00 00 00 00 00 00 00 00 00 00 00 00 00 00 00 00  ................
  45a610 ff ff ff ff 78 b6 44 00 20 05 93 19 06 00 00 00  ....x.D. .......
  45a620 38 a6 45 00 00 00 00 00 00 00 00 00 00 00 00 00  8.E.............
  45a630 00 00 00 00 00 00 00 00 ff ff ff ff 8c b6 44 00  ..............D.
  45a640 00 00 00 00 94 b6 44 00 01 00 00 00 9c b6 44 00  ......D.......D.
  45a650 02 00 00 00 a4 b6 44 00 01 00 00 00 ac b6 44 00  ......D.......D.
  45a660 04 00 00 00 b4 b6 44 00 20 05 93 19 01 00 00 00  ......D. .......
  45a670 88 a6 45 00 00 00 00 00 00 00 00 00 00 00 00 00  ..E.............
  45a680 00 00 00 00 00 00 00 00 ff ff ff ff c8 b6 44 00  ..............D.
  45a690 20 05 93 19 01 00 00 00 b0 a6 45 00 00 00 00 00   .........E.....
  45a6a0 00 00 00 00 00 00 00 00 00 00 00 00 00 00 00 00  ................
  45a6b0 ff ff ff ff dc b6 44 00 20 05 93 19 01 00 00 00  ......D. .......
  45a6c0 d8 a6 45 00 00 00 00 00 00 00 00 00 00 00 00 00  ..E.............
  45a6d0 00 00 00 00 00 00 00 00 ff ff ff ff f0 b6 44 00  ..............D.
  45a6e0 20 05 93 19 01 00 00 00 00 a7 45 00 00 00 00 00   .........E.....
  45a6f0 00 00 00 00 00 00 00 00 00 00 00 00 00 00 00 00  ................
  45a700 ff ff ff ff 04 b7 44 00 20 05 93 19 01 00 00 00  ......D. .......
  45a710 28 a7 45 00 00 00 00 00 00 00 00 00 00 00 00 00  (.E.............
  45a720 00 00 00 00 00 00 00 00 ff ff ff ff 18 b7 44 00  ..............D.
  45a730 20 05 93 19 05 00 00 00 50 a7 45 00 00 00 00 00   .......P.E.....
  45a740 00 00 00 00 00 00 00 00 00 00 00 00 00 00 00 00  ................
  45a750 ff ff ff ff 2c b7 44 00 00 00 00 00 34 b7 44 00  ....,.D.....4.D.
  45a760 01 00 00 00 3c b7 44 00 01 00 00 00 44 b7 44 00  ....<.D.....D.D.
  45a770 03 00 00 00 4c b7 44 00 20 05 93 19 02 00 00 00  ....L.D. .......
  45a780 98 a7 45 00 00 00 00 00 00 00 00 00 00 00 00 00  ..E.............
  45a790 00 00 00 00 00 00 00 00 ff ff ff ff 60 b7 44 00  ............`.D.
  45a7a0 00 00 00 00 68 b7 44 00 20 05 93 19 01 00 00 00  ....h.D. .......
  45a7b0 c8 a7 45 00 00 00 00 00 00 00 00 00 00 00 00 00  ..E.............
  45a7c0 00 00 00 00 00 00 00 00 ff ff ff ff 7c b7 44 00  ............|.D.
  45a7d0 20 05 93 19 04 00 00 00 f0 a7 45 00 00 00 00 00   .........E.....
  45a7e0 00 00 00 00 00 00 00 00 00 00 00 00 00 00 00 00  ................
  45a7f0 ff ff ff ff 90 b7 44 00 00 00 00 00 98 b7 44 00  ......D.......D.
  45a800 01 00 00 00 a3 b7 44 00 00 00 00 00 ab b7 44 00  ......D.......D.
  45a810 20 05 93 19 01 00 00 00 30 a8 45 00 00 00 00 00   .......0.E.....
  45a820 00 00 00 00 00 00 00 00 00 00 00 00 00 00 00 00  ................
  45a830 ff ff ff ff c0 b7 44 00 20 05 93 19 04 00 00 00  ......D. .......
  45a840 58 a8 45 00 00 00 00 00 00 00 00 00 00 00 00 00  X.E.............
  45a850 00 00 00 00 00 00 00 00 ff ff ff ff d4 b7 44 00  ..............D.
  45a860 00 00 00 00 dc b7 44 00 01 00 00 00 e7 b7 44 00  ......D.......D.
  45a870 00 00 00 00 ef b7 44 00 20 05 93 19 04 00 00 00  ......D. .......
  45a880 98 a8 45 00 00 00 00 00 00 00 00 00 00 00 00 00  ..E.............
  45a890 00 00 00 00 00 00 00 00 ff ff ff ff 04 b8 44 00  ..............D.
  45a8a0 00 00 00 00 0c b8 44 00 01 00 00 00 17 b8 44 00  ......D.......D.
  45a8b0 00 00 00 00 1f b8 44 00 20 05 93 19 04 00 00 00  ......D. .......
  45a8c0 d8 a8 45 00 00 00 00 00 00 00 00 00 00 00 00 00  ..E.............
  45a8d0 00 00 00 00 00 00 00 00 ff ff ff ff 34 b8 44 00  ............4.D.
  45a8e0 00 00 00 00 3c b8 44 00 01 00 00 00 47 b8 44 00  ....<.D.....G.D.
  45a8f0 00 00 00 00 4f b8 44 00 20 05 93 19 03 00 00 00  ....O.D. .......
  45a900 18 a9 45 00 00 00 00 00 00 00 00 00 00 00 00 00  ..E.............
  45a910 00 00 00 00 00 00 00 00 ff ff ff ff 64 b8 44 00  ............d.D.
  45a920 00 00 00 00 6f b8 44 00 ff ff ff ff 77 b8 44 00  ....o.D.....w.D.
  45a930 20 05 93 19 06 00 00 00 50 a9 45 00 00 00 00 00   .......P.E.....
  45a940 00 00 00 00 00 00 00 00 00 00 00 00 00 00 00 00  ................
  45a950 ff ff ff ff 8c b8 44 00 00 00 00 00 97 b8 44 00  ......D.......D.
  45a960 01 00 00 00 9f b8 44 00 02 00 00 00 aa b8 44 00  ......D.......D.
  45a970 01 00 00 00 b2 b8 44 00 ff ff ff ff bd b8 44 00  ......D.......D.
  45a980 20 05 93 19 01 00 00 00 a0 a9 45 00 00 00 00 00   .........E.....
  45a990 00 00 00 00 00 00 00 00 00 00 00 00 00 00 00 00  ................
  45a9a0 ff ff ff ff d4 b8 44 00 20 05 93 19 03 00 00 00  ......D. .......
  45a9b0 c8 a9 45 00 00 00 00 00 00 00 00 00 00 00 00 00  ..E.............
  45a9c0 00 00 00 00 00 00 00 00 ff ff ff ff 07 b9 44 00  ..............D.
  45a9d0 00 00 00 00 e8 b8 44 00 01 00 00 00 f0 b8 44 00  ......D.......D.
  45a9e0 20 05 93 19 02 00 00 00 00 aa 45 00 00 00 00 00   .........E.....
  45a9f0 00 00 00 00 00 00 00 00 00 00 00 00 00 00 00 00  ................
  45aa00 ff ff ff ff 30 b9 44 00 00 00 00 00 28 b9 44 00  ....0.D.....(.D.
  45aa10 20 05 93 19 03 00 00 00 30 aa 45 00 00 00 00 00   .......0.E.....
  45aa20 00 00 00 00 00 00 00 00 00 00 00 00 00 00 00 00  ................
  45aa30 ff ff ff ff 54 b9 44 00 00 00 00 00 5c b9 44 00  ....T.D.....\.D.
  45aa40 01 00 00 00 67 b9 44 00 20 05 93 19 03 00 00 00  ....g.D. .......
  45aa50 68 aa 45 00 00 00 00 00 00 00 00 00 00 00 00 00  h.E.............
  45aa60 00 00 00 00 00 00 00 00 ff ff ff ff 9b b9 44 00  ..............D.
  45aa70 00 00 00 00 7c b9 44 00 01 00 00 00 84 b9 44 00  ....|.D.......D.
  45aa80 20 05 93 19 02 00 00 00 a0 aa 45 00 00 00 00 00   .........E.....
  45aa90 00 00 00 00 00 00 00 00 00 00 00 00 00 00 00 00  ................
  45aaa0 ff ff ff ff c4 b9 44 00 00 00 00 00 bc b9 44 00  ......D.......D.
  45aab0 20 05 93 19 01 00 00 00 d0 aa 45 00 00 00 00 00   .........E.....
  45aac0 00 00 00 00 00 00 00 00 00 00 00 00 00 00 00 00  ................
  45aad0 ff ff ff ff e8 b9 44 00 20 05 93 19 01 00 00 00  ......D. .......
  45aae0 f8 aa 45 00 00 00 00 00 00 00 00 00 00 00 00 00  ..E.............
  45aaf0 00 00 00 00 00 00 00 00 ff ff ff ff fc b9 44 00  ..............D.
  45ab00 20 05 93 19 01 00 00 00 20 ab 45 00 00 00 00 00   ....... .E.....
  45ab10 00 00 00 00 00 00 00 00 00 00 00 00 00 00 00 00  ................
  45ab20 ff ff ff ff 10 ba 44 00 20 05 93 19 01 00 00 00  ......D. .......
  45ab30 48 ab 45 00 00 00 00 00 00 00 00 00 00 00 00 00  H.E.............
  45ab40 00 00 00 00 00 00 00 00 ff ff ff ff 24 ba 44 00  ............$.D.
  45ab50 20 05 93 19 02 00 00 00 70 ab 45 00 00 00 00 00   .......p.E.....
  45ab60 00 00 00 00 00 00 00 00 00 00 00 00 00 00 00 00  ................
  45ab70 ff ff ff ff 3c ba 44 00 00 00 00 00 47 ba 44 00  ....<.D.....G.D.
  45ab80 20 05 93 19 01 00 00 00 a0 ab 45 00 00 00 00 00   .........E.....
  45ab90 00 00 00 00 00 00 00 00 00 00 00 00 00 00 00 00  ................
  45aba0 ff ff ff ff 5c ba 44 00 20 05 93 19 01 00 00 00  ....\.D. .......
  45abb0 c8 ab 45 00 00 00 00 00 00 00 00 00 00 00 00 00  ..E.............
  45abc0 00 00 00 00 00 00 00 00 ff ff ff ff 70 ba 44 00  ............p.D.
  45abd0 20 05 93 19 03 00 00 00 f0 ab 45 00 01 00 00 00   .........E.....
  45abe0 08 ac 45 00 00 00 00 00 00 00 00 00 00 00 00 00  ..E.............
  45abf0 ff ff ff ff 88 ba 44 00 ff ff ff ff 00 00 00 00  ......D.........
  45ac00 ff ff ff ff 00 00 00 00 01 00 00 00 01 00 00 00  ................
  45ac10 02 00 00 00 01 00 00 00 20 ac 45 00 00 00 00 00  ........ .E.....
  45ac20 00 00 00 00 00 00 00 00 00 00 00 00 c7 8e 40 00  ..............@.
  45ac30 20 05 93 19 03 00 00 00 50 ac 45 00 01 00 00 00   .......P.E.....
  45ac40 68 ac 45 00 00 00 00 00 00 00 00 00 00 00 00 00  h.E.............
  45ac50 ff ff ff ff 9c ba 44 00 ff ff ff ff 00 00 00 00  ......D.........
  45ac60 ff ff ff ff 00 00 00 00 01 00 00 00 01 00 00 00  ................
  45ac70 02 00 00 00 01 00 00 00 80 ac 45 00 00 00 00 00  ..........E.....
  45ac80 00 00 00 00 00 00 00 00 00 00 00 00 fb 8f 40 00  ..............@.
  45ac90 00 00 00 00 b8 3b 46 00 00 00 00 00 ff ff ff ff  .....;F.........
  45aca0 00 00 00 00 0c 00 00 00 2f fe 40 00 00 00 00 00  ......../.@.....
  45acb0 00 00 00 00 d0 3b 46 00 00 00 00 00 ff ff ff ff  .....;F.........
  45acc0 00 00 00 00 0c 00 00 00 87 ac 40 00 00 00 00 00  ..........@.....
  45acd0 02 00 00 00 b0 ac 45 00 90 ac 45 00 00 00 00 00  ......E...E.....
  45ace0 00 00 00 00 43 ac 40 00 00 00 00 00 d0 ac 45 00  ....C.@.......E.
  45acf0 20 05 93 19 02 00 00 00 10 ad 45 00 00 00 00 00   .........E.....
  45ad00 00 00 00 00 00 00 00 00 00 00 00 00 00 00 00 00  ................
  45ad10 ff ff ff ff b0 ba 44 00 00 00 00 00 b8 ba 44 00  ......D.......D.
  45ad20 20 05 93 19 02 00 00 00 40 ad 45 00 00 00 00 00   .......@.E.....
  45ad30 00 00 00 00 00 00 00 00 00 00 00 00 00 00 00 00  ................
  45ad40 ff ff ff ff cc ba 44 00 00 00 00 00 e6 ba 44 00  ......D.......D.
  45ad50 20 05 93 19 02 00 00 00 70 ad 45 00 00 00 00 00   .......p.E.....
  45ad60 00 00 00 00 00 00 00 00 00 00 00 00 00 00 00 00  ................
  45ad70 ff ff ff ff fc ba 44 00 00 00 00 00 16 bb 44 00  ......D.......D.
  45ad80 20 05 93 19 01 00 00 00 a0 ad 45 00 00 00 00 00   .........E.....
  45ad90 00 00 00 00 00 00 00 00 00 00 00 00 00 00 00 00  ................
  45ada0 ff ff ff ff 2c bb 44 00 20 05 93 19 01 00 00 00  ....,.D. .......
  45adb0 c8 ad 45 00 00 00 00 00 00 00 00 00 00 00 00 00  ..E.............
  45adc0 00 00 00 00 00 00 00 00 ff ff ff ff 50 bb 44 00  ............P.D.
  45add0 20 05 93 19 01 00 00 00 f0 ad 45 00 00 00 00 00   .........E.....
  45ade0 00 00 00 00 00 00 00 00 00 00 00 00 00 00 00 00  ................
  45adf0 ff ff ff ff 74 bb 44 00 20 05 93 19 02 00 00 00  ....t.D. .......
  45ae00 18 ae 45 00 00 00 00 00 00 00 00 00 00 00 00 00  ..E.............
  45ae10 00 00 00 00 00 00 00 00 ff ff ff ff 88 bb 44 00  ..............D.
  45ae20 ff ff ff ff 93 bb 44 00 20 05 93 19 01 00 00 00  ......D. .......
  45ae30 48 ae 45 00 00 00 00 00 00 00 00 00 00 00 00 00  H.E.............
  45ae40 00 00 00 00 00 00 00 00 ff ff ff ff a8 bb 44 00  ..............D.
  45ae50 20 05 93 19 03 00 00 00 70 ae 45 00 00 00 00 00   .......p.E.....
  45ae60 00 00 00 00 00 00 00 00 00 00 00 00 00 00 00 00  ................
  45ae70 ff ff ff ff bc bb 44 00 00 00 00 00 c4 bb 44 00  ......D.......D.
  45ae80 01 00 00 00 ce bb 44 00 20 05 93 19 05 00 00 00  ......D. .......
  45ae90 a8 ae 45 00 00 00 00 00 00 00 00 00 00 00 00 00  ..E.............
  45aea0 00 00 00 00 00 00 00 00 ff ff ff ff e0 bb 44 00  ..............D.
  45aeb0 ff ff ff ff e8 bb 44 00 01 00 00 00 f0 bb 44 00  ......D.......D.
  45aec0 01 00 00 00 f8 bb 44 00 ff ff ff ff 00 bc 44 00  ......D.......D.
  45aed0 20 05 93 19 01 00 00 00 f0 ae 45 00 00 00 00 00   .........E.....
  45aee0 00 00 00 00 00 00 00 00 00 00 00 00 00 00 00 00  ................
  45aef0 ff ff ff ff 14 bc 44 00 20 05 93 19 01 00 00 00  ......D. .......
  45af00 18 af 45 00 00 00 00 00 00 00 00 00 00 00 00 00  ..E.............
  45af10 00 00 00 00 00 00 00 00 ff ff ff ff 28 bc 44 00  ............(.D.
  45af20 20 05 93 19 01 00 00 00 40 af 45 00 00 00 00 00   .......@.E.....
  45af30 00 00 00 00 00 00 00 00 00 00 00 00 00 00 00 00  ................
  45af40 ff ff ff ff 3c bc 44 00 20 05 93 19 01 00 00 00  ....<.D. .......
  45af50 68 af 45 00 00 00 00 00 00 00 00 00 00 00 00 00  h.E.............
  45af60 00 00 00 00 00 00 00 00 ff ff ff ff 50 bc 44 00  ............P.D.
  45af70 20 05 93 19 01 00 00 00 90 af 45 00 00 00 00 00   .........E.....
  45af80 00 00 00 00 00 00 00 00 00 00 00 00 00 00 00 00  ................
  45af90 ff ff ff ff 64 bc 44 00 20 05 93 19 01 00 00 00  ....d.D. .......
  45afa0 b8 af 45 00 00 00 00 00 00 00 00 00 00 00 00 00  ..E.............
  45afb0 00 00 00 00 00 00 00 00 ff ff ff ff 78 bc 44 00  ............x.D.
  45afc0 20 05 93 19 01 00 00 00 e0 af 45 00 00 00 00 00   .........E.....
  45afd0 00 00 00 00 00 00 00 00 00 00 00 00 00 00 00 00  ................
  45afe0 ff ff ff ff 8c bc 44 00 20 05 93 19 01 00 00 00  ......D. .......
  45aff0 08 b0 45 00 00 00 00 00 00 00 00 00 00 00 00 00  ..E.............
  45b000 00 00 00 00 00 00 00 00 ff ff ff ff a0 bc 44 00  ..............D.
  45b010 20 05 93 19 02 00 00 00 30 b0 45 00 00 00 00 00   .......0.E.....
  45b020 00 00 00 00 00 00 00 00 00 00 00 00 00 00 00 00  ................
  45b030 ff ff ff ff b4 bc 44 00 00 00 00 00 bc bc 44 00  ......D.......D.
  45b040 20 05 93 19 02 00 00 00 60 b0 45 00 00 00 00 00   .......`.E.....
  45b050 00 00 00 00 00 00 00 00 00 00 00 00 00 00 00 00  ................
  45b060 ff ff ff ff d0 bc 44 00 00 00 00 00 d8 bc 44 00  ......D.......D.
  45b070 20 05 93 19 01 00 00 00 90 b0 45 00 00 00 00 00   .........E.....
  45b080 00 00 00 00 00 00 00 00 00 00 00 00 00 00 00 00  ................
  45b090 ff ff ff ff ec bc 44 00 20 05 93 19 02 00 00 00  ......D. .......
  45b0a0 b8 b0 45 00 00 00 00 00 00 00 00 00 00 00 00 00  ..E.............
  45b0b0 00 00 00 00 00 00 00 00 ff ff ff ff 00 bd 44 00  ..............D.
  45b0c0 00 00 00 00 08 bd 44 00 20 05 93 19 01 00 00 00  ......D. .......
  45b0d0 e8 b0 45 00 00 00 00 00 00 00 00 00 00 00 00 00  ..E.............
  45b0e0 00 00 00 00 00 00 00 00 ff ff ff ff 1c bd 44 00  ..............D.
  45b0f0 20 05 93 19 01 00 00 00 10 b1 45 00 00 00 00 00   .........E.....
  45b100 00 00 00 00 00 00 00 00 00 00 00 00 00 00 00 00  ................
  45b110 ff ff ff ff 30 bd 44 00 20 05 93 19 01 00 00 00  ....0.D. .......
  45b120 38 b1 45 00 00 00 00 00 00 00 00 00 00 00 00 00  8.E.............
  45b130 00 00 00 00 00 00 00 00 ff ff ff ff 44 bd 44 00  ............D.D.
  45b140 20 05 93 19 01 00 00 00 60 b1 45 00 00 00 00 00   .......`.E.....
  45b150 00 00 00 00 00 00 00 00 00 00 00 00 00 00 00 00  ................
  45b160 ff ff ff ff 58 bd 44 00 20 05 93 19 03 00 00 00  ....X.D. .......
  45b170 88 b1 45 00 00 00 00 00 00 00 00 00 00 00 00 00  ..E.............
  45b180 00 00 00 00 00 00 00 00 ff ff ff ff 6c bd 44 00  ............l.D.
  45b190 00 00 00 00 74 bd 44 00 01 00 00 00 7c bd 44 00  ....t.D.....|.D.
  45b1a0 20 05 93 19 01 00 00 00 c0 b1 45 00 00 00 00 00   .........E.....
  45b1b0 00 00 00 00 00 00 00 00 00 00 00 00 00 00 00 00  ................
  45b1c0 ff ff ff ff 90 bd 44 00 20 05 93 19 12 00 00 00  ......D. .......
  45b1d0 e8 b1 45 00 00 00 00 00 00 00 00 00 00 00 00 00  ..E.............
  45b1e0 00 00 00 00 00 00 00 00 ff ff ff ff a4 bd 44 00  ..............D.
  45b1f0 00 00 00 00 ac bd 44 00 01 00 00 00 ba bd 44 00  ......D.......D.
  45b200 02 00 00 00 c8 bd 44 00 03 00 00 00 d6 bd 44 00  ......D.......D.
  45b210 04 00 00 00 e4 bd 44 00 05 00 00 00 f2 bd 44 00  ......D.......D.
  45b220 06 00 00 00 00 be 44 00 07 00 00 00 0e be 44 00  ......D.......D.
  45b230 08 00 00 00 1c be 44 00 09 00 00 00 2a be 44 00  ......D.....*.D.
  45b240 0a 00 00 00 38 be 44 00 0b 00 00 00 46 be 44 00  ....8.D.....F.D.
  45b250 0c 00 00 00 54 be 44 00 0d 00 00 00 62 be 44 00  ....T.D.....b.D.
  45b260 0e 00 00 00 70 be 44 00 0f 00 00 00 7e be 44 00  ....p.D.....~.D.
  45b270 10 00 00 00 8c be 44 00 20 05 93 19 15 00 00 00  ......D. .......
  45b280 98 b2 45 00 00 00 00 00 00 00 00 00 00 00 00 00  ..E.............
  45b290 00 00 00 00 00 00 00 00 ff ff ff ff a4 be 44 00  ..............D.
  45b2a0 00 00 00 00 ac be 44 00 01 00 00 00 ba be 44 00  ......D.......D.
  45b2b0 02 00 00 00 c8 be 44 00 03 00 00 00 d6 be 44 00  ......D.......D.
  45b2c0 04 00 00 00 e4 be 44 00 05 00 00 00 f2 be 44 00  ......D.......D.
  45b2d0 06 00 00 00 00 bf 44 00 07 00 00 00 0e bf 44 00  ......D.......D.
  45b2e0 08 00 00 00 1c bf 44 00 09 00 00 00 2a bf 44 00  ......D.....*.D.
  45b2f0 0a 00 00 00 38 bf 44 00 0b 00 00 00 46 bf 44 00  ....8.D.....F.D.
  45b300 0c 00 00 00 54 bf 44 00 0d 00 00 00 62 bf 44 00  ....T.D.....b.D.
  45b310 0e 00 00 00 70 bf 44 00 0f 00 00 00 7e bf 44 00  ....p.D.....~.D.
  45b320 10 00 00 00 8c bf 44 00 02 00 00 00 9a bf 44 00  ......D.......D.
  45b330 01 00 00 00 a2 bf 44 00 00 00 00 00 aa bf 44 00  ......D.......D.
  45b340 20 05 93 19 01 00 00 00 60 b3 45 00 00 00 00 00   .......`.E.....
  45b350 00 00 00 00 00 00 00 00 00 00 00 00 00 00 00 00  ................
  45b360 ff ff ff ff bc bf 44 00 20 05 93 19 03 00 00 00  ......D. .......
  45b370 88 b3 45 00 00 00 00 00 00 00 00 00 00 00 00 00  ..E.............
  45b380 00 00 00 00 00 00 00 00 ff ff ff ff d0 bf 44 00  ..............D.
  45b390 00 00 00 00 d8 bf 44 00 00 00 00 00 e0 bf 44 00  ......D.......D.
  45b3a0 20 05 93 19 04 00 00 00 c0 b3 45 00 00 00 00 00   .........E.....
  45b3b0 00 00 00 00 00 00 00 00 00 00 00 00 00 00 00 00  ................
  45b3c0 ff ff ff ff f4 bf 44 00 00 00 00 00 fc bf 44 00  ......D.......D.
  45b3d0 01 00 00 00 04 c0 44 00 02 00 00 00 0c c0 44 00  ......D.......D.
  45b3e0 20 05 93 19 07 00 00 00 00 b4 45 00 00 00 00 00   .........E.....
  45b3f0 00 00 00 00 00 00 00 00 00 00 00 00 00 00 00 00  ................
  45b400 ff ff ff ff 20 c0 44 00 00 00 00 00 28 c0 44 00  .... .D.....(.D.
  45b410 01 00 00 00 30 c0 44 00 02 00 00 00 38 c0 44 00  ....0.D.....8.D.
  45b420 02 00 00 00 40 c0 44 00 01 00 00 00 48 c0 44 00  ....@.D.....H.D.
  45b430 00 00 00 00 50 c0 44 00 20 05 93 19 18 00 00 00  ....P.D. .......
  45b440 58 b4 45 00 00 00 00 00 00 00 00 00 00 00 00 00  X.E.............
  45b450 00 00 00 00 00 00 00 00 ff ff ff ff 64 c0 44 00  ............d.D.
  45b460 00 00 00 00 6c c0 44 00 01 00 00 00 74 c0 44 00  ....l.D.....t.D.
  45b470 02 00 00 00 7c c0 44 00 03 00 00 00 84 c0 44 00  ....|.D.......D.
  45b480 04 00 00 00 8c c0 44 00 05 00 00 00 94 c0 44 00  ......D.......D.
  45b490 06 00 00 00 9c c0 44 00 07 00 00 00 a4 c0 44 00  ......D.......D.
  45b4a0 06 00 00 00 ac c0 44 00 09 00 00 00 b4 c0 44 00  ......D.......D.
  45b4b0 06 00 00 00 bc c0 44 00 0b 00 00 00 c4 c0 44 00  ......D.......D.
  45b4c0 06 00 00 00 cc c0 44 00 0d 00 00 00 d4 c0 44 00  ......D.......D.
  45b4d0 06 00 00 00 dc c0 44 00 06 00 00 00 e4 c0 44 00  ......D.......D.
  45b4e0 06 00 00 00 ec c0 44 00 11 00 00 00 f4 c0 44 00  ......D.......D.
  45b4f0 12 00 00 00 fc c0 44 00 13 00 00 00 04 c1 44 00  ......D.......D.
  45b500 14 00 00 00 0c c1 44 00 15 00 00 00 14 c1 44 00  ......D.......D.
  45b510 16 00 00 00 1c c1 44 00 20 05 93 19 03 00 00 00  ......D. .......
  45b520 38 b5 45 00 00 00 00 00 00 00 00 00 00 00 00 00  8.E.............
  45b530 00 00 00 00 00 00 00 00 ff ff ff ff 30 c1 44 00  ............0.D.
  45b540 00 00 00 00 38 c1 44 00 01 00 00 00 40 c1 44 00  ....8.D.....@.D.
  45b550 20 05 93 19 01 00 00 00 70 b5 45 00 00 00 00 00   .......p.E.....
  45b560 00 00 00 00 00 00 00 00 00 00 00 00 00 00 00 00  ................
  45b570 ff ff ff ff 54 c1 44 00 20 05 93 19 02 00 00 00  ....T.D. .......
  45b580 98 b5 45 00 00 00 00 00 00 00 00 00 00 00 00 00  ..E.............
  45b590 00 00 00 00 00 00 00 00 ff ff ff ff 70 c1 44 00  ............p.D.
  45b5a0 00 00 00 00 68 c1 44 00 20 05 93 19 02 00 00 00  ....h.D. .......
  45b5b0 c8 b5 45 00 00 00 00 00 00 00 00 00 00 00 00 00  ..E.............
  45b5c0 00 00 00 00 00 00 00 00 ff ff ff ff 9c c1 44 00  ..............D.
  45b5d0 00 00 00 00 94 c1 44 00 20 05 93 19 03 00 00 00  ......D. .......
  45b5e0 f8 b5 45 00 00 00 00 00 00 00 00 00 00 00 00 00  ..E.............
  45b5f0 00 00 00 00 00 00 00 00 ff ff ff ff c0 c1 44 00  ..............D.
  45b600 00 00 00 00 c9 c1 44 00 01 00 00 00 d1 c1 44 00  ......D.......D.
  45b610 20 05 93 19 02 00 00 00 30 b6 45 00 00 00 00 00   .......0.E.....
  45b620 00 00 00 00 00 00 00 00 00 00 00 00 00 00 00 00  ................
  45b630 ff ff ff ff ec c1 44 00 00 00 00 00 e4 c1 44 00  ......D.......D.
  45b640 20 05 93 19 02 00 00 00 60 b6 45 00 00 00 00 00   .......`.E.....
  45b650 00 00 00 00 00 00 00 00 00 00 00 00 00 00 00 00  ................
  45b660 ff ff ff ff 10 c2 44 00 00 00 00 00 27 c2 44 00  ......D.....'.D.
  45b670 20 05 93 19 05 00 00 00 90 b6 45 00 00 00 00 00   .........E.....
  45b680 00 00 00 00 00 00 00 00 00 00 00 00 00 00 00 00  ................
  45b690 ff ff ff ff 44 c2 44 00 00 00 00 00 3c c2 44 00  ....D.D.....<.D.
  45b6a0 01 00 00 00 5b c2 44 00 02 00 00 00 63 c2 44 00  ....[.D.....c.D.
  45b6b0 03 00 00 00 6b c2 44 00 20 05 93 19 02 00 00 00  ....k.D. .......
  45b6c0 d8 b6 45 00 00 00 00 00 00 00 00 00 00 00 00 00  ..E.............
  45b6d0 00 00 00 00 00 00 00 00 ff ff ff ff 89 c2 44 00  ..............D.
  45b6e0 00 00 00 00 80 c2 44 00 20 05 93 19 04 00 00 00  ......D. .......
  45b6f0 08 b7 45 00 00 00 00 00 00 00 00 00 00 00 00 00  ..E.............
  45b700 00 00 00 00 00 00 00 00 ff ff ff ff c4 c2 44 00  ..............D.
  45b710 00 00 00 00 ac c2 44 00 01 00 00 00 b4 c2 44 00  ......D.......D.
  45b720 02 00 00 00 bc c2 44 00 20 05 93 19 02 00 00 00  ......D. .......
  45b730 48 b7 45 00 01 00 00 00 58 b7 45 00 00 00 00 00  H.E.....X.E.....
  45b740 00 00 00 00 00 00 00 00 ff ff ff ff 00 00 00 00  ................
  45b750 ff ff ff ff 00 00 00 00 00 00 00 00 00 00 00 00  ................
  45b760 01 00 00 00 01 00 00 00 70 b7 45 00 00 00 00 00  ........p.E.....
  45b770 00 00 00 00 00 00 00 00 00 00 00 00 e1 da 40 00  ..............@.
  45b780 20 05 93 19 01 00 00 00 a0 b7 45 00 00 00 00 00   .........E.....
  45b790 00 00 00 00 00 00 00 00 00 00 00 00 00 00 00 00  ................
  45b7a0 ff ff ff ff f4 c2 44 00 20 05 93 19 04 00 00 00  ......D. .......
  45b7b0 c8 b7 45 00 01 00 00 00 e8 b7 45 00 00 00 00 00  ..E.......E.....
  45b7c0 00 00 00 00 00 00 00 00 ff ff ff ff 00 00 00 00  ................
  45b7d0 00 00 00 00 08 c3 44 00 01 00 00 00 10 c3 44 00  ......D.......D.
  45b7e0 ff ff ff ff 00 00 00 00 00 00 00 00 02 00 00 00  ................
  45b7f0 03 00 00 00 01 00 00 00 00 b8 45 00 00 00 00 00  ..........E.....
  45b800 00 00 00 00 c8 3e 46 00 d4 ff ff ff 07 4c 43 00  .....>F......LC.
  45b810 20 05 93 19 02 00 00 00 30 b8 45 00 01 00 00 00   .......0.E.....
  45b820 40 b8 45 00 00 00 00 00 00 00 00 00 00 00 00 00  @.E.............
  45b830 ff ff ff ff 00 00 00 00 ff ff ff ff 00 00 00 00  ................
  45b840 00 00 00 00 00 00 00 00 01 00 00 00 01 00 00 00  ................
  45b850 58 b8 45 00 00 00 00 00 00 00 00 00 c8 3e 46 00  X.E..........>F.
  45b860 dc ff ff ff d9 4e 43 00 20 05 93 19 02 00 00 00  .....NC. .......
  45b870 88 b8 45 00 01 00 00 00 98 b8 45 00 00 00 00 00  ..E.......E.....
  45b880 00 00 00 00 00 00 00 00 ff ff ff ff 00 00 00 00  ................
  45b890 ff ff ff ff 00 00 00 00 00 00 00 00 00 00 00 00  ................
  45b8a0 01 00 00 00 01 00 00 00 b0 b8 45 00 00 00 00 00  ..........E.....
  45b8b0 00 00 00 00 c8 3e 46 00 0c 00 00 00 e8 55 43 00  .....>F......UC.
  45b8c0 20 05 93 19 01 00 00 00 e0 b8 45 00 00 00 00 00   .........E.....
  45b8d0 00 00 00 00 00 00 00 00 00 00 00 00 00 00 00 00  ................
  45b8e0 ff ff ff ff 3c c3 44 00 20 05 93 19 02 00 00 00  ....<.D. .......
  45b8f0 08 b9 45 00 01 00 00 00 18 b9 45 00 00 00 00 00  ..E.......E.....
  45b900 00 00 00 00 00 00 00 00 ff ff ff ff 00 00 00 00  ................
  45b910 ff ff ff ff 00 00 00 00 00 00 00 00 00 00 00 00  ................
  45b920 01 00 00 00 01 00 00 00 30 b9 45 00 00 00 00 00  ........0.E.....
  45b930 00 00 00 00 c8 3e 46 00 e0 ff ff ff 04 59 43 00  .....>F......YC.
  45b940 20 05 93 19 01 00 00 00 60 b9 45 00 00 00 00 00   .......`.E.....
  45b950 00 00 00 00 00 00 00 00 00 00 00 00 00 00 00 00  ................
  45b960 ff ff ff ff 5c c3 44 00 20 05 93 19 02 00 00 00  ....\.D. .......
  45b970 88 b9 45 00 01 00 00 00 98 b9 45 00 00 00 00 00  ..E.......E.....
  45b980 00 00 00 00 00 00 00 00 ff ff ff ff 00 00 00 00  ................
  45b990 ff ff ff ff 00 00 00 00 00 00 00 00 00 00 00 00  ................
  45b9a0 01 00 00 00 01 00 00 00 b0 b9 45 00 00 00 00 00  ..........E.....
  45b9b0 00 00 00 00 c8 3e 46 00 c4 ff ff ff 79 64 43 00  .....>F.....ydC.
  45b9c0 20 05 93 19 01 00 00 00 e0 b9 45 00 00 00 00 00   .........E.....
  45b9d0 00 00 00 00 00 00 00 00 00 00 00 00 00 00 00 00  ................
  45b9e0 ff ff ff ff 7c c3 44 00 20 05 93 19 03 00 00 00  ....|.D. .......
  45b9f0 08 ba 45 00 00 00 00 00 00 00 00 00 00 00 00 00  ..E.............
  45ba00 00 00 00 00 00 00 00 00 ff ff ff ff 90 c3 44 00  ..............D.
  45ba10 00 00 00 00 98 c3 44 00 ff ff ff ff a0 c3 44 00  ......D.......D.
  45ba20 20 05 93 19 01 00 00 00 40 ba 45 00 00 00 00 00   .......@.E.....
  45ba30 00 00 00 00 00 00 00 00 00 00 00 00 00 00 00 00  ................
  45ba40 ff ff ff ff b4 c3 44 00 20 05 93 19 02 00 00 00  ......D. .......
  45ba50 68 ba 45 00 01 00 00 00 78 ba 45 00 00 00 00 00  h.E.....x.E.....
  45ba60 00 00 00 00 00 00 00 00 ff ff ff ff 00 00 00 00  ................
  45ba70 ff ff ff ff 00 00 00 00 00 00 00 00 00 00 00 00  ................
  45ba80 01 00 00 00 02 00 00 00 90 ba 45 00 00 00 00 00  ..........E.....
  45ba90 00 00 00 00 20 3f 46 00 d0 ff ff ff e5 7c 43 00  .... ?F......|C.
  45baa0 00 00 00 00 c8 3e 46 00 e4 ff ff ff eb 7c 43 00  .....>F......|C.
  45bab0 20 05 93 19 01 00 00 00 d0 ba 45 00 00 00 00 00   .........E.....
  45bac0 00 00 00 00 00 00 00 00 00 00 00 00 00 00 00 00  ................
  45bad0 ff ff ff ff d4 c3 44 00 20 05 93 19 01 00 00 00  ......D. .......
  45bae0 f8 ba 45 00 00 00 00 00 00 00 00 00 00 00 00 00  ..E.............
  45baf0 00 00 00 00 00 00 00 00 ff ff ff ff e8 c3 44 00  ..............D.
  45bb00 20 05 93 19 01 00 00 00 20 bb 45 00 00 00 00 00   ....... .E.....
  45bb10 00 00 00 00 00 00 00 00 00 00 00 00 00 00 00 00  ................
  45bb20 ff ff ff ff fc c3 44 00 20 05 93 19 01 00 00 00  ......D. .......
  45bb30 48 bb 45 00 00 00 00 00 00 00 00 00 00 00 00 00  H.E.............
  45bb40 00 00 00 00 00 00 00 00 ff ff ff ff 10 c4 44 00  ..............D.
  45bb50 20 05 93 19 01 00 00 00 70 bb 45 00 00 00 00 00   .......p.E.....
  45bb60 00 00 00 00 00 00 00 00 00 00 00 00 00 00 00 00  ................
  45bb70 ff ff ff ff 24 c4 44 00 20 05 93 19 01 00 00 00  ....$.D. .......
  45bb80 98 bb 45 00 00 00 00 00 00 00 00 00 00 00 00 00  ..E.............
  45bb90 00 00 00 00 00 00 00 00 ff ff ff ff 38 c4 44 00  ............8.D.
  45bba0 20 05 93 19 01 00 00 00 c0 bb 45 00 00 00 00 00   .........E.....
  45bbb0 00 00 00 00 00 00 00 00 00 00 00 00 00 00 00 00  ................
  45bbc0 ff ff ff ff 4c c4 44 00 20 05 93 19 01 00 00 00  ....L.D. .......
  45bbd0 e8 bb 45 00 00 00 00 00 00 00 00 00 00 00 00 00  ..E.............
  45bbe0 00 00 00 00 00 00 00 00 ff ff ff ff 60 c4 44 00  ............`.D.
  45bbf0 20 05 93 19 01 00 00 00 10 bc 45 00 00 00 00 00   .........E.....
  45bc00 00 00 00 00 00 00 00 00 00 00 00 00 00 00 00 00  ................
  45bc10 ff ff ff ff 74 c4 44 00 20 05 93 19 01 00 00 00  ....t.D. .......
  45bc20 38 bc 45 00 00 00 00 00 00 00 00 00 00 00 00 00  8.E.............
  45bc30 00 00 00 00 00 00 00 00 ff ff ff ff 88 c4 44 00  ..............D.
  45bc40 20 05 93 19 01 00 00 00 60 bc 45 00 00 00 00 00   .......`.E.....
  45bc50 00 00 00 00 00 00 00 00 00 00 00 00 00 00 00 00  ................
  45bc60 ff ff ff ff 9c c4 44 00 20 05 93 19 01 00 00 00  ......D. .......
  45bc70 88 bc 45 00 00 00 00 00 00 00 00 00 00 00 00 00  ..E.............
  45bc80 00 00 00 00 00 00 00 00 ff ff ff ff b0 c4 44 00  ..............D.
  45bc90 20 05 93 19 01 00 00 00 b0 bc 45 00 00 00 00 00   .........E.....
  45bca0 00 00 00 00 00 00 00 00 00 00 00 00 00 00 00 00  ................
  45bcb0 ff ff ff ff c4 c4 44 00 20 05 93 19 01 00 00 00  ......D. .......
  45bcc0 d8 bc 45 00 00 00 00 00 00 00 00 00 00 00 00 00  ..E.............
  45bcd0 00 00 00 00 00 00 00 00 ff ff ff ff d8 c4 44 00  ..............D.
  45bce0 20 05 93 19 01 00 00 00 00 bd 45 00 00 00 00 00   .........E.....
  45bcf0 00 00 00 00 00 00 00 00 00 00 00 00 00 00 00 00  ................
  45bd00 ff ff ff ff ec c4 44 00 20 05 93 19 01 00 00 00  ......D. .......
  45bd10 28 bd 45 00 00 00 00 00 00 00 00 00 00 00 00 00  (.E.............
  45bd20 00 00 00 00 00 00 00 00 ff ff ff ff 00 c5 44 00  ..............D.
  45bd30 20 05 93 19 01 00 00 00 50 bd 45 00 00 00 00 00   .......P.E.....
  45bd40 00 00 00 00 00 00 00 00 00 00 00 00 00 00 00 00  ................
  45bd50 ff ff ff ff 14 c5 44 00 20 05 93 19 01 00 00 00  ......D. .......
  45bd60 78 bd 45 00 00 00 00 00 00 00 00 00 00 00 00 00  x.E.............
  45bd70 00 00 00 00 00 00 00 00 ff ff ff ff 28 c5 44 00  ............(.D.
  45bd80 20 05 93 19 01 00 00 00 a0 bd 45 00 00 00 00 00   .........E.....
  45bd90 00 00 00 00 00 00 00 00 00 00 00 00 00 00 00 00  ................
  45bda0 ff ff ff ff 3c c5 44 00 20 05 93 19 01 00 00 00  ....<.D. .......
  45bdb0 c8 bd 45 00 00 00 00 00 00 00 00 00 00 00 00 00  ..E.............
  45bdc0 00 00 00 00 00 00 00 00 ff ff ff ff 50 c5 44 00  ............P.D.
  45bdd0 20 05 93 19 01 00 00 00 f0 bd 45 00 00 00 00 00   .........E.....
  45bde0 00 00 00 00 00 00 00 00 00 00 00 00 00 00 00 00  ................
  45bdf0 ff ff ff ff 64 c5 44 00 20 05 93 19 01 00 00 00  ....d.D. .......
  45be00 18 be 45 00 00 00 00 00 00 00 00 00 00 00 00 00  ..E.............
  45be10 00 00 00 00 00 00 00 00 ff ff ff ff 78 c5 44 00  ............x.D.
  45be20 20 05 93 19 01 00 00 00 40 be 45 00 00 00 00 00   .......@.E.....
  45be30 00 00 00 00 00 00 00 00 00 00 00 00 00 00 00 00  ................
  45be40 ff ff ff ff 8c c5 44 00 20 05 93 19 01 00 00 00  ......D. .......
  45be50 68 be 45 00 00 00 00 00 00 00 00 00 00 00 00 00  h.E.............
  45be60 00 00 00 00 00 00 00 00 ff ff ff ff a0 c5 44 00  ..............D.
  45be70 20 05 93 19 01 00 00 00 90 be 45 00 00 00 00 00   .........E.....
  45be80 00 00 00 00 00 00 00 00 00 00 00 00 00 00 00 00  ................
  45be90 ff ff ff ff b4 c5 44 00 20 05 93 19 01 00 00 00  ......D. .......
  45bea0 b8 be 45 00 00 00 00 00 00 00 00 00 00 00 00 00  ..E.............
  45beb0 00 00 00 00 00 00 00 00 ff ff ff ff c8 c5 44 00  ..............D.
  45bec0 20 05 93 19 01 00 00 00 e0 be 45 00 00 00 00 00   .........E.....
  45bed0 00 00 00 00 00 00 00 00 00 00 00 00 00 00 00 00  ................
  45bee0 ff ff ff ff dc c5 44 00 01 00 00 00 28 41 46 00  ......D.....(AF.
  45bef0 00 00 00 00 ff ff ff ff 00 00 00 00 04 00 00 00  ................
  45bf00 00 00 00 00 00 00 00 00 01 00 00 00 38 41 46 00  ............8AF.
  45bf10 00 00 00 00 ff ff ff ff 00 00 00 00 04 00 00 00  ................
  45bf20 00 00 00 00 00 00 00 00 01 00 00 00 c8 3e 46 00  .............>F.
  45bf30 00 00 00 00 ff ff ff ff 00 00 00 00 04 00 00 00  ................
  45bf40 00 00 00 00 00 00 00 00 01 00 00 00 50 41 46 00  ............PAF.
  45bf50 00 00 00 00 ff ff ff ff 00 00 00 00 04 00 00 00  ................
  45bf60 00 00 00 00 00 00 00 00 01 00 00 00 70 41 46 00  ............pAF.
  45bf70 00 00 00 00 ff ff ff ff 00 00 00 00 04 00 00 00  ................
  45bf80 00 00 00 00 00 00 00 00 05 00 00 00 68 bf 45 00  ............h.E.
  45bf90 48 bf 45 00 28 bf 45 00 08 bf 45 00 e8 be 45 00  H.E.(.E...E...E.
  45bfa0 00 00 00 00 00 00 00 00 00 00 00 00 88 bf 45 00  ..............E.
  45bfb0 01 00 00 00 20 3f 46 00 00 00 00 00 ff ff ff ff  .... ?F.........
  45bfc0 00 00 00 00 04 00 00 00 00 00 00 00 00 00 00 00  ................
  45bfd0 05 00 00 00 b0 bf 45 00 48 bf 45 00 28 bf 45 00  ......E.H.E.(.E.
  45bfe0 08 bf 45 00 e8 be 45 00 00 00 00 00 00 00 00 00  ..E...E.........
  45bff0 00 00 00 00 d0 bf 45 00 20 05 93 19 02 00 00 00  ......E. .......
  45c000 18 c0 45 00 00 00 00 00 00 00 00 00 00 00 00 00  ..E.............
  45c010 00 00 00 00 00 00 00 00 ff ff ff ff f8 c5 44 00  ..............D.
  45c020 00 00 00 00 f0 c5 44 00 20 05 93 19 02 00 00 00  ......D. .......
  45c030 48 c0 45 00 00 00 00 00 00 00 00 00 00 00 00 00  H.E.............
  45c040 00 00 00 00 00 00 00 00 ff ff ff ff 24 c6 44 00  ............$.D.
  45c050 00 00 00 00 1c c6 44 00 20 05 93 19 02 00 00 00  ......D. .......
  45c060 78 c0 45 00 00 00 00 00 00 00 00 00 00 00 00 00  x.E.............
  45c070 00 00 00 00 00 00 00 00 ff ff ff ff 50 c6 44 00  ............P.D.
  45c080 00 00 00 00 48 c6 44 00 20 05 93 19 01 00 00 00  ....H.D. .......
  45c090 a8 c0 45 00 00 00 00 00 00 00 00 00 00 00 00 00  ..E.............
  45c0a0 00 00 00 00 00 00 00 00 ff ff ff ff 74 c6 44 00  ............t.D.
  45c0b0 20 05 93 19 01 00 00 00 d0 c0 45 00 00 00 00 00   .........E.....
  45c0c0 00 00 00 00 00 00 00 00 00 00 00 00 00 00 00 00  ................
  45c0d0 ff ff ff ff 88 c6 44 00 20 05 93 19 01 00 00 00  ......D. .......
  45c0e0 f8 c0 45 00 00 00 00 00 00 00 00 00 00 00 00 00  ..E.............
  45c0f0 00 00 00 00 00 00 00 00 ff ff ff ff 9c c6 44 00  ..............D.
  45c100 20 05 93 19 01 00 00 00 20 c1 45 00 00 00 00 00   ....... .E.....
  45c110 00 00 00 00 00 00 00 00 00 00 00 00 00 00 00 00  ................
  45c120 ff ff ff ff b0 c6 44 00 20 05 93 19 01 00 00 00  ......D. .......
  45c130 48 c1 45 00 00 00 00 00 00 00 00 00 00 00 00 00  H.E.............
  45c140 00 00 00 00 00 00 00 00 ff ff ff ff c4 c6 44 00  ..............D.
  45c150 20 05 93 19 04 00 00 00 70 c1 45 00 00 00 00 00   .......p.E.....
  45c160 00 00 00 00 00 00 00 00 00 00 00 00 00 00 00 00  ................
  45c170 ff ff ff ff d8 c6 44 00 00 00 00 00 e0 c6 44 00  ......D.......D.
  45c180 01 00 00 00 e8 c6 44 00 00 00 00 00 e8 c6 44 00  ......D.......D.
  45c190 20 05 93 19 01 00 00 00 b0 c1 45 00 00 00 00 00   .........E.....
  45c1a0 00 00 00 00 00 00 00 00 00 00 00 00 00 00 00 00  ................
  45c1b0 ff ff ff ff fc c6 44 00 20 05 93 19 01 00 00 00  ......D. .......
  45c1c0 d8 c1 45 00 00 00 00 00 00 00 00 00 00 00 00 00  ..E.............
  45c1d0 00 00 00 00 00 00 00 00 ff ff ff ff 10 c7 44 00  ..............D.
  45c1e0 20 05 93 19 05 00 00 00 00 c2 45 00 00 00 00 00   .........E.....
  45c1f0 00 00 00 00 00 00 00 00 00 00 00 00 00 00 00 00  ................
  45c200 ff ff ff ff 24 c7 44 00 00 00 00 00 2c c7 44 00  ....$.D.....,.D.
  45c210 01 00 00 00 34 c7 44 00 02 00 00 00 3c c7 44 00  ....4.D.....<.D.
  45c220 03 00 00 00 44 c7 44 00 20 05 93 19 01 00 00 00  ....D.D. .......
  45c230 48 c2 45 00 00 00 00 00 00 00 00 00 00 00 00 00  H.E.............
  45c240 00 00 00 00 00 00 00 00 ff ff ff ff 58 c7 44 00  ............X.D.
  45c250 20 05 93 19 0a 00 00 00 70 c2 45 00 00 00 00 00   .......p.E.....
  45c260 00 00 00 00 00 00 00 00 00 00 00 00 00 00 00 00  ................
  45c270 ff ff ff ff 6c c7 44 00 00 00 00 00 74 c7 44 00  ....l.D.....t.D.
  45c280 01 00 00 00 7c c7 44 00 02 00 00 00 84 c7 44 00  ....|.D.......D.
  45c290 03 00 00 00 8c c7 44 00 03 00 00 00 94 c7 44 00  ......D.......D.
  45c2a0 02 00 00 00 9c c7 44 00 01 00 00 00 a4 c7 44 00  ......D.......D.
  45c2b0 00 00 00 00 ac c7 44 00 ff ff ff ff b4 c7 44 00  ......D.......D.
  45c2c0 20 05 93 19 01 00 00 00 e0 c2 45 00 00 00 00 00   .........E.....
  45c2d0 00 00 00 00 00 00 00 00 00 00 00 00 00 00 00 00  ................
  45c2e0 ff ff ff ff c8 c7 44 00 20 05 93 19 03 00 00 00  ......D. .......
  45c2f0 08 c3 45 00 00 00 00 00 00 00 00 00 00 00 00 00  ..E.............
  45c300 00 00 00 00 00 00 00 00 ff ff ff ff dc c7 44 00  ..............D.
  45c310 00 00 00 00 e4 c7 44 00 01 00 00 00 ef c7 44 00  ......D.......D.
  45c320 20 05 93 19 03 00 00 00 40 c3 45 00 00 00 00 00   .......@.E.....
  45c330 00 00 00 00 00 00 00 00 00 00 00 00 00 00 00 00  ................
  45c340 ff ff ff ff 08 c8 44 00 00 00 00 00 10 c8 44 00  ......D.......D.
  45c350 01 00 00 00 1b c8 44 00 20 05 93 19 01 00 00 00  ......D. .......
  45c360 78 c3 45 00 00 00 00 00 00 00 00 00 00 00 00 00  x.E.............
  45c370 00 00 00 00 00 00 00 00 ff ff ff ff 34 c8 44 00  ............4.D.
  45c380 20 05 93 19 01 00 00 00 a0 c3 45 00 00 00 00 00   .........E.....
  45c390 00 00 00 00 00 00 00 00 00 00 00 00 00 00 00 00  ................
  45c3a0 ff ff ff ff 48 c8 44 00 20 05 93 19 01 00 00 00  ....H.D. .......
  45c3b0 c8 c3 45 00 00 00 00 00 00 00 00 00 00 00 00 00  ..E.............
  45c3c0 00 00 00 00 00 00 00 00 ff ff ff ff 5c c8 44 00  ............\.D.
  45c3d0 20 05 93 19 01 00 00 00 f0 c3 45 00 00 00 00 00   .........E.....
  45c3e0 00 00 00 00 00 00 00 00 00 00 00 00 00 00 00 00  ................
  45c3f0 ff ff ff ff 70 c8 44 00 20 05 93 19 01 00 00 00  ....p.D. .......
  45c400 18 c4 45 00 00 00 00 00 00 00 00 00 00 00 00 00  ..E.............
  45c410 00 00 00 00 00 00 00 00 ff ff ff ff 84 c8 44 00  ..............D.
  45c420 20 05 93 19 01 00 00 00 40 c4 45 00 00 00 00 00   .......@.E.....
  45c430 00 00 00 00 00 00 00 00 00 00 00 00 00 00 00 00  ................
  45c440 ff ff ff ff 98 c8 44 00 20 05 93 19 01 00 00 00  ......D. .......
  45c450 68 c4 45 00 00 00 00 00 00 00 00 00 00 00 00 00  h.E.............
  45c460 00 00 00 00 00 00 00 00 ff ff ff ff ac c8 44 00  ..............D.
  45c470 20 05 93 19 01 00 00 00 90 c4 45 00 00 00 00 00   .........E.....
  45c480 00 00 00 00 00 00 00 00 00 00 00 00 00 00 00 00  ................
  45c490 ff ff ff ff c0 c8 44 00 20 05 93 19 01 00 00 00  ......D. .......
  45c4a0 b8 c4 45 00 00 00 00 00 00 00 00 00 00 00 00 00  ..E.............
  45c4b0 00 00 00 00 00 00 00 00 ff ff ff ff d4 c8 44 00  ..............D.
  45c4c0 20 05 93 19 01 00 00 00 e0 c4 45 00 00 00 00 00   .........E.....
  45c4d0 00 00 00 00 00 00 00 00 00 00 00 00 00 00 00 00  ................
  45c4e0 ff ff ff ff e8 c8 44 00 20 05 93 19 04 00 00 00  ......D. .......
  45c4f0 08 c5 45 00 00 00 00 00 00 00 00 00 00 00 00 00  ..E.............
  45c500 00 00 00 00 00 00 00 00 ff ff ff ff fc c8 44 00  ..............D.
  45c510 00 00 00 00 04 c9 44 00 01 00 00 00 0f c9 44 00  ......D.......D.
  45c520 02 00 00 00 1a c9 44 00 20 05 93 19 01 00 00 00  ......D. .......
  45c530 48 c5 45 00 00 00 00 00 00 00 00 00 00 00 00 00  H.E.............
  45c540 00 00 00 00 00 00 00 00 ff ff ff ff 30 c9 44 00  ............0.D.
  45c550 20 05 93 19 01 00 00 00 70 c5 45 00 00 00 00 00   .......p.E.....
  45c560 00 00 00 00 00 00 00 00 00 00 00 00 00 00 00 00  ................
  45c570 ff ff ff ff 44 c9 44 00 20 05 93 19 03 00 00 00  ....D.D. .......
  45c580 98 c5 45 00 01 00 00 00 b0 c5 45 00 00 00 00 00  ..E.......E.....
  45c590 00 00 00 00 00 00 00 00 ff ff ff ff 58 c9 44 00  ............X.D.
  45c5a0 00 00 00 00 00 00 00 00 00 00 00 00 00 00 00 00  ................
  45c5b0 01 00 00 00 01 00 00 00 02 00 00 00 01 00 00 00  ................
  45c5c0 c8 c5 45 00 00 00 00 00 00 00 00 00 c8 3e 46 00  ..E..........>F.
  45c5d0 ac ff ff ff 6a 9f 43 00 20 05 93 19 01 00 00 00  ....j.C. .......
  45c5e0 f8 c5 45 00 00 00 00 00 00 00 00 00 00 00 00 00  ..E.............
  45c5f0 00 00 00 00 00 00 00 00 ff ff ff ff 6c c9 44 00  ............l.D.
  45c600 20 05 93 19 02 00 00 00 20 c6 45 00 01 00 00 00   ....... .E.....
  45c610 30 c6 45 00 00 00 00 00 00 00 00 00 00 00 00 00  0.E.............
  45c620 ff ff ff ff 00 00 00 00 ff ff ff ff 00 00 00 00  ................
  45c630 00 00 00 00 00 00 00 00 01 00 00 00 01 00 00 00  ................
  45c640 48 c6 45 00 00 00 00 00 00 00 00 00 c8 3e 46 00  H.E..........>F.
  45c650 ec ff ff ff 2c a2 43 00 20 05 93 19 01 00 00 00  ....,.C. .......
  45c660 78 c6 45 00 00 00 00 00 00 00 00 00 00 00 00 00  x.E.............
  45c670 00 00 00 00 00 00 00 00 ff ff ff ff 8c c9 44 00  ..............D.
  45c680 20 05 93 19 01 00 00 00 a0 c6 45 00 00 00 00 00   .........E.....
  45c690 00 00 00 00 00 00 00 00 00 00 00 00 00 00 00 00  ................
  45c6a0 ff ff ff ff a0 c9 44 00 20 05 93 19 01 00 00 00  ......D. .......
  45c6b0 c8 c6 45 00 00 00 00 00 00 00 00 00 00 00 00 00  ..E.............
  45c6c0 00 00 00 00 00 00 00 00 ff ff ff ff b4 c9 44 00  ..............D.
  45c6d0 20 05 93 19 01 00 00 00 f0 c6 45 00 00 00 00 00   .........E.....
  45c6e0 00 00 00 00 00 00 00 00 00 00 00 00 00 00 00 00  ................
  45c6f0 ff ff ff ff c8 c9 44 00 20 05 93 19 01 00 00 00  ......D. .......
  45c700 18 c7 45 00 00 00 00 00 00 00 00 00 00 00 00 00  ..E.............
  45c710 00 00 00 00 00 00 00 00 ff ff ff ff dc c9 44 00  ..............D.
  45c720 20 05 93 19 01 00 00 00 40 c7 45 00 00 00 00 00   .......@.E.....
  45c730 00 00 00 00 00 00 00 00 00 00 00 00 00 00 00 00  ................
  45c740 ff ff ff ff f0 c9 44 00 20 05 93 19 01 00 00 00  ......D. .......
  45c750 68 c7 45 00 00 00 00 00 00 00 00 00 00 00 00 00  h.E.............
  45c760 00 00 00 00 00 00 00 00 ff ff ff ff 04 ca 44 00  ..............D.
  45c770 20 05 93 19 01 00 00 00 90 c7 45 00 00 00 00 00   .........E.....
  45c780 00 00 00 00 00 00 00 00 00 00 00 00 00 00 00 00  ................
  45c790 ff ff ff ff 18 ca 44 00 20 05 93 19 02 00 00 00  ......D. .......
  45c7a0 b8 c7 45 00 00 00 00 00 00 00 00 00 00 00 00 00  ..E.............
  45c7b0 00 00 00 00 00 00 00 00 ff ff ff ff 2c ca 44 00  ............,.D.
  45c7c0 00 00 00 00 34 ca 44 00 20 05 93 19 01 00 00 00  ....4.D. .......
  45c7d0 e8 c7 45 00 00 00 00 00 00 00 00 00 00 00 00 00  ..E.............
  45c7e0 00 00 00 00 00 00 00 00 ff ff ff ff 4c ca 44 00  ............L.D.
  45c7f0 20 05 93 19 03 00 00 00 10 c8 45 00 00 00 00 00   .........E.....
  45c800 00 00 00 00 00 00 00 00 00 00 00 00 00 00 00 00  ................
  45c810 ff ff ff ff 60 ca 44 00 00 00 00 00 68 ca 44 00  ....`.D.....h.D.
  45c820 01 00 00 00 73 ca 44 00 20 05 93 19 04 00 00 00  ....s.D. .......
  45c830 48 c8 45 00 00 00 00 00 00 00 00 00 00 00 00 00  H.E.............
  45c840 00 00 00 00 00 00 00 00 ff ff ff ff 88 ca 44 00  ..............D.
  45c850 00 00 00 00 90 ca 44 00 01 00 00 00 9b ca 44 00  ......D.......D.
  45c860 02 00 00 00 a6 ca 44 00 20 05 93 19 05 00 00 00  ......D. .......
  45c870 88 c8 45 00 01 00 00 00 b0 c8 45 00 00 00 00 00  ..E.......E.....
  45c880 00 00 00 00 00 00 00 00 ff ff ff ff bc ca 44 00  ..............D.
  45c890 00 00 00 00 c4 ca 44 00 00 00 00 00 cc ca 44 00  ......D.......D.
  45c8a0 02 00 00 00 00 00 00 00 02 00 00 00 00 00 00 00  ................
  45c8b0 03 00 00 00 03 00 00 00 04 00 00 00 01 00 00 00  ................
  45c8c0 c8 c8 45 00 00 00 00 00 00 00 00 00 c8 3e 46 00  ..E..........>F.
  45c8d0 0c 00 00 00 06 f0 43 00 20 05 93 19 02 00 00 00  ......C. .......
  45c8e0 f8 c8 45 00 00 00 00 00 00 00 00 00 00 00 00 00  ..E.............
  45c8f0 00 00 00 00 00 00 00 00 ff ff ff ff e0 ca 44 00  ..............D.
  45c900 00 00 00 00 e8 ca 44 00 20 05 93 19 01 00 00 00  ......D. .......
  45c910 28 c9 45 00 00 00 00 00 00 00 00 00 00 00 00 00  (.E.............
  45c920 00 00 00 00 00 00 00 00 ff ff ff ff fc ca 44 00  ..............D.
  45c930 20 05 93 19 02 00 00 00 50 c9 45 00 00 00 00 00   .......P.E.....
  45c940 00 00 00 00 00 00 00 00 00 00 00 00 00 00 00 00  ................
  45c950 ff ff ff ff 18 cb 44 00 00 00 00 00 10 cb 44 00  ......D.......D.
  45c960 20 05 93 19 02 00 00 00 80 c9 45 00 00 00 00 00   .........E.....
  45c970 00 00 00 00 00 00 00 00 00 00 00 00 00 00 00 00  ................
  45c980 ff ff ff ff 3c cb 44 00 00 00 00 00 44 cb 44 00  ....<.D.....D.D.
  45c990 20 05 93 19 03 00 00 00 b0 c9 45 00 00 00 00 00   .........E.....
  45c9a0 00 00 00 00 00 00 00 00 00 00 00 00 00 00 00 00  ................
  45c9b0 ff ff ff ff 58 cb 44 00 00 00 00 00 60 cb 44 00  ....X.D.....`.D.
  45c9c0 01 00 00 00 68 cb 44 00 20 05 93 19 01 00 00 00  ....h.D. .......
  45c9d0 e8 c9 45 00 00 00 00 00 00 00 00 00 00 00 00 00  ..E.............
  45c9e0 00 00 00 00 00 00 00 00 ff ff ff ff 7c cb 44 00  ............|.D.
  45c9f0 20 05 93 19 01 00 00 00 10 ca 45 00 00 00 00 00   .........E.....
  45ca00 00 00 00 00 00 00 00 00 00 00 00 00 00 00 00 00  ................
  45ca10 ff ff ff ff 90 cb 44 00 20 05 93 19 0c 00 00 00  ......D. .......
  45ca20 38 ca 45 00 02 00 00 00 98 ca 45 00 00 00 00 00  8.E.......E.....
  45ca30 00 00 00 00 00 00 00 00 ff ff ff ff a4 cb 44 00  ..............D.
  45ca40 00 00 00 00 ac cb 44 00 ff ff ff ff b4 cb 44 00  ......D.......D.
  45ca50 ff ff ff ff bc cb 44 00 02 00 00 00 c4 cb 44 00  ......D.......D.
  45ca60 04 00 00 00 00 00 00 00 05 00 00 00 cc cb 44 00  ..............D.
  45ca70 04 00 00 00 00 00 00 00 07 00 00 00 00 00 00 00  ................
  45ca80 07 00 00 00 00 00 00 00 ff ff ff ff dc cb 44 00  ..............D.
  45ca90 ff ff ff ff d4 cb 44 00 08 00 00 00 08 00 00 00  ......D.........
  45caa0 09 00 00 00 01 00 00 00 c0 ca 45 00 05 00 00 00  ..........E.....
  45cab0 06 00 00 00 0a 00 00 00 01 00 00 00 d0 ca 45 00  ..............E.
  45cac0 00 00 00 00 c8 3e 46 00 e8 ff ff ff bd f9 43 00  .....>F.......C.
  45cad0 00 00 00 00 c8 3e 46 00 e4 ff ff ff 71 f9 43 00  .....>F.....q.C.
  45cae0 20 05 93 19 0c 00 00 00 00 cb 45 00 02 00 00 00   .........E.....
  45caf0 60 cb 45 00 00 00 00 00 00 00 00 00 00 00 00 00  `.E.............
  45cb00 ff ff ff ff f0 cb 44 00 00 00 00 00 f8 cb 44 00  ......D.......D.
  45cb10 ff ff ff ff 00 cc 44 00 ff ff ff ff 08 cc 44 00  ......D.......D.
  45cb20 02 00 00 00 10 cc 44 00 04 00 00 00 00 00 00 00  ......D.........
  45cb30 05 00 00 00 18 cc 44 00 04 00 00 00 00 00 00 00  ......D.........
  45cb40 07 00 00 00 00 00 00 00 07 00 00 00 00 00 00 00  ................
  45cb50 ff ff ff ff 28 cc 44 00 ff ff ff ff 20 cc 44 00  ....(.D..... .D.
  45cb60 08 00 00 00 08 00 00 00 09 00 00 00 01 00 00 00  ................
  45cb70 88 cb 45 00 05 00 00 00 06 00 00 00 0a 00 00 00  ..E.............
  45cb80 01 00 00 00 98 cb 45 00 00 00 00 00 c8 3e 46 00  ......E......>F.
  45cb90 e8 ff ff ff 63 fb 43 00 00 00 00 00 c8 3e 46 00  ....c.C......>F.
  45cba0 e4 ff ff ff 1e fb 43 00 20 05 93 19 01 00 00 00  ......C. .......
  45cbb0 c8 cb 45 00 00 00 00 00 00 00 00 00 00 00 00 00  ..E.............
  45cbc0 00 00 00 00 00 00 00 00 ff ff ff ff 3c cc 44 00  ............<.D.
  45cbd0 20 05 93 19 02 00 00 00 f0 cb 45 00 00 00 00 00   .........E.....
  45cbe0 00 00 00 00 00 00 00 00 00 00 00 00 00 00 00 00  ................
  45cbf0 ff ff ff ff 58 cc 44 00 00 00 00 00 50 cc 44 00  ....X.D.....P.D.
  45cc00 20 05 93 19 02 00 00 00 20 cc 45 00 00 00 00 00   ....... .E.....
  45cc10 00 00 00 00 00 00 00 00 00 00 00 00 00 00 00 00  ................
  45cc20 ff ff ff ff 84 cc 44 00 00 00 00 00 7c cc 44 00  ......D.....|.D.
  45cc30 20 05 93 19 02 00 00 00 50 cc 45 00 00 00 00 00   .......P.E.....
  45cc40 00 00 00 00 00 00 00 00 00 00 00 00 00 00 00 00  ................
  45cc50 ff ff ff ff a8 cc 44 00 00 00 00 00 bf cc 44 00  ......D.......D.
  45cc60 20 05 93 19 02 00 00 00 80 cc 45 00 00 00 00 00   .........E.....
  45cc70 00 00 00 00 00 00 00 00 00 00 00 00 00 00 00 00  ................
  45cc80 ff ff ff ff d4 cc 44 00 00 00 00 00 eb cc 44 00  ......D.......D.
  45cc90 20 05 93 19 02 00 00 00 b0 cc 45 00 00 00 00 00   .........E.....
  45cca0 00 00 00 00 00 00 00 00 00 00 00 00 00 00 00 00  ................
  45ccb0 ff ff ff ff 00 cd 44 00 00 00 00 00 17 cd 44 00  ......D.......D.
  45ccc0 20 05 93 19 01 00 00 00 e0 cc 45 00 00 00 00 00   .........E.....
  45ccd0 00 00 00 00 00 00 00 00 00 00 00 00 00 00 00 00  ................
  45cce0 ff ff ff ff 2c cd 44 00 20 05 93 19 01 00 00 00  ....,.D. .......
  45ccf0 08 cd 45 00 00 00 00 00 00 00 00 00 00 00 00 00  ..E.............
  45cd00 00 00 00 00 00 00 00 00 ff ff ff ff 40 cd 44 00  ............@.D.
  45cd10 20 05 93 19 06 00 00 00 30 cd 45 00 00 00 00 00   .......0.E.....
  45cd20 00 00 00 00 00 00 00 00 00 00 00 00 00 00 00 00  ................
  45cd30 ff ff ff ff 54 cd 44 00 00 00 00 00 5c cd 44 00  ....T.D.....\.D.
  45cd40 01 00 00 00 67 cd 44 00 02 00 00 00 6f cd 44 00  ....g.D.....o.D.
  45cd50 01 00 00 00 77 cd 44 00 01 00 00 00 7f cd 44 00  ....w.D.......D.
  45cd60 20 05 93 19 02 00 00 00 80 cd 45 00 00 00 00 00   .........E.....
  45cd70 00 00 00 00 00 00 00 00 00 00 00 00 00 00 00 00  ................
  45cd80 ff ff ff ff 94 cd 44 00 00 00 00 00 9c cd 44 00  ......D.......D.
  45cd90 20 05 93 19 02 00 00 00 b0 cd 45 00 00 00 00 00   .........E.....
  45cda0 00 00 00 00 00 00 00 00 00 00 00 00 00 00 00 00  ................
  45cdb0 ff ff ff ff b4 cd 44 00 00 00 00 00 bc cd 44 00  ......D.......D.
  45cdc0 20 05 93 19 01 00 00 00 e0 cd 45 00 00 00 00 00   .........E.....
  45cdd0 00 00 00 00 00 00 00 00 00 00 00 00 00 00 00 00  ................
  45cde0 ff ff ff ff d0 cd 44 00 20 05 93 19 02 00 00 00  ......D. .......
  45cdf0 08 ce 45 00 00 00 00 00 00 00 00 00 00 00 00 00  ..E.............
  45ce00 00 00 00 00 00 00 00 00 ff ff ff ff e4 cd 44 00  ..............D.
  45ce10 00 00 00 00 ec cd 44 00 20 05 93 19 01 00 00 00  ......D. .......
  45ce20 38 ce 45 00 00 00 00 00 00 00 00 00 00 00 00 00  8.E.............
  45ce30 00 00 00 00 00 00 00 00 ff ff ff ff 04 ce 44 00  ..............D.
  45ce40 20 05 93 19 01 00 00 00 60 ce 45 00 00 00 00 00   .......`.E.....
  45ce50 00 00 00 00 00 00 00 00 00 00 00 00 00 00 00 00  ................
  45ce60 ff ff ff ff 18 ce 44 00 20 05 93 19 01 00 00 00  ......D. .......
  45ce70 88 ce 45 00 00 00 00 00 00 00 00 00 00 00 00 00  ..E.............
  45ce80 00 00 00 00 00 00 00 00 ff ff ff ff 2c ce 44 00  ............,.D.
  45ce90 20 05 93 19 02 00 00 00 b0 ce 45 00 00 00 00 00   .........E.....
  45cea0 00 00 00 00 00 00 00 00 00 00 00 00 00 00 00 00  ................
  45ceb0 ff ff ff ff 48 ce 44 00 00 00 00 00 40 ce 44 00  ....H.D.....@.D.
  45cec0 20 05 93 19 06 00 00 00 e0 ce 45 00 00 00 00 00   .........E.....
  45ced0 00 00 00 00 00 00 00 00 00 00 00 00 00 00 00 00  ................
  45cee0 ff ff ff ff 6c ce 44 00 00 00 00 00 83 ce 44 00  ....l.D.......D.
  45cef0 01 00 00 00 8b ce 44 00 01 00 00 00 93 ce 44 00  ......D.......D.
  45cf00 03 00 00 00 9b ce 44 00 03 00 00 00 a3 ce 44 00  ......D.......D.
  45cf10 20 05 93 19 02 00 00 00 30 cf 45 00 00 00 00 00   .......0.E.....
  45cf20 00 00 00 00 00 00 00 00 00 00 00 00 00 00 00 00  ................
  45cf30 ff ff ff ff c0 ce 44 00 00 00 00 00 b8 ce 44 00  ......D.......D.
  45cf40 20 05 93 19 01 00 00 00 60 cf 45 00 00 00 00 00   .......`.E.....
  45cf50 00 00 00 00 00 00 00 00 00 00 00 00 00 00 00 00  ................
  45cf60 ff ff ff ff e4 ce 44 00 20 05 93 19 01 00 00 00  ......D. .......
  45cf70 88 cf 45 00 00 00 00 00 00 00 00 00 00 00 00 00  ..E.............
  45cf80 00 00 00 00 00 00 00 00 ff ff ff ff f8 ce 44 00  ..............D.
  45cf90 20 05 93 19 01 00 00 00 b0 cf 45 00 00 00 00 00   .........E.....
  45cfa0 00 00 00 00 00 00 00 00 00 00 00 00 00 00 00 00  ................
  45cfb0 ff ff ff ff 0c cf 44 00 20 05 93 19 02 00 00 00  ......D. .......
  45cfc0 d8 cf 45 00 00 00 00 00 00 00 00 00 00 00 00 00  ..E.............
  45cfd0 00 00 00 00 00 00 00 00 ff ff ff ff 20 cf 44 00  ............ .D.
  45cfe0 00 00 00 00 28 cf 44 00 20 05 93 19 01 00 00 00  ....(.D. .......
  45cff0 08 d0 45 00 00 00 00 00 00 00 00 00 00 00 00 00  ..E.............
  45d000 00 00 00 00 00 00 00 00 ff ff ff ff 40 cf 44 00  ............@.D.
  45d010 20 05 93 19 01 00 00 00 30 d0 45 00 00 00 00 00   .......0.E.....
  45d020 00 00 00 00 00 00 00 00 00 00 00 00 00 00 00 00  ................
  45d030 ff ff ff ff 54 cf 44 00 20 05 93 19 01 00 00 00  ....T.D. .......
  45d040 58 d0 45 00 00 00 00 00 00 00 00 00 00 00 00 00  X.E.............
  45d050 00 00 00 00 00 00 00 00 ff ff ff ff 68 cf 44 00  ............h.D.
  45d060 20 05 93 19 01 00 00 00 80 d0 45 00 00 00 00 00   .........E.....
  45d070 00 00 00 00 00 00 00 00 00 00 00 00 00 00 00 00  ................
  45d080 ff ff ff ff 7c cf 44 00 20 05 93 19 01 00 00 00  ....|.D. .......
  45d090 a8 d0 45 00 00 00 00 00 00 00 00 00 00 00 00 00  ..E.............
  45d0a0 00 00 00 00 00 00 00 00 ff ff ff ff 90 cf 44 00  ..............D.
  45d0b0 20 05 93 19 02 00 00 00 d0 d0 45 00 00 00 00 00   .........E.....
  45d0c0 00 00 00 00 00 00 00 00 00 00 00 00 00 00 00 00  ................
  45d0d0 ff ff ff ff a4 cf 44 00 ff ff ff ff ac cf 44 00  ......D.......D.
  45d0e0 20 05 93 19 01 00 00 00 00 d1 45 00 00 00 00 00   .........E.....
  45d0f0 00 00 00 00 00 00 00 00 00 00 00 00 00 00 00 00  ................
  45d100 ff ff ff ff c0 cf 44 00 20 05 93 19 01 00 00 00  ......D. .......
  45d110 28 d1 45 00 00 00 00 00 00 00 00 00 00 00 00 00  (.E.............
  45d120 00 00 00 00 00 00 00 00 ff ff ff ff d4 cf 44 00  ..............D.
  45d130 20 05 93 19 02 00 00 00 50 d1 45 00 00 00 00 00   .......P.E.....
  45d140 00 00 00 00 00 00 00 00 00 00 00 00 00 00 00 00  ................
  45d150 ff ff ff ff f0 cf 44 00 00 00 00 00 e8 cf 44 00  ......D.......D.
  45d160 20 05 93 19 01 00 00 00 80 d1 45 00 00 00 00 00   .........E.....
  45d170 00 00 00 00 00 00 00 00 00 00 00 00 00 00 00 00  ................
  45d180 ff ff ff ff 14 d0 44 00 20 05 93 19 02 00 00 00  ......D. .......
  45d190 a8 d1 45 00 00 00 00 00 00 00 00 00 00 00 00 00  ..E.............
  45d1a0 00 00 00 00 00 00 00 00 ff ff ff ff 30 d0 44 00  ............0.D.
  45d1b0 00 00 00 00 28 d0 44 00 20 05 93 19 01 00 00 00  ....(.D. .......
  45d1c0 d8 d1 45 00 00 00 00 00 00 00 00 00 00 00 00 00  ..E.............
  45d1d0 00 00 00 00 00 00 00 00 ff ff ff ff 54 d0 44 00  ............T.D.
  45d1e0 20 05 93 19 01 00 00 00 00 d2 45 00 00 00 00 00   .........E.....
  45d1f0 00 00 00 00 00 00 00 00 00 00 00 00 00 00 00 00  ................
  45d200 ff ff ff ff 68 d0 44 00 20 05 93 19 02 00 00 00  ....h.D. .......
  45d210 28 d2 45 00 00 00 00 00 00 00 00 00 00 00 00 00  (.E.............
  45d220 00 00 00 00 00 00 00 00 ff ff ff ff 84 d0 44 00  ..............D.
  45d230 00 00 00 00 7c d0 44 00 20 05 93 19 01 00 00 00  ....|.D. .......
  45d240 58 d2 45 00 00 00 00 00 00 00 00 00 00 00 00 00  X.E.............
  45d250 00 00 00 00 00 00 00 00 ff ff ff ff a8 d0 44 00  ..............D.
  45d260 20 05 93 19 01 00 00 00 80 d2 45 00 00 00 00 00   .........E.....
  45d270 00 00 00 00 00 00 00 00 00 00 00 00 00 00 00 00  ................
  45d280 ff ff ff ff bc d0 44 00 20 05 93 19 01 00 00 00  ......D. .......
  45d290 a8 d2 45 00 00 00 00 00 00 00 00 00 00 00 00 00  ..E.............
  45d2a0 00 00 00 00 00 00 00 00 ff ff ff ff d0 d0 44 00  ..............D.
  45d2b0 20 05 93 19 01 00 00 00 d0 d2 45 00 00 00 00 00   .........E.....
  45d2c0 00 00 00 00 00 00 00 00 00 00 00 00 00 00 00 00  ................
  45d2d0 ff ff ff ff e4 d0 44 00 20 05 93 19 01 00 00 00  ......D. .......
  45d2e0 f8 d2 45 00 00 00 00 00 00 00 00 00 00 00 00 00  ..E.............
  45d2f0 00 00 00 00 00 00 00 00 ff ff ff ff f8 d0 44 00  ..............D.
  45d300 20 05 93 19 01 00 00 00 20 d3 45 00 00 00 00 00   ....... .E.....
  45d310 00 00 00 00 00 00 00 00 00 00 00 00 00 00 00 00  ................
  45d320 ff ff ff ff 0c d1 44 00 20 05 93 19 01 00 00 00  ......D. .......
  45d330 48 d3 45 00 00 00 00 00 00 00 00 00 00 00 00 00  H.E.............
  45d340 00 00 00 00 00 00 00 00 ff ff ff ff 20 d1 44 00  ............ .D.
  45d350 20 05 93 19 01 00 00 00 70 d3 45 00 00 00 00 00   .......p.E.....
  45d360 00 00 00 00 00 00 00 00 00 00 00 00 00 00 00 00  ................
  45d370 ff ff ff ff 34 d1 44 00 20 05 93 19 01 00 00 00  ....4.D. .......
  45d380 98 d3 45 00 00 00 00 00 00 00 00 00 00 00 00 00  ..E.............
  45d390 00 00 00 00 00 00 00 00 ff ff ff ff 48 d1 44 00  ............H.D.
  45d3a0 20 05 93 19 01 00 00 00 c0 d3 45 00 00 00 00 00   .........E.....
  45d3b0 00 00 00 00 00 00 00 00 00 00 00 00 00 00 00 00  ................
  45d3c0 ff ff ff ff 5c d1 44 00 20 05 93 19 01 00 00 00  ....\.D. .......
  45d3d0 e8 d3 45 00 00 00 00 00 00 00 00 00 00 00 00 00  ..E.............
  45d3e0 00 00 00 00 00 00 00 00 ff ff ff ff 70 d1 44 00  ............p.D.
  45d3f0 20 05 93 19 01 00 00 00 10 d4 45 00 00 00 00 00   .........E.....
  45d400 00 00 00 00 00 00 00 00 00 00 00 00 00 00 00 00  ................
  45d410 ff ff ff ff 84 d1 44 00 20 05 93 19 01 00 00 00  ......D. .......
  45d420 38 d4 45 00 00 00 00 00 00 00 00 00 00 00 00 00  8.E.............
  45d430 00 00 00 00 00 00 00 00 ff ff ff ff 98 d1 44 00  ..............D.
  45d440 20 05 93 19 01 00 00 00 60 d4 45 00 00 00 00 00   .......`.E.....
  45d450 00 00 00 00 00 00 00 00 00 00 00 00 00 00 00 00  ................
  45d460 ff ff ff ff ac d1 44 00 20 05 93 19 02 00 00 00  ......D. .......
  45d470 88 d4 45 00 01 00 00 00 98 d4 45 00 00 00 00 00  ..E.......E.....
  45d480 00 00 00 00 00 00 00 00 ff ff ff ff 00 00 00 00  ................
  45d490 ff ff ff ff 00 00 00 00 00 00 00 00 00 00 00 00  ................
  45d4a0 01 00 00 00 01 00 00 00 b0 d4 45 00 00 00 00 00  ..........E.....
  45d4b0 00 00 00 00 c8 3e 46 00 e8 ff ff ff 74 b5 43 00  .....>F.....t.C.
  45d4c0 01 00 00 00 d8 46 46 00 00 00 00 00 ff ff ff ff  .....FF.........
  45d4d0 00 00 00 00 04 00 00 00 00 00 00 00 00 00 00 00  ................
  45d4e0 05 00 00 00 c0 d4 45 00 48 bf 45 00 28 bf 45 00  ......E.H.E.(.E.
  45d4f0 08 bf 45 00 e8 be 45 00 00 00 00 00 00 00 00 00  ..E...E.........
  45d500 00 00 00 00 e0 d4 45 00 01 00 00 00 f8 46 46 00  ......E......FF.
  45d510 00 00 00 00 ff ff ff ff 00 00 00 00 04 00 00 00  ................
  45d520 00 00 00 00 00 00 00 00 05 00 00 00 08 d5 45 00  ..............E.
  45d530 48 bf 45 00 28 bf 45 00 08 bf 45 00 e8 be 45 00  H.E.(.E...E...E.
  45d540 00 00 00 00 00 00 00 00 00 00 00 00 28 d5 45 00  ............(.E.
  45d550 20 05 93 19 01 00 00 00 70 d5 45 00 00 00 00 00   .......p.E.....
  45d560 00 00 00 00 00 00 00 00 00 00 00 00 00 00 00 00  ................
  45d570 ff ff ff ff cc d1 44 00 20 05 93 19 02 00 00 00  ......D. .......
  45d580 98 d5 45 00 01 00 00 00 a8 d5 45 00 00 00 00 00  ..E.......E.....
  45d590 00 00 00 00 00 00 00 00 ff ff ff ff 00 00 00 00  ................
  45d5a0 ff ff ff ff 00 00 00 00 00 00 00 00 00 00 00 00  ................
  45d5b0 01 00 00 00 01 00 00 00 c0 d5 45 00 00 00 00 00  ..........E.....
  45d5c0 00 00 00 00 c8 3e 46 00 ec ff ff ff 7b 97 44 00  .....>F.....{.D.
  45d5d0 20 05 93 19 02 00 00 00 f0 d5 45 00 00 00 00 00   .........E.....
  45d5e0 00 00 00 00 00 00 00 00 00 00 00 00 00 00 00 00  ................
  45d5f0 ff ff ff ff ec d1 44 00 00 00 00 00 f7 d1 44 00  ......D.......D.
  45d600 20 05 93 19 02 00 00 00 20 d6 45 00 01 00 00 00   ....... .E.....
  45d610 30 d6 45 00 00 00 00 00 00 00 00 00 00 00 00 00  0.E.............
  45d620 ff ff ff ff 00 00 00 00 ff ff ff ff 00 00 00 00  ................
  45d630 00 00 00 00 00 00 00 00 01 00 00 00 01 00 00 00  ................
  45d640 48 d6 45 00 00 00 00 00 00 00 00 00 c8 3e 46 00  H.E..........>F.
  45d650 ec ff ff ff f3 bf 43 00 20 05 93 19 02 00 00 00  ......C. .......
  45d660 78 d6 45 00 00 00 00 00 00 00 00 00 00 00 00 00  x.E.............
  45d670 00 00 00 00 00 00 00 00 ff ff ff ff 18 d2 44 00  ..............D.
  45d680 00 00 00 00 23 d2 44 00 20 05 93 19 01 00 00 00  ....#.D. .......
  45d690 a8 d6 45 00 00 00 00 00 00 00 00 00 00 00 00 00  ..E.............
  45d6a0 00 00 00 00 00 00 00 00 ff ff ff ff 38 d2 44 00  ............8.D.
  45d6b0 20 05 93 19 01 00 00 00 d0 d6 45 00 00 00 00 00   .........E.....
  45d6c0 00 00 00 00 00 00 00 00 00 00 00 00 00 00 00 00  ................
  45d6d0 ff ff ff ff 4c d2 44 00 20 05 93 19 01 00 00 00  ....L.D. .......
  45d6e0 f8 d6 45 00 00 00 00 00 00 00 00 00 00 00 00 00  ..E.............
  45d6f0 00 00 00 00 00 00 00 00 ff ff ff ff 60 d2 44 00  ............`.D.
  45d700 20 05 93 19 02 00 00 00 20 d7 45 00 01 00 00 00   ....... .E.....
  45d710 30 d7 45 00 00 00 00 00 00 00 00 00 00 00 00 00  0.E.............
  45d720 ff ff ff ff 00 00 00 00 ff ff ff ff 00 00 00 00  ................
  45d730 00 00 00 00 00 00 00 00 01 00 00 00 01 00 00 00  ................
  45d740 48 d7 45 00 00 00 00 00 00 00 00 00 c8 3e 46 00  H.E..........>F.
  45d750 e8 ff ff ff ab e8 40 00 20 05 93 19 01 00 00 00  ......@. .......
  45d760 78 d7 45 00 00 00 00 00 00 00 00 00 00 00 00 00  x.E.............
  45d770 00 00 00 00 00 00 00 00 ff ff ff ff 80 d2 44 00  ..............D.
  45d780 20 05 93 19 05 00 00 00 a0 d7 45 00 00 00 00 00   .........E.....
  45d790 00 00 00 00 00 00 00 00 00 00 00 00 00 00 00 00  ................
  45d7a0 ff ff ff ff 94 d2 44 00 00 00 00 00 9c d2 44 00  ......D.......D.
  45d7b0 01 00 00 00 a4 d2 44 00 02 00 00 00 ac d2 44 00  ......D.......D.
  45d7c0 03 00 00 00 b4 d2 44 00 20 05 93 19 0a 00 00 00  ......D. .......
  45d7d0 e8 d7 45 00 00 00 00 00 00 00 00 00 00 00 00 00  ..E.............
  45d7e0 00 00 00 00 00 00 00 00 ff ff ff ff c8 d2 44 00  ..............D.
  45d7f0 00 00 00 00 d0 d2 44 00 01 00 00 00 d8 d2 44 00  ......D.......D.
  45d800 02 00 00 00 e0 d2 44 00 03 00 00 00 e8 d2 44 00  ......D.......D.
  45d810 04 00 00 00 f0 d2 44 00 05 00 00 00 f8 d2 44 00  ......D.......D.
  45d820 05 00 00 00 00 d3 44 00 07 00 00 00 08 d3 44 00  ......D.......D.
  45d830 08 00 00 00 10 d3 44 00 20 05 93 19 02 00 00 00  ......D. .......
  45d840 58 d8 45 00 00 00 00 00 00 00 00 00 00 00 00 00  X.E.............
  45d850 00 00 00 00 00 00 00 00 ff ff ff ff 24 d3 44 00  ............$.D.
  45d860 00 00 00 00 2c d3 44 00 20 05 93 19 01 00 00 00  ....,.D. .......
  45d870 88 d8 45 00 00 00 00 00 00 00 00 00 00 00 00 00  ..E.............
  45d880 00 00 00 00 00 00 00 00 ff ff ff ff 40 d3 44 00  ............@.D.
  45d890 20 05 93 19 06 00 00 00 b0 d8 45 00 00 00 00 00   .........E.....
  45d8a0 00 00 00 00 00 00 00 00 00 00 00 00 00 00 00 00  ................
  45d8b0 ff ff ff ff 54 d3 44 00 00 00 00 00 5f d3 44 00  ....T.D....._.D.
  45d8c0 01 00 00 00 67 d3 44 00 02 00 00 00 6f d3 44 00  ....g.D.....o.D.
  45d8d0 03 00 00 00 77 d3 44 00 ff ff ff ff 7f d3 44 00  ....w.D.......D.
  45d8e0 20 05 93 19 10 00 00 00 00 d9 45 00 00 00 00 00   .........E.....
  45d8f0 00 00 00 00 00 00 00 00 00 00 00 00 00 00 00 00  ................
  45d900 ff ff ff ff 94 d3 44 00 00 00 00 00 9c d3 44 00  ......D.......D.
  45d910 01 00 00 00 a4 d3 44 00 01 00 00 00 ac d3 44 00  ......D.......D.
  45d920 01 00 00 00 b4 d3 44 00 01 00 00 00 bc d3 44 00  ......D.......D.
  45d930 01 00 00 00 c4 d3 44 00 01 00 00 00 cc d3 44 00  ......D.......D.
  45d940 01 00 00 00 d4 d3 44 00 01 00 00 00 dc d3 44 00  ......D.......D.
  45d950 01 00 00 00 e4 d3 44 00 01 00 00 00 ec d3 44 00  ......D.......D.
  45d960 01 00 00 00 f4 d3 44 00 01 00 00 00 fc d3 44 00  ......D.......D.
  45d970 01 00 00 00 04 d4 44 00 01 00 00 00 0c d4 44 00  ......D.......D.
  45d980 20 05 93 19 01 00 00 00 a0 d9 45 00 00 00 00 00   .........E.....
  45d990 00 00 00 00 00 00 00 00 00 00 00 00 00 00 00 00  ................
  45d9a0 ff ff ff ff 20 d4 44 00 20 05 93 19 01 00 00 00  .... .D. .......
  45d9b0 c8 d9 45 00 00 00 00 00 00 00 00 00 00 00 00 00  ..E.............
  45d9c0 00 00 00 00 00 00 00 00 ff ff ff ff 34 d4 44 00  ............4.D.
  45d9d0 20 05 93 19 02 00 00 00 f0 d9 45 00 00 00 00 00   .........E.....
  45d9e0 00 00 00 00 00 00 00 00 00 00 00 00 00 00 00 00  ................
  45d9f0 ff ff ff ff 48 d4 44 00 00 00 00 00 50 d4 44 00  ....H.D.....P.D.
  45da00 20 05 93 19 01 00 00 00 20 da 45 00 00 00 00 00   ....... .E.....
  45da10 00 00 00 00 00 00 00 00 00 00 00 00 00 00 00 00  ................
  45da20 ff ff ff ff 68 d4 44 00 20 05 93 19 04 00 00 00  ....h.D. .......
  45da30 48 da 45 00 00 00 00 00 00 00 00 00 00 00 00 00  H.E.............
  45da40 00 00 00 00 00 00 00 00 ff ff ff ff 7c d4 44 00  ............|.D.
  45da50 00 00 00 00 87 d4 44 00 01 00 00 00 92 d4 44 00  ......D.......D.
  45da60 02 00 00 00 9d d4 44 00 20 05 93 19 03 00 00 00  ......D. .......
  45da70 88 da 45 00 00 00 00 00 00 00 00 00 00 00 00 00  ..E.............
  45da80 00 00 00 00 00 00 00 00 ff ff ff ff b4 d4 44 00  ..............D.
  45da90 00 00 00 00 bf d4 44 00 01 00 00 00 ca d4 44 00  ......D.......D.
  45daa0 20 05 93 19 03 00 00 00 c0 da 45 00 00 00 00 00   .........E.....
  45dab0 00 00 00 00 00 00 00 00 00 00 00 00 00 00 00 00  ................
  45dac0 ff ff ff ff e0 d4 44 00 00 00 00 00 e8 d4 44 00  ......D.......D.
  45dad0 01 00 00 00 f0 d4 44 00 20 05 93 19 01 00 00 00  ......D. .......
  45dae0 f8 da 45 00 00 00 00 00 00 00 00 00 00 00 00 00  ..E.............
  45daf0 00 00 00 00 00 00 00 00 ff ff ff ff 04 d5 44 00  ..............D.
  45db00 20 05 93 19 04 00 00 00 20 db 45 00 00 00 00 00   ....... .E.....
  45db10 00 00 00 00 00 00 00 00 00 00 00 00 00 00 00 00  ................
  45db20 ff ff ff ff 18 d5 44 00 00 00 00 00 20 d5 44 00  ......D..... .D.
  45db30 01 00 00 00 2b d5 44 00 01 00 00 00 34 d5 44 00  ....+.D.....4.D.
  45db40 20 05 93 19 01 00 00 00 60 db 45 00 00 00 00 00   .......`.E.....
  45db50 00 00 00 00 00 00 00 00 00 00 00 00 00 00 00 00  ................
  45db60 ff ff ff ff 48 d5 44 00 20 05 93 19 01 00 00 00  ....H.D. .......
  45db70 88 db 45 00 00 00 00 00 00 00 00 00 00 00 00 00  ..E.............
  45db80 00 00 00 00 00 00 00 00 ff ff ff ff 5c d5 44 00  ............\.D.
  45db90 20 05 93 19 02 00 00 00 b0 db 45 00 00 00 00 00   .........E.....
  45dba0 00 00 00 00 00 00 00 00 00 00 00 00 00 00 00 00  ................
  45dbb0 ff ff ff ff 70 d5 44 00 00 00 00 00 78 d5 44 00  ....p.D.....x.D.
  45dbc0 01 00 00 00 40 48 46 00 00 00 00 00 ff ff ff ff  ....@HF.........
  45dbd0 00 00 00 00 04 00 00 00 00 00 00 00 00 00 00 00  ................
  45dbe0 04 00 00 00 c0 db 45 00 28 bf 45 00 08 bf 45 00  ......E.(.E...E.
  45dbf0 e8 be 45 00 00 00 00 00 00 00 00 00 00 00 00 00  ..E.............
  45dc00 00 00 00 00 e0 db 45 00 20 05 93 19 03 00 00 00  ......E. .......
  45dc10 28 dc 45 00 00 00 00 00 00 00 00 00 00 00 00 00  (.E.............
  45dc20 00 00 00 00 00 00 00 00 ff ff ff ff 8c d5 44 00  ..............D.
  45dc30 00 00 00 00 95 d5 44 00 01 00 00 00 9d d5 44 00  ......D.......D.
  45dc40 20 05 93 19 02 00 00 00 60 dc 45 00 00 00 00 00   .......`.E.....
  45dc50 00 00 00 00 00 00 00 00 00 00 00 00 00 00 00 00  ................
  45dc60 ff ff ff ff b4 d5 44 00 00 00 00 00 bc d5 44 00  ......D.......D.
  45dc70 01 00 00 00 80 48 46 00 00 00 00 00 ff ff ff ff  .....HF.........
  45dc80 00 00 00 00 04 00 00 00 00 00 00 00 00 00 00 00  ................
  45dc90 04 00 00 00 70 dc 45 00 28 bf 45 00 08 bf 45 00  ....p.E.(.E...E.
  45dca0 e8 be 45 00 00 00 00 00 00 00 00 00 00 00 00 00  ..E.............
  45dcb0 00 00 00 00 90 dc 45 00 20 05 93 19 03 00 00 00  ......E. .......
  45dcc0 d8 dc 45 00 00 00 00 00 00 00 00 00 00 00 00 00  ..E.............
  45dcd0 00 00 00 00 00 00 00 00 ff ff ff ff d0 d5 44 00  ..............D.
  45dce0 00 00 00 00 d9 d5 44 00 01 00 00 00 e1 d5 44 00  ......D.......D.
  45dcf0 20 05 93 19 01 00 00 00 10 dd 45 00 00 00 00 00   .........E.....
  45dd00 00 00 00 00 00 00 00 00 00 00 00 00 00 00 00 00  ................
  45dd10 ff ff ff ff f8 d5 44 00 20 05 93 19 02 00 00 00  ......D. .......
  45dd20 38 dd 45 00 00 00 00 00 00 00 00 00 00 00 00 00  8.E.............
  45dd30 00 00 00 00 00 00 00 00 ff ff ff ff 14 d6 44 00  ..............D.
  45dd40 00 00 00 00 0c d6 44 00 20 05 93 19 02 00 00 00  ......D. .......
  45dd50 68 dd 45 00 00 00 00 00 00 00 00 00 00 00 00 00  h.E.............
  45dd60 00 00 00 00 00 00 00 00 ff ff ff ff 40 d6 44 00  ............@.D.
  45dd70 00 00 00 00 38 d6 44 00 20 05 93 19 01 00 00 00  ....8.D. .......
  45dd80 98 dd 45 00 00 00 00 00 00 00 00 00 00 00 00 00  ..E.............
  45dd90 00 00 00 00 00 00 00 00 ff ff ff ff 64 d6 44 00  ............d.D.
  45dda0 20 05 93 19 01 00 00 00 c0 dd 45 00 00 00 00 00   .........E.....
  45ddb0 00 00 00 00 00 00 00 00 00 00 00 00 00 00 00 00  ................
  45ddc0 ff ff ff ff 7c d6 44 00 20 05 93 19 02 00 00 00  ....|.D. .......
  45ddd0 e8 dd 45 00 01 00 00 00 f8 dd 45 00 00 00 00 00  ..E.......E.....
  45dde0 00 00 00 00 00 00 00 00 ff ff ff ff 00 00 00 00  ................
  45ddf0 ff ff ff ff 00 00 00 00 00 00 00 00 00 00 00 00  ................
  45de00 01 00 00 00 01 00 00 00 10 de 45 00 00 00 00 00  ..........E.....
  45de10 00 00 00 00 80 48 46 00 e0 ff ff ff 55 28 44 00  .....HF.....U(D.
  45de20 20 05 93 19 02 00 00 00 40 de 45 00 01 00 00 00   .......@.E.....
  45de30 50 de 45 00 00 00 00 00 00 00 00 00 00 00 00 00  P.E.............
  45de40 ff ff ff ff 00 00 00 00 ff ff ff ff 00 00 00 00  ................
  45de50 00 00 00 00 00 00 00 00 01 00 00 00 01 00 00 00  ................
  45de60 68 de 45 00 00 00 00 00 00 00 00 00 c8 3e 46 00  h.E..........>F.
  45de70 ec ff ff ff 71 40 43 00 20 05 93 19 02 00 00 00  ....q@C. .......
  45de80 98 de 45 00 01 00 00 00 a8 de 45 00 00 00 00 00  ..E.......E.....
  45de90 00 00 00 00 00 00 00 00 ff ff ff ff 00 00 00 00  ................
  45dea0 ff ff ff ff 00 00 00 00 00 00 00 00 00 00 00 00  ................
  45deb0 01 00 00 00 01 00 00 00 c0 de 45 00 00 00 00 00  ..........E.....
  45dec0 00 00 00 00 c8 3e 46 00 ec ff ff ff ca 40 43 00  .....>F......@C.
  45ded0 20 05 93 19 02 00 00 00 f0 de 45 00 01 00 00 00   .........E.....
  45dee0 00 df 45 00 00 00 00 00 00 00 00 00 00 00 00 00  ..E.............
  45def0 ff ff ff ff 00 00 00 00 ff ff ff ff 00 00 00 00  ................
  45df00 00 00 00 00 00 00 00 00 01 00 00 00 01 00 00 00  ................
  45df10 18 df 45 00 00 00 00 00 00 00 00 00 c8 3e 46 00  ..E..........>F.
  45df20 08 00 00 00 4a 41 43 00 20 05 93 19 02 00 00 00  ....JAC. .......
  45df30 48 df 45 00 00 00 00 00 00 00 00 00 00 00 00 00  H.E.............
  45df40 00 00 00 00 00 00 00 00 ff ff ff ff cc d6 44 00  ..............D.
  45df50 00 00 00 00 c4 d6 44 00 20 05 93 19 02 00 00 00  ......D. .......
  45df60 78 df 45 00 00 00 00 00 00 00 00 00 00 00 00 00  x.E.............
  45df70 00 00 00 00 00 00 00 00 ff ff ff ff f8 d6 44 00  ..............D.
  45df80 00 00 00 00 f0 d6 44 00 20 05 93 19 02 00 00 00  ......D. .......
  45df90 a8 df 45 00 00 00 00 00 00 00 00 00 00 00 00 00  ..E.............
  45dfa0 00 00 00 00 00 00 00 00 ff ff ff ff 24 d7 44 00  ............$.D.
  45dfb0 00 00 00 00 1c d7 44 00 00 00 00 00 a0 80 46 00  ......D.......F.
  45dfc0 00 00 00 00 ff ff ff ff 00 00 00 00 1c 00 00 00  ................
  45dfd0 a7 dd 41 00 00 00 00 00 00 00 00 00 c0 80 46 00  ..A...........F.
  45dfe0 00 00 00 00 ff ff ff ff 00 00 00 00 1c 00 00 00  ................
  45dff0 7a de 41 00 00 00 00 00 03 00 00 00 d8 df 45 00  z.A...........E.
  45e000 b8 df 45 00 90 ac 45 00 00 00 00 00 04 de 41 00  ..E...E.......A.
  45e010 00 00 00 00 f8 df 45 00 20 05 93 19 01 00 00 00  ......E. .......
  45e020 38 e0 45 00 00 00 00 00 00 00 00 00 00 00 00 00  8.E.............
  45e030 00 00 00 00 00 00 00 00 ff ff ff ff 48 d7 44 00  ............H.D.
  45e040 20 05 93 19 01 00 00 00 60 e0 45 00 00 00 00 00   .......`.E.....
  45e050 00 00 00 00 00 00 00 00 00 00 00 00 00 00 00 00  ................
  45e060 ff ff ff ff 5c d7 44 00 02 00 00 00 b8 df 45 00  ....\.D.......E.
  45e070 90 ac 45 00 00 00 00 00 00 00 00 00 4e dd 41 00  ..E.........N.A.
  45e080 00 00 00 00 68 e0 45 00 20 05 93 19 01 00 00 00  ....h.E. .......
  45e090 a8 e0 45 00 00 00 00 00 00 00 00 00 00 00 00 00  ..E.............
  45e0a0 00 00 00 00 00 00 00 00 ff ff ff ff 70 d7 44 00  ............p.D.
  45e0b0 20 05 93 19 01 00 00 00 d0 e0 45 00 00 00 00 00   .........E.....
  45e0c0 00 00 00 00 00 00 00 00 00 00 00 00 00 00 00 00  ................
  45e0d0 ff ff ff ff 84 d7 44 00 20 05 93 19 01 00 00 00  ......D. .......
  45e0e0 f8 e0 45 00 00 00 00 00 00 00 00 00 00 00 00 00  ..E.............
  45e0f0 00 00 00 00 00 00 00 00 ff ff ff ff 98 d7 44 00  ..............D.
  45e100 00 00 00 00 e0 80 46 00 00 00 00 00 ff ff ff ff  ......F.........
  45e110 00 00 00 00 1c 00 00 00 62 df 41 00 00 00 00 00  ........b.A.....
  45e120 03 00 00 00 00 e1 45 00 b8 df 45 00 90 ac 45 00  ......E...E...E.
  45e130 00 00 00 00 ec de 41 00 00 00 00 00 20 e1 45 00  ......A..... .E.
  45e140 20 05 93 19 01 00 00 00 60 e1 45 00 00 00 00 00   .......`.E.....
  45e150 00 00 00 00 00 00 00 00 00 00 00 00 00 00 00 00  ................
  45e160 ff ff ff ff ac d7 44 00 20 05 93 19 01 00 00 00  ......D. .......
  45e170 88 e1 45 00 00 00 00 00 00 00 00 00 00 00 00 00  ..E.............
  45e180 00 00 00 00 00 00 00 00 ff ff ff ff c0 d7 44 00  ..............D.
  45e190 20 05 93 19 07 00 00 00 b0 e1 45 00 00 00 00 00   .........E.....
  45e1a0 00 00 00 00 00 00 00 00 00 00 00 00 00 00 00 00  ................
  45e1b0 ff ff ff ff d4 d7 44 00 ff ff ff ff e4 d7 44 00  ......D.......D.
  45e1c0 ff ff ff ff f4 d7 44 00 ff ff ff ff 04 d8 44 00  ......D.......D.
  45e1d0 ff ff ff ff 14 d8 44 00 ff ff ff ff 24 d8 44 00  ......D.....$.D.
  45e1e0 ff ff ff ff 34 d8 44 00 20 05 93 19 01 00 00 00  ....4.D. .......
  45e1f0 08 e2 45 00 00 00 00 00 00 00 00 00 00 00 00 00  ..E.............
  45e200 00 00 00 00 00 00 00 00 ff ff ff ff 50 d8 44 00  ............P.D.
  45e210 20 05 93 19 01 00 00 00 30 e2 45 00 00 00 00 00   .......0.E.....
  45e220 00 00 00 00 00 00 00 00 00 00 00 00 00 00 00 00  ................
  45e230 ff ff ff ff 74 d8 44 00 20 05 93 19 03 00 00 00  ....t.D. .......
  45e240 58 e2 45 00 00 00 00 00 00 00 00 00 00 00 00 00  X.E.............
  45e250 00 00 00 00 00 00 00 00 ff ff ff ff 98 d8 44 00  ..............D.
  45e260 ff ff ff ff a3 d8 44 00 01 00 00 00 ab d8 44 00  ......D.......D.
  45e270 20 05 93 19 02 00 00 00 90 e2 45 00 00 00 00 00   .........E.....
  45e280 00 00 00 00 00 00 00 00 00 00 00 00 00 00 00 00  ................
  45e290 ff ff ff ff c0 d8 44 00 00 00 00 00 c8 d8 44 00  ......D.......D.
  45e2a0 20 05 93 19 07 00 00 00 c0 e2 45 00 00 00 00 00   .........E.....
  45e2b0 00 00 00 00 00 00 00 00 00 00 00 00 00 00 00 00  ................
  45e2c0 ff ff ff ff e0 d8 44 00 ff ff ff ff f0 d8 44 00  ......D.......D.
  45e2d0 ff ff ff ff 00 d9 44 00 ff ff ff ff 10 d9 44 00  ......D.......D.
  45e2e0 ff ff ff ff 20 d9 44 00 ff ff ff ff 30 d9 44 00  .... .D.....0.D.
  45e2f0 ff ff ff ff 40 d9 44 00 20 05 93 19 01 00 00 00  ....@.D. .......
  45e300 18 e3 45 00 00 00 00 00 00 00 00 00 00 00 00 00  ..E.............
  45e310 00 00 00 00 00 00 00 00 ff ff ff ff 5c d9 44 00  ............\.D.
  45e320 20 05 93 19 01 00 00 00 40 e3 45 00 00 00 00 00   .......@.E.....
  45e330 00 00 00 00 00 00 00 00 00 00 00 00 00 00 00 00  ................
  45e340 ff ff ff ff 80 d9 44 00 20 05 93 19 01 00 00 00  ......D. .......
  45e350 68 e3 45 00 00 00 00 00 00 00 00 00 00 00 00 00  h.E.............
  45e360 00 00 00 00 00 00 00 00 ff ff ff ff a4 d9 44 00  ..............D.
  45e370 20 05 93 19 01 00 00 00 90 e3 45 00 00 00 00 00   .........E.....
  45e380 00 00 00 00 00 00 00 00 00 00 00 00 00 00 00 00  ................
  45e390 ff ff ff ff c8 d9 44 00 20 05 93 19 03 00 00 00  ......D. .......
  45e3a0 b8 e3 45 00 00 00 00 00 00 00 00 00 00 00 00 00  ..E.............
  45e3b0 00 00 00 00 00 00 00 00 ff ff ff ff ec d9 44 00  ..............D.
  45e3c0 ff ff ff ff f7 d9 44 00 01 00 00 00 ff d9 44 00  ......D.......D.
  45e3d0 20 05 93 19 02 00 00 00 f0 e3 45 00 00 00 00 00   .........E.....
  45e3e0 00 00 00 00 00 00 00 00 00 00 00 00 00 00 00 00  ................
  45e3f0 ff ff ff ff 14 da 44 00 00 00 00 00 1c da 44 00  ......D.......D.
  45e400 00 00 00 00 98 83 46 00 00 00 00 00 ff ff ff ff  ......F.........
  45e410 00 00 00 00 1c 00 00 00 7b fa 41 00 00 00 00 00  ........{.A.....
  45e420 00 00 00 00 b8 83 46 00 00 00 00 00 ff ff ff ff  ......F.........
  45e430 00 00 00 00 1c 00 00 00 4e fb 41 00 00 00 00 00  ........N.A.....
  45e440 03 00 00 00 20 e4 45 00 00 e4 45 00 90 ac 45 00  .... .E...E...E.
  45e450 00 00 00 00 d8 fa 41 00 00 00 00 00 40 e4 45 00  ......A.....@.E.
  45e460 20 05 93 19 01 00 00 00 80 e4 45 00 00 00 00 00   .........E.....
  45e470 00 00 00 00 00 00 00 00 00 00 00 00 00 00 00 00  ................
  45e480 ff ff ff ff 34 da 44 00 20 05 93 19 01 00 00 00  ....4.D. .......
  45e490 a8 e4 45 00 00 00 00 00 00 00 00 00 00 00 00 00  ..E.............
  45e4a0 00 00 00 00 00 00 00 00 ff ff ff ff 48 da 44 00  ............H.D.
  45e4b0 02 00 00 00 00 e4 45 00 90 ac 45 00 00 00 00 00  ......E...E.....
  45e4c0 00 00 00 00 22 fa 41 00 00 00 00 00 b0 e4 45 00  ....".A.......E.
  45e4d0 20 05 93 19 01 00 00 00 f0 e4 45 00 00 00 00 00   .........E.....
  45e4e0 00 00 00 00 00 00 00 00 00 00 00 00 00 00 00 00  ................
  45e4f0 ff ff ff ff 5c da 44 00 20 05 93 19 01 00 00 00  ....\.D. .......
  45e500 18 e5 45 00 00 00 00 00 00 00 00 00 00 00 00 00  ..E.............
  45e510 00 00 00 00 00 00 00 00 ff ff ff ff 70 da 44 00  ............p.D.
  45e520 20 05 93 19 01 00 00 00 40 e5 45 00 00 00 00 00   .......@.E.....
  45e530 00 00 00 00 00 00 00 00 00 00 00 00 00 00 00 00  ................
  45e540 ff ff ff ff 84 da 44 00 20 05 93 19 01 00 00 00  ......D. .......
  45e550 68 e5 45 00 00 00 00 00 00 00 00 00 00 00 00 00  h.E.............
  45e560 00 00 00 00 00 00 00 00 ff ff ff ff 98 da 44 00  ..............D.
  45e570 20 05 93 19 01 00 00 00 90 e5 45 00 00 00 00 00   .........E.....
  45e580 00 00 00 00 00 00 00 00 00 00 00 00 00 00 00 00  ................
  45e590 ff ff ff ff ac da 44 00 20 05 93 19 01 00 00 00  ......D. .......
  45e5a0 b8 e5 45 00 00 00 00 00 00 00 00 00 00 00 00 00  ..E.............
  45e5b0 00 00 00 00 00 00 00 00 ff ff ff ff c4 da 44 00  ..............D.
  45e5c0 20 05 93 19 01 00 00 00 e0 e5 45 00 00 00 00 00   .........E.....
  45e5d0 00 00 00 00 00 00 00 00 00 00 00 00 00 00 00 00  ................
  45e5e0 ff ff ff ff d8 da 44 00 20 05 93 19 03 00 00 00  ......D. .......
  45e5f0 08 e6 45 00 00 00 00 00 00 00 00 00 00 00 00 00  ..E.............
  45e600 00 00 00 00 00 00 00 00 ff ff ff ff ec da 44 00  ..............D.
  45e610 00 00 00 00 f4 da 44 00 01 00 00 00 fc da 44 00  ......D.......D.
  45e620 20 05 93 19 02 00 00 00 40 e6 45 00 00 00 00 00   .......@.E.....
  45e630 00 00 00 00 00 00 00 00 00 00 00 00 00 00 00 00  ................
  45e640 ff ff ff ff 10 db 44 00 00 00 00 00 18 db 44 00  ......D.......D.
  45e650 20 05 93 19 01 00 00 00 70 e6 45 00 00 00 00 00   .......p.E.....
  45e660 00 00 00 00 00 00 00 00 00 00 00 00 00 00 00 00  ................
  45e670 ff ff ff ff 2c db 44 00 20 05 93 19 01 00 00 00  ....,.D. .......
  45e680 98 e6 45 00 00 00 00 00 00 00 00 00 00 00 00 00  ..E.............
  45e690 00 00 00 00 00 00 00 00 ff ff ff ff 40 db 44 00  ............@.D.
  45e6a0 20 05 93 19 03 00 00 00 c0 e6 45 00 00 00 00 00   .........E.....
  45e6b0 00 00 00 00 00 00 00 00 00 00 00 00 00 00 00 00  ................
  45e6c0 ff ff ff ff 54 db 44 00 00 00 00 00 5c db 44 00  ....T.D.....\.D.
  45e6d0 01 00 00 00 67 db 44 00 20 05 93 19 02 00 00 00  ....g.D. .......
  45e6e0 f8 e6 45 00 00 00 00 00 00 00 00 00 00 00 00 00  ..E.............
  45e6f0 00 00 00 00 00 00 00 00 ff ff ff ff 7c db 44 00  ............|.D.
  45e700 ff ff ff ff 86 db 44 00 20 05 93 19 04 00 00 00  ......D. .......
  45e710 28 e7 45 00 00 00 00 00 00 00 00 00 00 00 00 00  (.E.............
  45e720 00 00 00 00 00 00 00 00 ff ff ff ff 98 db 44 00  ..............D.
  45e730 ff ff ff ff a2 db 44 00 01 00 00 00 aa db 44 00  ......D.......D.
  45e740 01 00 00 00 b2 db 44 00 20 05 93 19 04 00 00 00  ......D. .......
  45e750 68 e7 45 00 00 00 00 00 00 00 00 00 00 00 00 00  h.E.............
  45e760 00 00 00 00 00 00 00 00 ff ff ff ff c4 db 44 00  ..............D.
  45e770 ff ff ff ff ce db 44 00 01 00 00 00 d6 db 44 00  ......D.......D.
  45e780 01 00 00 00 de db 44 00 20 05 93 19 01 00 00 00  ......D. .......
  45e790 a8 e7 45 00 00 00 00 00 00 00 00 00 00 00 00 00  ..E.............
  45e7a0 00 00 00 00 00 00 00 00 ff ff ff ff f0 db 44 00  ..............D.
  45e7b0 20 05 93 19 04 00 00 00 d0 e7 45 00 00 00 00 00   .........E.....
  45e7c0 00 00 00 00 00 00 00 00 00 00 00 00 00 00 00 00  ................
  45e7d0 ff ff ff ff 1e dc 44 00 00 00 00 00 04 dc 44 00  ......D.......D.
  45e7e0 01 00 00 00 0c dc 44 00 02 00 00 00 14 dc 44 00  ......D.......D.
  45e7f0 20 05 93 19 06 00 00 00 10 e8 45 00 00 00 00 00   .........E.....
  45e800 00 00 00 00 00 00 00 00 00 00 00 00 00 00 00 00  ................
  45e810 ff ff ff ff 40 dc 44 00 00 00 00 00 48 dc 44 00  ....@.D.....H.D.
  45e820 01 00 00 00 52 dc 44 00 00 00 00 00 5a dc 44 00  ....R.D.....Z.D.
  45e830 03 00 00 00 64 dc 44 00 00 00 00 00 6c dc 44 00  ....d.D.....l.D.
  45e840 20 05 93 19 05 00 00 00 60 e8 45 00 00 00 00 00   .......`.E.....
  45e850 00 00 00 00 00 00 00 00 00 00 00 00 00 00 00 00  ................
  45e860 ff ff ff ff 80 dc 44 00 00 00 00 00 88 dc 44 00  ......D.......D.
  45e870 01 00 00 00 93 dc 44 00 02 00 00 00 9b dc 44 00  ......D.......D.
  45e880 02 00 00 00 a3 dc 44 00 20 05 93 19 01 00 00 00  ......D. .......
  45e890 a8 e8 45 00 00 00 00 00 00 00 00 00 00 00 00 00  ..E.............
  45e8a0 00 00 00 00 00 00 00 00 ff ff ff ff b8 dc 44 00  ..............D.
  45e8b0 20 05 93 19 04 00 00 00 d0 e8 45 00 00 00 00 00   .........E.....
  45e8c0 00 00 00 00 00 00 00 00 00 00 00 00 00 00 00 00  ................
  45e8d0 ff ff ff ff cc dc 44 00 00 00 00 00 d4 dc 44 00  ......D.......D.
  45e8e0 01 00 00 00 df dc 44 00 02 00 00 00 ea dc 44 00  ......D.......D.
  45e8f0 20 05 93 19 04 00 00 00 10 e9 45 00 00 00 00 00   .........E.....
  45e900 00 00 00 00 00 00 00 00 00 00 00 00 00 00 00 00  ................
  45e910 ff ff ff ff 00 dd 44 00 00 00 00 00 08 dd 44 00  ......D.......D.
  45e920 01 00 00 00 13 dd 44 00 02 00 00 00 1e dd 44 00  ......D.......D.
  45e930 20 05 93 19 03 00 00 00 50 e9 45 00 00 00 00 00   .......P.E.....
  45e940 00 00 00 00 00 00 00 00 00 00 00 00 00 00 00 00  ................
  45e950 ff ff ff ff 34 dd 44 00 00 00 00 00 3c dd 44 00  ....4.D.....<.D.
  45e960 01 00 00 00 47 dd 44 00 20 05 93 19 04 00 00 00  ....G.D. .......
  45e970 88 e9 45 00 00 00 00 00 00 00 00 00 00 00 00 00  ..E.............
  45e980 00 00 00 00 00 00 00 00 ff ff ff ff 5c dd 44 00  ............\.D.
  45e990 ff ff ff ff 64 dd 44 00 01 00 00 00 6c dd 44 00  ....d.D.....l.D.
  45e9a0 01 00 00 00 74 dd 44 00 20 05 93 19 01 00 00 00  ....t.D. .......
  45e9b0 c8 e9 45 00 00 00 00 00 00 00 00 00 00 00 00 00  ..E.............
  45e9c0 00 00 00 00 00 00 00 00 ff ff ff ff 88 dd 44 00  ..............D.
  45e9d0 20 05 93 19 02 00 00 00 f0 e9 45 00 00 00 00 00   .........E.....
  45e9e0 00 00 00 00 00 00 00 00 00 00 00 00 00 00 00 00  ................
  45e9f0 ff ff ff ff 9c dd 44 00 ff ff ff ff a4 dd 44 00  ......D.......D.
  45ea00 20 05 93 19 03 00 00 00 20 ea 45 00 00 00 00 00   ....... .E.....
  45ea10 00 00 00 00 00 00 00 00 00 00 00 00 00 00 00 00  ................
  45ea20 ff ff ff ff b8 dd 44 00 00 00 00 00 c0 dd 44 00  ......D.......D.
  45ea30 01 00 00 00 ca dd 44 00 20 05 93 19 02 00 00 00  ......D. .......
  45ea40 58 ea 45 00 00 00 00 00 00 00 00 00 00 00 00 00  X.E.............
  45ea50 00 00 00 00 00 00 00 00 ff ff ff ff dc dd 44 00  ..............D.
  45ea60 00 00 00 00 e4 dd 44 00 20 05 93 19 01 00 00 00  ......D. .......
  45ea70 88 ea 45 00 00 00 00 00 00 00 00 00 00 00 00 00  ..E.............
  45ea80 00 00 00 00 00 00 00 00 ff ff ff ff f8 dd 44 00  ..............D.
  45ea90 20 05 93 19 01 00 00 00 b0 ea 45 00 00 00 00 00   .........E.....
  45eaa0 00 00 00 00 00 00 00 00 00 00 00 00 00 00 00 00  ................
  45eab0 ff ff ff ff 0c de 44 00 20 05 93 19 01 00 00 00  ......D. .......
  45eac0 d8 ea 45 00 00 00 00 00 00 00 00 00 00 00 00 00  ..E.............
  45ead0 00 00 00 00 00 00 00 00 ff ff ff ff 20 de 44 00  ............ .D.
  45eae0 20 05 93 19 01 00 00 00 00 eb 45 00 00 00 00 00   .........E.....
  45eaf0 00 00 00 00 00 00 00 00 00 00 00 00 00 00 00 00  ................
  45eb00 ff ff ff ff 34 de 44 00 20 05 93 19 01 00 00 00  ....4.D. .......
  45eb10 28 eb 45 00 00 00 00 00 00 00 00 00 00 00 00 00  (.E.............
  45eb20 00 00 00 00 00 00 00 00 ff ff ff ff 48 de 44 00  ............H.D.
  45eb30 00 00 00 00 78 85 46 00 00 00 00 00 ff ff ff ff  ....x.F.........
  45eb40 00 00 00 00 0c 00 00 00 2b 26 42 00 00 00 00 00  ........+&B.....
  45eb50 02 00 00 00 30 eb 45 00 90 ac 45 00 00 00 00 00  ....0.E...E.....
  45eb60 00 00 00 00 e7 25 42 00 00 00 00 00 50 eb 45 00  .....%B.....P.E.
  45eb70 20 05 93 19 0c 00 00 00 90 eb 45 00 00 00 00 00   .........E.....
  45eb80 00 00 00 00 00 00 00 00 00 00 00 00 00 00 00 00  ................
  45eb90 ff ff ff ff 5c de 44 00 00 00 00 00 64 de 44 00  ....\.D.....d.D.
  45eba0 01 00 00 00 6e de 44 00 00 00 00 00 76 de 44 00  ....n.D.....v.D.
  45ebb0 03 00 00 00 80 de 44 00 00 00 00 00 88 de 44 00  ......D.......D.
  45ebc0 00 00 00 00 92 de 44 00 00 00 00 00 9c de 44 00  ......D.......D.
  45ebd0 07 00 00 00 a6 de 44 00 00 00 00 00 ae de 44 00  ......D.......D.
  45ebe0 09 00 00 00 b8 de 44 00 0a 00 00 00 c0 de 44 00  ......D.......D.
  45ebf0 20 05 93 19 01 00 00 00 10 ec 45 00 00 00 00 00   .........E.....
  45ec00 00 00 00 00 00 00 00 00 00 00 00 00 00 00 00 00  ................
  45ec10 ff ff ff ff d8 de 44 00 20 05 93 19 05 00 00 00  ......D. .......
  45ec20 38 ec 45 00 00 00 00 00 00 00 00 00 00 00 00 00  8.E.............
  45ec30 00 00 00 00 00 00 00 00 ff ff ff ff ec de 44 00  ..............D.
  45ec40 ff ff ff ff f4 de 44 00 01 00 00 00 fc de 44 00  ......D.......D.
  45ec50 01 00 00 00 04 df 44 00 ff ff ff ff 0c df 44 00  ......D.......D.
  45ec60 20 05 93 19 01 00 00 00 80 ec 45 00 00 00 00 00   .........E.....
  45ec70 00 00 00 00 00 00 00 00 00 00 00 00 00 00 00 00  ................
  45ec80 ff ff ff ff 20 df 44 00 20 05 93 19 01 00 00 00  .... .D. .......
  45ec90 a8 ec 45 00 00 00 00 00 00 00 00 00 00 00 00 00  ..E.............
  45eca0 00 00 00 00 00 00 00 00 ff ff ff ff 34 df 44 00  ............4.D.
  45ecb0 20 05 93 19 01 00 00 00 d0 ec 45 00 00 00 00 00   .........E.....
  45ecc0 00 00 00 00 00 00 00 00 00 00 00 00 00 00 00 00  ................
  45ecd0 ff ff ff ff 48 df 44 00 20 05 93 19 01 00 00 00  ....H.D. .......
  45ece0 f8 ec 45 00 00 00 00 00 00 00 00 00 00 00 00 00  ..E.............
  45ecf0 00 00 00 00 00 00 00 00 ff ff ff ff 5c df 44 00  ............\.D.
  45ed00 20 05 93 19 01 00 00 00 20 ed 45 00 00 00 00 00   ....... .E.....
  45ed10 00 00 00 00 00 00 00 00 00 00 00 00 00 00 00 00  ................
  45ed20 ff ff ff ff 70 df 44 00 20 05 93 19 01 00 00 00  ....p.D. .......
  45ed30 48 ed 45 00 00 00 00 00 00 00 00 00 00 00 00 00  H.E.............
  45ed40 00 00 00 00 00 00 00 00 ff ff ff ff 84 df 44 00  ..............D.
  45ed50 20 05 93 19 01 00 00 00 70 ed 45 00 00 00 00 00   .......p.E.....
  45ed60 00 00 00 00 00 00 00 00 00 00 00 00 00 00 00 00  ................
  45ed70 ff ff ff ff 98 df 44 00 20 05 93 19 01 00 00 00  ......D. .......
  45ed80 98 ed 45 00 00 00 00 00 00 00 00 00 00 00 00 00  ..E.............
  45ed90 00 00 00 00 00 00 00 00 ff ff ff ff ac df 44 00  ..............D.
  45eda0 20 05 93 19 04 00 00 00 c0 ed 45 00 00 00 00 00   .........E.....
  45edb0 00 00 00 00 00 00 00 00 00 00 00 00 00 00 00 00  ................
  45edc0 ff ff ff ff c0 df 44 00 ff ff ff ff c8 df 44 00  ......D.......D.
  45edd0 01 00 00 00 d0 df 44 00 01 00 00 00 d8 df 44 00  ......D.......D.
  45ede0 20 05 93 19 02 00 00 00 00 ee 45 00 00 00 00 00   .........E.....
  45edf0 00 00 00 00 00 00 00 00 00 00 00 00 00 00 00 00  ................
  45ee00 ff ff ff ff f4 df 44 00 00 00 00 00 ec df 44 00  ......D.......D.
  45ee10 20 05 93 19 02 00 00 00 30 ee 45 00 00 00 00 00   .......0.E.....
  45ee20 00 00 00 00 00 00 00 00 00 00 00 00 00 00 00 00  ................
  45ee30 ff ff ff ff 18 e0 44 00 00 00 00 00 20 e0 44 00  ......D..... .D.
  45ee40 20 05 93 19 01 00 00 00 60 ee 45 00 00 00 00 00   .......`.E.....
  45ee50 00 00 00 00 00 00 00 00 00 00 00 00 00 00 00 00  ................
  45ee60 ff ff ff ff 34 e0 44 00 20 05 93 19 01 00 00 00  ....4.D. .......
  45ee70 88 ee 45 00 00 00 00 00 00 00 00 00 00 00 00 00  ..E.............
  45ee80 00 00 00 00 00 00 00 00 ff ff ff ff 48 e0 44 00  ............H.D.
  45ee90 20 05 93 19 02 00 00 00 b0 ee 45 00 00 00 00 00   .........E.....
  45eea0 00 00 00 00 00 00 00 00 00 00 00 00 00 00 00 00  ................
  45eeb0 ff ff ff ff 5c e0 44 00 ff ff ff ff 64 e0 44 00  ....\.D.....d.D.
  45eec0 20 05 93 19 02 00 00 00 e0 ee 45 00 00 00 00 00   .........E.....
  45eed0 00 00 00 00 00 00 00 00 00 00 00 00 00 00 00 00  ................
  45eee0 ff ff ff ff 78 e0 44 00 00 00 00 00 80 e0 44 00  ....x.D.......D.
  45eef0 20 05 93 19 01 00 00 00 10 ef 45 00 00 00 00 00   .........E.....
  45ef00 00 00 00 00 00 00 00 00 00 00 00 00 00 00 00 00  ................
  45ef10 ff ff ff ff 94 e0 44 00 20 05 93 19 02 00 00 00  ......D. .......
  45ef20 38 ef 45 00 00 00 00 00 00 00 00 00 00 00 00 00  8.E.............
  45ef30 00 00 00 00 00 00 00 00 ff ff ff ff a8 e0 44 00  ..............D.
  45ef40 ff ff ff ff b0 e0 44 00 20 05 93 19 0f 00 00 00  ......D. .......
  45ef50 68 ef 45 00 00 00 00 00 00 00 00 00 00 00 00 00  h.E.............
  45ef60 00 00 00 00 00 00 00 00 ff ff ff ff 49 e1 44 00  ............I.D.
  45ef70 00 00 00 00 c4 e0 44 00 00 00 00 00 cc e0 44 00  ......D.......D.
  45ef80 00 00 00 00 d4 e0 44 00 00 00 00 00 dc e0 44 00  ......D.......D.
  45ef90 04 00 00 00 e4 e0 44 00 05 00 00 00 41 e1 44 00  ......D.....A.D.
  45efa0 05 00 00 00 ff e0 44 00 07 00 00 00 0a e1 44 00  ......D.......D.
  45efb0 05 00 00 00 15 e1 44 00 05 00 00 00 20 e1 44 00  ......D..... .D.
  45efc0 0a 00 00 00 2b e1 44 00 05 00 00 00 36 e1 44 00  ....+.D.....6.D.
  45efd0 05 00 00 00 ec e0 44 00 0d 00 00 00 f7 e0 44 00  ......D.......D.
  45efe0 20 05 93 19 09 00 00 00 00 f0 45 00 00 00 00 00   .........E.....
  45eff0 00 00 00 00 00 00 00 00 00 00 00 00 00 00 00 00  ................
  45f000 ff ff ff ff 6c e1 44 00 00 00 00 00 74 e1 44 00  ....l.D.....t.D.
  45f010 00 00 00 00 7c e1 44 00 00 00 00 00 84 e1 44 00  ....|.D.......D.
  45f020 03 00 00 00 8f e1 44 00 04 00 00 00 97 e1 44 00  ......D.......D.
  45f030 04 00 00 00 9f e1 44 00 04 00 00 00 a7 e1 44 00  ......D.......D.
  45f040 07 00 00 00 b2 e1 44 00 20 05 93 19 01 00 00 00  ......D. .......
  45f050 68 f0 45 00 00 00 00 00 00 00 00 00 00 00 00 00  h.E.............
  45f060 00 00 00 00 00 00 00 00 ff ff ff ff c4 e1 44 00  ..............D.
  45f070 20 05 93 19 02 00 00 00 90 f0 45 00 00 00 00 00   .........E.....
  45f080 00 00 00 00 00 00 00 00 00 00 00 00 00 00 00 00  ................
  45f090 ff ff ff ff d8 e1 44 00 00 00 00 00 e0 e1 44 00  ......D.......D.
  45f0a0 20 05 93 19 03 00 00 00 c0 f0 45 00 00 00 00 00   .........E.....
  45f0b0 00 00 00 00 00 00 00 00 00 00 00 00 00 00 00 00  ................
  45f0c0 ff ff ff ff f4 e1 44 00 00 00 00 00 fc e1 44 00  ......D.......D.
  45f0d0 01 00 00 00 06 e2 44 00 20 05 93 19 03 00 00 00  ......D. .......
  45f0e0 f8 f0 45 00 00 00 00 00 00 00 00 00 00 00 00 00  ..E.............
  45f0f0 00 00 00 00 00 00 00 00 ff ff ff ff 18 e2 44 00  ..............D.
  45f100 00 00 00 00 20 e2 44 00 01 00 00 00 2a e2 44 00  .... .D.....*.D.
  45f110 20 05 93 19 02 00 00 00 30 f1 45 00 00 00 00 00   .......0.E.....
  45f120 00 00 00 00 00 00 00 00 00 00 00 00 00 00 00 00  ................
  45f130 ff ff ff ff 3c e2 44 00 00 00 00 00 44 e2 44 00  ....<.D.....D.D.
  45f140 20 05 93 19 02 00 00 00 60 f1 45 00 00 00 00 00   .......`.E.....
  45f150 00 00 00 00 00 00 00 00 00 00 00 00 00 00 00 00  ................
  45f160 ff ff ff ff 58 e2 44 00 00 00 00 00 60 e2 44 00  ....X.D.....`.D.
  45f170 20 05 93 19 02 00 00 00 90 f1 45 00 00 00 00 00   .........E.....
  45f180 00 00 00 00 00 00 00 00 00 00 00 00 00 00 00 00  ................
  45f190 ff ff ff ff 74 e2 44 00 00 00 00 00 7c e2 44 00  ....t.D.....|.D.
  45f1a0 20 05 93 19 03 00 00 00 c0 f1 45 00 00 00 00 00   .........E.....
  45f1b0 00 00 00 00 00 00 00 00 00 00 00 00 00 00 00 00  ................
  45f1c0 ff ff ff ff 90 e2 44 00 00 00 00 00 98 e2 44 00  ......D.......D.
  45f1d0 01 00 00 00 a2 e2 44 00 20 05 93 19 03 00 00 00  ......D. .......
  45f1e0 f8 f1 45 00 00 00 00 00 00 00 00 00 00 00 00 00  ..E.............
  45f1f0 00 00 00 00 00 00 00 00 ff ff ff ff b4 e2 44 00  ..............D.
  45f200 00 00 00 00 bc e2 44 00 01 00 00 00 c6 e2 44 00  ......D.......D.
  45f210 20 05 93 19 02 00 00 00 30 f2 45 00 00 00 00 00   .......0.E.....
  45f220 00 00 00 00 00 00 00 00 00 00 00 00 00 00 00 00  ................
  45f230 ff ff ff ff d8 e2 44 00 00 00 00 00 e0 e2 44 00  ......D.......D.
  45f240 20 05 93 19 02 00 00 00 60 f2 45 00 00 00 00 00   .......`.E.....
  45f250 00 00 00 00 00 00 00 00 00 00 00 00 00 00 00 00  ................
  45f260 ff ff ff ff f4 e2 44 00 00 00 00 00 fc e2 44 00  ......D.......D.
  45f270 20 05 93 19 02 00 00 00 90 f2 45 00 00 00 00 00   .........E.....
  45f280 00 00 00 00 00 00 00 00 00 00 00 00 00 00 00 00  ................
  45f290 ff ff ff ff 10 e3 44 00 00 00 00 00 18 e3 44 00  ......D.......D.
  45f2a0 20 05 93 19 02 00 00 00 c0 f2 45 00 00 00 00 00   .........E.....
  45f2b0 00 00 00 00 00 00 00 00 00 00 00 00 00 00 00 00  ................
  45f2c0 ff ff ff ff 2c e3 44 00 00 00 00 00 34 e3 44 00  ....,.D.....4.D.
  45f2d0 20 05 93 19 02 00 00 00 f0 f2 45 00 00 00 00 00   .........E.....
  45f2e0 00 00 00 00 00 00 00 00 00 00 00 00 00 00 00 00  ................
  45f2f0 ff ff ff ff 48 e3 44 00 00 00 00 00 50 e3 44 00  ....H.D.....P.D.
  45f300 20 05 93 19 01 00 00 00 20 f3 45 00 00 00 00 00   ....... .E.....
  45f310 00 00 00 00 00 00 00 00 00 00 00 00 00 00 00 00  ................
  45f320 ff ff ff ff 64 e3 44 00 20 05 93 19 01 00 00 00  ....d.D. .......
  45f330 48 f3 45 00 00 00 00 00 00 00 00 00 00 00 00 00  H.E.............
  45f340 00 00 00 00 00 00 00 00 ff ff ff ff 78 e3 44 00  ............x.D.
  45f350 20 05 93 19 01 00 00 00 70 f3 45 00 00 00 00 00   .......p.E.....
  45f360 00 00 00 00 00 00 00 00 00 00 00 00 00 00 00 00  ................
  45f370 ff ff ff ff 8c e3 44 00 20 05 93 19 02 00 00 00  ......D. .......
  45f380 98 f3 45 00 00 00 00 00 00 00 00 00 00 00 00 00  ..E.............
  45f390 00 00 00 00 00 00 00 00 ff ff ff ff a0 e3 44 00  ..............D.
  45f3a0 00 00 00 00 a8 e3 44 00 20 05 93 19 02 00 00 00  ......D. .......
  45f3b0 c8 f3 45 00 00 00 00 00 00 00 00 00 00 00 00 00  ..E.............
  45f3c0 00 00 00 00 00 00 00 00 ff ff ff ff c0 e3 44 00  ..............D.
  45f3d0 00 00 00 00 c8 e3 44 00 20 05 93 19 01 00 00 00  ......D. .......
  45f3e0 f8 f3 45 00 00 00 00 00 00 00 00 00 00 00 00 00  ..E.............
  45f3f0 00 00 00 00 00 00 00 00 ff ff ff ff dc e3 44 00  ..............D.
  45f400 20 05 93 19 02 00 00 00 20 f4 45 00 00 00 00 00   ....... .E.....
  45f410 00 00 00 00 00 00 00 00 00 00 00 00 00 00 00 00  ................
  45f420 ff ff ff ff f0 e3 44 00 00 00 00 00 f8 e3 44 00  ......D.......D.
  45f430 20 05 93 19 02 00 00 00 50 f4 45 00 00 00 00 00   .......P.E.....
  45f440 00 00 00 00 00 00 00 00 00 00 00 00 00 00 00 00  ................
  45f450 ff ff ff ff 0c e4 44 00 00 00 00 00 14 e4 44 00  ......D.......D.
  45f460 20 05 93 19 01 00 00 00 80 f4 45 00 00 00 00 00   .........E.....
  45f470 00 00 00 00 00 00 00 00 00 00 00 00 00 00 00 00  ................
  45f480 ff ff ff ff 28 e4 44 00 20 05 93 19 01 00 00 00  ....(.D. .......
  45f490 a8 f4 45 00 00 00 00 00 00 00 00 00 00 00 00 00  ..E.............
  45f4a0 00 00 00 00 00 00 00 00 ff ff ff ff 3c e4 44 00  ............<.D.
  45f4b0 20 05 93 19 01 00 00 00 d0 f4 45 00 00 00 00 00   .........E.....
  45f4c0 00 00 00 00 00 00 00 00 00 00 00 00 00 00 00 00  ................
  45f4d0 ff ff ff ff 50 e4 44 00 20 05 93 19 01 00 00 00  ....P.D. .......
  45f4e0 f8 f4 45 00 00 00 00 00 00 00 00 00 00 00 00 00  ..E.............
  45f4f0 00 00 00 00 00 00 00 00 ff ff ff ff 64 e4 44 00  ............d.D.
  45f500 20 05 93 19 01 00 00 00 20 f5 45 00 00 00 00 00   ....... .E.....
  45f510 00 00 00 00 00 00 00 00 00 00 00 00 00 00 00 00  ................
  45f520 ff ff ff ff 78 e4 44 00 20 05 93 19 01 00 00 00  ....x.D. .......
  45f530 48 f5 45 00 00 00 00 00 00 00 00 00 00 00 00 00  H.E.............
  45f540 00 00 00 00 00 00 00 00 ff ff ff ff 8c e4 44 00  ..............D.
  45f550 20 05 93 19 01 00 00 00 70 f5 45 00 00 00 00 00   .......p.E.....
  45f560 00 00 00 00 00 00 00 00 00 00 00 00 00 00 00 00  ................
  45f570 ff ff ff ff a0 e4 44 00 20 05 93 19 01 00 00 00  ......D. .......
  45f580 98 f5 45 00 00 00 00 00 00 00 00 00 00 00 00 00  ..E.............
  45f590 00 00 00 00 00 00 00 00 ff ff ff ff b4 e4 44 00  ..............D.
  45f5a0 20 05 93 19 01 00 00 00 c0 f5 45 00 00 00 00 00   .........E.....
  45f5b0 00 00 00 00 00 00 00 00 00 00 00 00 00 00 00 00  ................
  45f5c0 ff ff ff ff c8 e4 44 00 20 05 93 19 01 00 00 00  ......D. .......
  45f5d0 e8 f5 45 00 00 00 00 00 00 00 00 00 00 00 00 00  ..E.............
  45f5e0 00 00 00 00 00 00 00 00 ff ff ff ff dc e4 44 00  ..............D.
  45f5f0 20 05 93 19 01 00 00 00 10 f6 45 00 00 00 00 00   .........E.....
  45f600 00 00 00 00 00 00 00 00 00 00 00 00 00 00 00 00  ................
  45f610 ff ff ff ff f0 e4 44 00 20 05 93 19 01 00 00 00  ......D. .......
  45f620 38 f6 45 00 00 00 00 00 00 00 00 00 00 00 00 00  8.E.............
  45f630 00 00 00 00 00 00 00 00 ff ff ff ff 04 e5 44 00  ..............D.
  45f640 20 05 93 19 01 00 00 00 60 f6 45 00 00 00 00 00   .......`.E.....
  45f650 00 00 00 00 00 00 00 00 00 00 00 00 00 00 00 00  ................
  45f660 ff ff ff ff 18 e5 44 00 20 05 93 19 02 00 00 00  ......D. .......
  45f670 88 f6 45 00 00 00 00 00 00 00 00 00 00 00 00 00  ..E.............
  45f680 00 00 00 00 00 00 00 00 ff ff ff ff 2c e5 44 00  ............,.D.
  45f690 00 00 00 00 34 e5 44 00 20 05 93 19 01 00 00 00  ....4.D. .......
  45f6a0 b8 f6 45 00 00 00 00 00 00 00 00 00 00 00 00 00  ..E.............
  45f6b0 00 00 00 00 00 00 00 00 ff ff ff ff 48 e5 44 00  ............H.D.
  45f6c0 20 05 93 19 01 00 00 00 e0 f6 45 00 00 00 00 00   .........E.....
  45f6d0 00 00 00 00 00 00 00 00 00 00 00 00 00 00 00 00  ................
  45f6e0 ff ff ff ff 5c e5 44 00 20 05 93 19 01 00 00 00  ....\.D. .......
  45f6f0 08 f7 45 00 00 00 00 00 00 00 00 00 00 00 00 00  ..E.............
  45f700 00 00 00 00 00 00 00 00 ff ff ff ff 70 e5 44 00  ............p.D.
  45f710 20 05 93 19 01 00 00 00 30 f7 45 00 00 00 00 00   .......0.E.....
  45f720 00 00 00 00 00 00 00 00 00 00 00 00 00 00 00 00  ................
  45f730 ff ff ff ff 84 e5 44 00 20 05 93 19 01 00 00 00  ......D. .......
  45f740 58 f7 45 00 00 00 00 00 00 00 00 00 00 00 00 00  X.E.............
  45f750 00 00 00 00 00 00 00 00 ff ff ff ff 98 e5 44 00  ..............D.
  45f760 20 05 93 19 01 00 00 00 80 f7 45 00 00 00 00 00   .........E.....
  45f770 00 00 00 00 00 00 00 00 00 00 00 00 00 00 00 00  ................
  45f780 ff ff ff ff ac e5 44 00 20 05 93 19 01 00 00 00  ......D. .......
  45f790 a8 f7 45 00 00 00 00 00 00 00 00 00 00 00 00 00  ..E.............
  45f7a0 00 00 00 00 00 00 00 00 ff ff ff ff c0 e5 44 00  ..............D.
  45f7b0 20 05 93 19 01 00 00 00 d0 f7 45 00 00 00 00 00   .........E.....
  45f7c0 00 00 00 00 00 00 00 00 00 00 00 00 00 00 00 00  ................
  45f7d0 ff ff ff ff d4 e5 44 00 20 05 93 19 01 00 00 00  ......D. .......
  45f7e0 f8 f7 45 00 00 00 00 00 00 00 00 00 00 00 00 00  ..E.............
  45f7f0 00 00 00 00 00 00 00 00 ff ff ff ff e8 e5 44 00  ..............D.
  45f800 20 05 93 19 01 00 00 00 20 f8 45 00 00 00 00 00   ....... .E.....
  45f810 00 00 00 00 00 00 00 00 00 00 00 00 00 00 00 00  ................
  45f820 ff ff ff ff fc e5 44 00 20 05 93 19 01 00 00 00  ......D. .......
  45f830 48 f8 45 00 00 00 00 00 00 00 00 00 00 00 00 00  H.E.............
  45f840 00 00 00 00 00 00 00 00 ff ff ff ff 10 e6 44 00  ..............D.
  45f850 20 05 93 19 01 00 00 00 70 f8 45 00 00 00 00 00   .......p.E.....
  45f860 00 00 00 00 00 00 00 00 00 00 00 00 00 00 00 00  ................
  45f870 ff ff ff ff 24 e6 44 00 20 05 93 19 01 00 00 00  ....$.D. .......
  45f880 98 f8 45 00 00 00 00 00 00 00 00 00 00 00 00 00  ..E.............
  45f890 00 00 00 00 00 00 00 00 ff ff ff ff 38 e6 44 00  ............8.D.
  45f8a0 20 05 93 19 0a 00 00 00 c0 f8 45 00 00 00 00 00   .........E.....
  45f8b0 00 00 00 00 00 00 00 00 00 00 00 00 00 00 00 00  ................
  45f8c0 ff ff ff ff 4c e6 44 00 00 00 00 00 54 e6 44 00  ....L.D.....T.D.
  45f8d0 01 00 00 00 5e e6 44 00 00 00 00 00 66 e6 44 00  ....^.D.....f.D.
  45f8e0 00 00 00 00 70 e6 44 00 00 00 00 00 7a e6 44 00  ....p.D.....z.D.
  45f8f0 05 00 00 00 84 e6 44 00 00 00 00 00 8c e6 44 00  ......D.......D.
  45f900 07 00 00 00 96 e6 44 00 08 00 00 00 9e e6 44 00  ......D.......D.
  45f910 20 05 93 19 02 00 00 00 30 f9 45 00 00 00 00 00   .......0.E.....
  45f920 00 00 00 00 00 00 00 00 00 00 00 00 00 00 00 00  ................
  45f930 ff ff ff ff bc e6 44 00 00 00 00 00 b4 e6 44 00  ......D.......D.
  45f940 20 05 93 19 02 00 00 00 60 f9 45 00 00 00 00 00   .......`.E.....
  45f950 00 00 00 00 00 00 00 00 00 00 00 00 00 00 00 00  ................
  45f960 ff ff ff ff e0 e6 44 00 00 00 00 00 e8 e6 44 00  ......D.......D.
  45f970 20 05 93 19 01 00 00 00 90 f9 45 00 00 00 00 00   .........E.....
  45f980 00 00 00 00 00 00 00 00 00 00 00 00 00 00 00 00  ................
  45f990 ff ff ff ff fc e6 44 00 20 05 93 19 01 00 00 00  ......D. .......
  45f9a0 b8 f9 45 00 00 00 00 00 00 00 00 00 00 00 00 00  ..E.............
  45f9b0 00 00 00 00 00 00 00 00 ff ff ff ff 10 e7 44 00  ..............D.
  45f9c0 20 05 93 19 02 00 00 00 e0 f9 45 00 00 00 00 00   .........E.....
  45f9d0 00 00 00 00 00 00 00 00 00 00 00 00 00 00 00 00  ................
  45f9e0 ff ff ff ff 24 e7 44 00 ff ff ff ff 2c e7 44 00  ....$.D.....,.D.
  45f9f0 20 05 93 19 01 00 00 00 10 fa 45 00 00 00 00 00   .........E.....
  45fa00 00 00 00 00 00 00 00 00 00 00 00 00 00 00 00 00  ................
  45fa10 ff ff ff ff 40 e7 44 00 20 05 93 19 0e 00 00 00  ....@.D. .......
  45fa20 38 fa 45 00 00 00 00 00 00 00 00 00 00 00 00 00  8.E.............
  45fa30 00 00 00 00 00 00 00 00 ff ff ff ff 54 e7 44 00  ............T.D.
  45fa40 ff ff ff ff 5c e7 44 00 ff ff ff ff 64 e7 44 00  ....\.D.....d.D.
  45fa50 ff ff ff ff 6c e7 44 00 03 00 00 00 74 e7 44 00  ....l.D.....t.D.
  45fa60 04 00 00 00 d1 e7 44 00 04 00 00 00 8f e7 44 00  ......D.......D.
  45fa70 06 00 00 00 9a e7 44 00 04 00 00 00 a5 e7 44 00  ......D.......D.
  45fa80 04 00 00 00 b0 e7 44 00 09 00 00 00 bb e7 44 00  ......D.......D.
  45fa90 04 00 00 00 c6 e7 44 00 04 00 00 00 7c e7 44 00  ......D.....|.D.
  45faa0 0c 00 00 00 87 e7 44 00 20 05 93 19 09 00 00 00  ......D. .......
  45fab0 c8 fa 45 00 00 00 00 00 00 00 00 00 00 00 00 00  ..E.............
  45fac0 00 00 00 00 00 00 00 00 ff ff ff ff e4 e7 44 00  ..............D.
  45fad0 00 00 00 00 ec e7 44 00 00 00 00 00 f4 e7 44 00  ......D.......D.
  45fae0 00 00 00 00 fc e7 44 00 03 00 00 00 07 e8 44 00  ......D.......D.
  45faf0 04 00 00 00 0f e8 44 00 04 00 00 00 17 e8 44 00  ......D.......D.
  45fb00 04 00 00 00 1f e8 44 00 07 00 00 00 2a e8 44 00  ......D.....*.D.
  45fb10 20 05 93 19 01 00 00 00 30 fb 45 00 00 00 00 00   .......0.E.....
  45fb20 00 00 00 00 00 00 00 00 00 00 00 00 00 00 00 00  ................
  45fb30 ff ff ff ff 3c e8 44 00 20 05 93 19 02 00 00 00  ....<.D. .......
  45fb40 58 fb 45 00 00 00 00 00 00 00 00 00 00 00 00 00  X.E.............
  45fb50 00 00 00 00 00 00 00 00 ff ff ff ff 50 e8 44 00  ............P.D.
  45fb60 00 00 00 00 58 e8 44 00 20 05 93 19 02 00 00 00  ....X.D. .......
  45fb70 88 fb 45 00 00 00 00 00 00 00 00 00 00 00 00 00  ..E.............
  45fb80 00 00 00 00 00 00 00 00 ff ff ff ff 6c e8 44 00  ............l.D.
  45fb90 00 00 00 00 74 e8 44 00 20 05 93 19 03 00 00 00  ....t.D. .......
  45fba0 b8 fb 45 00 00 00 00 00 00 00 00 00 00 00 00 00  ..E.............
  45fbb0 00 00 00 00 00 00 00 00 ff ff ff ff 88 e8 44 00  ..............D.
  45fbc0 00 00 00 00 90 e8 44 00 01 00 00 00 9a e8 44 00  ......D.......D.
  45fbd0 20 05 93 19 03 00 00 00 f0 fb 45 00 00 00 00 00   .........E.....
  45fbe0 00 00 00 00 00 00 00 00 00 00 00 00 00 00 00 00  ................
  45fbf0 ff ff ff ff ac e8 44 00 00 00 00 00 b4 e8 44 00  ......D.......D.
  45fc00 01 00 00 00 be e8 44 00 20 05 93 19 02 00 00 00  ......D. .......
  45fc10 28 fc 45 00 00 00 00 00 00 00 00 00 00 00 00 00  (.E.............
  45fc20 00 00 00 00 00 00 00 00 ff ff ff ff d0 e8 44 00  ..............D.
  45fc30 00 00 00 00 d8 e8 44 00 20 05 93 19 02 00 00 00  ......D. .......
  45fc40 58 fc 45 00 00 00 00 00 00 00 00 00 00 00 00 00  X.E.............
  45fc50 00 00 00 00 00 00 00 00 ff ff ff ff ec e8 44 00  ..............D.
  45fc60 00 00 00 00 f4 e8 44 00 20 05 93 19 02 00 00 00  ......D. .......
  45fc70 88 fc 45 00 00 00 00 00 00 00 00 00 00 00 00 00  ..E.............
  45fc80 00 00 00 00 00 00 00 00 ff ff ff ff 08 e9 44 00  ..............D.
  45fc90 00 00 00 00 10 e9 44 00 20 05 93 19 02 00 00 00  ......D. .......
  45fca0 b8 fc 45 00 00 00 00 00 00 00 00 00 00 00 00 00  ..E.............
  45fcb0 00 00 00 00 00 00 00 00 ff ff ff ff 24 e9 44 00  ............$.D.
  45fcc0 00 00 00 00 2c e9 44 00 20 05 93 19 01 00 00 00  ....,.D. .......
  45fcd0 e8 fc 45 00 00 00 00 00 00 00 00 00 00 00 00 00  ..E.............
  45fce0 00 00 00 00 00 00 00 00 ff ff ff ff 40 e9 44 00  ............@.D.
  45fcf0 20 05 93 19 02 00 00 00 10 fd 45 00 00 00 00 00   .........E.....
  45fd00 00 00 00 00 00 00 00 00 00 00 00 00 00 00 00 00  ................
  45fd10 ff ff ff ff 54 e9 44 00 00 00 00 00 5c e9 44 00  ....T.D.....\.D.
  45fd20 20 05 93 19 02 00 00 00 40 fd 45 00 00 00 00 00   .......@.E.....
  45fd30 00 00 00 00 00 00 00 00 00 00 00 00 00 00 00 00  ................
  45fd40 ff ff ff ff 70 e9 44 00 00 00 00 00 78 e9 44 00  ....p.D.....x.D.
  45fd50 20 05 93 19 02 00 00 00 70 fd 45 00 00 00 00 00   .......p.E.....
  45fd60 00 00 00 00 00 00 00 00 00 00 00 00 00 00 00 00  ................
  45fd70 ff ff ff ff 8c e9 44 00 00 00 00 00 94 e9 44 00  ......D.......D.
  45fd80 20 05 93 19 01 00 00 00 a0 fd 45 00 00 00 00 00   .........E.....
  45fd90 00 00 00 00 00 00 00 00 00 00 00 00 00 00 00 00  ................
  45fda0 ff ff ff ff ac e9 44 00 20 05 93 19 01 00 00 00  ......D. .......
  45fdb0 c8 fd 45 00 00 00 00 00 00 00 00 00 00 00 00 00  ..E.............
  45fdc0 00 00 00 00 00 00 00 00 ff ff ff ff c0 e9 44 00  ..............D.
  45fdd0 20 05 93 19 01 00 00 00 f0 fd 45 00 00 00 00 00   .........E.....
  45fde0 00 00 00 00 00 00 00 00 00 00 00 00 00 00 00 00  ................
  45fdf0 ff ff ff ff d4 e9 44 00 20 05 93 19 01 00 00 00  ......D. .......
  45fe00 18 fe 45 00 00 00 00 00 00 00 00 00 00 00 00 00  ..E.............
  45fe10 00 00 00 00 00 00 00 00 ff ff ff ff e8 e9 44 00  ..............D.
  45fe20 20 05 93 19 01 00 00 00 40 fe 45 00 00 00 00 00   .......@.E.....
  45fe30 00 00 00 00 00 00 00 00 00 00 00 00 00 00 00 00  ................
  45fe40 ff ff ff ff fc e9 44 00 20 05 93 19 01 00 00 00  ......D. .......
  45fe50 68 fe 45 00 00 00 00 00 00 00 00 00 00 00 00 00  h.E.............
  45fe60 00 00 00 00 00 00 00 00 ff ff ff ff 10 ea 44 00  ..............D.
  45fe70 20 05 93 19 01 00 00 00 90 fe 45 00 00 00 00 00   .........E.....
  45fe80 00 00 00 00 00 00 00 00 00 00 00 00 00 00 00 00  ................
  45fe90 ff ff ff ff 24 ea 44 00 20 05 93 19 01 00 00 00  ....$.D. .......
  45fea0 b8 fe 45 00 00 00 00 00 00 00 00 00 00 00 00 00  ..E.............
  45feb0 00 00 00 00 00 00 00 00 ff ff ff ff 38 ea 44 00  ............8.D.
  45fec0 20 05 93 19 02 00 00 00 e0 fe 45 00 00 00 00 00   .........E.....
  45fed0 00 00 00 00 00 00 00 00 00 00 00 00 00 00 00 00  ................
  45fee0 ff ff ff ff 4c ea 44 00 00 00 00 00 54 ea 44 00  ....L.D.....T.D.
  45fef0 20 05 93 19 01 00 00 00 10 ff 45 00 00 00 00 00   .........E.....
  45ff00 00 00 00 00 00 00 00 00 00 00 00 00 00 00 00 00  ................
  45ff10 ff ff ff ff 68 ea 44 00 20 05 93 19 01 00 00 00  ....h.D. .......
  45ff20 38 ff 45 00 00 00 00 00 00 00 00 00 00 00 00 00  8.E.............
  45ff30 00 00 00 00 00 00 00 00 ff ff ff ff 7c ea 44 00  ............|.D.
  45ff40 20 05 93 19 01 00 00 00 60 ff 45 00 00 00 00 00   .......`.E.....
  45ff50 00 00 00 00 00 00 00 00 00 00 00 00 00 00 00 00  ................
  45ff60 ff ff ff ff 90 ea 44 00 20 05 93 19 01 00 00 00  ......D. .......
  45ff70 88 ff 45 00 00 00 00 00 00 00 00 00 00 00 00 00  ..E.............
  45ff80 00 00 00 00 00 00 00 00 ff ff ff ff a4 ea 44 00  ..............D.
  45ff90 20 05 93 19 01 00 00 00 b0 ff 45 00 00 00 00 00   .........E.....
  45ffa0 00 00 00 00 00 00 00 00 00 00 00 00 00 00 00 00  ................
  45ffb0 ff ff ff ff b8 ea 44 00 20 05 93 19 01 00 00 00  ......D. .......
  45ffc0 d8 ff 45 00 00 00 00 00 00 00 00 00 00 00 00 00  ..E.............
  45ffd0 00 00 00 00 00 00 00 00 ff ff ff ff cc ea 44 00  ..............D.
  45ffe0 20 05 93 19 01 00 00 00 00 00 46 00 00 00 00 00   .........F.....
  45fff0 00 00 00 00 00 00 00 00 00 00 00 00 00 00 00 00  ................
  460000 ff ff ff ff e0 ea 44 00 20 05 93 19 01 00 00 00  ......D. .......
  460010 28 00 46 00 00 00 00 00 00 00 00 00 00 00 00 00  (.F.............
  460020 00 00 00 00 00 00 00 00 ff ff ff ff f4 ea 44 00  ..............D.
  460030 8c 08 06 00 00 00 00 00 00 00 00 00 d2 08 06 00  ................
  460040 44 f7 04 00 ac 01 06 00 00 00 00 00 00 00 00 00  D...............
  460050 80 0b 06 00 64 f0 04 00 44 08 06 00 00 00 00 00  ....d...D.......
  460060 00 00 00 00 fe 0d 06 00 fc f6 04 00 48 03 06 00  ............H...
  460070 00 00 00 00 00 00 00 00 1a 18 06 00 00 f2 04 00  ................
  460080 b8 05 06 00 00 00 00 00 00 00 00 00 34 22 06 00  ............4"..
  460090 70 f4 04 00 f4 01 06 00 00 00 00 00 00 00 00 00  p...............
  4600a0 78 27 06 00 ac f0 04 00 a4 08 06 00 00 00 00 00  x'..............
  4600b0 00 00 00 00 ba 27 06 00 5c f7 04 00 94 08 06 00  .....'..\.......
  4600c0 00 00 00 00 00 00 00 00 fe 27 06 00 4c f7 04 00  .........'..L...
  4600d0 48 01 06 00 00 00 00 00 00 00 00 00 fa 28 06 00  H............(..
  4600e0 00 f0 04 00 9c 05 06 00 00 00 00 00 00 00 00 00  ................
  4600f0 6c 29 06 00 54 f4 04 00 84 01 06 00 00 00 00 00  l)..T...........
  460100 00 00 00 00 ee 29 06 00 3c f0 04 00 b4 08 06 00  .....)..<.......
  460110 00 00 00 00 00 00 00 00 32 2a 06 00 6c f7 04 00  ........2*..l...
  460120 7c 08 06 00 00 00 00 00 00 00 00 00 7e 2a 06 00  |...........~*..
  460130 34 f7 04 00 00 00 00 00 00 00 00 00 00 00 00 00  4...............
  460140 00 00 00 00 00 00 00 00 c6 28 06 00 b2 28 06 00  .........(...(..
  460150 2e 28 06 00 ea 28 06 00 da 28 06 00 0c 28 06 00  .(...(...(...(..
  460160 1a 28 06 00 8e 28 06 00 3e 28 06 00 50 28 06 00  .(...(..>(..P(..
  460170 5e 28 06 00 6c 28 06 00 a0 28 06 00 7c 28 06 00  ^(..l(...(..|(..
  460180 00 00 00 00 0e 00 00 80 dc 29 06 00 0d 00 00 80  .........)......
  460190 ca 29 06 00 11 00 00 80 b8 29 06 00 8c 29 06 00  .).......)...)..
  4601a0 a0 29 06 00 78 29 06 00 00 00 00 00 d2 0a 06 00  .)..x)..........
  4601b0 58 0b 06 00 9e 0a 06 00 f6 0a 06 00 38 0b 06 00  X...........8...
  4601c0 14 0b 06 00 aa 09 06 00 6e 0a 06 00 42 0a 06 00  ........n...B...
  4601d0 26 0a 06 00 08 0a 06 00 da 09 06 00 7a 09 06 00  &...........z...
  4601e0 4e 09 06 00 30 09 06 00 1a 09 06 00 dc 08 06 00  N...0...........
  4601f0 00 00 00 00 1c 2b 06 00 32 2b 06 00 4e 22 06 00  .....+..2+..N"..
  460200 5a 22 06 00 40 22 06 00 72 22 06 00 82 22 06 00  Z"..@"..r"..."..
  460210 66 22 06 00 a2 22 06 00 ba 22 06 00 8c 22 06 00  f"..."..."..."..
  460220 d6 22 06 00 e4 22 06 00 c8 22 06 00 02 23 06 00  ."..."..."...#..
  460230 10 23 06 00 f4 22 06 00 2c 23 06 00 38 23 06 00  .#..."..,#..8#..
  460240 20 23 06 00 4e 23 06 00 60 23 06 00 42 23 06 00   #..N#..`#..B#..
  460250 7c 23 06 00 8e 23 06 00 70 23 06 00 ce 23 06 00  |#...#..p#...#..
  460260 e4 23 06 00 ba 23 06 00 0e 24 06 00 20 24 06 00  .#...#...$.. $..
  460270 f8 23 06 00 46 24 06 00 5a 24 06 00 34 24 06 00  .#..F$..Z$..4$..
  460280 7c 24 06 00 90 24 06 00 6a 24 06 00 ac 24 06 00  |$...$..j$...$..
  460290 b6 24 06 00 a0 24 06 00 de 24 06 00 f6 24 06 00  .$...$...$...$..
  4602a0 c6 24 06 00 20 25 06 00 28 25 06 00 3a 25 06 00  .$.. %..(%..:%..
  4602b0 46 25 06 00 54 25 06 00 6a 25 06 00 7a 25 06 00  F%..T%..j%..z%..
  4602c0 8a 25 06 00 98 25 06 00 a8 25 06 00 ba 25 06 00  .%...%...%...%..
  4602d0 ce 25 06 00 e4 25 06 00 f4 25 06 00 04 26 06 00  .%...%...%...&..
  4602e0 14 26 06 00 24 26 06 00 38 26 06 00 4a 26 06 00  .&..$&..8&..J&..
  4602f0 5a 26 06 00 6e 26 06 00 82 26 06 00 98 26 06 00  Z&..n&...&...&..
  460300 b2 26 06 00 be 26 06 00 cc 26 06 00 d8 26 06 00  .&...&...&...&..
  460310 e6 26 06 00 f0 26 06 00 fe 26 06 00 08 27 06 00  .&...&...&...'..
  460320 16 27 06 00 24 27 06 00 3c 27 06 00 52 27 06 00  .'..$'..<'..R'..
  460330 5c 27 06 00 66 27 06 00 98 23 06 00 ac 23 06 00  \'..f'...#...#..
  460340 08 25 06 00 00 00 00 00 70 14 06 00 88 14 06 00  .%......p.......
  460350 a2 14 06 00 ae 14 06 00 60 14 06 00 c0 14 06 00  ........`.......
  460360 cc 14 06 00 de 14 06 00 f0 14 06 00 fe 14 06 00  ................
  460370 0a 15 06 00 1e 15 06 00 32 14 06 00 4a 14 06 00  ........2...J...
  460380 4a 15 06 00 56 15 06 00 60 15 06 00 7a 15 06 00  J...V...`...z...
  460390 8a 15 06 00 9a 15 06 00 aa 15 06 00 ba 15 06 00  ................
  4603a0 ca 15 06 00 e8 15 06 00 0a 14 06 00 18 14 06 00  ................
  4603b0 3c 15 06 00 2e 15 06 00 f2 13 06 00 4c 16 06 00  <...........L...
  4603c0 68 16 06 00 82 16 06 00 9c 16 06 00 b4 16 06 00  h...............
  4603d0 ce 16 06 00 e0 16 06 00 f0 16 06 00 fe 16 06 00  ................
  4603e0 10 17 06 00 22 17 06 00 32 17 06 00 42 17 06 00  ...."...2...B...
  4603f0 52 17 06 00 64 17 06 00 76 17 06 00 8c 17 06 00  R...d...v.......
  460400 a2 17 06 00 ba 17 06 00 ca 17 06 00 dc 17 06 00  ................
  460410 ee 17 06 00 08 18 06 00 e6 13 06 00 da 13 06 00  ................
  460420 c6 13 06 00 b8 13 06 00 a8 13 06 00 9a 13 06 00  ................
  460430 82 13 06 00 72 13 06 00 5a 13 06 00 50 13 06 00  ....r...Z...P...
  460440 40 13 06 00 28 13 06 00 1c 13 06 00 00 13 06 00  @...(...........
  460450 f2 12 06 00 e0 12 06 00 d2 12 06 00 be 12 06 00  ................
  460460 ac 12 06 00 98 12 06 00 80 12 06 00 6e 12 06 00  ............n...
  460470 62 12 06 00 54 12 06 00 48 12 06 00 38 12 06 00  b...T...H...8...
  460480 2a 12 06 00 1e 12 06 00 0a 12 06 00 f8 11 06 00  *...............
  460490 ec 11 06 00 e0 11 06 00 d2 11 06 00 be 11 06 00  ................
  4604a0 ac 11 06 00 7a 11 06 00 02 16 06 00 9a 11 06 00  ....z...........
  4604b0 a0 0e 06 00 90 0e 06 00 8e 11 06 00 4a 11 06 00  ............J...
  4604c0 6c 11 06 00 5e 11 06 00 02 11 06 00 36 11 06 00  l...^.......6...
  4604d0 20 11 06 00 be 10 06 00 e6 10 06 00 ce 10 06 00   ...............
  4604e0 8a 10 06 00 ae 10 06 00 9a 10 06 00 64 10 06 00  ............d...
  4604f0 7e 10 06 00 70 10 06 00 10 16 06 00 1e 16 06 00  ~...p...........
  460500 3a 10 06 00 8a 2a 06 00 b6 0e 06 00 50 10 06 00  :....*......P...
  460510 44 10 06 00 0c 10 06 00 2a 10 06 00 1a 10 06 00  D.......*.......
  460520 d2 0f 06 00 fe 0f 06 00 e8 0f 06 00 a2 0f 06 00  ................
  460530 c6 0f 06 00 b4 0f 06 00 68 0f 06 00 8e 0f 06 00  ........h.......
  460540 7a 0f 06 00 3c 0f 06 00 5a 0f 06 00 4a 0f 06 00  z...<...Z...J...
  460550 0c 0f 06 00 2c 0f 06 00 1c 0f 06 00 c6 0e 06 00  ....,...........
  460560 f6 0e 06 00 de 0e 06 00 2c 16 06 00 3c 16 06 00  ........,...<...
  460570 a0 2a 06 00 08 0e 06 00 14 0e 06 00 20 0e 06 00  .*.......... ...
  460580 36 0e 06 00 3e 0e 06 00 54 0e 06 00 62 0e 06 00  6...>...T...b...
  460590 74 0e 06 00 80 0e 06 00 00 00 00 00 18 29 06 00  t............)..
  4605a0 2a 29 06 00 08 29 06 00 38 29 06 00 4a 29 06 00  *)...)..8)..J)..
  4605b0 5c 29 06 00 00 00 00 00 06 1f 06 00 18 1f 06 00  \)..............
  4605c0 e8 1e 06 00 20 1f 06 00 2c 1f 06 00 3a 1f 06 00  .... ...,...:...
  4605d0 48 1f 06 00 54 1f 06 00 66 1f 06 00 72 1f 06 00  H...T...f...r...
  4605e0 80 1f 06 00 92 1f 06 00 a6 1f 06 00 b6 1f 06 00  ................
  4605f0 ca 1e 06 00 d8 1e 06 00 ea 1f 06 00 d8 1f 06 00  ................
  460600 12 20 06 00 26 20 06 00 38 20 06 00 46 20 06 00  . ..& ..8 ..F ..
  460610 54 20 06 00 62 20 06 00 70 20 06 00 7e 20 06 00  T ..b ..p ..~ ..
  460620 8c 20 06 00 9c 20 06 00 b0 20 06 00 c8 20 06 00  . ... ... ... ..
  460630 da 20 06 00 c8 1f 06 00 00 20 06 00 08 21 06 00  . ....... ...!..
  460640 14 21 06 00 1e 21 06 00 30 21 06 00 42 21 06 00  .!...!..0!..B!..
  460650 e6 20 06 00 68 21 06 00 78 21 06 00 88 21 06 00  . ..h!..x!...!..
  460660 96 21 06 00 a4 21 06 00 b0 21 06 00 be 21 06 00  .!...!...!...!..
  460670 ce 21 06 00 e4 21 06 00 f8 21 06 00 06 22 06 00  .!...!...!..."..
  460680 14 22 06 00 22 22 06 00 c8 1d 06 00 b6 1d 06 00  ."..""..........
  460690 a6 1d 06 00 96 1d 06 00 86 1d 06 00 76 1d 06 00  ............v...
  4606a0 64 1d 06 00 52 1d 06 00 42 1d 06 00 32 1d 06 00  d...R...B...2...
  4606b0 22 1d 06 00 14 1d 06 00 0a 1d 06 00 fa 20 06 00  "............ ..
  4606c0 56 21 06 00 e0 1c 06 00 ce 1c 06 00 c0 1c 06 00  V!..............
  4606d0 7c 1e 06 00 9e 1c 06 00 88 1c 06 00 70 1c 06 00  |...........p...
  4606e0 5e 1c 06 00 4e 1c 06 00 40 1c 06 00 2e 1c 06 00  ^...N...@.......
  4606f0 92 1e 06 00 ec 1b 06 00 d6 1b 06 00 ca 1b 06 00  ................
  460700 b8 1b 06 00 aa 1b 06 00 98 1b 06 00 88 1b 06 00  ................
  460710 72 1b 06 00 66 1b 06 00 54 1b 06 00 44 1b 06 00  r...f...T...D...
  460720 2a 1b 06 00 1a 1b 06 00 02 1b 06 00 ec 1a 06 00  *...............
  460730 d8 1a 06 00 cc 1a 06 00 ba 1a 06 00 88 1a 06 00  ................
  460740 6a 1a 06 00 5e 1a 06 00 4c 1a 06 00 3e 1a 06 00  j...^...L...>...
  460750 2c 1a 06 00 1c 1a 06 00 00 1a 06 00 ec 19 06 00  ,...............
  460760 d8 19 06 00 cc 19 06 00 be 19 06 00 ae 19 06 00  ................
  460770 a4 19 06 00 90 19 06 00 82 19 06 00 74 19 06 00  ............t...
  460780 64 19 06 00 54 19 06 00 40 19 06 00 32 19 06 00  d...T...@...2...
  460790 1c 19 06 00 10 19 06 00 fa 18 06 00 e8 18 06 00  ................
  4607a0 dc 18 06 00 ce 18 06 00 be 18 06 00 ac 18 06 00  ................
  4607b0 a0 18 06 00 94 18 06 00 88 18 06 00 78 18 06 00  ............x...
  4607c0 68 18 06 00 56 18 06 00 46 18 06 00 36 18 06 00  h...V...F...6...
  4607d0 28 18 06 00 b4 1e 06 00 a4 1e 06 00 e8 1d 06 00  (...............
  4607e0 fe 1d 06 00 b0 1c 06 00 6a 1e 06 00 5c 1e 06 00  ........j...\...
  4607f0 50 1e 06 00 44 1e 06 00 2e 1e 06 00 1c 1e 06 00  P...D...........
  460800 10 1e 06 00 fc 1c 06 00 dc 1d 06 00 f0 1c 06 00  ................
  460810 08 1c 06 00 1a 1c 06 00 a8 1a 06 00 9c 1a 06 00  ................
  460820 f8 1b 06 00 10 2b 06 00 04 2b 06 00 f0 2a 06 00  .....+...+...*..
  460830 e0 2a 06 00 d2 2a 06 00 c6 2a 06 00 b4 2a 06 00  .*...*...*...*..
  460840 00 00 00 00 34 0c 06 00 84 0c 06 00 ce 0d 06 00  ....4...........
  460850 90 0d 06 00 76 0d 06 00 fc 0c 06 00 d8 0c 06 00  ....v...........
  460860 b6 0c 06 00 9a 0c 06 00 16 0c 06 00 4e 0c 06 00  ............N...
  460870 8c 0b 06 00 f0 0b 06 00 00 00 00 00 52 2a 06 00  ............R*..
  460880 3c 2a 06 00 6c 2a 06 00 00 00 00 00 c4 08 06 00  <*..l*..........
  460890 00 00 00 00 ee 27 06 00 d8 27 06 00 c8 27 06 00  .....'...'...'..
  4608a0 00 00 00 00 92 27 06 00 82 27 06 00 a6 27 06 00  .....'...'...'..
  4608b0 00 00 00 00 fc 29 06 00 0c 2a 06 00 1e 2a 06 00  .....)...*...*..
  4608c0 00 00 00 00 0a 00 50 6c 61 79 53 6f 75 6e 64 41  ......PlaySoundA
  4608d0 00 00 57 49 4e 4d 4d 2e 64 6c 6c 00 00 00 3f 3f  ..WINMM.dll...??
  4608e0 30 43 45 6e 67 69 6e 65 40 40 51 41 45 40 50 41  0CEngine@@QAE@PA
  4608f0 56 43 4c 6f 67 67 65 72 40 40 50 41 56 4d 53 43  VCLogger@@PAVMSC
  460900 6f 6d 6d 61 6e 64 4c 69 6e 65 40 40 50 36 41 48  ommandLine@@P6AH
  460910 48 50 41 58 40 5a 40 5a 00 00 02 00 3f 3f 31 43  HPAX@Z@Z....??1C
  460920 45 6e 67 69 6e 65 40 40 51 41 45 40 58 5a 00 00  Engine@@QAE@XZ..
  460930 0f 00 3f 51 75 69 74 41 70 70 52 65 71 40 43 45  ..?QuitAppReq@CE
  460940 6e 67 69 6e 65 40 40 51 41 45 58 58 5a 00 0b 00  ngine@@QAEXXZ...
  460950 3f 4c 42 4b 53 61 76 65 40 43 45 6e 67 69 6e 65  ?LBKSave@CEngine
  460960 40 40 51 41 45 58 41 42 56 46 69 6c 65 4c 6f 63  @@QAEXABVFileLoc
  460970 61 74 69 6f 6e 40 40 40 5a 00 0a 00 3f 4c 42 4b  ation@@@Z...?LBK
  460980 52 65 73 74 6f 72 65 40 43 45 6e 67 69 6e 65 40  Restore@CEngine@
  460990 40 51 41 45 58 41 42 56 46 69 6c 65 4c 6f 63 61  @QAEXABVFileLoca
  4609a0 74 69 6f 6e 40 40 40 5a 00 00 09 00 3f 4c 42 4b  tion@@@Z....?LBK
  4609b0 43 6f 6e 76 65 72 74 40 43 45 6e 67 69 6e 65 40  Convert@CEngine@
  4609c0 40 51 41 45 58 41 42 56 46 69 6c 65 4c 6f 63 61  @QAEXABVFileLoca
  4609d0 74 69 6f 6e 40 40 40 5a 00 00 0c 00 3f 4c 42 4b  tion@@@Z....?LBK
  4609e0 56 65 72 69 66 79 40 43 45 6e 67 69 6e 65 40 40  Verify@CEngine@@
  4609f0 51 41 45 58 41 42 56 46 69 6c 65 4c 6f 63 61 74  QAEXABVFileLocat
  460a00 69 6f 6e 40 40 40 5a 00 08 00 3f 47 6f 54 6f 55  ion@@@Z...?GoToU
  460a10 52 4c 40 43 45 6e 67 69 6e 65 40 40 51 41 45 58  RL@CEngine@@QAEX
  460a20 50 42 44 40 5a 00 13 00 3f 52 75 6e 44 69 61 67  PBD@Z...?RunDiag
  460a30 40 43 45 6e 67 69 6e 65 40 40 51 41 45 58 58 5a  @CEngine@@QAEXXZ
  460a40 00 00 11 00 3f 52 75 6e 41 43 50 40 43 45 6e 67  ....?RunACP@CEng
  460a50 69 6e 65 40 40 51 41 45 58 41 42 56 46 69 6c 65  ine@@QAEXABVFile
  460a60 4c 6f 63 61 74 69 6f 6e 40 40 40 5a 00 00 12 00  Location@@@Z....
  460a70 3f 52 75 6e 41 43 50 44 69 73 6b 40 43 45 6e 67  ?RunACPDisk@CEng
  460a80 69 6e 65 40 40 51 41 45 58 41 42 56 46 69 6c 65  ine@@QAEXABVFile
  460a90 4c 6f 63 61 74 69 6f 6e 40 40 30 40 5a 00 19 00  Location@@0@Z...
  460aa0 3f 67 65 74 44 65 76 48 65 6c 70 46 69 6c 65 40  ?getDevHelpFile@
  460ab0 43 45 6e 67 69 6e 65 40 40 51 41 45 48 50 41 56  CEngine@@QAEHPAV
  460ac0 46 69 6c 65 4c 6f 63 61 74 69 6f 6e 40 40 40 5a  FileLocation@@@Z
  460ad0 00 00 0d 00 3f 4e 6f 41 63 74 69 6f 6e 53 74 61  ....?NoActionSta
  460ae0 72 74 75 70 40 43 45 6e 67 69 6e 65 40 40 51 41  rtup@CEngine@@QA
  460af0 45 58 58 5a 00 00 17 00 3f 57 65 62 55 70 64 61  EXXZ....?WebUpda
  460b00 74 65 40 43 45 6e 67 69 6e 65 40 40 51 41 45 58  te@CEngine@@QAEX
  460b10 58 5a 00 00 10 00 3f 52 65 63 6c 61 69 6d 50 61  XZ....?ReclaimPa
  460b20 72 61 6d 73 40 43 45 6e 67 69 6e 65 40 40 53 41  rams@CEngine@@SA
  460b30 58 50 41 58 40 5a 00 00 18 00 3f 67 65 74 40 4d  XPAX@Z....?get@M
  460b40 53 43 6f 6d 6d 61 6e 64 4c 69 6e 65 40 40 53 41  SCommandLine@@SA
  460b50 50 41 56 31 40 58 5a 00 06 00 3f 41 64 64 43 68  PAV1@XZ...?AddCh
  460b60 69 70 53 65 6c 65 63 74 40 4d 53 43 6f 6d 6d 61  ipSelect@MSComma
  460b70 6e 64 4c 69 6e 65 40 40 51 41 45 58 48 40 5a 00  ndLine@@QAEXH@Z.
  460b80 45 6e 67 69 6e 65 2e 64 6c 6c 00 00 89 00 3f 67  Engine.dll....?g
  460b90 65 74 56 61 6c 75 65 40 63 6f 6e 66 69 67 45 6e  etValue@configEn
  460ba0 67 69 6e 65 40 40 51 41 45 48 50 42 44 41 41 56  gine@@QAEHPBDAAV
  460bb0 3f 24 62 61 73 69 63 5f 73 74 72 69 6e 67 40 44  ?$basic_string@D
  460bc0 55 3f 24 63 68 61 72 5f 74 72 61 69 74 73 40 44  U?$char_traits@D
  460bd0 40 73 74 64 40 40 56 3f 24 61 6c 6c 6f 63 61 74  @std@@V?$allocat
  460be0 6f 72 40 44 40 32 40 40 73 74 64 40 40 40 5a 00  or@D@2@@std@@@Z.
  460bf0 95 00 3f 6d 61 69 6e 40 63 6f 6e 66 69 67 40 40  ..?main@config@@
  460c00 53 41 41 41 56 63 6f 6e 66 69 67 45 6e 67 69 6e  SAAAVconfigEngin
  460c10 65 40 40 58 5a 00 60 00 3f 4d 65 73 73 61 67 65  e@@XZ.`.?Message
  460c20 40 43 4c 6f 67 67 65 72 40 40 51 41 41 58 50 42  @CLogger@@QAAXPB
  460c30 44 5a 5a 00 1a 00 3f 3f 31 46 69 6c 65 4c 6f 63  DZZ...??1FileLoc
  460c40 61 74 69 6f 6e 40 40 51 41 45 40 58 5a 00 97 00  ation@@QAE@XZ...
  460c50 3f 6d 61 6b 65 4c 6f 63 61 74 69 6f 6e 40 46 69  ?makeLocation@Fi
  460c60 6c 65 4d 61 6e 61 67 65 72 40 40 53 41 3f 41 56  leManager@@SA?AV
  460c70 46 69 6c 65 4c 6f 63 61 74 69 6f 6e 40 40 50 42  FileLocation@@PB
  460c80 44 40 5a 00 17 00 3f 3f 31 43 4c 6f 67 67 65 72  D@Z...??1CLogger
  460c90 40 40 51 41 45 40 58 5a 00 00 72 00 3f 53 68 75  @@QAE@XZ..r.?Shu
  460ca0 74 64 6f 77 6e 40 43 4c 6f 67 67 65 72 40 40 51  tdown@CLogger@@Q
  460cb0 41 45 58 58 5a 00 6e 00 3f 53 65 74 44 65 62 75  AEXXZ.n.?SetDebu
  460cc0 67 4c 65 76 65 6c 40 43 4c 6f 67 67 65 72 40 40  gLevel@CLogger@@
  460cd0 51 41 45 48 48 40 5a 00 03 00 3f 3f 30 43 4c 6f  QAEHH@Z...??0CLo
  460ce0 67 67 65 72 40 40 51 41 45 40 50 42 44 50 36 41  gger@@QAE@PBDP6A
  460cf0 58 50 41 44 40 5a 32 32 40 5a 00 00 6c 00 3f 53  XPAD@Z22@Z..l.?S
  460d00 65 72 69 61 6c 69 7a 65 64 52 65 66 65 72 65 6e  erializedReferen
  460d10 63 65 40 46 69 6c 65 4d 61 6e 61 67 65 72 40 40  ce@FileManager@@
  460d20 53 41 3f 41 56 3f 24 62 61 73 69 63 5f 73 74 72  SA?AV?$basic_str
  460d30 69 6e 67 40 44 55 3f 24 63 68 61 72 5f 74 72 61  ing@DU?$char_tra
  460d40 69 74 73 40 44 40 73 74 64 40 40 56 3f 24 61 6c  its@D@std@@V?$al
  460d50 6c 6f 63 61 74 6f 72 40 44 40 32 40 40 73 74 64  locator@D@2@@std
  460d60 40 40 41 42 56 46 69 6c 65 4c 6f 63 61 74 69 6f  @@ABVFileLocatio
  460d70 6e 40 40 40 5a 00 09 00 3f 3f 30 46 69 6c 65 4c  n@@@Z...??0FileL
  460d80 6f 63 61 74 69 6f 6e 40 40 51 41 45 40 58 5a 00  ocation@@QAE@XZ.
  460d90 86 00 3f 67 65 74 44 69 72 65 63 74 6f 72 79 56  ..?getDirectoryV
  460da0 61 6c 75 65 40 63 6f 6e 66 69 67 45 6e 67 69 6e  alue@configEngin
  460db0 65 40 40 51 41 45 48 50 42 44 50 41 56 46 69 6c  e@@QAEHPBDPAVFil
  460dc0 65 4c 6f 63 61 74 69 6f 6e 40 40 40 5a 00 54 00  eLocation@@@Z.T.
  460dd0 3f 48 61 73 49 6e 74 65 72 6e 65 74 43 6f 6e 6e  ?HasInternetConn
  460de0 65 63 74 69 6f 6e 40 49 6e 65 74 43 68 65 63 6b  ection@InetCheck
  460df0 65 72 40 40 53 41 5f 4e 50 42 44 40 5a 00 55 74  er@@SA_NPBD@Z.Ut
  460e00 69 6c 73 2e 64 6c 6c 00 ad 03 6c 73 74 72 63 61  ils.dll...lstrca
  460e10 74 41 00 00 b6 03 6c 73 74 72 63 70 79 41 00 00  tA....lstrcpyA..
  460e20 6b 02 4d 75 6c 74 69 42 79 74 65 54 6f 57 69 64  k.MultiByteToWid
  460e30 65 43 68 61 72 00 47 03 53 6c 65 65 70 00 87 03  eChar.G.Sleep...
  460e40 57 69 64 65 43 68 61 72 54 6f 4d 75 6c 74 69 42  WideCharToMultiB
  460e50 79 74 65 00 2e 00 43 6c 6f 73 65 48 61 6e 64 6c  yte...CloseHandl
  460e60 65 00 60 00 43 72 65 61 74 65 50 72 6f 63 65 73  e.`.CreateProces
  460e70 73 41 00 00 bc 03 6c 73 74 72 6c 65 6e 41 00 00  sA....lstrlenA..
  460e80 df 01 47 65 74 56 65 72 73 69 6f 6e 45 78 41 00  ..GetVersionExA.
  460e90 69 01 47 65 74 4c 61 73 74 45 72 72 6f 72 00 00  i.GetLastError..
  460ea0 75 01 47 65 74 4d 6f 64 75 6c 65 46 69 6c 65 4e  u.GetModuleFileN
  460eb0 61 6d 65 41 00 00 d5 01 47 65 74 54 69 63 6b 43  ameA....GetTickC
  460ec0 6f 75 6e 74 00 00 22 02 49 6e 74 65 72 6c 6f 63  ount..".Interloc
  460ed0 6b 65 64 49 6e 63 72 65 6d 65 6e 74 00 00 1e 02  kedIncrement....
  460ee0 49 6e 74 65 72 6c 6f 63 6b 65 64 44 65 63 72 65  InterlockedDecre
  460ef0 6d 65 6e 74 00 00 83 03 57 61 69 74 46 6f 72 53  ment....WaitForS
  460f00 69 6e 67 6c 65 4f 62 6a 65 63 74 00 4d 02 4c 6f  ingleObject.M.Lo
  460f10 61 64 52 65 73 6f 75 72 63 65 00 00 da 00 46 69  adResource....Fi
  460f20 6e 64 52 65 73 6f 75 72 63 65 41 00 5b 02 4c 6f  ndResourceA.[.Lo
  460f30 63 6b 52 65 73 6f 75 72 63 65 00 00 f5 01 47 6c  ckResource....Gl
  460f40 6f 62 61 6c 46 72 65 65 00 00 00 02 47 6c 6f 62  obalFree....Glob
  460f50 61 6c 55 6e 6c 6f 63 6b 00 00 f9 01 47 6c 6f 62  alUnlock....Glob
  460f60 61 6c 4c 6f 63 6b 00 00 98 01 47 65 74 50 72 6f  alLock....GetPro
  460f70 63 41 64 64 72 65 73 73 00 00 77 01 47 65 74 4d  cAddress..w.GetM
  460f80 6f 64 75 6c 65 48 61 6e 64 6c 65 41 00 00 f0 01  oduleHandleA....
  460f90 47 6c 6f 62 61 6c 44 65 6c 65 74 65 41 74 6f 6d  GlobalDeleteAtom
  460fa0 00 00 f1 01 47 6c 6f 62 61 6c 46 69 6e 64 41 74  ....GlobalFindAt
  460fb0 6f 6d 41 00 ec 01 47 6c 6f 62 61 6c 41 64 64 41  omA...GlobalAddA
  460fc0 74 6f 6d 41 00 00 b3 03 6c 73 74 72 63 6d 70 69  tomA....lstrcmpi
  460fd0 41 00 f6 01 47 6c 6f 62 61 6c 47 65 74 41 74 6f  A...GlobalGetAto
  460fe0 6d 4e 61 6d 65 41 00 00 3e 01 47 65 74 43 75 72  mNameA..>.GetCur
  460ff0 72 65 6e 74 54 68 72 65 61 64 49 64 00 00 de 01  rentThreadId....
  461000 47 65 74 56 65 72 73 69 6f 6e 00 00 ef 00 46 72  GetVersion....Fr
  461010 65 65 4c 69 62 72 61 72 79 00 48 02 4c 6f 61 64  eeLibrary.H.Load
  461020 4c 69 62 72 61 72 79 41 00 00 1b 03 53 65 74 4c  LibraryA....SetL
  461030 61 73 74 45 72 72 6f 72 00 00 6a 02 4d 75 6c 44  astError..j.MulD
  461040 69 76 00 00 b9 03 6c 73 74 72 63 70 79 6e 41 00  iv....lstrcpynA.
  461050 3d 01 47 65 74 43 75 72 72 65 6e 74 54 68 72 65  =.GetCurrentThre
  461060 61 64 00 00 b0 03 6c 73 74 72 63 6d 70 41 00 00  ad....lstrcmpA..
  461070 ee 01 47 6c 6f 62 61 6c 41 6c 6c 6f 63 00 09 03  ..GlobalAlloc...
  461080 53 65 74 45 76 65 6e 74 00 00 c5 02 52 65 73 75  SetEvent....Resu
  461090 6d 65 54 68 72 65 61 64 00 00 36 03 53 65 74 54  meThread..6.SetT
  4610a0 68 72 65 61 64 50 72 69 6f 72 69 74 79 00 49 03  hreadPriority.I.
  4610b0 53 75 73 70 65 6e 64 54 68 72 65 61 64 00 49 00  SuspendThread.I.
  4610c0 43 72 65 61 74 65 45 76 65 6e 74 41 00 00 8e 01  CreateEventA....
  4610d0 47 65 74 50 72 69 76 61 74 65 50 72 6f 66 69 6c  GetPrivateProfil
  4610e0 65 49 6e 74 41 00 94 01 47 65 74 50 72 69 76 61  eIntA...GetPriva
  4610f0 74 65 50 72 6f 66 69 6c 65 53 74 72 69 6e 67 41  teProfileStringA
  461100 00 00 99 03 57 72 69 74 65 50 72 69 76 61 74 65  ....WritePrivate
  461110 50 72 6f 66 69 6c 65 53 74 72 69 6e 67 41 00 00  ProfileStringA..
  461120 56 01 47 65 74 46 69 6c 65 41 74 74 72 69 62 75  V.GetFileAttribu
  461130 74 65 73 41 00 00 c9 01 47 65 74 54 65 6d 70 46  tesA....GetTempF
  461140 69 6c 65 4e 61 6d 65 41 00 00 61 01 47 65 74 46  ileNameA..a.GetF
  461150 75 6c 6c 50 61 74 68 4e 61 6d 65 41 00 00 12 03  ullPathNameA....
  461160 53 65 74 46 69 6c 65 54 69 6d 65 00 5d 01 47 65  SetFileTime.].Ge
  461170 74 46 69 6c 65 54 69 6d 65 00 45 01 47 65 74 44  tFileTime.E.GetD
  461180 69 73 6b 46 72 65 65 53 70 61 63 65 41 00 52 02  iskFreeSpaceA.R.
  461190 4c 6f 63 61 6c 46 72 65 65 00 ea 00 46 6f 72 6d  LocalFree...Form
  4611a0 61 74 4d 65 73 73 61 67 65 41 00 00 8c 00 44 75  atMessageA....Du
  4611b0 70 6c 69 63 61 74 65 48 61 6e 64 6c 65 00 3a 01  plicateHandle.:.
  4611c0 47 65 74 43 75 72 72 65 6e 74 50 72 6f 63 65 73  GetCurrentProces
  4611d0 73 00 4d 00 43 72 65 61 74 65 46 69 6c 65 41 00  s.M.CreateFileA.
  4611e0 a9 02 52 65 61 64 46 69 6c 65 00 00 94 03 57 72  ..ReadFile....Wr
  4611f0 69 74 65 46 69 6c 65 00 0e 03 53 65 74 46 69 6c  iteFile...SetFil
  461200 65 50 6f 69 6e 74 65 72 00 00 e5 00 46 6c 75 73  ePointer....Flus
  461210 68 46 69 6c 65 42 75 66 66 65 72 73 00 00 59 02  hFileBuffers..Y.
  461220 4c 6f 63 6b 46 69 6c 65 00 00 61 03 55 6e 6c 6f  LockFile..a.Unlo
  461230 63 6b 46 69 6c 65 00 00 03 03 53 65 74 45 6e 64  ckFile....SetEnd
  461240 4f 66 46 69 6c 65 00 00 64 02 4d 6f 76 65 46 69  OfFile..d.MoveFi
  461250 6c 65 41 00 7c 00 44 65 6c 65 74 65 46 69 6c 65  leA.|.DeleteFile
  461260 41 00 c5 00 46 69 6e 64 43 6c 6f 73 65 00 c9 00  A...FindClose...
  461270 46 69 6e 64 46 69 72 73 74 46 69 6c 65 41 00 00  FindFirstFileA..
  461280 e1 01 47 65 74 56 6f 6c 75 6d 65 49 6e 66 6f 72  ..GetVolumeInfor
  461290 6d 61 74 69 6f 6e 41 00 b3 01 47 65 74 53 74 72  mationA...GetStr
  4612a0 69 6e 67 54 79 70 65 45 78 41 00 00 d0 01 47 65  ingTypeExA....Ge
  4612b0 74 54 68 72 65 61 64 4c 6f 63 61 6c 65 00 ad 01  tThreadLocale...
  4612c0 47 65 74 53 68 6f 72 74 50 61 74 68 4e 61 6d 65  GetShortPathName
  4612d0 41 00 f4 01 47 6c 6f 62 61 6c 46 6c 61 67 73 00  A...GlobalFlags.
  4612e0 46 03 53 69 7a 65 6f 66 52 65 73 6f 75 72 63 65  F.SizeofResource
  4612f0 00 00 4e 02 4c 6f 63 61 6c 41 6c 6c 6f 63 00 00  ..N.LocalAlloc..
  461300 19 02 49 6e 69 74 69 61 6c 69 7a 65 43 72 69 74  ..InitializeCrit
  461310 69 63 61 6c 53 65 63 74 69 6f 6e 00 54 03 54 6c  icalSection.T.Tl
  461320 73 41 6c 6c 6f 63 00 00 7a 00 44 65 6c 65 74 65  sAlloc..z.Delete
  461330 43 72 69 74 69 63 61 6c 53 65 63 74 69 6f 6e 00  CriticalSection.
  461340 f8 01 47 6c 6f 62 61 6c 48 61 6e 64 6c 65 00 00  ..GlobalHandle..
  461350 55 03 54 6c 73 46 72 65 65 00 47 02 4c 65 61 76  U.TlsFree.G.Leav
  461360 65 43 72 69 74 69 63 61 6c 53 65 63 74 69 6f 6e  eCriticalSection
  461370 00 00 fc 01 47 6c 6f 62 61 6c 52 65 41 6c 6c 6f  ....GlobalReAllo
  461380 63 00 8f 00 45 6e 74 65 72 43 72 69 74 69 63 61  c...EnterCritica
  461390 6c 53 65 63 74 69 6f 6e 00 00 57 03 54 6c 73 53  lSection..W.TlsS
  4613a0 65 74 56 61 6c 75 65 00 55 02 4c 6f 63 61 6c 52  etValue.U.LocalR
  4613b0 65 41 6c 6c 6f 63 00 00 56 03 54 6c 73 47 65 74  eAlloc..V.TlsGet
  4613c0 56 61 6c 75 65 00 a3 01 47 65 74 50 72 6f 63 65  Value...GetProce
  4613d0 73 73 56 65 72 73 69 6f 6e 00 fc 00 47 65 74 43  ssVersion...GetC
  4613e0 50 49 6e 66 6f 00 8b 01 47 65 74 4f 45 4d 43 50  PInfo...GetOEMCP
  4613f0 00 00 38 01 47 65 74 43 75 72 72 65 6e 74 44 69  ..8.GetCurrentDi
  461400 72 65 63 74 6f 72 79 41 00 00 5b 01 47 65 74 46  rectoryA..[.GetF
  461410 69 6c 65 53 69 7a 65 00 50 02 4c 6f 63 61 6c 46  ileSize.P.LocalF
  461420 69 6c 65 54 69 6d 65 54 6f 46 69 6c 65 54 69 6d  ileTimeToFileTim
  461430 65 00 4c 03 53 79 73 74 65 6d 54 69 6d 65 54 6f  e.L.SystemTimeTo
  461440 46 69 6c 65 54 69 6d 65 00 00 0c 03 53 65 74 46  FileTime....SetF
  461450 69 6c 65 41 74 74 72 69 62 75 74 65 73 41 00 00  ileAttributesA..
  461460 08 03 53 65 74 45 72 72 6f 72 4d 6f 64 65 00 00  ..SetErrorMode..
  461470 bc 00 46 69 6c 65 54 69 6d 65 54 6f 53 79 73 74  ..FileTimeToSyst
  461480 65 6d 54 69 6d 65 00 00 bb 00 46 69 6c 65 54 69  emTime....FileTi
  461490 6d 65 54 6f 4c 6f 63 61 6c 46 69 6c 65 54 69 6d  meToLocalFileTim
  4614a0 65 00 ca 02 52 74 6c 55 6e 77 69 6e 64 00 9b 02  e...RtlUnwind...
  4614b0 52 61 69 73 65 45 78 63 65 70 74 69 6f 6e 00 00  RaiseException..
  4614c0 0c 02 48 65 61 70 46 72 65 65 00 00 af 01 47 65  ..HeapFree....Ge
  4614d0 74 53 74 61 72 74 75 70 49 6e 66 6f 41 00 08 01  tStartupInfoA...
  4614e0 47 65 74 43 6f 6d 6d 61 6e 64 4c 69 6e 65 41 00  GetCommandLineA.
  4614f0 af 00 45 78 69 74 50 72 6f 63 65 73 73 00 06 02  ..ExitProcess...
  461500 48 65 61 70 41 6c 6c 6f 63 00 4f 03 54 65 72 6d  HeapAlloc.O.Term
  461510 69 6e 61 74 65 50 72 6f 63 65 73 73 00 00 69 00  inateProcess..i.
  461520 43 72 65 61 74 65 54 68 72 65 61 64 00 00 b0 00  CreateThread....
  461530 45 78 69 74 54 68 72 65 61 64 00 00 10 02 48 65  ExitThread....He
  461540 61 70 52 65 41 6c 6c 6f 63 00 12 02 48 65 61 70  apReAlloc...Heap
  461550 53 69 7a 65 00 00 f5 00 47 65 74 41 43 50 00 00  Size....GetACP..
  461560 d8 01 47 65 74 54 69 6d 65 5a 6f 6e 65 49 6e 66  ..GetTimeZoneInf
  461570 6f 72 6d 61 74 69 6f 6e 00 00 be 01 47 65 74 53  ormation....GetS
  461580 79 73 74 65 6d 54 69 6d 65 00 6b 01 47 65 74 4c  ystemTime.k.GetL
  461590 6f 63 61 6c 54 69 6d 65 00 00 b7 00 46 61 74 61  ocalTime....Fata
  4615a0 6c 41 70 70 45 78 69 74 41 00 3a 02 4c 43 4d 61  lAppExitA.:.LCMa
  4615b0 70 53 74 72 69 6e 67 41 00 00 3b 02 4c 43 4d 61  pStringA..;.LCMa
  4615c0 70 53 74 72 69 6e 67 57 00 00 3b 03 53 65 74 55  pStringW..;.SetU
  4615d0 6e 68 61 6e 64 6c 65 64 45 78 63 65 70 74 69 6f  nhandledExceptio
  4615e0 6e 46 69 6c 74 65 72 00 50 01 47 65 74 45 6e 76  nFilter.P.GetEnv
  4615f0 69 72 6f 6e 6d 65 6e 74 56 61 72 69 61 62 6c 65  ironmentVariable
  461600 41 00 0a 02 48 65 61 70 44 65 73 74 72 6f 79 00  A...HeapDestroy.
  461610 08 02 48 65 61 70 43 72 65 61 74 65 00 00 76 03  ..HeapCreate..v.
  461620 56 69 72 74 75 61 6c 46 72 65 65 00 73 03 56 69  VirtualFree.s.Vi
  461630 72 74 75 61 6c 41 6c 6c 6f 63 00 00 2c 02 49 73  rtualAlloc..,.Is
  461640 42 61 64 57 72 69 74 65 50 74 72 00 60 03 55 6e  BadWritePtr.`.Un
  461650 68 61 6e 64 6c 65 64 45 78 63 65 70 74 69 6f 6e  handledException
  461660 46 69 6c 74 65 72 00 00 ed 00 46 72 65 65 45 6e  Filter....FreeEn
  461670 76 69 72 6f 6e 6d 65 6e 74 53 74 72 69 6e 67 73  vironmentStrings
  461680 41 00 ee 00 46 72 65 65 45 6e 76 69 72 6f 6e 6d  A...FreeEnvironm
  461690 65 6e 74 53 74 72 69 6e 67 73 57 00 4d 01 47 65  entStringsW.M.Ge
  4616a0 74 45 6e 76 69 72 6f 6e 6d 65 6e 74 53 74 72 69  tEnvironmentStri
  4616b0 6e 67 73 00 4f 01 47 65 74 45 6e 76 69 72 6f 6e  ngs.O.GetEnviron
  4616c0 6d 65 6e 74 53 74 72 69 6e 67 73 57 00 00 17 03  mentStringsW....
  4616d0 53 65 74 48 61 6e 64 6c 65 43 6f 75 6e 74 00 00  SetHandleCount..
  4616e0 b1 01 47 65 74 53 74 64 48 61 6e 64 6c 65 00 00  ..GetStdHandle..
  4616f0 5e 01 47 65 74 46 69 6c 65 54 79 70 65 00 b2 01  ^.GetFileType...
  461700 47 65 74 53 74 72 69 6e 67 54 79 70 65 41 00 00  GetStringTypeA..
  461710 b5 01 47 65 74 53 74 72 69 6e 67 54 79 70 65 57  ..GetStringTypeW
  461720 00 00 29 02 49 73 42 61 64 52 65 61 64 50 74 72  ..).IsBadReadPtr
  461730 00 00 26 02 49 73 42 61 64 43 6f 64 65 50 74 72  ..&.IsBadCodePtr
  461740 00 00 37 02 49 73 56 61 6c 69 64 4c 6f 63 61 6c  ..7.IsValidLocal
  461750 65 00 35 02 49 73 56 61 6c 69 64 43 6f 64 65 50  e.5.IsValidCodeP
  461760 61 67 65 00 6c 01 47 65 74 4c 6f 63 61 6c 65 49  age.l.GetLocaleI
  461770 6e 66 6f 41 00 00 a5 00 45 6e 75 6d 53 79 73 74  nfoA....EnumSyst
  461780 65 6d 4c 6f 63 61 6c 65 73 41 00 00 d9 01 47 65  emLocalesA....Ge
  461790 74 55 73 65 72 44 65 66 61 75 6c 74 4c 43 49 44  tUserDefaultLCID
  4617a0 00 00 e1 02 53 65 74 43 6f 6e 73 6f 6c 65 43 74  ....SetConsoleCt
  4617b0 72 6c 48 61 6e 64 6c 65 72 00 2a 03 53 65 74 53  rlHandler.*.SetS
  4617c0 74 64 48 61 6e 64 6c 65 00 00 34 00 43 6f 6d 70  tdHandle..4.Comp
  4617d0 61 72 65 53 74 72 69 6e 67 41 00 00 35 00 43 6f  areStringA..5.Co
  4617e0 6d 70 61 72 65 53 74 72 69 6e 67 57 00 00 06 03  mpareStringW....
  4617f0 53 65 74 45 6e 76 69 72 6f 6e 6d 65 6e 74 56 61  SetEnvironmentVa
  461800 72 69 61 62 6c 65 41 00 6d 01 47 65 74 4c 6f 63  riableA.m.GetLoc
  461810 61 6c 65 49 6e 66 6f 57 00 00 4b 45 52 4e 45 4c  aleInfoW..KERNEL
  461820 33 32 2e 64 6c 6c 00 00 f4 01 4f 66 66 73 65 74  32.dll....Offset
  461830 52 65 63 74 00 00 74 01 47 65 74 57 69 6e 64 6f  Rect..t.GetWindo
  461840 77 52 65 63 74 00 3b 02 53 65 6e 64 4d 65 73 73  wRect.;.SendMess
  461850 61 67 65 41 00 00 93 01 49 6e 76 61 6c 69 64 61  ageA....Invalida
  461860 74 65 52 65 63 74 00 00 ff 00 47 65 74 43 6c 69  teRect....GetCli
  461870 65 6e 74 52 65 63 74 00 c4 00 45 6e 61 62 6c 65  entRect...Enable
  461880 57 69 6e 64 6f 77 00 00 0b 02 50 74 49 6e 52 65  Window....PtInRe
  461890 63 74 00 00 7a 02 53 65 74 54 69 6d 65 72 00 00  ct..z.SetTimer..
  4618a0 b4 01 4b 69 6c 6c 54 69 6d 65 72 00 03 02 50 6f  ..KillTimer...Po
  4618b0 73 74 51 75 69 74 4d 65 73 73 61 67 65 00 bb 02  stQuitMessage...
  4618c0 55 70 64 61 74 65 57 69 6e 64 6f 77 00 00 b9 01  UpdateWindow....
  4618d0 4c 6f 61 64 43 75 72 73 6f 72 41 00 bd 01 4c 6f  LoadCursorA...Lo
  4618e0 61 64 49 63 6f 6e 41 00 8e 00 44 65 66 57 69 6e  adIconA...DefWin
  4618f0 64 6f 77 50 72 6f 63 41 00 00 57 02 53 65 74 46  dowProcA..W.SetF
  461900 6f 72 65 67 72 6f 75 6e 64 57 69 6e 64 6f 77 00  oregroundWindow.
  461910 a6 01 49 73 49 63 6f 6e 69 63 00 00 28 01 47 65  ..IsIconic..(.Ge
  461920 74 4c 61 73 74 41 63 74 69 76 65 50 6f 70 75 70  tLastActivePopup
  461930 00 00 e3 00 46 69 6e 64 57 69 6e 64 6f 77 41 00  ....FindWindowA.
  461940 b3 02 55 6e 72 65 67 69 73 74 65 72 43 6c 61 73  ..UnregisterClas
  461950 73 41 00 00 01 02 50 6f 73 74 4d 65 73 73 61 67  sA....PostMessag
  461960 65 41 00 00 99 00 44 65 73 74 72 6f 79 57 69 6e  eA....DestroyWin
  461970 64 6f 77 00 b8 00 44 72 61 77 4d 65 6e 75 42 61  dow...DrawMenuBa
  461980 72 00 91 00 44 65 6c 65 74 65 4d 65 6e 75 00 00  r...DeleteMenu..
  461990 32 01 47 65 74 4d 65 6e 75 49 74 65 6d 43 6f 75  2.GetMenuItemCou
  4619a0 6e 74 00 00 2c 01 47 65 74 4d 65 6e 75 00 15 02  nt..,.GetMenu...
  4619b0 52 65 64 72 61 77 57 69 6e 64 6f 77 00 00 b7 01  RedrawWindow....
  4619c0 4c 6f 61 64 42 69 74 6d 61 70 41 00 d6 02 77 73  LoadBitmapA...ws
  4619d0 70 72 69 6e 74 66 41 00 a1 00 44 69 73 70 61 74  printfA...Dispat
  4619e0 63 68 4d 65 73 73 61 67 65 41 00 00 aa 02 54 72  chMessageA....Tr
  4619f0 61 6e 73 6c 61 74 65 4d 65 73 73 61 67 65 00 00  anslateMessage..
  461a00 ec 01 4d 73 67 57 61 69 74 46 6f 72 4d 75 6c 74  ..MsgWaitForMult
  461a10 69 70 6c 65 4f 62 6a 65 63 74 73 00 ff 01 50 65  ipleObjects...Pe
  461a20 65 6b 4d 65 73 73 61 67 65 41 00 00 ae 01 49 73  ekMessageA....Is
  461a30 57 69 6e 64 6f 77 45 6e 61 62 6c 65 64 00 11 01  WindowEnabled...
  461a40 47 65 74 44 6c 67 49 74 65 6d 00 00 6e 01 47 65  GetDlgItem..n.Ge
  461a50 74 57 69 6e 64 6f 77 4c 6f 6e 67 41 00 00 45 01  tWindowLongA..E.
  461a60 47 65 74 50 61 72 65 6e 74 00 52 00 43 72 65 61  GetParent.R.Crea
  461a70 74 65 44 69 61 6c 6f 67 49 6e 64 69 72 65 63 74  teDialogIndirect
  461a80 50 61 72 61 6d 41 00 00 5d 01 47 65 74 53 79 73  ParamA..].GetSys
  461a90 74 65 6d 4d 65 74 72 69 63 73 00 00 ad 01 49 73  temMetrics....Is
  461aa0 57 69 6e 64 6f 77 00 00 43 02 53 65 74 41 63 74  Window..C.SetAct
  461ab0 69 76 65 57 69 6e 64 6f 77 00 eb 00 47 65 74 41  iveWindow...GetA
  461ac0 63 74 69 76 65 57 69 6e 64 6f 77 00 c6 00 45 6e  ctiveWindow...En
  461ad0 64 44 69 61 6c 6f 67 00 43 01 47 65 74 4e 65 78  dDialog.C.GetNex
  461ae0 74 44 6c 67 54 61 62 49 74 65 6d 00 73 01 47 65  tDlgTabItem.s.Ge
  461af0 74 57 69 6e 64 6f 77 50 6c 61 63 65 6d 65 6e 74  tWindowPlacement
  461b00 00 00 99 02 53 79 73 74 65 6d 50 61 72 61 6d 65  ....SystemParame
  461b10 74 65 72 73 49 6e 66 6f 41 00 92 01 49 6e 74 65  tersInfoA...Inte
  461b20 72 73 65 63 74 52 65 63 74 00 27 02 52 65 67 69  rsectRect.'.Regi
  461b30 73 74 65 72 57 69 6e 64 6f 77 4d 65 73 73 61 67  sterWindowMessag
  461b40 65 41 00 00 83 02 53 65 74 57 69 6e 64 6f 77 50  eA....SetWindowP
  461b50 6f 73 00 00 80 02 53 65 74 57 69 6e 64 6f 77 4c  os....SetWindowL
  461b60 6f 6e 67 41 00 00 6a 01 47 65 74 57 69 6e 64 6f  ongA..j.GetWindo
  461b70 77 00 17 01 47 65 74 46 6f 72 65 67 72 6f 75 6e  w...GetForegroun
  461b80 64 57 69 6e 64 6f 77 00 3c 01 47 65 74 4d 65 73  dWindow.<.GetMes
  461b90 73 61 67 65 50 6f 73 00 3d 01 47 65 74 4d 65 73  sagePos.=.GetMes
  461ba0 73 61 67 65 54 69 6d 65 00 00 2c 02 52 65 6d 6f  sageTime..,.Remo
  461bb0 76 65 50 72 6f 70 41 00 1b 00 43 61 6c 6c 57 69  vePropA...CallWi
  461bc0 6e 64 6f 77 50 72 6f 63 41 00 4a 01 47 65 74 50  ndowProcA.J.GetP
  461bd0 72 6f 70 41 00 00 ae 02 55 6e 68 6f 6f 6b 57 69  ropA....UnhookWi
  461be0 6e 64 6f 77 73 48 6f 6f 6b 45 78 00 6a 02 53 65  ndowsHookEx.j.Se
  461bf0 74 50 72 6f 70 41 00 00 fa 00 47 65 74 43 6c 61  tPropA....GetCla
  461c00 73 73 4c 6f 6e 67 41 00 1a 00 43 61 6c 6c 4e 65  ssLongA...CallNe
  461c10 78 74 48 6f 6f 6b 45 78 00 00 8a 02 53 65 74 57  xtHookEx....SetW
  461c20 69 6e 64 6f 77 73 48 6f 6f 6b 45 78 41 00 60 00  indowsHookExA.`.
  461c30 43 72 65 61 74 65 57 69 6e 64 6f 77 45 78 41 00  CreateWindowExA.
  461c40 21 01 47 65 74 4b 65 79 53 74 61 74 65 00 10 01  !.GetKeyState...
  461c50 47 65 74 44 6c 67 43 74 72 6c 49 44 00 00 77 01  GetDlgCtrlID..w.
  461c60 47 65 74 57 69 6e 64 6f 77 54 65 78 74 41 00 00  GetWindowTextA..
  461c70 78 01 47 65 74 57 69 6e 64 6f 77 54 65 78 74 4c  x.GetWindowTextL
  461c80 65 6e 67 74 68 41 00 00 82 02 53 65 74 57 69 6e  engthA....SetWin
  461c90 64 6f 77 50 6c 61 63 65 6d 65 6e 74 00 00 a4 02  dowPlacement....
  461ca0 54 72 61 63 6b 50 6f 70 75 70 4d 65 6e 75 00 00  TrackPopupMenu..
  461cb0 33 01 47 65 74 4d 65 6e 75 49 74 65 6d 49 44 00  3.GetMenuItemID.
  461cc0 59 01 47 65 74 53 75 62 4d 65 6e 75 00 00 16 02  Y.GetSubMenu....
  461cd0 52 65 67 69 73 74 65 72 43 6c 61 73 73 41 00 00  RegisterClassA..
  461ce0 f6 00 47 65 74 43 6c 61 73 73 49 6e 66 6f 41 00  ..GetClassInfoA.
  461cf0 d0 02 57 69 6e 48 65 6c 70 41 00 00 f3 00 47 65  ..WinHelpA....Ge
  461d00 74 43 61 70 74 75 72 65 00 00 9e 01 49 73 43 68  tCapture....IsCh
  461d10 69 6c 64 00 de 01 4d 65 73 73 61 67 65 42 6f 78  ild...MessageBox
  461d20 41 00 63 01 47 65 74 54 6f 70 57 69 6e 64 6f 77  A.c.GetTopWindow
  461d30 00 00 6f 02 53 65 74 53 63 72 6f 6c 6c 50 6f 73  ..o.SetScrollPos
  461d40 00 00 56 01 47 65 74 53 63 72 6f 6c 6c 50 6f 73  ..V.GetScrollPos
  461d50 00 00 70 02 53 65 74 53 63 72 6f 6c 6c 52 61 6e  ..p.SetScrollRan
  461d60 67 65 00 00 57 01 47 65 74 53 63 72 6f 6c 6c 52  ge..W.GetScrollR
  461d70 61 6e 67 65 00 00 90 02 53 68 6f 77 53 63 72 6f  ange....ShowScro
  461d80 6c 6c 42 61 72 00 6e 02 53 65 74 53 63 72 6f 6c  llBar.n.SetScrol
  461d90 6c 49 6e 66 6f 00 55 01 47 65 74 53 63 72 6f 6c  lInfo.U.GetScrol
  461da0 6c 49 6e 66 6f 00 34 02 53 63 72 6f 6c 6c 57 69  lInfo.4.ScrollWi
  461db0 6e 64 6f 77 00 00 b1 01 49 73 57 69 6e 64 6f 77  ndow....IsWindow
  461dc0 56 69 73 69 62 6c 65 00 c5 00 45 6e 64 44 65 66  Visible...EndDef
  461dd0 65 72 57 69 6e 64 6f 77 50 6f 73 00 4a 00 43 6f  erWindowPos.J.Co
  461de0 70 79 52 65 63 74 00 00 0c 00 42 65 67 69 6e 44  pyRect....BeginD
  461df0 65 66 65 72 57 69 6e 64 6f 77 50 6f 73 00 90 00  eferWindowPos...
  461e00 44 65 66 65 72 57 69 6e 64 6f 77 50 6f 73 00 00  DeferWindowPos..
  461e10 df 00 45 71 75 61 6c 52 65 63 74 00 31 02 53 63  ..EqualRect.1.Sc
  461e20 72 65 65 6e 54 6f 43 6c 69 65 6e 74 00 00 02 00  reenToClient....
  461e30 41 64 6a 75 73 74 57 69 6e 64 6f 77 52 65 63 74  AdjustWindowRect
  461e40 45 78 00 00 56 02 53 65 74 46 6f 63 75 73 00 00  Ex..V.SetFocus..
  461e50 16 01 47 65 74 46 6f 63 75 73 00 00 5a 01 47 65  ..GetFocus..Z.Ge
  461e60 74 53 79 73 43 6f 6c 6f 72 00 d9 01 4d 61 70 57  tSysColor...MapW
  461e70 69 6e 64 6f 77 50 6f 69 6e 74 73 00 36 02 53 65  indowPoints.6.Se
  461e80 6e 64 44 6c 67 49 74 65 6d 4d 65 73 73 61 67 65  ndDlgItemMessage
  461e90 41 00 c2 00 45 6e 61 62 6c 65 4d 65 6e 75 49 74  A...EnableMenuIt
  461ea0 65 6d 00 00 39 00 43 68 65 63 6b 4d 65 6e 75 49  em..9.CheckMenuI
  461eb0 74 65 6d 00 61 02 53 65 74 4d 65 6e 75 49 74 65  tem.a.SetMenuIte
  461ec0 6d 42 69 74 6d 61 70 73 00 00 e6 01 4d 6f 64 69  mBitmaps....Modi
  461ed0 66 79 4d 65 6e 75 41 00 37 01 47 65 74 4d 65 6e  fyMenuA.7.GetMen
  461ee0 75 53 74 61 74 65 00 00 2e 01 47 65 74 4d 65 6e  uState....GetMen
  461ef0 75 43 68 65 63 6b 4d 61 72 6b 44 69 6d 65 6e 73  uCheckMarkDimens
  461f00 69 6f 6e 73 00 00 40 00 43 6c 69 65 6e 74 54 6f  ions..@.ClientTo
  461f10 53 63 72 65 65 6e 00 00 0c 01 47 65 74 44 43 00  Screen....GetDC.
  461f20 2a 02 52 65 6c 65 61 73 65 44 43 00 6c 01 47 65  *.ReleaseDC.l.Ge
  461f30 74 57 69 6e 64 6f 77 44 43 00 0d 00 42 65 67 69  tWindowDC...Begi
  461f40 6e 50 61 69 6e 74 00 00 c8 00 45 6e 64 50 61 69  nPaint....EndPai
  461f50 6e 74 00 00 9b 02 54 61 62 62 65 64 54 65 78 74  nt....TabbedText
  461f60 4f 75 74 41 00 00 bc 00 44 72 61 77 54 65 78 74  OutA....DrawText
  461f70 41 00 7d 01 47 72 61 79 53 74 72 69 6e 67 41 00  A.}.GrayStringA.
  461f80 38 00 43 68 65 63 6b 44 6c 67 42 75 74 74 6f 6e  8.CheckDlgButton
  461f90 00 00 3b 00 43 68 65 63 6b 52 61 64 69 6f 42 75  ..;.CheckRadioBu
  461fa0 74 74 6f 6e 00 00 12 01 47 65 74 44 6c 67 49 74  tton....GetDlgIt
  461fb0 65 6d 49 6e 74 00 13 01 47 65 74 44 6c 67 49 74  emInt...GetDlgIt
  461fc0 65 6d 54 65 78 74 41 00 52 02 53 65 74 44 6c 67  emTextA.R.SetDlg
  461fd0 49 74 65 6d 49 6e 74 00 53 02 53 65 74 44 6c 67  ItemInt.S.SetDlg
  461fe0 49 74 65 6d 54 65 78 74 41 00 a3 01 49 73 44 6c  ItemTextA...IsDl
  461ff0 67 42 75 74 74 6f 6e 43 68 65 63 6b 65 64 00 00  gButtonChecked..
  462000 35 02 53 63 72 6f 6c 6c 57 69 6e 64 6f 77 45 78  5.ScrollWindowEx
  462010 00 00 a1 01 49 73 44 69 61 6c 6f 67 4d 65 73 73  ....IsDialogMess
  462020 61 67 65 41 00 00 86 02 53 65 74 57 69 6e 64 6f  ageA....SetWindo
  462030 77 54 65 78 74 41 00 00 eb 01 4d 6f 76 65 57 69  wTextA....MoveWi
  462040 6e 64 6f 77 00 00 92 02 53 68 6f 77 57 69 6e 64  ndow....ShowWind
  462050 6f 77 00 00 30 00 43 68 61 72 54 6f 4f 65 6d 41  ow..0.CharToOemA
  462060 00 00 f0 01 4f 65 6d 54 6f 43 68 61 72 41 00 00  ....OemToCharA..
  462070 d8 02 77 76 73 70 72 69 6e 74 66 41 00 00 8a 01  ..wvsprintfA....
  462080 49 6e 66 6c 61 74 65 52 65 63 74 00 6d 02 53 65  InflateRect.m.Se
  462090 74 52 65 63 74 45 6d 70 74 79 00 00 b5 01 4c 6f  tRectEmpty....Lo
  4620a0 61 64 41 63 63 65 6c 65 72 61 74 6f 72 73 41 00  adAcceleratorsA.
  4620b0 a7 02 54 72 61 6e 73 6c 61 74 65 41 63 63 65 6c  ..TranslateAccel
  4620c0 65 72 61 74 6f 72 41 00 29 02 52 65 6c 65 61 73  eratorA.).Releas
  4620d0 65 43 61 70 74 75 72 65 00 00 4d 02 53 65 74 43  eCapture..M.SetC
  4620e0 75 72 73 6f 72 00 0e 01 47 65 74 44 65 73 6b 74  ursor...GetDeskt
  4620f0 6f 70 57 69 6e 64 6f 77 00 00 97 00 44 65 73 74  opWindow....Dest
  462100 72 6f 79 4d 65 6e 75 00 c5 01 4c 6f 61 64 4d 65  royMenu...LoadMe
  462110 6e 75 41 00 5d 02 53 65 74 4d 65 6e 75 00 30 02  nuA.].SetMenu.0.
  462120 52 65 75 73 65 44 44 45 6c 50 61 72 61 6d 00 00  ReuseDDElParam..
  462130 b2 02 55 6e 70 61 63 6b 44 44 45 6c 50 61 72 61  ..UnpackDDElPara
  462140 6d 00 0f 00 42 72 69 6e 67 57 69 6e 64 6f 77 54  m...BringWindowT
  462150 6f 54 6f 70 00 00 8f 02 53 68 6f 77 4f 77 6e 65  oTop....ShowOwne
  462160 64 50 6f 70 75 70 73 00 0b 01 47 65 74 43 75 72  dPopups...GetCur
  462170 73 6f 72 50 6f 73 00 00 c3 02 56 61 6c 69 64 61  sorPos....Valida
  462180 74 65 52 65 63 74 00 00 3a 01 47 65 74 4d 65 73  teRect..:.GetMes
  462190 73 61 67 65 41 00 34 00 43 68 61 72 55 70 70 65  sageA.4.CharUppe
  4621a0 72 41 00 00 e2 00 46 69 6c 6c 52 65 63 74 00 00  rA....FillRect..
  4621b0 a9 01 49 73 52 65 63 74 45 6d 70 74 79 00 fc 00  ..IsRectEmpty...
  4621c0 47 65 74 43 6c 61 73 73 4e 61 6d 65 41 00 0f 01  GetClassNameA...
  4621d0 47 65 74 44 69 61 6c 6f 67 42 61 73 65 55 6e 69  GetDialogBaseUni
  4621e0 74 73 00 00 5b 01 47 65 74 53 79 73 43 6f 6c 6f  ts..[.GetSysColo
  4621f0 72 42 72 75 73 68 00 00 ca 01 4c 6f 61 64 53 74  rBrush....LoadSt
  462200 72 69 6e 67 41 00 96 00 44 65 73 74 72 6f 79 49  ringA...DestroyI
  462210 63 6f 6e 00 8d 01 49 6e 73 65 72 74 4d 65 6e 75  con...InsertMenu
  462220 41 00 38 01 47 65 74 4d 65 6e 75 53 74 72 69 6e  A.8.GetMenuStrin
  462230 67 41 00 00 55 53 45 52 33 32 2e 64 6c 6c 00 00  gA..USER32.dll..
  462240 39 00 43 72 65 61 74 65 46 6f 6e 74 41 00 01 02  9.CreateFontA...
  462250 52 6f 75 6e 64 52 65 63 74 00 47 00 43 72 65 61  RoundRect.G.Crea
  462260 74 65 50 65 6e 00 f6 01 52 65 63 74 61 6e 67 6c  tePen...Rectangl
  462270 65 00 0e 02 53 65 6c 65 63 74 4f 62 6a 65 63 74  e...SelectObject
  462280 00 00 12 00 42 69 74 42 6c 74 00 00 2d 00 43 72  ....BitBlt..-.Cr
  462290 65 61 74 65 43 6f 6d 70 61 74 69 62 6c 65 44 43  eateCompatibleDC
  4622a0 00 00 b4 01 47 65 74 54 65 78 74 45 78 74 65 6e  ....GetTextExten
  4622b0 74 50 6f 69 6e 74 33 32 41 00 49 02 53 74 72 65  tPoint32A.I.Stre
  4622c0 74 63 68 42 6c 74 00 00 67 01 47 65 74 44 43 4f  tchBlt..g.GetDCO
  4622d0 72 67 45 78 00 00 60 01 47 65 74 43 6c 69 70 42  rgEx..`.GetClipB
  4622e0 6f 78 00 00 3c 02 53 65 74 54 65 78 74 43 6f 6c  ox..<.SetTextCol
  4622f0 6f 72 00 00 15 02 53 65 74 42 6b 43 6f 6c 6f 72  or....SetBkColor
  462300 00 00 95 01 47 65 74 4f 62 6a 65 63 74 41 00 00  ....GetObjectA..
  462310 27 00 43 72 65 61 74 65 42 69 74 6d 61 70 00 00  '.CreateBitmap..
  462320 8c 00 44 65 6c 65 74 65 44 43 00 00 45 02 53 74  ..DeleteDC..E.St
  462330 61 72 74 44 6f 63 41 00 07 02 53 61 76 65 44 43  artDocA...SaveDC
  462340 00 00 00 02 52 65 73 74 6f 72 65 44 43 00 a5 01  ....RestoreDC...
  462350 47 65 74 53 74 6f 63 6b 4f 62 6a 65 63 74 00 00  GetStockObject..
  462360 0f 02 53 65 6c 65 63 74 50 61 6c 65 74 74 65 00  ..SelectPalette.
  462370 16 02 53 65 74 42 6b 4d 6f 64 65 00 34 02 53 65  ..SetBkMode.4.Se
  462380 74 50 6f 6c 79 46 69 6c 6c 4d 6f 64 65 00 35 02  tPolyFillMode.5.
  462390 53 65 74 52 4f 50 32 00 38 02 53 65 74 53 74 72  SetROP2.8.SetStr
  4623a0 65 74 63 68 42 6c 74 4d 6f 64 65 00 2b 02 53 65  etchBltMode.+.Se
  4623b0 74 4d 61 70 4d 6f 64 65 00 00 3f 02 53 65 74 56  tMapMode..?.SetV
  4623c0 69 65 77 70 6f 72 74 4f 72 67 45 78 00 00 d5 01  iewportOrgEx....
  4623d0 4f 66 66 73 65 74 56 69 65 77 70 6f 72 74 4f 72  OffsetViewportOr
  4623e0 67 45 78 00 3e 02 53 65 74 56 69 65 77 70 6f 72  gEx.>.SetViewpor
  4623f0 74 45 78 74 45 78 00 00 08 02 53 63 61 6c 65 56  tExtEx....ScaleV
  462400 69 65 77 70 6f 72 74 45 78 74 45 78 00 00 43 02  iewportExtEx..C.
  462410 53 65 74 57 69 6e 64 6f 77 4f 72 67 45 78 00 00  SetWindowOrgEx..
  462420 d6 01 4f 66 66 73 65 74 57 69 6e 64 6f 77 4f 72  ..OffsetWindowOr
  462430 67 45 78 00 42 02 53 65 74 57 69 6e 64 6f 77 45  gEx.B.SetWindowE
  462440 78 74 45 78 00 00 09 02 53 63 61 6c 65 57 69 6e  xtEx....ScaleWin
  462450 64 6f 77 45 78 74 45 78 00 00 0c 02 53 65 6c 65  dowExtEx....Sele
  462460 63 74 43 6c 69 70 52 67 6e 00 d7 00 45 78 63 6c  ctClipRgn...Excl
  462470 75 64 65 43 6c 69 70 52 65 63 74 00 c7 01 49 6e  udeClipRect...In
  462480 74 65 72 73 65 63 74 43 6c 69 70 52 65 63 74 00  tersectClipRect.
  462490 d3 01 4f 66 66 73 65 74 43 6c 69 70 52 67 6e 00  ..OffsetClipRgn.
  4624a0 d1 01 4d 6f 76 65 54 6f 45 78 00 00 cd 01 4c 69  ..MoveToEx....Li
  4624b0 6e 65 54 6f 00 00 3a 02 53 65 74 54 65 78 74 41  neTo..:.SetTextA
  4624c0 6c 69 67 6e 00 00 3d 02 53 65 74 54 65 78 74 4a  lign..=.SetTextJ
  4624d0 75 73 74 69 66 69 63 61 74 69 6f 6e 00 00 3b 02  ustification..;.
  4624e0 53 65 74 54 65 78 74 43 68 61 72 61 63 74 65 72  SetTextCharacter
  4624f0 45 78 74 72 61 00 2c 02 53 65 74 4d 61 70 70 65  Extra.,.SetMappe
  462500 72 46 6c 61 67 73 00 00 65 01 47 65 74 43 75 72  rFlags..e.GetCur
  462510 72 65 6e 74 50 6f 73 69 74 69 6f 6e 45 78 00 00  rentPositionEx..
  462520 0c 00 41 72 63 54 6f 00 11 02 53 65 74 41 72 63  ..ArcTo...SetArc
  462530 44 69 72 65 63 74 69 6f 6e 00 e7 01 50 6f 6c 79  Direction...Poly
  462540 44 72 61 77 00 00 ef 01 50 6f 6c 79 6c 69 6e 65  Draw....Polyline
  462550 54 6f 00 00 1a 02 53 65 74 43 6f 6c 6f 72 41 64  To....SetColorAd
  462560 6a 75 73 74 6d 65 6e 74 00 00 e6 01 50 6f 6c 79  justment....Poly
  462570 42 65 7a 69 65 72 54 6f 00 00 8f 00 44 65 6c 65  BezierTo....Dele
  462580 74 65 4f 62 6a 65 63 74 00 00 61 01 47 65 74 43  teObject..a.GetC
  462590 6c 69 70 52 67 6e 00 00 4b 00 43 72 65 61 74 65  lipRgn..K.Create
  4625a0 52 65 63 74 52 67 6e 00 0b 02 53 65 6c 65 63 74  RectRgn...Select
  4625b0 43 6c 69 70 50 61 74 68 00 00 dc 00 45 78 74 53  ClipPath....ExtS
  4625c0 65 6c 65 63 74 43 6c 69 70 52 67 6e 00 00 e3 01  electClipRgn....
  4625d0 50 6c 61 79 4d 65 74 61 46 69 6c 65 52 65 63 6f  PlayMetaFileReco
  4625e0 72 64 00 00 96 01 47 65 74 4f 62 6a 65 63 74 54  rd....GetObjectT
  4625f0 79 70 65 00 d1 00 45 6e 75 6d 4d 65 74 61 46 69  ype...EnumMetaFi
  462600 6c 65 00 00 e2 01 50 6c 61 79 4d 65 74 61 46 69  le....PlayMetaFi
  462610 6c 65 00 00 6b 01 47 65 74 44 65 76 69 63 65 43  le..k.GetDeviceC
  462620 61 70 73 00 bf 01 47 65 74 56 69 65 77 70 6f 72  aps...GetViewpor
  462630 74 45 78 74 45 78 00 00 c2 01 47 65 74 57 69 6e  tExtEx....GetWin
  462640 64 6f 77 45 78 74 45 78 00 00 d8 00 45 78 74 43  dowExtEx....ExtC
  462650 72 65 61 74 65 50 65 6e 00 00 50 00 43 72 65 61  reatePen..P.Crea
  462660 74 65 53 6f 6c 69 64 42 72 75 73 68 00 00 40 00  teSolidBrush..@.
  462670 43 72 65 61 74 65 48 61 74 63 68 42 72 75 73 68  CreateHatchBrush
  462680 00 00 46 00 43 72 65 61 74 65 50 61 74 74 65 72  ..F.CreatePatter
  462690 6e 42 72 75 73 68 00 00 31 00 43 72 65 61 74 65  nBrush..1.Create
  4626a0 44 49 42 50 61 74 74 65 72 6e 42 72 75 73 68 50  DIBPatternBrushP
  4626b0 74 00 f1 01 50 74 56 69 73 69 62 6c 65 00 f5 01  t...PtVisible...
  4626c0 52 65 63 74 56 69 73 69 62 6c 65 00 4e 02 54 65  RectVisible.N.Te
  4626d0 78 74 4f 75 74 41 00 00 dd 00 45 78 74 54 65 78  xtOutA....ExtTex
  4626e0 74 4f 75 74 41 00 d4 00 45 73 63 61 70 65 00 00  tOutA...Escape..
  4626f0 8d 01 47 65 74 4d 61 70 4d 6f 64 65 00 00 dd 01  ..GetMapMode....
  462700 50 61 74 42 6c 74 00 00 36 02 53 65 74 52 65 63  PatBlt..6.SetRec
  462710 74 52 67 6e 00 00 21 00 43 6f 6d 62 69 6e 65 52  tRgn..!.CombineR
  462720 67 6e 00 00 4c 00 43 72 65 61 74 65 52 65 63 74  gn..L.CreateRect
  462730 52 67 6e 49 6e 64 69 72 65 63 74 00 3a 00 43 72  RgnIndirect.:.Cr
  462740 65 61 74 65 46 6f 6e 74 49 6e 64 69 72 65 63 74  eateFontIndirect
  462750 41 00 51 00 44 50 74 6f 4c 50 00 00 cb 01 4c 50  A.Q.DPtoLP....LP
  462760 74 6f 44 50 00 00 bc 01 47 65 74 54 65 78 74 4d  toDP....GetTextM
  462770 65 74 72 69 63 73 41 00 47 44 49 33 32 2e 64 6c  etricsA.GDI32.dl
  462780 6c 00 07 00 47 65 74 46 69 6c 65 54 69 74 6c 65  l...GetFileTitle
  462790 41 00 0b 00 47 65 74 53 61 76 65 46 69 6c 65 4e  A...GetSaveFileN
  4627a0 61 6d 65 41 00 00 09 00 47 65 74 4f 70 65 6e 46  ameA....GetOpenF
  4627b0 69 6c 65 4e 61 6d 65 41 00 00 63 6f 6d 64 6c 67  ileNameA..comdlg
  4627c0 33 32 2e 64 6c 6c 00 00 1b 00 43 6c 6f 73 65 50  32.dll....CloseP
  4627d0 72 69 6e 74 65 72 00 00 46 00 44 6f 63 75 6d 65  rinter..F.Docume
  4627e0 6e 74 50 72 6f 70 65 72 74 69 65 73 41 00 7d 00  ntPropertiesA.}.
  4627f0 4f 70 65 6e 50 72 69 6e 74 65 72 41 00 00 57 49  OpenPrinterA..WI
  462800 4e 53 50 4f 4f 4c 2e 44 52 56 00 00 c9 01 52 65  NSPOOL.DRV....Re
  462810 67 43 6c 6f 73 65 4b 65 79 00 ec 01 52 65 67 51  gCloseKey...RegQ
  462820 75 65 72 79 56 61 6c 75 65 45 78 41 00 00 e2 01  ueryValueExA....
  462830 52 65 67 4f 70 65 6e 4b 65 79 45 78 41 00 eb 01  RegOpenKeyExA...
  462840 52 65 67 51 75 65 72 79 56 61 6c 75 65 41 00 00  RegQueryValueA..
  462850 d5 01 52 65 67 45 6e 75 6d 4b 65 79 41 00 e1 01  ..RegEnumKeyA...
  462860 52 65 67 4f 70 65 6e 4b 65 79 41 00 d0 01 52 65  RegOpenKeyA...Re
  462870 67 44 65 6c 65 74 65 4b 65 79 41 00 cd 01 52 65  gDeleteKeyA...Re
  462880 67 43 72 65 61 74 65 4b 65 79 45 78 41 00 f9 01  gCreateKeyExA...
  462890 52 65 67 53 65 74 56 61 6c 75 65 45 78 41 00 00  RegSetValueExA..
  4628a0 d2 01 52 65 67 44 65 6c 65 74 65 56 61 6c 75 65  ..RegDeleteValue
  4628b0 41 00 23 02 53 65 74 46 69 6c 65 53 65 63 75 72  A.#.SetFileSecur
  4628c0 69 74 79 41 00 00 ef 00 47 65 74 46 69 6c 65 53  ityA....GetFileS
  4628d0 65 63 75 72 69 74 79 41 00 00 cc 01 52 65 67 43  ecurityA....RegC
  4628e0 72 65 61 74 65 4b 65 79 41 00 f8 01 52 65 67 53  reateKeyA...RegS
  4628f0 65 74 56 61 6c 75 65 41 00 00 41 44 56 41 50 49  etValueA..ADVAPI
  462900 33 32 2e 64 6c 6c 00 00 06 01 53 68 65 6c 6c 45  32.dll....ShellE
  462910 78 65 63 75 74 65 41 00 1e 00 44 72 61 67 41 63  xecuteA...DragAc
  462920 63 65 70 74 46 69 6c 65 73 00 1f 00 44 72 61 67  ceptFiles...Drag
  462930 46 69 6e 69 73 68 00 00 21 00 44 72 61 67 51 75  Finish..!.DragQu
  462940 65 72 79 46 69 6c 65 41 00 00 ac 00 53 48 47 65  eryFileA....SHGe
  462950 74 46 69 6c 65 49 6e 66 6f 41 00 00 2b 00 45 78  tFileInfoA..+.Ex
  462960 74 72 61 63 74 49 63 6f 6e 41 00 00 53 48 45 4c  tractIconA..SHEL
  462970 4c 33 32 2e 64 6c 6c 00 38 00 49 6d 61 67 65 4c  L32.dll.8.ImageL
  462980 69 73 74 5f 44 65 73 74 72 6f 79 00 37 00 49 6d  ist_Destroy.7.Im
  462990 61 67 65 4c 69 73 74 5f 43 72 65 61 74 65 00 00  ageList_Create..
  4629a0 4b 00 49 6d 61 67 65 4c 69 73 74 5f 4c 6f 61 64  K.ImageList_Load
  4629b0 49 6d 61 67 65 41 00 00 4d 00 49 6d 61 67 65 4c  ImageA..M.ImageL
  4629c0 69 73 74 5f 4d 65 72 67 65 00 4e 00 49 6d 61 67  ist_Merge.N.Imag
  4629d0 65 4c 69 73 74 5f 52 65 61 64 00 00 5a 00 49 6d  eList_Read..Z.Im
  4629e0 61 67 65 4c 69 73 74 5f 57 72 69 74 65 00 43 4f  ageList_Write.CO
  4629f0 4d 43 54 4c 33 32 2e 64 6c 6c 00 00 3a 00 43 6f  MCTL32.dll..:.Co
  462a00 49 6e 69 74 69 61 6c 69 7a 65 00 00 68 00 43 6f  Initialize..h.Co
  462a10 55 6e 69 6e 69 74 69 61 6c 69 7a 65 00 00 10 00  Uninitialize....
  462a20 43 6f 43 72 65 61 74 65 49 6e 73 74 61 6e 63 65  CoCreateInstance
  462a30 00 00 6f 6c 65 33 32 2e 64 6c 6c 00 00 00 47 65  ..ole32.dll...Ge
  462a40 74 46 69 6c 65 56 65 72 73 69 6f 6e 49 6e 66 6f  tFileVersionInfo
  462a50 41 00 01 00 47 65 74 46 69 6c 65 56 65 72 73 69  A...GetFileVersi
  462a60 6f 6e 49 6e 66 6f 53 69 7a 65 41 00 0a 00 56 65  onInfoSizeA...Ve
  462a70 72 51 75 65 72 79 56 61 6c 75 65 41 00 00 56 45  rQueryValueA..VE
  462a80 52 53 49 4f 4e 2e 64 6c 6c 00 1f 02 49 6e 74 65  RSION.dll...Inte
  462a90 72 6c 6f 63 6b 65 64 45 78 63 68 61 6e 67 65 00  rlockedExchange.
  462aa0 aa 01 47 65 74 50 72 6f 66 69 6c 65 53 74 72 69  ..GetProfileStri
  462ab0 6e 67 41 00 b0 01 49 73 57 69 6e 64 6f 77 55 6e  ngA...IsWindowUn
  462ac0 69 63 6f 64 65 00 2a 00 43 68 61 72 4e 65 78 74  icode.*.CharNext
  462ad0 41 00 87 00 44 65 66 44 6c 67 50 72 6f 63 41 00  A...DefDlgProcA.
  462ae0 b3 00 44 72 61 77 46 6f 63 75 73 52 65 63 74 00  ..DrawFocusRect.
  462af0 e0 00 45 78 63 6c 75 64 65 55 70 64 61 74 65 52  ..ExcludeUpdateR
  462b00 67 6e 00 00 8d 02 53 68 6f 77 43 61 72 65 74 00  gn....ShowCaret.
  462b10 7f 01 48 69 64 65 43 61 72 65 74 00 b6 01 47 65  ..HideCaret...Ge
  462b20 74 54 65 78 74 45 78 74 65 6e 74 50 6f 69 6e 74  tTextExtentPoint
  462b30 41 00 33 00 43 72 65 61 74 65 44 49 42 69 74 6d  A.3.CreateDIBitm
  462b40 61 70 00 00                                      ap..

Section .data (start = 0x63000, length = 0x6000, minimum allocation = 0xa5a8):
    Address: 63000
    Flags: 0xc0000040 (data, readable, writable)
    Alignment: 1 (2**0)
  463000 00 00 00 00 62 77 44 00 e0 7a 44 00 20 7b 44 00  ....bwD..zD. {D.
  463010 99 93 43 00 c8 93 43 00 fa 93 43 00 2c 94 43 00  ..C...C...C.,.C.
  463020 fb 8b 44 00 45 8e 44 00 21 90 44 00 ec 90 44 00  ..D.E.D.!.D...D.
  463030 7c 85 44 00 ae 99 44 00 d4 99 44 00 80 ef 42 00  |.D...D...D...B.
  463040 8e 18 40 00 0d 1d 40 00 6f 27 40 00 20 2a 40 00  ..@...@.o'@. *@.
  463050 89 2a 40 00 85 30 40 00 fc 36 40 00 1d 37 40 00  .*@..0@..6@..7@.
  463060 47 37 40 00 71 37 40 00 98 a8 40 00 eb ab 40 00  G7@.q7@...@...@.
  463070 29 ca 40 00 b1 db 40 00 17 dc 40 00 7d dc 40 00  ).@...@...@.}.@.
  463080 e3 dc 40 00 49 dd 40 00 6a dd 40 00 d0 51 43 00  ..@.I.@.j.@..QC.
  463090 e6 51 43 00 24 52 43 00 62 52 43 00 a0 52 43 00  .QC.$RC.bRC..RC.
  4630a0 47 79 44 00 7f 79 44 00 dd 4b 44 00 9e 53 44 00  GyD..yD..KD..SD.
  4630b0 c1 53 44 00 38 91 44 00 70 91 44 00 fa 99 44 00  .SD.8.D.p.D...D.
  4630c0 34 9b 44 00 7a df 41 00 bd df 41 00 ea df 41 00  4.D.z.A...A...A.
  4630d0 17 e0 41 00 46 e0 41 00 75 e0 41 00 a2 e0 41 00  ..A.F.A.u.A...A.
  4630e0 d1 e0 41 00 ef e9 41 00 31 ea 41 00 5b ea 41 00  ..A...A.1.A.[.A.
  4630f0 85 ea 41 00 b2 ea 41 00 df ea 41 00 0c eb 41 00  ..A...A...A...A.
  463100 50 eb 41 00 94 eb 41 00 c3 eb 41 00 b6 f8 41 00  P.A...A...A...A.
  463110 93 ff 41 00 61 04 42 00 c4 1d 42 00 d5 83 42 00  ..A.a.B...B...B.
  463120 78 b2 42 00 00 00 00 00 00 00 00 00 47 ef 40 00  x.B.........G.@.
  463130 cc 19 41 00 03 98 41 00 f2 41 41 00 00 00 00 00  ..A...A..AA.....
  463140 00 00 00 00 ab 98 41 00 00 00 00 00 00 00 00 00  ......A.........
  463150 03 42 41 00 00 00 00 00 00 00 00 00 00 00 00 00  .BA.............
  463160 56 65 72 64 61 6e 61 00 43 4d 61 69 6e 46 72 61  Verdana.CMainFra
  463170 6d 65 00 00 4c 46 4d 53 32 30 30 32 43 6c 61 73  me..LFMS2002Clas
  463180 73 00 00 00 6d 61 69 6e 5f 77 69 6e 64 6f 77 5f  s...main_window_
  463190 74 69 74 6c 65 00 00 00 4d 69 6e 64 20 53 74 61  title...Mind Sta
  4631a0 74 69 6f 6e 99 00 00 00 4d 72 2e 20 41 70 70 20  tion....Mr. App 
  4631b0 72 65 63 65 69 76 65 64 20 79 6f 75 72 20 6d 65  received your me
  4631c0 73 73 61 67 65 21 00 00 5d 00 00 00 4d 69 6e 64  ssage!..]...Mind
  4631d0 53 74 61 74 69 6f 6e 20 56 65 72 73 69 6f 6e 20  Station Version 
  4631e0 32 30 30 32 20 5b 00 00 43 61 6c 6c 65 72 20 2d  2002 [..Caller -
  4631f0 20 43 61 6e 63 65 6c 20 52 65 71 75 65 73 74 00   Cancel Request.
  463200 43 61 6c 6c 65 72 20 2d 20 4c 42 4b 20 53 61 76  Caller - LBK Sav
  463210 65 20 3c 25 73 3e 00 00 43 61 6c 6c 65 72 20 2d  e <%s>..Caller -
  463220 20 4c 42 4b 20 52 65 73 74 6f 72 65 20 3c 25 73   LBK Restore <%s
  463230 3e 00 00 00 43 61 6c 6c 65 72 20 2d 20 4c 42 4b  >...Caller - LBK
  463240 20 43 6f 6e 76 65 72 74 20 3c 25 73 3e 00 00 00   Convert <%s>...
  463250 43 61 6c 6c 65 72 20 2d 20 4c 42 4b 20 56 65 72  Caller - LBK Ver
  463260 69 66 79 20 3c 25 73 3e 00 00 00 00 43 61 6c 6c  ify <%s>....Call
  463270 65 72 20 2d 20 67 6f 74 6f 20 75 72 6c 20 72 65  er - goto url re
  463280 71 75 65 73 74 20 3c 25 73 3e 00 00 43 61 6c 6c  quest <%s>..Call
  463290 65 72 20 2d 20 52 75 6e 44 69 61 67 20 52 65 71  er - RunDiag Req
  4632a0 75 65 73 74 00 00 00 00 43 61 6c 6c 65 72 20 2d  uest....Caller -
  4632b0 20 52 75 6e 41 43 50 20 52 65 71 75 65 73 74 3c   RunACP Request<
  4632c0 25 73 3e 00 43 61 6c 6c 65 72 20 2d 20 52 75 6e  %s>.Caller - Run
  4632d0 41 43 50 44 69 73 6b 20 52 65 71 75 65 73 74 20  ACPDisk Request 
  4632e0 3c 25 73 3e 20 2d 3e 20 3c 25 73 3e 00 00 00 00  <%s> -> <%s>....
  4632f0 43 61 6c 6c 65 72 20 2d 20 55 6e 6b 6e 6f 77 6e  Caller - Unknown
  463300 20 6d 65 73 73 61 67 65 20 74 79 70 65 20 28 25   message type (%
  463310 64 29 00 00 43 61 6c 6c 65 72 20 2d 20 44 6f 51  d)..Caller - DoQ
  463320 75 69 74 28 29 00 00 00 43 61 6c 6c 65 72 20 2d  uit()...Caller -
  463330 20 53 65 74 44 61 74 61 44 69 72 28 6d 6f 64 65   SetDataDir(mode
  463340 20 3d 20 25 64 29 00 00 43 61 6c 6c 65 72 20 2d   = %d)..Caller -
  463350 20 53 65 74 49 4e 65 74 53 74 61 74 65 28 6d 6f   SetINetState(mo
  463360 64 65 20 3d 20 25 64 29 00 00 00 00 43 61 6c 6c  de = %d)....Call
  463370 65 72 20 2d 20 53 65 74 4c 69 6e 6b 53 74 61 74  er - SetLinkStat
  463380 65 28 6d 6f 64 65 20 3d 20 25 64 29 00 00 00 00  e(mode = %d)....
  463390 43 61 6c 6c 65 72 20 2d 20 28 70 6f 73 74 29 53  Caller - (post)S
  4633a0 65 6e 64 4d 65 73 73 61 67 65 20 3d 20 57 4d 5f  endMessage = WM_
  4633b0 53 55 43 43 45 53 53 44 49 41 4c 4f 47 00 00 00  SUCCESSDIALOG...
  4633c0 20 20 20 20 20 20 20 20 20 20 20 20 20 74 69 74               tit
  4633d0 6c 65 3d 25 73 2c 20 74 78 74 3d 25 73 2c 20 63  le=%s, txt=%s, c
  4633e0 6f 6e 66 3d 25 64 20 63 61 6e 63 3d 25 64 00 00  onf=%d canc=%d..
  4633f0 43 61 6c 6c 65 72 20 2d 20 53 75 63 63 65 73 73  Caller - Success
  463400 53 63 72 65 65 6e 28 20 51 75 65 73 74 69 6f 6e  Screen( Question
  463410 2c 20 43 6f 6e 66 69 72 6d 53 74 61 74 65 2c 20  , ConfirmState, 
  463420 43 61 6e 63 65 6c 53 74 61 74 65 29 00 00 00 00  CancelState)....
  463430 0a 43 61 6c 6c 65 72 20 2d 20 28 70 6f 73 74 29  .Caller - (post)
  463440 53 65 6e 64 4d 65 73 73 61 67 65 20 3d 20 57 4d  SendMessage = WM
  463450 5f 43 4f 4e 46 49 52 4d 44 49 41 4c 4f 47 00 00  _CONFIRMDIALOG..
  463460 20 20 20 20 20 20 20 20 20 20 20 20 20 20 20 20                  
  463470 20 20 20 20 20 20 20 20 20 20 20 20 25 73 2c 25              %s,%
  463480 73 2c 25 64 2c 25 64 00 43 61 6c 6c 65 72 20 2d  s,%d,%d.Caller -
  463490 20 28 70 72 65 29 43 6f 6e 66 69 72 6d 53 63 72   (pre)ConfirmScr
  4634a0 65 65 6e 28 20 54 69 74 6c 65 2c 20 4d 73 67 2c  een( Title, Msg,
  4634b0 20 43 6f 6e 66 69 72 6d 53 74 61 74 65 2c 20 43   ConfirmState, C
  4634c0 61 6e 63 65 6c 53 74 61 74 65 29 00 20 20 20 20  ancelState).    
  4634d0 20 20 20 20 20 20 20 20 20 20 20 20 20 20 20 20                  
  4634e0 20 20 20 20 20 20 20 20 25 64 2c 20 25 73 2c 20          %d, %s, 
  4634f0 25 73 2c 20 25 73 2c 20 25 64 00 00 43 61 6c 6c  %s, %s, %d..Call
  463500 65 72 20 2d 20 45 72 72 6f 72 52 65 70 6f 72 74  er - ErrorReport
  463510 53 63 72 65 65 6e 28 20 65 72 72 6f 72 4e 75 6d  Screen( errorNum
  463520 62 65 72 2c 20 54 69 74 6c 65 2c 20 44 65 73 63  ber, Title, Desc
  463530 72 2c 20 55 52 4c 53 74 72 69 6e 67 2c 20 66 6c  r, URLString, fl
  463540 61 67 20 29 00 00 00 00 43 61 6c 6c 65 72 20 2d  ag )....Caller -
  463550 20 43 6f 6d 6d 61 6e 64 20 43 6f 6d 70 6c 65 74   Command Complet
  463560 65 20 63 61 6c 6c 62 61 63 6b 00 00 43 61 6c 6c  e callback..Call
  463570 65 72 20 2d 20 52 65 6d 6f 76 65 20 53 68 6f 72  er - Remove Shor
  463580 74 43 75 74 00 00 00 00 43 61 6c 6c 65 72 20 2d  tCut....Caller -
  463590 20 43 72 65 61 74 65 20 53 68 6f 72 74 43 75 74   Create ShortCut
  4635a0 28 20 25 73 20 29 00 00 43 4d 53 47 55 49 44 6f  ( %s )..CMSGUIDo
  4635b0 63 00 00 00 43 6f 6d 6d 61 6e 64 20 4c 69 6e 65  c...Command Line
  4635c0 20 3a 20 25 73 00 00 00 53 74 61 72 74 69 6e 67   : %s...Starting
  4635d0 20 41 70 70 6c 69 63 61 74 69 6f 6e 00 00 00 00   Application....
  4635e0 4d 53 32 30 30 32 2e 6c 66 78 00 00 51 00 00 00  MS2002.lfx..Q...
  4635f0 66 6e 61 6d 65 32 00 00 53 65 63 6f 6e 64 61 72  fname2..Secondar
  463600 79 20 46 69 6c 65 20 4e 61 6d 65 00 66 6e 61 6d  y File Name.fnam
  463610 65 00 00 00 46 69 6c 65 20 4e 61 6d 65 00 00 00  e...File Name...
  463620 64 65 62 75 67 00 00 00 64 65 62 75 67 20 6c 65  debug...debug le
  463630 76 65 6c 00 70 6c 75 67 00 00 00 00 70 6c 75 67  vel.plug....plug
  463640 69 6e 20 73 63 72 65 65 6e 73 00 00 76 61 6c 75  in screens..valu
  463650 65 00 00 00 75 70 64 61 74 65 00 00 46 6f 72 63  e...update..Forc
  463660 65 73 20 61 20 77 65 62 20 75 70 64 61 74 65 20  es a web update 
  463670 63 68 65 63 6b 20 74 68 65 6e 20 65 78 69 74 73  check then exits
  463680 00 00 00 00 6e 6f 77 65 62 00 00 00 57 65 62 6c  ....noweb...Webl
  463690 65 73 73 20 6f 70 65 72 61 74 69 6f 6e 20 6d 6f  ess operation mo
  4636a0 64 65 20 28 64 69 61 67 73 20 6f 6e 6c 79 29 00  de (diags only).
  4636b0 65 6e 67 72 00 00 00 00 45 6e 67 69 6e 65 65 72  engr....Engineer
  4636c0 69 6e 67 20 4d 6f 64 65 00 00 00 00 71 75 69 65  ing Mode....quie
  4636d0 74 00 00 00 51 75 69 65 74 20 4d 6f 64 65 00 00  t...Quiet Mode..
  4636e0 64 69 73 6b 00 00 00 00 44 6f 20 61 20 4c 46 53  disk....Do a LFS
  4636f0 20 74 6f 20 64 69 73 6b 20 6f 70 65 72 61 74 69   to disk operati
  463700 6f 6e 20 28 57 65 62 41 63 70 20 64 6f 77 6e 6c  on (WebAcp downl
  463710 6f 61 64 20 74 6f 20 64 69 73 6b 2c 20 6f 72 20  oad to disk, or 
  463720 77 72 69 74 65 20 61 73 73 65 73 6d 65 6e 74 20  write assesment 
  463730 6c 6f 67 20 74 6f 20 64 69 73 6b 29 00 00 00 00  log to disk)....
  463740 63 73 35 00 43 68 69 70 20 53 65 6c 65 63 74 20  cs5.Chip Select 
  463750 35 00 00 00 63 73 32 00 43 68 69 70 20 53 65 6c  5...cs2.Chip Sel
  463760 65 63 74 20 32 00 00 00 63 73 31 00 43 68 69 70  ect 2...cs1.Chip
  463770 20 53 65 6c 65 63 74 20 31 00 00 00 63 73 30 00   Select 1...cs0.
  463780 43 68 69 70 20 53 65 6c 65 63 74 20 30 00 00 00  Chip Select 0...
  463790 63 6f 6e 76 65 72 74 00 43 6f 6e 76 65 72 74 20  convert.Convert 
  4637a0 4c 42 4b 20 66 69 6c 65 20 62 65 74 77 65 65 6e  LBK file between
  4637b0 20 4c 42 4b 31 20 26 20 4c 42 4b 32 00 00 00 00   LBK1 & LBK2....
  4637c0 76 65 72 69 66 79 00 00 56 65 72 69 66 79 20 63  verify..Verify c
  4637d0 61 72 74 72 69 64 67 65 20 63 6f 6e 74 65 6e 74  artridge content
  4637e0 73 20 61 67 61 69 6e 73 74 20 4c 42 4b 20 66 69  s against LBK fi
  4637f0 6c 65 00 00 73 61 76 65 00 00 00 00 53 61 76 65  le..save....Save
  463800 20 63 61 72 74 72 69 64 67 65 20 63 6f 6e 74 65   cartridge conte
  463810 6e 74 73 20 74 6f 20 4c 42 4b 20 46 69 6c 65 00  nts to LBK File.
  463820 62 75 72 6e 00 00 00 00 57 72 69 74 65 20 4c 42  burn....Write LB
  463830 4b 20 66 69 6c 65 20 74 6f 20 63 61 72 74 72 69  K file to cartri
  463840 64 67 65 00 6c 78 64 69 61 67 00 00 4c 6f 6f 70  dge.lxdiag..Loop
  463850 20 45 78 74 65 6e 64 65 64 20 44 69 61 67 73 00   Extended Diags.
  463860 78 64 69 61 67 00 00 00 45 78 74 65 6e 64 65 64  xdiag...Extended
  463870 20 44 69 61 67 6e 6f 73 74 69 63 73 00 00 00 00   Diagnostics....
  463880 6c 64 69 61 67 00 00 00 4c 6f 6f 70 20 73 68 6f  ldiag...Loop sho
  463890 72 74 20 44 69 61 67 6e 6f 73 74 69 63 73 20 6d  rt Diagnostics m
  4638a0 6f 64 65 00 64 69 61 67 00 00 00 00 64 69 61 67  ode.diag....diag
  4638b0 6e 6f 73 74 69 63 73 20 6d 6f 64 65 00 00 00 00  nostics mode....
  4638c0 66 61 6b 65 00 00 00 00 67 75 69 20 64 65 62 75  fake....gui debu
  4638d0 67 20 6d 6f 64 65 00 00 64 65 76 00 64 65 76 65  g mode..dev.deve
  4638e0 6c 6f 70 6d 65 6e 74 20 6d 6f 64 65 00 00 00 00  lopment mode....
  4638f0 20 3c 00 00 3e 00 00 00 7c 00 00 00 3c 00 00 00   <..>...|...<...
  463900 5b 00 00 00 76 65 72 73 69 6f 6e 00 68 65 6c 70  [...version.help
  463910 00 00 00 00 68 00 00 00 76 00 00 00 53 68 6f 77  ....h...v...Show
  463920 20 76 65 72 73 69 6f 6e 2e 00 00 00 3f 00 00 00   version....?...
  463930 53 68 6f 77 20 75 73 61 67 65 2e 00 4d 69 6e 64  Show usage..Mind
  463940 20 53 74 61 74 69 6f 6e 20 32 30 30 32 20 43 6f   Station 2002 Co
  463950 6d 6d 61 6e 64 4c 69 6e 65 20 65 72 72 6f 72 00  mmandLine error.
  463960 45 78 70 65 63 74 65 64 20 61 72 67 75 6d 65 6e  Expected argumen
  463970 74 20 27 00 27 20 61 6c 72 65 61 64 79 20 70 72  t '.' already pr
  463980 65 73 65 6e 74 2e 00 00 27 20 63 61 6e 6e 6f 74  esent...' cannot
  463990 20 61 63 63 65 70 74 20 70 61 72 61 6d 65 74 65   accept paramete
  4639a0 72 3a 20 27 00 00 00 00 27 20 63 61 6e 6e 6f 74  r: '....' cannot
  4639b0 20 61 63 63 65 70 74 20 61 6e 6f 74 68 65 72 20   accept another 
  4639c0 70 61 72 61 6d 65 74 65 72 3a 20 27 00 00 00 00  parameter: '....
  4639d0 27 20 65 78 70 65 63 74 73 20 61 20 70 61 72 61  ' expects a para
  4639e0 6d 65 74 65 72 2e 00 00 41 72 67 75 6d 65 6e 74  meter...Argument
  4639f0 20 27 00 00 27 2e 00 00 55 6e 72 65 63 6f 67 6e   '..'...Unrecogn
  463a00 69 7a 65 64 20 61 72 67 75 6d 65 6e 74 20 27 00  ized argument '.
  463a10 41 72 65 20 79 6f 75 20 73 75 72 65 20 79 6f 75  Are you sure you
  463a20 20 77 61 6e 74 20 74 6f 20 71 75 69 74 20 79 6f   want to quit yo
  463a30 75 72 20 4d 69 6e 64 20 53 74 61 74 69 6f 6e 20  ur Mind Station 
  463a40 73 65 73 73 69 6f 6e 3f 00 00 00 00 20 00 00 00  session?.... ...
  463a50 0a 00 00 00 0d 0a 00 00 65 72 72 6f 72 5f 64 69  ........error_di
  463a60 61 6c 6f 67 5f 70 6f 73 74 73 63 72 69 70 74 00  alog_postscript.
  463a70 65 72 72 6f 72 5f 64 69 61 6c 6f 67 5f 70 72 65  error_dialog_pre
  463a80 61 6d 62 6c 65 00 00 00 2e 4c 4e 4b 00 00 00 00  amble....LNK....
  463a90 2e 00 00 00 64 65 73 6b 74 6f 70 5f 69 63 6f 6e  ....desktop_icon
  463aa0 5f 6e 61 6d 65 00 00 00 5c 00 00 00 53 68 6f 72  _name...\...Shor
  463ab0 74 63 75 74 20 74 6f 20 00 00 00 00 44 65 73 6b  tcut to ....Desk
  463ac0 74 6f 70 00 53 6f 66 74 77 61 72 65 5c 4d 69 63  top.Software\Mic
  463ad0 72 6f 73 6f 66 74 5c 57 69 6e 64 6f 77 73 5c 43  rosoft\Windows\C
  463ae0 75 72 72 65 6e 74 56 65 72 73 69 6f 6e 5c 45 78  urrentVersion\Ex
  463af0 70 6c 6f 72 65 72 5c 53 68 65 6c 6c 20 46 6f 6c  plorer\Shell Fol
  463b00 64 65 72 73 00 00 00 00 53 61 76 65 20 66 61 69  ders....Save fai
  463b10 6c 65 64 21 00 00 00 00 53 65 74 44 65 73 63 72  led!....SetDescr
  463b20 69 70 74 69 6f 6e 20 66 61 69 6c 65 64 21 00 00  iption failed!..
  463b30 53 65 74 50 61 74 68 20 66 61 69 6c 65 64 21 00  SetPath failed!.
  463b40 6c 62 6b 00 2a 2e 6c 62 6b 00 00 00 2e 4c 42 4b  lbk.*.lbk....LBK
  463b50 20 46 69 6c 65 73 20 28 2a 2e 6c 62 6b 29 7c 2a   Files (*.lbk)|*
  463b60 2e 6c 62 6b 7c 7c 00 00 6c 66 73 00 2a 2e 6c 66  .lbk||..lfs.*.lf
  463b70 73 00 00 00 2e 4c 46 53 20 46 69 6c 65 73 20 28  s....LFS Files (
  463b80 2a 2e 6c 66 73 29 7c 2a 2e 6c 66 73 7c 7c 00 00  *.lfs)|*.lfs||..
  463b90 41 70 70 6c 69 63 61 74 69 6f 6e 20 65 78 69 74  Application exit
  463ba0 20 63 6f 64 65 20 69 73 20 25 64 00 6f 70 65 6e   code is %d.open
  463bb0 00 00 00 00 00 00 00 00 e4 41 45 00 00 00 00 00  .........AE.....
  463bc0 2e 3f 41 56 65 78 63 65 70 74 69 6f 6e 40 40 00  .?AVexception@@.
  463bd0 e4 41 45 00 00 00 00 00 2e 3f 41 56 62 61 64 5f  .AE......?AVbad_
  463be0 63 61 73 74 40 73 74 64 40 40 00 00 6d 69 73 73  cast@std@@..miss
  463bf0 69 6e 67 20 6c 6f 63 61 6c 65 20 66 61 63 65 74  ing locale facet
  463c00 00 00 00 00 43 00 00 00 30 31 32 33 34 35 36 37  ....C...01234567
  463c10 38 39 61 62 63 64 65 66 41 42 43 44 45 46 00 00  89abcdefABCDEF..
  463c20 74 72 75 65 00 00 00 00 66 61 6c 73 65 00 00 00  true....false...
  463c30 43 4d 53 47 55 49 56 69 65 77 00 00 74 69 6d 65  CMSGUIView..time
  463c40 5f 73 65 63 00 00 00 00 74 69 6d 65 5f 6d 69 6e  _sec....time_min
  463c50 00 00 00 00 74 69 6d 65 5f 68 72 00 74 69 6d 65  ....time_hr.time
  463c60 5f 73 65 63 73 00 00 00 74 69 6d 65 5f 6d 69 6e  _secs...time_min
  463c70 73 00 00 00 74 69 6d 65 5f 68 72 73 00 00 00 00  s...time_hrs....
  463c80 74 69 6d 65 5f 72 65 6d 61 69 6e 69 6e 67 00 00  time_remaining..
  463c90 4d 72 2e 56 69 65 77 20 72 65 63 65 69 76 65 64  Mr.View received
  463ca0 20 79 6f 75 72 20 6d 65 73 73 61 67 65 21 00 00   your message!..
  463cb0 43 4f 4d 50 4c 45 54 45 00 00 00 00 50 45 52 43  COMPLETE....PERC
  463cc0 45 4e 54 00 25 00 00 00 57 41 49 54 00 00 00 00  ENT.%...WAIT....
  463cd0 50 4c 45 41 53 45 00 00 54 45 53 54 49 4e 47 00  PLEASE..TESTING.
  463ce0 25 31 00 00 22 25 31 22 00 00 00 00 5c 73 68 65  %1.."%1"....\she
  463cf0 6c 6c 5c 6f 70 65 6e 5c 63 6f 6d 6d 61 6e 64 00  ll\open\command.
  463d00 2e 68 74 6d 00 00 00 00 69 6e 65 74 2d 63 6f 6e  .htm....inet-con
  463d10 6e 65 63 74 69 6f 6e 2d 6c 6f 63 61 6c 34 30 34  nection-local404
  463d20 00 00 00 00 29 00 00 00 20 28 00 00 5b 75 6e 6b  ....)... (..[unk
  463d30 6e 6f 77 6e 20 4e 54 20 76 65 72 3d 00 00 00 00  nown NT ver=....
  463d40 25 64 2e 25 64 2e 25 64 5d 00 00 00 58 50 00 00  %d.%d.%d]...XP..
  463d50 32 30 30 30 00 00 00 00 4e 54 00 00 5b 75 6e 6b  2000....NT..[unk
  463d60 6e 6f 77 6e 20 39 78 20 76 65 72 3d 00 00 00 00  nown 9x ver=....
  463d70 25 64 2e 25 64 5d 00 00 4d 45 00 00 39 38 00 00  %d.%d]..ME..98..
  463d80 39 35 00 00 57 69 6e 64 6f 77 73 20 00 00 00 00  95..Windows ....
  463d90 2c 20 00 00 46 69 6c 65 56 65 72 73 69 6f 6e 00  , ..FileVersion.
  463da0 6e 6f 20 76 65 72 73 69 6f 6e 20 72 65 73 6f 75  no version resou
  463db0 72 63 65 20 66 6f 75 6e 64 00 00 00 30 34 30 39  rce found...0409
  463dc0 30 34 42 30 00 00 00 00 5c 53 74 72 69 6e 67 46  04B0....\StringF
  463dd0 69 6c 65 49 6e 66 6f 5c 25 73 5c 25 73 00 00 00  ileInfo\%s\%s...
  463de0 65 6e 67 69 6e 65 2e 64 6c 6c 00 00 3b 00 00 00  engine.dll..;...
  463df0 3b 68 74 74 70 3d 00 00 50 72 6f 78 79 53 65 72  ;http=..ProxySer
  463e00 76 65 72 00 50 72 6f 78 79 45 6e 61 62 6c 65 00  ver.ProxyEnable.
  463e10 53 6f 66 74 77 61 72 65 5c 4d 69 63 72 6f 73 6f  Software\Microso
  463e20 66 74 5c 57 69 6e 64 6f 77 73 5c 43 75 72 72 65  ft\Windows\Curre
  463e30 6e 74 56 65 72 73 69 6f 6e 5c 49 6e 74 65 72 6e  ntVersion\Intern
  463e40 65 74 20 53 65 74 74 69 6e 67 73 00 57 69 6e 00  et Settings.Win.
  463e50 4d 61 63 39 00 00 00 00 4d 61 63 58 00 00 00 00  Mac9....MacX....
  463e60 e4 41 45 00 00 00 00 00 2e 3f 41 56 43 4f 62 6a  .AE......?AVCObj
  463e70 65 63 74 40 40 00 00 00 e4 41 45 00 00 00 00 00  ect@@....AE.....
  463e80 2e 3f 41 56 43 43 6d 64 54 61 72 67 65 74 40 40  .?AVCCmdTarget@@
  463e90 00 00 00 00 00 00 00 00 e4 41 45 00 00 00 00 00  .........AE.....
  463ea0 2e 3f 41 56 43 57 6e 64 40 40 00 00 00 00 00 00  .?AVCWnd@@......
  463eb0 e4 41 45 00 00 00 00 00 2e 3f 41 56 43 44 69 61  .AE......?AVCDia
  463ec0 6c 6f 67 40 40 00 00 00 e4 41 45 00 00 00 00 00  log@@....AE.....
  463ed0 2e 50 41 56 43 45 78 63 65 70 74 69 6f 6e 40 40  .PAVCException@@
  463ee0 00 00 00 00 00 00 00 00 e4 41 45 00 00 00 00 00  .........AE.....
  463ef0 2e 3f 41 56 43 43 6d 64 55 49 40 40 00 00 00 00  .?AVCCmdUI@@....
  463f00 e4 41 45 00 00 00 00 00 2e 3f 41 56 43 54 65 73  .AE......?AVCTes
  463f10 74 43 6d 64 55 49 40 40 00 00 00 00 00 00 00 00  tCmdUI@@........
  463f20 e4 41 45 00 00 00 00 00 2e 50 41 56 43 55 73 65  .AE......PAVCUse
  463f30 72 45 78 63 65 70 74 69 6f 6e 40 40 00 00 00 00  rException@@....
  463f40 e4 41 45 00 00 00 00 00 2e 3f 41 56 43 54 65 6d  .AE......?AVCTem
  463f50 70 57 6e 64 40 40 00 00 e4 41 45 00 00 00 00 00  pWnd@@...AE.....
  463f60 2e 3f 41 56 43 4e 6f 54 72 61 63 6b 4f 62 6a 65  .?AVCNoTrackObje
  463f70 63 74 40 40 00 00 00 00 e4 41 45 00 00 00 00 00  ct@@.....AE.....
  463f80 2e 3f 41 56 5f 41 46 58 5f 43 54 4c 33 44 5f 53  .?AV_AFX_CTL3D_S
  463f90 54 41 54 45 40 40 00 00 ff ff ff ff ff ff ff ff  TATE@@..........
  463fa0 ff ff ff ff 00 00 00 00 e4 41 45 00 00 00 00 00  .........AE.....
  463fb0 2e 3f 41 56 43 53 74 61 74 69 63 40 40 00 00 00  .?AVCStatic@@...
  463fc0 e4 41 45 00 00 00 00 00 2e 3f 41 56 43 42 75 74  .AE......?AVCBut
  463fd0 74 6f 6e 40 40 00 00 00 e4 41 45 00 00 00 00 00  ton@@....AE.....
  463fe0 2e 3f 41 56 43 4c 69 73 74 42 6f 78 40 40 00 00  .?AVCListBox@@..
  463ff0 e4 41 45 00 00 00 00 00 2e 3f 41 56 43 43 6f 6d  .AE......?AVCCom
  464000 62 6f 42 6f 78 40 40 00 e4 41 45 00 00 00 00 00  boBox@@..AE.....
  464010 2e 3f 41 56 43 45 64 69 74 40 40 00 00 00 00 00  .?AVCEdit@@.....
  464020 e4 41 45 00 00 00 00 00 2e 3f 41 56 43 53 63 72  .AE......?AVCScr
  464030 6f 6c 6c 42 61 72 40 40 00 00 00 00 00 00 00 00  ollBar@@........
  464040 e4 41 45 00 00 00 00 00 2e 3f 41 56 43 44 43 40  .AE......?AVCDC@
  464050 40 00 00 00 00 00 00 00 e4 41 45 00 00 00 00 00  @........AE.....
  464060 2e 3f 41 56 43 43 6c 69 65 6e 74 44 43 40 40 00  .?AVCClientDC@@.
  464070 e4 41 45 00 00 00 00 00 2e 3f 41 56 43 57 69 6e  .AE......?AVCWin
  464080 64 6f 77 44 43 40 40 00 e4 41 45 00 00 00 00 00  dowDC@@..AE.....
  464090 2e 3f 41 56 43 50 61 69 6e 74 44 43 40 40 00 00  .?AVCPaintDC@@..
  4640a0 e4 41 45 00 00 00 00 00 2e 3f 41 56 43 47 64 69  .AE......?AVCGdi
  4640b0 4f 62 6a 65 63 74 40 40 00 00 00 00 00 00 00 00  Object@@........
  4640c0 e4 41 45 00 00 00 00 00 2e 3f 41 56 43 50 65 6e  .AE......?AVCPen
  4640d0 40 40 00 00 00 00 00 00 e4 41 45 00 00 00 00 00  @@.......AE.....
  4640e0 2e 3f 41 56 43 42 72 75 73 68 40 40 00 00 00 00  .?AVCBrush@@....
  4640f0 e4 41 45 00 00 00 00 00 2e 3f 41 56 43 54 65 6d  .AE......?AVCTem
  464100 70 44 43 40 40 00 00 00 e4 41 45 00 00 00 00 00  pDC@@....AE.....
  464110 2e 3f 41 56 43 54 65 6d 70 47 64 69 4f 62 6a 65  .?AVCTempGdiObje
  464120 63 74 40 40 00 00 00 00 e4 41 45 00 00 00 00 00  ct@@.....AE.....
  464130 2e 50 41 58 00 00 00 00 e4 41 45 00 00 00 00 00  .PAX.....AE.....
  464140 2e 50 41 56 43 4f 62 6a 65 63 74 40 40 00 00 00  .PAVCObject@@...
  464150 e4 41 45 00 00 00 00 00 2e 50 41 56 43 53 69 6d  .AE......PAVCSim
  464160 70 6c 65 45 78 63 65 70 74 69 6f 6e 40 40 00 00  pleException@@..
  464170 e4 41 45 00 00 00 00 00 2e 50 41 56 43 52 65 73  .AE......PAVCRes
  464180 6f 75 72 63 65 45 78 63 65 70 74 69 6f 6e 40 40  ourceException@@
  464190 00 00 00 00 00 00 00 00 e4 41 45 00 00 00 00 00  .........AE.....
  4641a0 2e 3f 41 56 43 45 78 63 65 70 74 69 6f 6e 40 40  .?AVCException@@
  4641b0 00 00 00 00 00 00 00 00 e4 41 45 00 00 00 00 00  .........AE.....
  4641c0 2e 3f 41 56 43 53 69 6d 70 6c 65 45 78 63 65 70  .?AVCSimpleExcep
  4641d0 74 69 6f 6e 40 40 00 00 e4 41 45 00 00 00 00 00  tion@@...AE.....
  4641e0 2e 3f 41 56 43 52 65 73 6f 75 72 63 65 45 78 63  .?AVCResourceExc
  4641f0 65 70 74 69 6f 6e 40 40 00 00 00 00 00 00 00 00  eption@@........
  464200 e4 41 45 00 00 00 00 00 2e 3f 41 56 43 55 73 65  .AE......?AVCUse
  464210 72 45 78 63 65 70 74 69 6f 6e 40 40 00 00 00 00  rException@@....
  464220 34 42 46 00 28 42 46 00 ff ff ff ff 00 00 00 00  4BF.(BF.........
  464230 00 00 00 00 00 00 00 00 a2 9c 43 00 00 00 00 00  ..........C.....
  464240 e4 41 45 00 00 00 00 00 2e 3f 41 56 43 52 67 6e  .AE......?AVCRgn
  464250 40 40 00 00 00 00 00 00 e4 41 45 00 00 00 00 00  @@.......AE.....
  464260 2e 3f 41 56 43 46 72 61 6d 65 57 6e 64 40 40 00  .?AVCFrameWnd@@.
  464270 01 00 00 00 00 00 00 00 e4 41 45 00 00 00 00 00  .........AE.....
  464280 2e 3f 41 56 5f 41 46 58 5f 57 49 4e 5f 53 54 41  .?AV_AFX_WIN_STA
  464290 54 45 40 40 00 00 00 00 e4 41 45 00 00 00 00 00  TE@@.....AE.....
  4642a0 2e 3f 41 56 43 57 69 6e 54 68 72 65 61 64 40 40  .?AVCWinThread@@
  4642b0 00 00 00 00 00 00 00 00 e4 41 45 00 00 00 00 00  .........AE.....
  4642c0 2e 3f 41 56 43 57 69 6e 41 70 70 40 40 00 00 00  .?AVCWinApp@@...
  4642d0 e4 41 45 00 00 00 00 00 2e 3f 41 56 43 43 6f 6d  .AE......?AVCCom
  4642e0 6d 61 6e 64 4c 69 6e 65 49 6e 66 6f 40 40 00 00  mandLineInfo@@..
  4642f0 e4 41 45 00 00 00 00 00 2e 3f 41 56 5f 41 46 58  .AE......?AV_AFX
  464300 5f 43 54 4c 33 44 5f 54 48 52 45 41 44 40 40 00  _CTL3D_THREAD@@.
  464310 e4 41 45 00 00 00 00 00 2e 3f 41 56 43 44 6f 63  .AE......?AVCDoc
  464320 54 65 6d 70 6c 61 74 65 40 40 00 00 00 00 00 00  Template@@......
  464330 e4 41 45 00 00 00 00 00 2e 3f 41 56 43 53 69 6e  .AE......?AVCSin
  464340 67 6c 65 44 6f 63 54 65 6d 70 6c 61 74 65 40 40  gleDocTemplate@@
  464350 00 00 00 00 00 00 00 00 e4 41 45 00 00 00 00 00  .........AE.....
  464360 2e 3f 41 56 5f 41 46 58 5f 54 48 52 45 41 44 5f  .?AV_AFX_THREAD_
  464370 53 54 41 54 45 40 40 00 e4 41 45 00 00 00 00 00  STATE@@..AE.....
  464380 2e 3f 41 56 41 46 58 5f 4d 4f 44 55 4c 45 5f 53  .?AVAFX_MODULE_S
  464390 54 41 54 45 40 40 00 00 e4 41 45 00 00 00 00 00  TATE@@...AE.....
  4643a0 2e 3f 41 56 41 46 58 5f 4d 4f 44 55 4c 45 5f 54  .?AVAFX_MODULE_T
  4643b0 48 52 45 41 44 5f 53 54 41 54 45 40 40 00 00 00  HREAD_STATE@@...
  4643c0 e4 41 45 00 00 00 00 00 2e 3f 41 56 5f 41 46 58  .AE......?AV_AFX
  4643d0 5f 42 41 53 45 5f 4d 4f 44 55 4c 45 5f 53 54 41  _BASE_MODULE_STA
  4643e0 54 45 40 40 00 00 00 00 e4 41 45 00 00 00 00 00  TE@@.....AE.....
  4643f0 2e 3f 41 56 43 46 69 6c 65 40 40 00 00 00 00 00  .?AVCFile@@.....
  464400 e4 41 45 00 00 00 00 00 2e 3f 41 56 43 4d 69 72  .AE......?AVCMir
  464410 72 6f 72 46 69 6c 65 40 40 00 00 00 00 00 00 00  rorFile@@.......
  464420 e4 41 45 00 00 00 00 00 2e 3f 41 56 43 46 69 6c  .AE......?AVCFil
  464430 65 45 78 63 65 70 74 69 6f 6e 40 40 00 00 00 00  eException@@....
  464440 e4 41 45 00 00 00 00 00 2e 3f 41 56 43 43 6f 6d  .AE......?AVCCom
  464450 6d 6f 6e 44 69 61 6c 6f 67 40 40 00 00 00 00 00  monDialog@@.....
  464460 e4 41 45 00 00 00 00 00 2e 3f 41 56 43 46 69 6c  .AE......?AVCFil
  464470 65 44 69 61 6c 6f 67 40 40 00 00 00 00 00 00 00  eDialog@@.......
  464480 e4 41 45 00 00 00 00 00 2e 3f 41 56 43 56 69 65  .AE......?AVCVie
  464490 77 40 40 00 00 00 00 00 e4 41 45 00 00 00 00 00  w@@......AE.....
  4644a0 2e 3f 41 56 43 53 63 72 6f 6c 6c 56 69 65 77 40  .?AVCScrollView@
  4644b0 40 00 00 00 00 00 00 00 e4 41 45 00 00 00 00 00  @........AE.....
  4644c0 2e 3f 41 56 43 46 6f 72 6d 56 69 65 77 40 40 00  .?AVCFormView@@.
  4644d0 e4 41 45 00 00 00 00 00 2e 3f 41 56 43 44 72 61  .AE......?AVCDra
  4644e0 67 4c 69 73 74 42 6f 78 40 40 00 00 00 00 00 00  gListBox@@......
  4644f0 e4 41 45 00 00 00 00 00 2e 3f 41 56 43 54 6f 6f  .AE......?AVCToo
  464500 6c 42 61 72 43 74 72 6c 40 40 00 00 00 00 00 00  lBarCtrl@@......
  464510 e4 41 45 00 00 00 00 00 2e 3f 41 56 43 53 74 61  .AE......?AVCSta
  464520 74 75 73 42 61 72 43 74 72 6c 40 40 00 00 00 00  tusBarCtrl@@....
  464530 e4 41 45 00 00 00 00 00 2e 3f 41 56 43 4c 69 73  .AE......?AVCLis
  464540 74 43 74 72 6c 40 40 00 e4 41 45 00 00 00 00 00  tCtrl@@..AE.....
  464550 2e 3f 41 56 43 54 72 65 65 43 74 72 6c 40 40 00  .?AVCTreeCtrl@@.
  464560 e4 41 45 00 00 00 00 00 2e 3f 41 56 43 53 70 69  .AE......?AVCSpi
  464570 6e 42 75 74 74 6f 6e 43 74 72 6c 40 40 00 00 00  nButtonCtrl@@...
  464580 e4 41 45 00 00 00 00 00 2e 3f 41 56 43 53 6c 69  .AE......?AVCSli
  464590 64 65 72 43 74 72 6c 40 40 00 00 00 00 00 00 00  derCtrl@@.......
  4645a0 e4 41 45 00 00 00 00 00 2e 3f 41 56 43 50 72 6f  .AE......?AVCPro
  4645b0 67 72 65 73 73 43 74 72 6c 40 40 00 00 00 00 00  gressCtrl@@.....
  4645c0 e4 41 45 00 00 00 00 00 2e 3f 41 56 43 48 65 61  .AE......?AVCHea
  4645d0 64 65 72 43 74 72 6c 40 40 00 00 00 00 00 00 00  derCtrl@@.......
  4645e0 e4 41 45 00 00 00 00 00 2e 3f 41 56 43 48 6f 74  .AE......?AVCHot
  4645f0 4b 65 79 43 74 72 6c 40 40 00 00 00 00 00 00 00  KeyCtrl@@.......
  464600 e4 41 45 00 00 00 00 00 2e 3f 41 56 43 54 61 62  .AE......?AVCTab
  464610 43 74 72 6c 40 40 00 00 e4 41 45 00 00 00 00 00  Ctrl@@...AE.....
  464620 2e 3f 41 56 43 41 6e 69 6d 61 74 65 43 74 72 6c  .?AVCAnimateCtrl
  464630 40 40 00 00 00 00 00 00 e4 41 45 00 00 00 00 00  @@.......AE.....
  464640 2e 3f 41 56 43 52 69 63 68 45 64 69 74 43 74 72  .?AVCRichEditCtr
  464650 6c 40 40 00 00 00 00 00 e4 41 45 00 00 00 00 00  l@@......AE.....
  464660 2e 3f 41 56 43 49 6d 61 67 65 4c 69 73 74 40 40  .?AVCImageList@@
  464670 00 00 00 00 00 00 00 00 e4 41 45 00 00 00 00 00  .........AE.....
  464680 2e 3f 41 56 43 54 65 6d 70 49 6d 61 67 65 4c 69  .?AVCTempImageLi
  464690 73 74 40 40 00 00 00 00 e4 41 45 00 00 00 00 00  st@@.....AE.....
  4646a0 2e 3f 41 56 43 4d 65 6e 75 40 40 00 00 00 00 00  .?AVCMenu@@.....
  4646b0 e4 41 45 00 00 00 00 00 2e 3f 41 56 43 54 65 6d  .AE......?AVCTem
  4646c0 70 4d 65 6e 75 40 40 00 10 59 2f b6 28 65 d1 11  pMenu@@..Y/.(e..
  4646d0 96 11 00 00 f8 1e 0d 0d e4 41 45 00 00 00 00 00  .........AE.....
  4646e0 2e 50 41 56 43 4d 65 6d 6f 72 79 45 78 63 65 70  .PAVCMemoryExcep
  4646f0 74 69 6f 6e 40 40 00 00 e4 41 45 00 00 00 00 00  tion@@...AE.....
  464700 2e 50 41 56 43 4e 6f 74 53 75 70 70 6f 72 74 65  .PAVCNotSupporte
  464710 64 45 78 63 65 70 74 69 6f 6e 40 40 00 00 00 00  dException@@....
  464720 e4 41 45 00 00 00 00 00 2e 3f 41 56 43 4d 65 6d  .AE......?AVCMem
  464730 6f 72 79 45 78 63 65 70 74 69 6f 6e 40 40 00 00  oryException@@..
  464740 e4 41 45 00 00 00 00 00 2e 3f 41 56 43 4e 6f 74  .AE......?AVCNot
  464750 53 75 70 70 6f 72 74 65 64 45 78 63 65 70 74 69  SupportedExcepti
  464760 6f 6e 40 40 00 00 00 00 e4 41 45 00 00 00 00 00  on@@.....AE.....
  464770 2e 3f 41 55 43 54 68 72 65 61 64 44 61 74 61 40  .?AUCThreadData@
  464780 40 00 00 00 00 00 00 00 e4 41 45 00 00 00 00 00  @........AE.....
  464790 2e 3f 41 56 43 48 61 6e 64 6c 65 4d 61 70 40 40  .?AVCHandleMap@@
  4647a0 00 00 00 00 00 00 00 00 e4 41 45 00 00 00 00 00  .........AE.....
  4647b0 2e 3f 41 56 43 4d 61 70 50 74 72 54 6f 50 74 72  .?AVCMapPtrToPtr
  4647c0 40 40 00 00 00 00 00 00 e4 41 45 00 00 00 00 00  @@.......AE.....
  4647d0 2e 3f 41 56 43 44 6f 63 4d 61 6e 61 67 65 72 40  .?AVCDocManager@
  4647e0 40 00 00 00 00 00 00 00 e4 41 45 00 00 00 00 00  @........AE.....
  4647f0 2e 3f 41 56 43 4e 65 77 54 79 70 65 44 6c 67 40  .?AVCNewTypeDlg@
  464800 40 00 00 00 00 00 00 00 e4 41 45 00 00 00 00 00  @........AE.....
  464810 2e 3f 41 56 43 50 74 72 4c 69 73 74 40 40 00 00  .?AVCPtrList@@..
  464820 e4 41 45 00 00 00 00 00 2e 3f 41 56 43 52 65 63  .AE......?AVCRec
  464830 65 6e 74 46 69 6c 65 4c 69 73 74 40 40 00 00 00  entFileList@@...
  464840 e4 41 45 00 00 00 00 00 2e 50 41 56 43 46 69 6c  .AE......PAVCFil
  464850 65 45 78 63 65 70 74 69 6f 6e 40 40 00 00 00 00  eException@@....
  464860 e4 41 45 00 00 00 00 00 2e 3f 41 56 43 41 72 63  .AE......?AVCArc
  464870 68 69 76 65 45 78 63 65 70 74 69 6f 6e 40 40 00  hiveException@@.
  464880 e4 41 45 00 00 00 00 00 2e 50 41 56 43 41 72 63  .AE......PAVCArc
  464890 68 69 76 65 45 78 63 65 70 74 69 6f 6e 40 40 00  hiveException@@.
  4648a0 e4 41 45 00 00 00 00 00 2e 3f 41 55 49 55 6e 6b  .AE......?AUIUnk
  4648b0 6e 6f 77 6e 40 40 00 00 e4 41 45 00 00 00 00 00  nown@@...AE.....
  4648c0 2e 3f 41 55 49 53 65 71 75 65 6e 74 69 61 6c 53  .?AUISequentialS
  4648d0 74 72 65 61 6d 40 40 00 e4 41 45 00 00 00 00 00  tream@@..AE.....
  4648e0 2e 3f 41 55 49 53 74 72 65 61 6d 40 40 00 00 00  .?AUIStream@@...
  4648f0 e4 41 45 00 00 00 00 00 2e 3f 41 56 43 41 72 63  .AE......?AVCArc
  464900 68 69 76 65 53 74 72 65 61 6d 40 40 00 00 00 00  hiveStream@@....
  464910 20 05 93 19 00 00 00 00 00 00 00 00 00 00 00 00   ...............
  464920 e4 41 45 00 00 00 00 00 2e 3f 41 56 74 79 70 65  .AE......?AVtype
  464930 5f 69 6e 66 6f 40 40 00 ac 41 41 00 00 00 00 00  _info@@..AA.....
  464940 01 00 00 00 16 00 00 00 02 00 00 00 02 00 00 00  ................
  464950 03 00 00 00 02 00 00 00 04 00 00 00 18 00 00 00  ................
  464960 05 00 00 00 0d 00 00 00 06 00 00 00 09 00 00 00  ................
  464970 07 00 00 00 0c 00 00 00 08 00 00 00 0c 00 00 00  ................
  464980 09 00 00 00 0c 00 00 00 0a 00 00 00 07 00 00 00  ................
  464990 0b 00 00 00 08 00 00 00 0c 00 00 00 16 00 00 00  ................
  4649a0 0d 00 00 00 16 00 00 00 0f 00 00 00 02 00 00 00  ................
  4649b0 10 00 00 00 0d 00 00 00 11 00 00 00 12 00 00 00  ................
  4649c0 12 00 00 00 02 00 00 00 21 00 00 00 0d 00 00 00  ........!.......
  4649d0 35 00 00 00 02 00 00 00 41 00 00 00 0d 00 00 00  5.......A.......
  4649e0 43 00 00 00 02 00 00 00 50 00 00 00 11 00 00 00  C.......P.......
  4649f0 52 00 00 00 0d 00 00 00 53 00 00 00 0d 00 00 00  R.......S.......
  464a00 57 00 00 00 16 00 00 00 59 00 00 00 0b 00 00 00  W.......Y.......
  464a10 6c 00 00 00 0d 00 00 00 6d 00 00 00 20 00 00 00  l.......m... ...
  464a20 70 00 00 00 1c 00 00 00 72 00 00 00 09 00 00 00  p.......r.......
  464a30 06 00 00 00 16 00 00 00 80 00 00 00 0a 00 00 00  ................
  464a40 81 00 00 00 0a 00 00 00 82 00 00 00 09 00 00 00  ................
  464a50 83 00 00 00 16 00 00 00 84 00 00 00 0d 00 00 00  ................
  464a60 91 00 00 00 29 00 00 00 9e 00 00 00 0d 00 00 00  ....)...........
  464a70 a1 00 00 00 02 00 00 00 a4 00 00 00 0b 00 00 00  ................
  464a80 a7 00 00 00 0d 00 00 00 b7 00 00 00 11 00 00 00  ................
  464a90 ce 00 00 00 02 00 00 00 d7 00 00 00 0b 00 00 00  ................
  464aa0 18 07 00 00 0c 00 00 00 75 98 00 00 73 98 00 00  ........u...s...
  464ab0 5c 02 41 00 73 02 41 00 73 02 41 00 00 00 00 00  \.A.s.A.s.A.....
  464ac0 2e 00 00 00 00 00 00 00 c0 4a 46 00 60 ad 46 00  .........JF.`.F.
  464ad0 60 ad 46 00 60 ad 46 00 60 ad 46 00 60 ad 46 00  `.F.`.F.`.F.`.F.
  464ae0 60 ad 46 00 60 ad 46 00 60 ad 46 00 60 ad 46 00  `.F.`.F.`.F.`.F.
  464af0 7f 7f 7f 7f 7f 7f 7f 7f c8 4a 46 00 ec 0a 41 00  .........JF...A.
  464b00 02 00 00 00 00 00 00 00 00 00 00 00 00 00 00 00  ................
  464b10 01 02 04 08 00 00 00 00 a4 03 00 00 60 82 79 82  ............`.y.
  464b20 21 00 00 00 00 00 00 00 a6 df 00 00 00 00 00 00  !...............
  464b30 a1 a5 00 00 00 00 00 00 81 9f e0 fc 00 00 00 00  ................
  464b40 40 7e 80 fc 00 00 00 00 a8 03 00 00 c1 a3 da a3  @~..............
  464b50 20 00 00 00 00 00 00 00 00 00 00 00 00 00 00 00   ...............
  464b60 00 00 00 00 00 00 00 00 81 fe 00 00 00 00 00 00  ................
  464b70 40 fe 00 00 00 00 00 00 b5 03 00 00 c1 a3 da a3  @...............
  464b80 20 00 00 00 00 00 00 00 00 00 00 00 00 00 00 00   ...............
  464b90 00 00 00 00 00 00 00 00 81 fe 00 00 00 00 00 00  ................
  464ba0 41 fe 00 00 00 00 00 00 b6 03 00 00 cf a2 e4 a2  A...............
  464bb0 1a 00 e5 a2 e8 a2 5b 00 00 00 00 00 00 00 00 00  ......[.........
  464bc0 00 00 00 00 00 00 00 00 81 fe 00 00 00 00 00 00  ................
  464bd0 40 7e a1 fe 00 00 00 00 51 05 00 00 51 da 5e da  @~......Q...Q.^.
  464be0 20 00 5f da 6a da 32 00 00 00 00 00 00 00 00 00   ._.j.2.........
  464bf0 00 00 00 00 00 00 00 00 81 d3 d8 de e0 f9 00 00  ................
  464c00 31 7e 81 fe 00 00 00 00 10 4c 46 00 00 00 00 00  1~.......LF.....
  464c10 d4 43 45 00 d0 43 45 00 cc 43 45 00 c8 43 45 00  .CE..CE..CE..CE.
  464c20 c4 43 45 00 c0 43 45 00 bc 43 45 00 b4 43 45 00  .CE..CE..CE..CE.
  464c30 ac 43 45 00 a4 43 45 00 98 43 45 00 8c 43 45 00  .CE..CE..CE..CE.
  464c40 84 43 45 00 78 43 45 00 74 43 45 00 70 43 45 00  .CE.xCE.tCE.pCE.
  464c50 6c 43 45 00 68 43 45 00 64 43 45 00 60 43 45 00  lCE.hCE.dCE.`CE.
  464c60 5c 43 45 00 58 43 45 00 54 43 45 00 50 43 45 00  \CE.XCE.TCE.PCE.
  464c70 4c 43 45 00 48 43 45 00 40 43 45 00 34 43 45 00  LCE.HCE.@CE.4CE.
  464c80 2c 43 45 00 24 43 45 00 64 43 45 00 1c 43 45 00  ,CE.$CE.dCE..CE.
  464c90 14 43 45 00 0c 43 45 00 00 43 45 00 f8 42 45 00  .CE..CE..CE..BE.
  464ca0 ec 42 45 00 e0 42 45 00 dc 42 45 00 d8 42 45 00  .BE..BE..BE..BE.
  464cb0 d0 42 45 00 bc 42 45 00 b4 42 45 00 ac 41 41 00  .BE..BE..BE..AA.
  464cc0 ff ff ff ff 14 37 41 00 00 00 00 00 f8 ad 46 00  .....7A.......F.
  464cd0 00 00 00 00 00 00 00 00 00 00 00 00 00 00 00 00  ................
  464ce0 00 00 00 00 00 00 00 00 00 00 00 00 28 ae 46 00  ............(.F.
  464cf0 00 00 00 00 00 00 00 00 00 00 00 00 40 ae 46 00  ............@.F.
  464d00 00 00 00 00 00 00 00 00 00 00 00 00 10 ae 46 00  ..............F.
  464d10 00 00 00 00 00 00 00 00 00 00 00 00 00 00 00 00  ................
  464d20 00 00 00 00 00 00 00 00 00 00 00 00 00 00 00 00  ................
  464d30 00 00 00 00 00 00 00 00 00 00 00 00 00 00 00 00  ................
  464d40 00 00 00 00 00 00 00 00 00 00 00 00 00 00 00 00  ................
  464d50 00 00 00 00 00 00 00 00 00 00 00 00 00 00 00 00  ................
  464d60 00 00 00 00 00 00 00 00 00 00 00 00 00 00 00 00  ................
  464d70 00 00 00 00 00 00 00 00 00 00 00 00 00 00 00 00  ................
  464d80 00 00 00 00 00 00 00 00 00 00 00 00 00 00 00 00  ................
  464d90 9a 4d 46 00 9a 4d 46 00 00 00 20 00 20 00 20 00  .MF..MF... . . .
  464da0 20 00 20 00 20 00 20 00 20 00 20 00 28 00 28 00   . . . . . .(.(.
  464db0 28 00 28 00 28 00 20 00 20 00 20 00 20 00 20 00  (.(.(. . . . . .
  464dc0 20 00 20 00 20 00 20 00 20 00 20 00 20 00 20 00   . . . . . . . .
  464dd0 20 00 20 00 20 00 20 00 20 00 48 00 10 00 10 00   . . . . .H.....
  464de0 10 00 10 00 10 00 10 00 10 00 10 00 10 00 10 00  ................
  464df0 10 00 10 00 10 00 10 00 10 00 84 00 84 00 84 00  ................
  464e00 84 00 84 00 84 00 84 00 84 00 84 00 84 00 10 00  ................
  464e10 10 00 10 00 10 00 10 00 10 00 10 00 81 00 81 00  ................
  464e20 81 00 81 00 81 00 81 00 01 00 01 00 01 00 01 00  ................
  464e30 01 00 01 00 01 00 01 00 01 00 01 00 01 00 01 00  ................
  464e40 01 00 01 00 01 00 01 00 01 00 01 00 01 00 01 00  ................
  464e50 10 00 10 00 10 00 10 00 10 00 10 00 82 00 82 00  ................
  464e60 82 00 82 00 82 00 82 00 02 00 02 00 02 00 02 00  ................
  464e70 02 00 02 00 02 00 02 00 02 00 02 00 02 00 02 00  ................
  464e80 02 00 02 00 02 00 02 00 02 00 02 00 02 00 02 00  ................
  464e90 10 00 10 00 10 00 10 00 20 00 00 00 00 00 00 00  ........ .......
  464ea0 00 00 00 00 00 00 00 00 00 00 00 00 00 00 00 00  ................
  464eb0 00 00 00 00 00 00 00 00 00 00 00 00 00 00 00 00  ................
  464ec0 00 00 00 00 00 00 00 00 00 00 00 00 00 00 00 00  ................
  464ed0 00 00 00 00 00 00 00 00 00 00 00 00 00 00 00 00  ................
  464ee0 00 00 00 00 00 00 00 00 00 00 00 00 00 00 00 00  ................
  464ef0 00 00 00 00 00 00 00 00 00 00 00 00 00 00 00 00  ................
  464f00 00 00 00 00 00 00 00 00 00 00 00 00 00 00 00 00  ................
  464f10 00 00 00 00 00 00 00 00 00 00 00 00 00 00 00 00  ................
  464f20 00 00 00 00 00 00 00 00 00 00 00 00 00 00 00 00  ................
  464f30 00 00 00 00 00 00 00 00 00 00 00 00 00 00 00 00  ................
  464f40 00 00 00 00 00 00 00 00 00 00 00 00 00 00 00 00  ................
  464f50 00 00 00 00 00 00 00 00 00 00 00 00 00 00 00 00  ................
  464f60 00 00 00 00 00 00 00 00 00 00 00 00 00 00 00 00  ................
  464f70 00 00 00 00 00 00 00 00 00 00 00 00 00 00 00 00  ................
  464f80 00 00 00 00 00 00 00 00 00 00 00 00 00 00 00 00  ................
  464f90 00 00 00 00 00 00 00 00 00 00 00 00 01 00 00 00  ................
  464fa0 2e 00 00 00 01 00 00 00 2a 92 41 00 2a 92 41 00  ........*.A.*.A.
  464fb0 2a 92 41 00 2a 92 41 00 2a 92 41 00 2a 92 41 00  *.A.*.A.*.A.*.A.
  464fc0 10 00 00 00 00 00 00 00 c8 4f 46 00 c8 4f 46 00  .........OF..OF.
  464fd0 e0 4f 46 00 e0 4f 46 00 ff ff ff ff ff ff ff ff  .OF..OF.........
  464fe0 f0 00 00 00 f1 00 00 00 00 00 00 00 00 00 00 00  ................
  464ff0 00 00 00 00 00 00 00 00 00 00 00 00 00 00 00 00  ................
  465000 00 00 00 00 00 00 00 00 00 00 00 00 00 00 00 00  ................
  465010 00 00 00 00 00 00 00 00 00 00 00 00 00 00 00 00  ................
  465020 00 00 00 00 00 00 00 00 00 00 00 00 00 00 00 00  ................
  465030 00 00 00 00 00 00 00 00 00 00 00 00 00 00 00 00  ................
  465040 00 00 00 00 00 00 00 00 00 00 00 00 00 00 00 00  ................
  465050 00 00 00 00 00 00 00 00 00 00 00 00 00 00 00 00  ................
  465060 00 00 00 00 00 00 00 00 00 00 00 00 00 00 00 00  ................
  465070 00 00 00 00 00 00 00 00 00 00 00 00 00 00 00 00  ................
  465080 00 00 00 00 00 00 00 00 00 00 00 00 00 00 00 00  ................
  465090 00 00 00 00 00 00 00 00 00 00 00 00 00 00 00 00  ................
  4650a0 00 00 00 00 00 00 00 00 00 00 00 00 00 00 00 00  ................
  4650b0 00 00 00 00 00 00 00 00 00 00 00 00 00 00 00 00  ................
  4650c0 00 00 00 00 00 00 00 00 00 00 00 00 00 00 00 00  ................
  4650d0 00 00 00 00 00 00 00 00 00 00 00 00 00 00 00 00  ................
  4650e0 00 00 00 00 00 00 00 00 00 00 00 00 00 00 00 00  ................
  4650f0 00 00 00 00 00 00 00 00 00 00 00 00 00 00 00 00  ................
  465100 00 00 00 00 00 00 00 00 00 00 00 00 00 00 00 00  ................
  465110 00 00 00 00 00 00 00 00 00 00 00 00 00 00 00 00  ................
  465120 00 00 00 00 00 00 00 00 00 00 00 00 00 00 00 00  ................
  465130 00 00 00 00 00 00 00 00 00 00 00 00 00 00 00 00  ................
  465140 00 00 00 00 00 00 00 00 00 00 00 00 00 00 00 00  ................
  465150 00 00 00 00 00 00 00 00 00 00 00 00 00 00 00 00  ................
  465160 00 00 00 00 00 00 00 00 00 00 00 00 00 00 00 00  ................
  465170 00 00 00 00 00 00 00 00 00 00 00 00 00 00 00 00  ................
  465180 00 00 00 00 00 00 00 00 00 00 00 00 00 00 00 00  ................
  465190 00 00 00 00 00 00 00 00 00 00 00 00 00 00 00 00  ................
  4651a0 00 00 00 00 00 00 00 00 00 00 00 00 00 00 00 00  ................
  4651b0 00 00 00 00 00 00 00 00 00 00 00 00 00 00 00 00  ................
  4651c0 00 00 00 00 00 00 00 00 00 00 00 00 00 00 00 00  ................
  4651d0 00 00 00 00 00 00 00 00 00 00 00 00 00 00 00 00  ................
  4651e0 00 00 00 00 00 00 00 00 00 00 00 00 00 00 00 00  ................
  4651f0 00 00 00 00 00 00 00 00 00 00 00 00 00 00 00 00  ................
  465200 00 00 00 00 00 00 00 00 00 00 00 00 00 00 00 00  ................
  465210 00 00 00 00 00 00 00 00 00 00 00 00 00 00 00 00  ................
  465220 00 00 00 00 00 00 00 00 00 00 00 00 00 00 00 00  ................
  465230 00 00 00 00 00 00 00 00 00 00 00 00 00 00 00 00  ................
  465240 00 00 00 00 00 00 00 00 00 00 00 00 00 00 00 00  ................
  465250 00 00 00 00 00 00 00 00 00 00 00 00 00 00 00 00  ................
  465260 00 00 00 00 00 00 00 00 00 00 00 00 00 00 00 00  ................
  465270 00 00 00 00 00 00 00 00 00 00 00 00 00 00 00 00  ................
  465280 00 00 00 00 00 00 00 00 00 00 00 00 00 00 00 00  ................
  465290 00 00 00 00 00 00 00 00 00 00 00 00 00 00 00 00  ................
  4652a0 00 00 00 00 00 00 00 00 00 00 00 00 00 00 00 00  ................
  4652b0 00 00 00 00 00 00 00 00 00 00 00 00 00 00 00 00  ................
  4652c0 00 00 00 00 00 00 00 00 00 00 00 00 00 00 00 00  ................
  4652d0 00 00 00 00 00 00 00 00 00 00 00 00 00 00 00 00  ................
  4652e0 00 00 00 00 00 00 00 00 00 00 00 00 00 00 00 00  ................
  4652f0 00 00 00 00 00 00 00 00 00 00 00 00 00 00 00 00  ................
  465300 00 00 00 00 00 00 00 00 00 00 00 00 00 00 00 00  ................
  465310 00 00 00 00 00 00 00 00 00 00 00 00 00 00 00 00  ................
  465320 00 00 00 00 00 00 00 00 00 00 00 00 00 00 00 00  ................
  465330 00 00 00 00 00 00 00 00 00 00 00 00 00 00 00 00  ................
  465340 00 00 00 00 00 00 00 00 00 00 00 00 00 00 00 00  ................
  465350 00 00 00 00 00 00 00 00 00 00 00 00 00 00 00 00  ................
  465360 00 00 00 00 00 00 00 00 00 00 00 00 00 00 00 00  ................
  465370 00 00 00 00 00 00 00 00 00 00 00 00 00 00 00 00  ................
  465380 00 00 00 00 00 00 00 00 00 00 00 00 00 00 00 00  ................
  465390 00 00 00 00 00 00 00 00 00 00 00 00 00 00 00 00  ................
  4653a0 00 00 00 00 00 00 00 00 00 00 00 00 00 00 00 00  ................
  4653b0 00 00 00 00 00 00 00 00 00 00 00 00 00 00 00 00  ................
  4653c0 00 00 00 00 00 00 00 00 00 00 00 00 00 00 00 00  ................
  4653d0 00 00 00 00 00 00 00 00 00 00 00 00 00 00 00 00  ................
  4653e0 00 00 00 00 00 00 00 00 00 00 00 00 00 00 00 00  ................
  4653f0 00 00 00 00 00 00 00 00 00 00 00 00 00 00 00 00  ................
  465400 00 00 00 00 00 00 00 00 00 00 00 00 00 00 00 00  ................
  465410 00 00 00 00 00 00 00 00 00 00 00 00 00 00 00 00  ................
  465420 00 00 00 00 00 00 00 00 00 00 00 00 00 00 00 00  ................
  465430 00 00 00 00 00 00 00 00 00 00 00 00 00 00 00 00  ................
  465440 00 00 00 00 00 00 00 00 00 00 00 00 00 00 00 00  ................
  465450 00 00 00 00 00 00 00 00 00 00 00 00 00 00 00 00  ................
  465460 00 00 00 00 00 00 00 00 00 00 00 00 00 00 00 00  ................
  465470 00 00 00 00 00 00 00 00 00 00 00 00 00 00 00 00  ................
  465480 00 00 00 00 00 00 00 00 00 00 00 00 00 00 00 00  ................
  465490 00 00 00 00 00 00 00 00 00 00 00 00 00 00 00 00  ................
  4654a0 00 00 00 00 00 00 00 00 00 00 00 00 00 00 00 00  ................
  4654b0 00 00 00 00 00 00 00 00 00 00 00 00 00 00 00 00  ................
  4654c0 00 00 00 00 00 00 00 00 00 00 00 00 00 00 00 00  ................
  4654d0 00 00 00 00 00 00 00 00 00 00 00 00 00 00 00 00  ................
  4654e0 00 00 00 00 00 00 00 00 00 00 00 00 00 00 00 00  ................
  4654f0 00 00 00 00 00 00 00 00 00 00 00 00 00 00 00 00  ................
  465500 00 00 00 00 00 00 00 00 00 00 00 00 00 00 00 00  ................
  465510 00 00 00 00 00 00 00 00 00 00 00 00 00 00 00 00  ................
  465520 00 00 00 00 00 00 00 00 00 00 00 00 00 00 00 00  ................
  465530 00 00 00 00 00 00 00 00 00 00 00 00 00 00 00 00  ................
  465540 00 00 00 00 00 00 00 00 00 00 00 00 00 00 00 00  ................
  465550 00 00 00 00 00 00 00 00 00 00 00 00 00 00 00 00  ................
  465560 00 00 00 00 00 00 00 00 00 00 00 00 00 00 00 00  ................
  465570 00 00 00 00 00 00 00 00 00 00 00 00 00 00 00 00  ................
  465580 00 00 00 00 00 00 00 00 00 00 00 00 00 00 00 00  ................
  465590 00 00 00 00 00 00 00 00 00 00 00 00 00 00 00 00  ................
  4655a0 00 00 00 00 00 00 00 00 00 00 00 00 00 00 00 00  ................
  4655b0 00 00 00 00 00 00 00 00 00 00 00 00 00 00 00 00  ................
  4655c0 00 00 00 00 00 00 00 00 00 00 00 00 00 00 00 00  ................
  4655d0 00 00 00 00 00 00 00 00 00 00 00 00 00 00 00 00  ................
  4655e0 00 00 00 00 00 00 00 00 00 00 00 00 00 00 00 00  ................
  4655f0 00 00 00 00 00 00 00 00 00 00 00 00 00 00 00 00  ................
  465600 00 00 00 00 00 00 00 00 00 00 00 00 00 00 00 00  ................
  465610 00 00 00 00 00 00 00 00 00 00 00 00 00 00 00 00  ................
  465620 00 00 00 00 00 00 00 00 00 00 00 00 00 00 00 00  ................
  465630 00 00 00 00 00 00 00 00 00 00 00 00 00 00 00 00  ................
  465640 00 00 00 00 00 00 00 00 00 00 00 00 00 00 00 00  ................
  465650 00 00 00 00 00 00 00 00 00 00 00 00 00 00 00 00  ................
  465660 00 00 00 00 00 00 00 00 00 00 00 00 00 00 00 00  ................
  465670 00 00 00 00 00 00 00 00 00 00 00 00 00 00 00 00  ................
  465680 00 00 00 00 00 00 00 00 00 00 00 00 00 00 00 00  ................
  465690 00 00 00 00 00 00 00 00 00 00 00 00 00 00 00 00  ................
  4656a0 00 00 00 00 00 00 00 00 00 00 00 00 00 00 00 00  ................
  4656b0 00 00 00 00 00 00 00 00 00 00 00 00 00 00 00 00  ................
  4656c0 00 00 00 00 00 00 00 00 00 00 00 00 00 00 00 00  ................
  4656d0 00 00 00 00 00 00 00 00 00 00 00 00 00 00 00 00  ................
  4656e0 00 00 00 00 00 00 00 00 00 00 00 00 00 00 00 00  ................
  4656f0 00 00 00 00 00 00 00 00 00 00 00 00 00 00 00 00  ................
  465700 00 00 00 00 00 00 00 00 00 00 00 00 00 00 00 00  ................
  465710 00 00 00 00 00 00 00 00 00 00 00 00 00 00 00 00  ................
  465720 00 00 00 00 00 00 00 00 00 00 00 00 00 00 00 00  ................
  465730 00 00 00 00 00 00 00 00 00 00 00 00 00 00 00 00  ................
  465740 00 00 00 00 00 00 00 00 00 00 00 00 00 00 00 00  ................
  465750 00 00 00 00 00 00 00 00 00 00 00 00 00 00 00 00  ................
  465760 00 00 00 00 00 00 00 00 00 00 00 00 00 00 00 00  ................
  465770 00 00 00 00 00 00 00 00 00 00 00 00 00 00 00 00  ................
  465780 00 00 00 00 00 00 00 00 00 00 00 00 00 00 00 00  ................
  465790 00 00 00 00 00 00 00 00 00 00 00 00 00 00 00 00  ................
  4657a0 00 00 00 00 00 00 00 00 00 00 00 00 00 00 00 00  ................
  4657b0 00 00 00 00 00 00 00 00 00 00 00 00 00 00 00 00  ................
  4657c0 00 00 00 00 00 00 00 00 00 00 00 00 00 00 00 00  ................
  4657d0 00 00 00 00 00 00 00 00 00 00 00 00 00 00 00 00  ................
  4657e0 00 00 00 00 00 00 00 00 00 00 00 00 00 00 00 00  ................
  4657f0 00 00 00 00 00 00 00 00 00 00 00 00 00 00 00 00  ................
  465800 00 00 00 00 00 00 00 00 00 00 00 00 00 00 00 00  ................
  465810 00 00 00 00 00 00 00 00 00 00 00 00 00 00 00 00  ................
  465820 00 00 00 00 00 00 00 00 00 00 00 00 00 00 00 00  ................
  465830 00 00 00 00 00 00 00 00 00 00 00 00 00 00 00 00  ................
  465840 00 00 00 00 00 00 00 00 00 00 00 00 00 00 00 00  ................
  465850 00 00 00 00 00 00 00 00 00 00 00 00 00 00 00 00  ................
  465860 00 00 00 00 00 00 00 00 00 00 00 00 00 00 00 00  ................
  465870 00 00 00 00 00 00 00 00 00 00 00 00 00 00 00 00  ................
  465880 00 00 00 00 00 00 00 00 00 00 00 00 00 00 00 00  ................
  465890 00 00 00 00 00 00 00 00 00 00 00 00 00 00 00 00  ................
  4658a0 00 00 00 00 00 00 00 00 00 00 00 00 00 00 00 00  ................
  4658b0 00 00 00 00 00 00 00 00 00 00 00 00 00 00 00 00  ................
  4658c0 00 00 00 00 00 00 00 00 00 00 00 00 00 00 00 00  ................
  4658d0 00 00 00 00 00 00 00 00 00 00 00 00 00 00 00 00  ................
  4658e0 00 00 00 00 00 00 00 00 00 00 00 00 00 00 00 00  ................
  4658f0 00 00 00 00 00 00 00 00 00 00 00 00 00 00 00 00  ................
  465900 00 00 00 00 00 00 00 00 00 00 00 00 00 00 00 00  ................
  465910 00 00 00 00 00 00 00 00 00 00 00 00 00 00 00 00  ................
  465920 00 00 00 00 00 00 00 00 00 00 00 00 00 00 00 00  ................
  465930 00 00 00 00 00 00 00 00 00 00 00 00 00 00 00 00  ................
  465940 00 00 00 00 00 00 00 00 00 00 00 00 00 00 00 00  ................
  465950 00 00 00 00 00 00 00 00 00 00 00 00 00 00 00 00  ................
  465960 00 00 00 00 00 00 00 00 00 00 00 00 00 00 00 00  ................
  465970 00 00 00 00 00 00 00 00 00 00 00 00 00 00 00 00  ................
  465980 00 00 00 00 00 00 00 00 00 00 00 00 00 00 00 00  ................
  465990 00 00 00 00 00 00 00 00 00 00 00 00 00 00 00 00  ................
  4659a0 00 00 00 00 00 00 00 00 00 00 00 00 00 00 00 00  ................
  4659b0 00 00 00 00 00 00 00 00 00 00 00 00 00 00 00 00  ................
  4659c0 00 00 00 00 00 00 00 00 00 00 00 00 00 00 00 00  ................
  4659d0 00 00 00 00 00 00 00 00 00 00 00 00 00 00 00 00  ................
  4659e0 00 00 00 00 00 00 00 00 00 00 00 00 00 00 00 00  ................
  4659f0 00 00 00 00 00 00 00 00 00 00 00 00 00 00 00 00  ................
  465a00 00 00 00 00 00 00 00 00 00 00 00 00 00 00 00 00  ................
  465a10 00 00 00 00 00 00 00 00 00 00 00 00 00 00 00 00  ................
  465a20 00 00 00 00 00 00 00 00 00 00 00 00 00 00 00 00  ................
  465a30 00 00 00 00 00 00 00 00 00 00 00 00 00 00 00 00  ................
  465a40 00 00 00 00 00 00 00 00 00 00 00 00 00 00 00 00  ................
  465a50 00 00 00 00 00 00 00 00 00 00 00 00 00 00 00 00  ................
  465a60 00 00 00 00 00 00 00 00 00 00 00 00 00 00 00 00  ................
  465a70 00 00 00 00 00 00 00 00 00 00 00 00 00 00 00 00  ................
  465a80 00 00 00 00 00 00 00 00 00 00 00 00 00 00 00 00  ................
  465a90 00 00 00 00 00 00 00 00 00 00 00 00 00 00 00 00  ................
  465aa0 00 00 00 00 00 00 00 00 00 00 00 00 00 00 00 00  ................
  465ab0 00 00 00 00 00 00 00 00 00 00 00 00 00 00 00 00  ................
  465ac0 00 00 00 00 00 00 00 00 00 00 00 00 00 00 00 00  ................
  465ad0 00 00 00 00 00 00 00 00 00 00 00 00 00 00 00 00  ................
  465ae0 00 00 00 00 00 00 00 00 00 00 00 00 00 00 00 00  ................
  465af0 00 00 00 00 00 00 00 00 00 00 00 00 00 00 00 00  ................
  465b00 00 00 00 00 00 00 00 00 00 00 00 00 00 00 00 00  ................
  465b10 00 00 00 00 00 00 00 00 00 00 00 00 00 00 00 00  ................
  465b20 00 00 00 00 00 00 00 00 00 00 00 00 00 00 00 00  ................
  465b30 00 00 00 00 00 00 00 00 00 00 00 00 00 00 00 00  ................
  465b40 00 00 00 00 00 00 00 00 00 00 00 00 00 00 00 00  ................
  465b50 00 00 00 00 00 00 00 00 00 00 00 00 00 00 00 00  ................
  465b60 00 00 00 00 00 00 00 00 00 00 00 00 00 00 00 00  ................
  465b70 00 00 00 00 00 00 00 00 00 00 00 00 00 00 00 00  ................
  465b80 00 00 00 00 00 00 00 00 00 00 00 00 00 00 00 00  ................
  465b90 00 00 00 00 00 00 00 00 00 00 00 00 00 00 00 00  ................
  465ba0 00 00 00 00 00 00 00 00 00 00 00 00 00 00 00 00  ................
  465bb0 00 00 00 00 00 00 00 00 00 00 00 00 00 00 00 00  ................
  465bc0 00 00 00 00 00 00 00 00 00 00 00 00 00 00 00 00  ................
  465bd0 00 00 00 00 00 00 00 00 00 00 00 00 00 00 00 00  ................
  465be0 00 00 00 00 00 00 00 00 00 00 00 00 00 00 00 00  ................
  465bf0 00 00 00 00 00 00 00 00 00 00 00 00 00 00 00 00  ................
  465c00 00 00 00 00 00 00 00 00 00 00 00 00 00 00 00 00  ................
  465c10 00 00 00 00 00 00 00 00 00 00 00 00 00 00 00 00  ................
  465c20 00 00 00 00 00 00 00 00 00 00 00 00 00 00 00 00  ................
  465c30 00 00 00 00 00 00 00 00 00 00 00 00 00 00 00 00  ................
  465c40 00 00 00 00 00 00 00 00 00 00 00 00 00 00 00 00  ................
  465c50 00 00 00 00 00 00 00 00 00 00 00 00 00 00 00 00  ................
  465c60 00 00 00 00 00 00 00 00 00 00 00 00 00 00 00 00  ................
  465c70 00 00 00 00 00 00 00 00 00 00 00 00 00 00 00 00  ................
  465c80 00 00 00 00 00 00 00 00 00 00 00 00 00 00 00 00  ................
  465c90 00 00 00 00 00 00 00 00 00 00 00 00 00 00 00 00  ................
  465ca0 00 00 00 00 00 00 00 00 00 00 00 00 00 00 00 00  ................
  465cb0 00 00 00 00 00 00 00 00 00 00 00 00 00 00 00 00  ................
  465cc0 00 00 00 00 00 00 00 00 00 00 00 00 00 00 00 00  ................
  465cd0 00 00 00 00 00 00 00 00 00 00 00 00 00 00 00 00  ................
  465ce0 00 00 00 00 00 00 00 00 00 00 00 00 00 00 00 00  ................
  465cf0 00 00 00 00 00 00 00 00 00 00 00 00 00 00 00 00  ................
  465d00 00 00 00 00 00 00 00 00 00 00 00 00 00 00 00 00  ................
  465d10 00 00 00 00 00 00 00 00 00 00 00 00 00 00 00 00  ................
  465d20 00 00 00 00 00 00 00 00 00 00 00 00 00 00 00 00  ................
  465d30 00 00 00 00 00 00 00 00 00 00 00 00 00 00 00 00  ................
  465d40 00 00 00 00 00 00 00 00 00 00 00 00 00 00 00 00  ................
  465d50 00 00 00 00 00 00 00 00 00 00 00 00 00 00 00 00  ................
  465d60 00 00 00 00 00 00 00 00 00 00 00 00 00 00 00 00  ................
  465d70 00 00 00 00 00 00 00 00 00 00 00 00 00 00 00 00  ................
  465d80 00 00 00 00 00 00 00 00 00 00 00 00 00 00 00 00  ................
  465d90 00 00 00 00 00 00 00 00 00 00 00 00 00 00 00 00  ................
  465da0 00 00 00 00 00 00 00 00 00 00 00 00 00 00 00 00  ................
  465db0 00 00 00 00 00 00 00 00 00 00 00 00 00 00 00 00  ................
  465dc0 00 00 00 00 00 00 00 00 00 00 00 00 00 00 00 00  ................
  465dd0 00 00 00 00 00 00 00 00 00 00 00 00 00 00 00 00  ................
  465de0 00 00 00 00 00 00 00 00 00 00 00 00 00 00 00 00  ................
  465df0 00 00 00 00 00 00 00 00 00 00 00 00 00 00 00 00  ................
  465e00 00 00 00 00 00 00 00 00 00 00 00 00 00 00 00 00  ................
  465e10 00 00 00 00 00 00 00 00 00 00 00 00 00 00 00 00  ................
  465e20 00 00 00 00 00 00 00 00 00 00 00 00 00 00 00 00  ................
  465e30 00 00 00 00 00 00 00 00 00 00 00 00 00 00 00 00  ................
  465e40 00 00 00 00 00 00 00 00 00 00 00 00 00 00 00 00  ................
  465e50 00 00 00 00 00 00 00 00 00 00 00 00 00 00 00 00  ................
  465e60 00 00 00 00 00 00 00 00 00 00 00 00 00 00 00 00  ................
  465e70 00 00 00 00 00 00 00 00 00 00 00 00 00 00 00 00  ................
  465e80 00 00 00 00 00 00 00 00 00 00 00 00 00 00 00 00  ................
  465e90 00 00 00 00 00 00 00 00 00 00 00 00 00 00 00 00  ................
  465ea0 00 00 00 00 00 00 00 00 00 00 00 00 00 00 00 00  ................
  465eb0 00 00 00 00 00 00 00 00 00 00 00 00 00 00 00 00  ................
  465ec0 00 00 00 00 00 00 00 00 00 00 00 00 00 00 00 00  ................
  465ed0 00 00 00 00 00 00 00 00 00 00 00 00 00 00 00 00  ................
  465ee0 00 00 00 00 00 00 00 00 00 00 00 00 00 00 00 00  ................
  465ef0 00 00 00 00 00 00 00 00 00 00 00 00 00 00 00 00  ................
  465f00 00 00 00 00 00 00 00 00 00 00 00 00 00 00 00 00  ................
  465f10 00 00 00 00 00 00 00 00 00 00 00 00 00 00 00 00  ................
  465f20 00 00 00 00 00 00 00 00 00 00 00 00 00 00 00 00  ................
  465f30 00 00 00 00 00 00 00 00 00 00 00 00 00 00 00 00  ................
  465f40 00 00 00 00 00 00 00 00 00 00 00 00 00 00 00 00  ................
  465f50 00 00 00 00 00 00 00 00 00 00 00 00 00 00 00 00  ................
  465f60 00 00 00 00 00 00 00 00 00 00 00 00 00 00 00 00  ................
  465f70 00 00 00 00 00 00 00 00 00 00 00 00 00 00 00 00  ................
  465f80 00 00 00 00 00 00 00 00 00 00 00 00 00 00 00 00  ................
  465f90 00 00 00 00 00 00 00 00 00 00 00 00 00 00 00 00  ................
  465fa0 00 00 00 00 00 00 00 00 00 00 00 00 00 00 00 00  ................
  465fb0 00 00 00 00 00 00 00 00 00 00 00 00 00 00 00 00  ................
  465fc0 00 00 00 00 00 00 00 00 00 00 00 00 00 00 00 00  ................
  465fd0 00 00 00 00 00 00 00 00 00 00 00 00 00 00 00 00  ................
  465fe0 00 00 00 00 00 00 00 00 00 00 00 00 00 00 00 00  ................
  465ff0 00 00 00 00 00 00 00 00 00 00 00 00 00 00 00 00  ................
  466000 00 00 00 00 00 00 00 00 00 00 00 00 00 00 00 00  ................
  466010 00 00 00 00 00 00 00 00 00 00 00 00 00 00 00 00  ................
  466020 00 00 00 00 00 00 00 00 00 00 00 00 00 00 00 00  ................
  466030 00 00 00 00 00 00 00 00 00 00 00 00 00 00 00 00  ................
  466040 00 00 00 00 00 00 00 00 00 00 00 00 00 00 00 00  ................
  466050 00 00 00 00 00 00 00 00 00 00 00 00 00 00 00 00  ................
  466060 00 00 00 00 00 00 00 00 00 00 00 00 00 00 00 00  ................
  466070 00 00 00 00 00 00 00 00 00 00 00 00 00 00 00 00  ................
  466080 00 00 00 00 00 00 00 00 00 00 00 00 00 00 00 00  ................
  466090 00 00 00 00 00 00 00 00 00 00 00 00 00 00 00 00  ................
  4660a0 00 00 00 00 00 00 00 00 00 00 00 00 00 00 00 00  ................
  4660b0 00 00 00 00 00 00 00 00 00 00 00 00 00 00 00 00  ................
  4660c0 00 00 00 00 00 00 00 00 00 00 00 00 00 00 00 00  ................
  4660d0 00 00 00 00 00 00 00 00 00 00 00 00 00 00 00 00  ................
  4660e0 00 00 00 00 00 00 00 00 00 00 00 00 00 00 00 00  ................
  4660f0 00 00 00 00 00 00 00 00 00 00 00 00 00 00 00 00  ................
  466100 00 00 00 00 00 00 00 00 00 00 00 00 00 00 00 00  ................
  466110 00 00 00 00 00 00 00 00 00 00 00 00 00 00 00 00  ................
  466120 00 00 00 00 00 00 00 00 00 00 00 00 00 00 00 00  ................
  466130 00 00 00 00 00 00 00 00 00 00 00 00 00 00 00 00  ................
  466140 00 00 00 00 00 00 00 00 00 00 00 00 00 00 00 00  ................
  466150 00 00 00 00 00 00 00 00 00 00 00 00 00 00 00 00  ................
  466160 00 00 00 00 00 00 00 00 00 00 00 00 00 00 00 00  ................
  466170 00 00 00 00 00 00 00 00 00 00 00 00 00 00 00 00  ................
  466180 00 00 00 00 00 00 00 00 00 00 00 00 00 00 00 00  ................
  466190 00 00 00 00 00 00 00 00 00 00 00 00 00 00 00 00  ................
  4661a0 00 00 00 00 00 00 00 00 00 00 00 00 00 00 00 00  ................
  4661b0 00 00 00 00 00 00 00 00 00 00 00 00 00 00 00 00  ................
  4661c0 00 00 00 00 00 00 00 00 00 00 00 00 00 00 00 00  ................
  4661d0 00 00 00 00 00 00 00 00 00 00 00 00 00 00 00 00  ................
  4661e0 00 00 00 00 00 00 00 00 00 00 00 00 00 00 00 00  ................
  4661f0 00 00 00 00 00 00 00 00 00 00 00 00 00 00 00 00  ................
  466200 00 00 00 00 00 00 00 00 00 00 00 00 00 00 00 00  ................
  466210 00 00 00 00 00 00 00 00 00 00 00 00 00 00 00 00  ................
  466220 00 00 00 00 00 00 00 00 00 00 00 00 00 00 00 00  ................
  466230 00 00 00 00 00 00 00 00 00 00 00 00 00 00 00 00  ................
  466240 00 00 00 00 00 00 00 00 00 00 00 00 00 00 00 00  ................
  466250 00 00 00 00 00 00 00 00 00 00 00 00 00 00 00 00  ................
  466260 00 00 00 00 00 00 00 00 00 00 00 00 00 00 00 00  ................
  466270 00 00 00 00 00 00 00 00 00 00 00 00 00 00 00 00  ................
  466280 00 00 00 00 00 00 00 00 00 00 00 00 00 00 00 00  ................
  466290 00 00 00 00 00 00 00 00 00 00 00 00 00 00 00 00  ................
  4662a0 00 00 00 00 00 00 00 00 00 00 00 00 00 00 00 00  ................
  4662b0 00 00 00 00 00 00 00 00 00 00 00 00 00 00 00 00  ................
  4662c0 00 00 00 00 00 00 00 00 00 00 00 00 00 00 00 00  ................
  4662d0 00 00 00 00 00 00 00 00 00 00 00 00 00 00 00 00  ................
  4662e0 00 00 00 00 00 00 00 00 00 00 00 00 00 00 00 00  ................
  4662f0 00 00 00 00 00 00 00 00 00 00 00 00 00 00 00 00  ................
  466300 00 00 00 00 00 00 00 00 00 00 00 00 00 00 00 00  ................
  466310 00 00 00 00 00 00 00 00 00 00 00 00 00 00 00 00  ................
  466320 00 00 00 00 00 00 00 00 00 00 00 00 00 00 00 00  ................
  466330 00 00 00 00 00 00 00 00 00 00 00 00 00 00 00 00  ................
  466340 00 00 00 00 00 00 00 00 00 00 00 00 00 00 00 00  ................
  466350 00 00 00 00 00 00 00 00 00 00 00 00 00 00 00 00  ................
  466360 00 00 00 00 00 00 00 00 00 00 00 00 00 00 00 00  ................
  466370 00 00 00 00 00 00 00 00 00 00 00 00 00 00 00 00  ................
  466380 00 00 00 00 00 00 00 00 00 00 00 00 00 00 00 00  ................
  466390 00 00 00 00 00 00 00 00 00 00 00 00 00 00 00 00  ................
  4663a0 00 00 00 00 00 00 00 00 00 00 00 00 00 00 00 00  ................
  4663b0 00 00 00 00 00 00 00 00 00 00 00 00 00 00 00 00  ................
  4663c0 00 00 00 00 00 00 00 00 00 00 00 00 00 00 00 00  ................
  4663d0 00 00 00 00 00 00 00 00 00 00 00 00 00 00 00 00  ................
  4663e0 00 00 00 00 00 00 00 00 00 00 00 00 00 00 00 00  ................
  4663f0 00 00 00 00 00 00 00 00 00 00 00 00 00 00 00 00  ................
  466400 00 00 00 00 00 00 00 00 00 00 00 00 00 00 00 00  ................
  466410 00 00 00 00 00 00 00 00 00 00 00 00 00 00 00 00  ................
  466420 00 00 00 00 00 00 00 00 00 00 00 00 00 00 00 00  ................
  466430 00 00 00 00 00 00 00 00 00 00 00 00 00 00 00 00  ................
  466440 00 00 00 00 00 00 00 00 00 00 00 00 00 00 00 00  ................
  466450 00 00 00 00 00 00 00 00 00 00 00 00 00 00 00 00  ................
  466460 00 00 00 00 00 00 00 00 00 00 00 00 00 00 00 00  ................
  466470 00 00 00 00 00 00 00 00 00 00 00 00 00 00 00 00  ................
  466480 00 00 00 00 00 00 00 00 00 00 00 00 00 00 00 00  ................
  466490 00 00 00 00 00 00 00 00 00 00 00 00 00 00 00 00  ................
  4664a0 00 00 00 00 00 00 00 00 00 00 00 00 00 00 00 00  ................
  4664b0 00 00 00 00 00 00 00 00 00 00 00 00 00 00 00 00  ................
  4664c0 00 00 00 00 00 00 00 00 00 00 00 00 00 00 00 00  ................
  4664d0 00 00 00 00 00 00 00 00 00 00 00 00 00 00 00 00  ................
  4664e0 00 00 00 00 00 00 00 00 00 00 00 00 00 00 00 00  ................
  4664f0 00 00 00 00 00 00 00 00 00 00 00 00 00 00 00 00  ................
  466500 00 00 00 00 00 00 00 00 00 00 00 00 00 00 00 00  ................
  466510 00 00 00 00 00 00 00 00 00 00 00 00 00 00 00 00  ................
  466520 00 00 00 00 00 00 00 00 00 00 00 00 00 00 00 00  ................
  466530 00 00 00 00 00 00 00 00 00 00 00 00 00 00 00 00  ................
  466540 00 00 00 00 00 00 00 00 00 00 00 00 00 00 00 00  ................
  466550 00 00 00 00 00 00 00 00 00 00 00 00 00 00 00 00  ................
  466560 00 00 00 00 00 00 00 00 00 00 00 00 00 00 00 00  ................
  466570 00 00 00 00 00 00 00 00 00 00 00 00 00 00 00 00  ................
  466580 00 00 00 00 00 00 00 00 00 00 00 00 00 00 00 00  ................
  466590 00 00 00 00 00 00 00 00 00 00 00 00 00 00 00 00  ................
  4665a0 00 00 00 00 00 00 00 00 00 00 00 00 00 00 00 00  ................
  4665b0 00 00 00 00 00 00 00 00 00 00 00 00 00 00 00 00  ................
  4665c0 00 00 00 00 00 00 00 00 00 00 00 00 00 00 00 00  ................
  4665d0 00 00 00 00 00 00 00 00 00 00 00 00 00 00 00 00  ................
  4665e0 00 00 00 00 00 00 00 00 00 00 00 00 00 00 00 00  ................
  4665f0 00 00 00 00 00 00 00 00 00 00 00 00 00 00 00 00  ................
  466600 00 00 00 00 00 00 00 00 00 00 00 00 00 00 00 00  ................
  466610 00 00 00 00 00 00 00 00 00 00 00 00 00 00 00 00  ................
  466620 00 00 00 00 00 00 00 00 00 00 00 00 00 00 00 00  ................
  466630 00 00 00 00 00 00 00 00 00 00 00 00 00 00 00 00  ................
  466640 00 00 00 00 00 00 00 00 00 00 00 00 00 00 00 00  ................
  466650 00 00 00 00 00 00 00 00 00 00 00 00 00 00 00 00  ................
  466660 00 00 00 00 00 00 00 00 00 00 00 00 00 00 00 00  ................
  466670 00 00 00 00 00 00 00 00 00 00 00 00 00 00 00 00  ................
  466680 00 00 00 00 00 00 00 00 00 00 00 00 00 00 00 00  ................
  466690 00 00 00 00 00 00 00 00 00 00 00 00 00 00 00 00  ................
  4666a0 00 00 00 00 00 00 00 00 00 00 00 00 00 00 00 00  ................
  4666b0 00 00 00 00 00 00 00 00 00 00 00 00 00 00 00 00  ................
  4666c0 00 00 00 00 00 00 00 00 00 00 00 00 00 00 00 00  ................
  4666d0 00 00 00 00 00 00 00 00 00 00 00 00 00 00 00 00  ................
  4666e0 00 00 00 00 00 00 00 00 00 00 00 00 00 00 00 00  ................
  4666f0 00 00 00 00 00 00 00 00 00 00 00 00 00 00 00 00  ................
  466700 00 00 00 00 00 00 00 00 00 00 00 00 00 00 00 00  ................
  466710 00 00 00 00 00 00 00 00 00 00 00 00 00 00 00 00  ................
  466720 00 00 00 00 00 00 00 00 00 00 00 00 00 00 00 00  ................
  466730 00 00 00 00 00 00 00 00 00 00 00 00 00 00 00 00  ................
  466740 00 00 00 00 00 00 00 00 00 00 00 00 00 00 00 00  ................
  466750 00 00 00 00 00 00 00 00 00 00 00 00 00 00 00 00  ................
  466760 00 00 00 00 00 00 00 00 00 00 00 00 00 00 00 00  ................
  466770 00 00 00 00 00 00 00 00 00 00 00 00 00 00 00 00  ................
  466780 00 00 00 00 00 00 00 00 00 00 00 00 00 00 00 00  ................
  466790 00 00 00 00 00 00 00 00 00 00 00 00 00 00 00 00  ................
  4667a0 00 00 00 00 00 00 00 00 00 00 00 00 00 00 00 00  ................
  4667b0 00 00 00 00 00 00 00 00 00 00 00 00 00 00 00 00  ................
  4667c0 00 00 00 00 00 00 00 00 00 00 00 00 00 00 00 00  ................
  4667d0 00 00 00 00 00 00 00 00 00 00 00 00 00 00 00 00  ................
  4667e0 00 00 00 00 00 00 00 00 00 00 00 00 00 00 00 00  ................
  4667f0 00 00 00 00 00 00 00 00 00 00 00 00 00 00 00 00  ................
  466800 00 00 00 00 00 00 00 00 00 00 00 00 00 00 00 00  ................
  466810 00 00 00 00 00 00 00 00 00 00 00 00 00 00 00 00  ................
  466820 00 00 00 00 00 00 00 00 00 00 00 00 00 00 00 00  ................
  466830 00 00 00 00 00 00 00 00 00 00 00 00 00 00 00 00  ................
  466840 00 00 00 00 00 00 00 00 00 00 00 00 00 00 00 00  ................
  466850 00 00 00 00 00 00 00 00 00 00 00 00 00 00 00 00  ................
  466860 00 00 00 00 00 00 00 00 00 00 00 00 00 00 00 00  ................
  466870 00 00 00 00 00 00 00 00 00 00 00 00 00 00 00 00  ................
  466880 00 00 00 00 00 00 00 00 00 00 00 00 00 00 00 00  ................
  466890 00 00 00 00 00 00 00 00 00 00 00 00 00 00 00 00  ................
  4668a0 00 00 00 00 00 00 00 00 00 00 00 00 00 00 00 00  ................
  4668b0 00 00 00 00 00 00 00 00 00 00 00 00 00 00 00 00  ................
  4668c0 00 00 00 00 00 00 00 00 00 00 00 00 00 00 00 00  ................
  4668d0 00 00 00 00 00 00 00 00 00 00 00 00 00 00 00 00  ................
  4668e0 00 00 00 00 00 00 00 00 00 00 00 00 00 00 00 00  ................
  4668f0 00 00 00 00 00 00 00 00 00 00 00 00 00 00 00 00  ................
  466900 00 00 00 00 00 00 00 00 00 00 00 00 00 00 00 00  ................
  466910 00 00 00 00 00 00 00 00 00 00 00 00 00 00 00 00  ................
  466920 00 00 00 00 00 00 00 00 00 00 00 00 00 00 00 00  ................
  466930 00 00 00 00 00 00 00 00 00 00 00 00 00 00 00 00  ................
  466940 00 00 00 00 00 00 00 00 00 00 00 00 00 00 00 00  ................
  466950 00 00 00 00 00 00 00 00 00 00 00 00 00 00 00 00  ................
  466960 00 00 00 00 00 00 00 00 00 00 00 00 00 00 00 00  ................
  466970 00 00 00 00 00 00 00 00 00 00 00 00 00 00 00 00  ................
  466980 00 00 00 00 00 00 00 00 00 00 00 00 00 00 00 00  ................
  466990 00 00 00 00 00 00 00 00 00 00 00 00 00 00 00 00  ................
  4669a0 00 00 00 00 00 00 00 00 00 00 00 00 00 00 00 00  ................
  4669b0 00 00 00 00 00 00 00 00 00 00 00 00 00 00 00 00  ................
  4669c0 00 00 00 00 00 00 00 00 00 00 00 00 00 00 00 00  ................
  4669d0 00 00 00 00 00 00 00 00 00 00 00 00 00 00 00 00  ................
  4669e0 00 00 00 00 00 00 00 00 00 00 00 00 00 00 00 00  ................
  4669f0 00 00 00 00 00 00 00 00 00 00 00 00 00 00 00 00  ................
  466a00 00 00 00 00 00 00 00 00 00 00 00 00 00 00 00 00  ................
  466a10 00 00 00 00 00 00 00 00 00 00 00 00 00 00 00 00  ................
  466a20 00 00 00 00 00 00 00 00 00 00 00 00 00 00 00 00  ................
  466a30 00 00 00 00 00 00 00 00 00 00 00 00 00 00 00 00  ................
  466a40 00 00 00 00 00 00 00 00 00 00 00 00 00 00 00 00  ................
  466a50 00 00 00 00 00 00 00 00 00 00 00 00 00 00 00 00  ................
  466a60 00 00 00 00 00 00 00 00 00 00 00 00 00 00 00 00  ................
  466a70 00 00 00 00 00 00 00 00 00 00 00 00 00 00 00 00  ................
  466a80 00 00 00 00 00 00 00 00 00 00 00 00 00 00 00 00  ................
  466a90 00 00 00 00 00 00 00 00 00 00 00 00 00 00 00 00  ................
  466aa0 00 00 00 00 00 00 00 00 00 00 00 00 00 00 00 00  ................
  466ab0 00 00 00 00 00 00 00 00 00 00 00 00 00 00 00 00  ................
  466ac0 00 00 00 00 00 00 00 00 00 00 00 00 00 00 00 00  ................
  466ad0 00 00 00 00 00 00 00 00 00 00 00 00 00 00 00 00  ................
  466ae0 00 00 00 00 00 00 00 00 00 00 00 00 00 00 00 00  ................
  466af0 00 00 00 00 00 00 00 00 00 00 00 00 00 00 00 00  ................
  466b00 00 00 00 00 00 00 00 00 00 00 00 00 00 00 00 00  ................
  466b10 00 00 00 00 00 00 00 00 00 00 00 00 00 00 00 00  ................
  466b20 00 00 00 00 00 00 00 00 00 00 00 00 00 00 00 00  ................
  466b30 00 00 00 00 00 00 00 00 00 00 00 00 00 00 00 00  ................
  466b40 00 00 00 00 00 00 00 00 00 00 00 00 00 00 00 00  ................
  466b50 00 00 00 00 00 00 00 00 00 00 00 00 00 00 00 00  ................
  466b60 00 00 00 00 00 00 00 00 00 00 00 00 00 00 00 00  ................
  466b70 00 00 00 00 00 00 00 00 00 00 00 00 00 00 00 00  ................
  466b80 00 00 00 00 00 00 00 00 00 00 00 00 00 00 00 00  ................
  466b90 00 00 00 00 00 00 00 00 00 00 00 00 00 00 00 00  ................
  466ba0 00 00 00 00 00 00 00 00 00 00 00 00 00 00 00 00  ................
  466bb0 00 00 00 00 00 00 00 00 00 00 00 00 00 00 00 00  ................
  466bc0 00 00 00 00 00 00 00 00 00 00 00 00 00 00 00 00  ................
  466bd0 00 00 00 00 00 00 00 00 00 00 00 00 00 00 00 00  ................
  466be0 00 00 00 00 00 00 00 00 00 00 00 00 00 00 00 00  ................
  466bf0 00 00 00 00 00 00 00 00 00 00 00 00 00 00 00 00  ................
  466c00 00 00 00 00 00 00 00 00 00 00 00 00 00 00 00 00  ................
  466c10 00 00 00 00 00 00 00 00 00 00 00 00 00 00 00 00  ................
  466c20 00 00 00 00 00 00 00 00 00 00 00 00 00 00 00 00  ................
  466c30 00 00 00 00 00 00 00 00 00 00 00 00 00 00 00 00  ................
  466c40 00 00 00 00 00 00 00 00 00 00 00 00 00 00 00 00  ................
  466c50 00 00 00 00 00 00 00 00 00 00 00 00 00 00 00 00  ................
  466c60 00 00 00 00 00 00 00 00 00 00 00 00 00 00 00 00  ................
  466c70 00 00 00 00 00 00 00 00 00 00 00 00 00 00 00 00  ................
  466c80 00 00 00 00 00 00 00 00 00 00 00 00 00 00 00 00  ................
  466c90 00 00 00 00 00 00 00 00 00 00 00 00 00 00 00 00  ................
  466ca0 00 00 00 00 00 00 00 00 00 00 00 00 00 00 00 00  ................
  466cb0 00 00 00 00 00 00 00 00 00 00 00 00 00 00 00 00  ................
  466cc0 00 00 00 00 00 00 00 00 00 00 00 00 00 00 00 00  ................
  466cd0 00 00 00 00 00 00 00 00 00 00 00 00 00 00 00 00  ................
  466ce0 00 00 00 00 00 00 00 00 00 00 00 00 00 00 00 00  ................
  466cf0 00 00 00 00 00 00 00 00 00 00 00 00 00 00 00 00  ................
  466d00 00 00 00 00 00 00 00 00 00 00 00 00 00 00 00 00  ................
  466d10 00 00 00 00 00 00 00 00 00 00 00 00 00 00 00 00  ................
  466d20 00 00 00 00 00 00 00 00 00 00 00 00 00 00 00 00  ................
  466d30 00 00 00 00 00 00 00 00 00 00 00 00 00 00 00 00  ................
  466d40 00 00 00 00 00 00 00 00 00 00 00 00 00 00 00 00  ................
  466d50 00 00 00 00 00 00 00 00 00 00 00 00 00 00 00 00  ................
  466d60 00 00 00 00 00 00 00 00 00 00 00 00 00 00 00 00  ................
  466d70 00 00 00 00 00 00 00 00 00 00 00 00 00 00 00 00  ................
  466d80 00 00 00 00 00 00 00 00 00 00 00 00 00 00 00 00  ................
  466d90 00 00 00 00 00 00 00 00 00 00 00 00 00 00 00 00  ................
  466da0 00 00 00 00 00 00 00 00 00 00 00 00 00 00 00 00  ................
  466db0 00 00 00 00 00 00 00 00 00 00 00 00 00 00 00 00  ................
  466dc0 00 00 00 00 00 00 00 00 00 00 00 00 00 00 00 00  ................
  466dd0 00 00 00 00 00 00 00 00 00 00 00 00 00 00 00 00  ................
  466de0 00 00 00 00 00 00 00 00 00 00 00 00 00 00 00 00  ................
  466df0 00 00 00 00 00 00 00 00 00 00 00 00 00 00 00 00  ................
  466e00 00 00 00 00 00 00 00 00 00 00 00 00 00 00 00 00  ................
  466e10 00 00 00 00 00 00 00 00 00 00 00 00 00 00 00 00  ................
  466e20 00 00 00 00 00 00 00 00 00 00 00 00 00 00 00 00  ................
  466e30 00 00 00 00 00 00 00 00 00 00 00 00 00 00 00 00  ................
  466e40 00 00 00 00 00 00 00 00 00 00 00 00 00 00 00 00  ................
  466e50 00 00 00 00 00 00 00 00 00 00 00 00 00 00 00 00  ................
  466e60 00 00 00 00 00 00 00 00 00 00 00 00 00 00 00 00  ................
  466e70 00 00 00 00 00 00 00 00 00 00 00 00 00 00 00 00  ................
  466e80 00 00 00 00 00 00 00 00 00 00 00 00 00 00 00 00  ................
  466e90 00 00 00 00 00 00 00 00 00 00 00 00 00 00 00 00  ................
  466ea0 00 00 00 00 00 00 00 00 00 00 00 00 00 00 00 00  ................
  466eb0 00 00 00 00 00 00 00 00 00 00 00 00 00 00 00 00  ................
  466ec0 00 00 00 00 00 00 00 00 00 00 00 00 00 00 00 00  ................
  466ed0 00 00 00 00 00 00 00 00 00 00 00 00 00 00 00 00  ................
  466ee0 00 00 00 00 00 00 00 00 00 00 00 00 00 00 00 00  ................
  466ef0 00 00 00 00 00 00 00 00 00 00 00 00 00 00 00 00  ................
  466f00 00 00 00 00 00 00 00 00 00 00 00 00 00 00 00 00  ................
  466f10 00 00 00 00 00 00 00 00 00 00 00 00 00 00 00 00  ................
  466f20 00 00 00 00 00 00 00 00 00 00 00 00 00 00 00 00  ................
  466f30 00 00 00 00 00 00 00 00 00 00 00 00 00 00 00 00  ................
  466f40 00 00 00 00 00 00 00 00 00 00 00 00 00 00 00 00  ................
  466f50 00 00 00 00 00 00 00 00 00 00 00 00 00 00 00 00  ................
  466f60 00 00 00 00 00 00 00 00 00 00 00 00 00 00 00 00  ................
  466f70 00 00 00 00 00 00 00 00 00 00 00 00 00 00 00 00  ................
  466f80 00 00 00 00 00 00 00 00 00 00 00 00 00 00 00 00  ................
  466f90 00 00 00 00 00 00 00 00 00 00 00 00 00 00 00 00  ................
  466fa0 00 00 00 00 00 00 00 00 00 00 00 00 00 00 00 00  ................
  466fb0 00 00 00 00 00 00 00 00 00 00 00 00 00 00 00 00  ................
  466fc0 00 00 00 00 00 00 00 00 00 00 00 00 00 00 00 00  ................
  466fd0 00 00 00 00 00 00 00 00 00 00 00 00 00 00 00 00  ................
  466fe0 00 00 00 00 00 00 00 00 c8 4f 46 00 e0 01 00 00  .........OF.....
  466ff0 05 00 00 c0 0b 00 00 00 00 00 00 00 1d 00 00 c0  ................
  467000 04 00 00 00 00 00 00 00 96 00 00 c0 04 00 00 00  ................
  467010 00 00 00 00 8d 00 00 c0 08 00 00 00 00 00 00 00  ................
  467020 8e 00 00 c0 08 00 00 00 00 00 00 00 8f 00 00 c0  ................
  467030 08 00 00 00 00 00 00 00 90 00 00 c0 08 00 00 00  ................
  467040 00 00 00 00 91 00 00 c0 08 00 00 00 00 00 00 00  ................
  467050 92 00 00 c0 08 00 00 00 00 00 00 00 93 00 00 c0  ................
  467060 08 00 00 00 00 00 00 00 03 00 00 00 07 00 00 00  ................
  467070 78 00 00 00 0a 00 00 00 ff ff ff ff 00 0a 00 00  x...............
  467080 00 00 00 00 00 00 00 00 00 00 00 00 00 00 00 00  ................
  467090 00 00 00 00 00 00 00 00 00 00 00 00 00 00 00 00  ................
  4670a0 02 00 00 00 70 47 45 00 08 00 00 00 44 47 45 00  ....pGE.....DGE.
  4670b0 09 00 00 00 18 47 45 00 0a 00 00 00 f4 46 45 00  .....GE......FE.
  4670c0 10 00 00 00 c8 46 45 00 11 00 00 00 98 46 45 00  .....FE......FE.
  4670d0 12 00 00 00 74 46 45 00 13 00 00 00 48 46 45 00  ....tFE.....HFE.
  4670e0 18 00 00 00 10 46 45 00 19 00 00 00 e8 45 45 00  .....FE......EE.
  4670f0 1a 00 00 00 b0 45 45 00 1b 00 00 00 78 45 45 00  .....EE.....xEE.
  467100 1c 00 00 00 50 45 45 00 78 00 00 00 40 45 45 00  ....PEE.x...@EE.
  467110 79 00 00 00 30 45 45 00 7a 00 00 00 20 45 45 00  y...0EE.z... EE.
  467120 fc 00 00 00 54 3a 46 00 ff 00 00 00 10 45 45 00  ....T:F......EE.
  467130 84 48 45 00 74 48 45 00 00 00 00 00 00 00 00 00  .HE.tHE.........
  467140 80 70 00 00 01 00 00 00 f0 f1 ff ff 50 53 54 00  .p..........PST.
  467150 00 00 00 00 00 00 00 00 00 00 00 00 00 00 00 00  ................
  467160 00 00 00 00 00 00 00 00 00 00 00 00 00 00 00 00  ................
  467170 00 00 00 00 00 00 00 00 00 00 00 00 00 00 00 00  ................
  467180 00 00 00 00 00 00 00 00 00 00 00 00 50 44 54 00  ............PDT.
  467190 00 00 00 00 00 00 00 00 00 00 00 00 00 00 00 00  ................
  4671a0 00 00 00 00 00 00 00 00 00 00 00 00 00 00 00 00  ................
  4671b0 00 00 00 00 00 00 00 00 00 00 00 00 00 00 00 00  ................
  4671c0 00 00 00 00 00 00 00 00 00 00 00 00 4c 71 46 00  ............LqF.
  4671d0 8c 71 46 00 00 00 00 00 ff ff ff ff 00 00 00 00  .qF.............
  4671e0 00 00 00 00 00 00 00 00 ff ff ff ff 00 00 00 00  ................
  4671f0 00 00 00 00 ff ff ff ff 1e 00 00 00 3b 00 00 00  ............;...
  467200 5a 00 00 00 78 00 00 00 97 00 00 00 b5 00 00 00  Z...x...........
  467210 d4 00 00 00 f3 00 00 00 11 01 00 00 30 01 00 00  ............0...
  467220 4e 01 00 00 6d 01 00 00 ff ff ff ff 1e 00 00 00  N...m...........
  467230 3a 00 00 00 59 00 00 00 77 00 00 00 96 00 00 00  :...Y...w.......
  467240 b4 00 00 00 d3 00 00 00 f2 00 00 00 10 01 00 00  ................
  467250 2f 01 00 00 4d 01 00 00 6c 01 00 00 43 00 00 00  /...M...l...C...
  467260 43 00 00 00 00 00 00 00 00 00 00 00 00 00 00 00  C...............
  467270 00 00 00 00 00 00 00 00 00 00 00 00 00 00 00 00  ................
  467280 00 00 00 00 00 00 00 00 00 00 00 00 00 00 00 00  ................
  467290 00 00 00 00 00 00 00 00 00 00 00 00 00 00 00 00  ................
  4672a0 00 00 00 00 00 00 00 00 00 00 00 00 00 00 00 00  ................
  4672b0 00 00 00 00 00 00 00 00 00 00 00 00 00 00 00 00  ................
  4672c0 00 00 00 00 00 00 00 00 00 00 00 00 00 00 00 00  ................
  4672d0 00 00 00 00 00 00 00 00 00 00 00 00 00 00 00 00  ................
  4672e0 00 00 00 00 43 00 00 00 00 00 00 00 00 00 00 00  ....C...........
  4672f0 00 00 00 00 00 00 00 00 00 00 00 00 00 00 00 00  ................
  467300 00 00 00 00 00 00 00 00 00 00 00 00 00 00 00 00  ................
  467310 00 00 00 00 00 00 00 00 00 00 00 00 00 00 00 00  ................
  467320 00 00 00 00 00 00 00 00 00 00 00 00 00 00 00 00  ................
  467330 00 00 00 00 00 00 00 00 00 00 00 00 00 00 00 00  ................
  467340 00 00 00 00 00 00 00 00 00 00 00 00 00 00 00 00  ................
  467350 00 00 00 00 00 00 00 00 00 00 00 00 00 00 00 00  ................
  467360 00 00 00 00 00 00 00 00 18 49 45 00 00 00 00 00  .........IE.....
  467370 30 87 41 00 0c 49 45 00 5c 72 46 00 f5 a6 41 00  0.A..IE.\rF...A.
  467380 00 49 45 00 5c 72 46 00 b0 a4 41 00 f4 48 45 00  .IE.\rF...A..HE.
  467390 5c 72 46 00 3e a2 41 00 e8 48 45 00 5c 72 46 00  \rF.>.A..HE.\rF.
  4673a0 32 a0 41 00 e0 48 45 00 5c 72 46 00 c3 9a 41 00  2.A..HE.\rF...A.
  4673b0 00 04 00 00 01 fc ff ff 35 00 00 00 0b 00 00 00  ........5.......
  4673c0 40 00 00 00 ff 03 00 00 80 00 00 00 81 ff ff ff  @...............
  4673d0 18 00 00 00 08 00 00 00 20 00 00 00 7f 00 00 00  ........ .......
  4673e0 c0 b6 46 00 00 00 00 00 c0 b6 46 00 01 01 00 00  ..F.......F.....
  4673f0 00 00 00 00 00 00 00 00 00 10 00 00 00 00 00 00  ................
  467400 00 00 00 00 00 00 00 00 00 00 00 00 02 00 00 00  ................
  467410 01 00 00 00 00 00 00 00 00 00 00 00 00 00 00 00  ................
  467420 00 00 00 00 00 00 00 00 00 00 00 00 02 00 00 00  ................
  467430 02 00 00 00 00 00 00 00 00 00 00 00 00 00 00 00  ................
  467440 00 00 00 00 00 00 00 00 00 00 00 00 00 00 00 00  ................
  467450 00 00 00 00 00 00 00 00 00 00 00 00 00 00 00 00  ................
  467460 00 00 00 00 00 00 00 00 00 00 00 00 00 00 00 00  ................
  467470 00 00 00 00 00 00 00 00 00 00 00 00 00 00 00 00  ................
  467480 00 00 00 00 00 00 00 00 00 00 00 00 00 00 00 00  ................
  467490 00 00 00 00 00 00 00 00 00 00 00 00 00 00 00 00  ................
  4674a0 00 00 00 00 00 00 00 00 00 00 00 00 00 00 00 00  ................
  4674b0 00 00 00 00 00 00 00 00 00 00 00 00 00 00 00 00  ................
  4674c0 00 00 00 00 00 00 00 00 00 00 00 00 00 00 00 00  ................
  4674d0 00 00 00 00 00 00 00 00 00 00 00 00 00 00 00 00  ................
  4674e0 00 00 00 00 00 00 00 00 00 00 00 00 00 00 00 00  ................
  4674f0 00 00 00 00 00 00 00 00 00 00 00 00 00 00 00 00  ................
  467500 00 00 00 00 00 00 00 00 00 00 00 00 00 00 00 00  ................
  467510 00 00 00 00 00 00 00 00 00 00 00 00 00 00 00 00  ................
  467520 00 00 00 00 00 00 00 00 00 00 00 00 00 00 00 00  ................
  467530 00 00 00 00 00 00 00 00 00 00 00 00 00 00 00 00  ................
  467540 00 00 00 00 00 00 00 00 00 00 00 00 00 00 00 00  ................
  467550 00 00 00 00 00 00 00 00 00 00 00 00 00 00 00 00  ................
  467560 00 00 00 00 00 00 00 00 00 00 00 00 00 00 00 00  ................
  467570 00 00 00 00 00 00 00 00 00 00 00 00 00 00 00 00  ................
  467580 00 00 00 00 00 00 00 00 00 00 00 00 00 00 00 00  ................
  467590 00 00 00 00 00 00 00 00 00 00 00 00 00 00 00 00  ................
  4675a0 00 00 00 00 00 00 00 00 00 00 00 00 00 00 00 00  ................
  4675b0 00 00 00 00 00 00 00 00 00 00 00 00 00 00 00 00  ................
  4675c0 00 00 00 00 00 00 00 00 00 00 00 00 00 00 00 00  ................
  4675d0 00 00 00 00 00 00 00 00 00 00 00 00 00 00 00 00  ................
  4675e0 00 00 00 00 00 00 00 00 00 00 00 00 00 00 00 00  ................
  4675f0 00 00 00 00 00 00 00 00 00 00 00 00 00 00 00 00  ................
  467600 00 00 00 00 00 00 00 00 00 00 00 00 00 00 00 00  ................
  467610 00 00 00 00 00 00 00 00 00 00 00 00 00 00 00 00  ................
  467620 00 00 00 00 00 00 00 00 00 00 00 00 00 00 00 00  ................
  467630 00 00 00 00 00 00 00 00 00 00 00 00 00 00 00 00  ................
  467640 00 00 00 00 00 00 00 00 00 00 00 00 00 00 00 00  ................
  467650 00 00 00 00 00 00 00 00 00 00 00 00 00 00 00 00  ................
  467660 0a 04 00 00 30 34 30 61 00 00 00 00 c8 4a 45 00  ....040a.....JE.
  467670 45 53 50 00 c0 4a 45 00 45 53 50 00 38 35 30 00  ESP..JE.ESP.850.
  467680 00 00 00 00 31 32 35 32 00 00 00 00 0b 04 00 00  ....1252........
  467690 30 34 30 62 00 00 00 00 b8 4a 45 00 46 49 4e 00  040b.....JE.FIN.
  4676a0 b0 4a 45 00 46 49 4e 00 38 35 30 00 00 00 00 00  .JE.FIN.850.....
  4676b0 31 32 35 32 00 00 00 00 0c 04 00 00 30 34 30 63  1252........040c
  4676c0 00 00 00 00 a8 4a 45 00 46 52 41 00 a0 4a 45 00  .....JE.FRA..JE.
  4676d0 46 52 41 00 38 35 30 00 00 00 00 00 31 32 35 32  FRA.850.....1252
  4676e0 00 00 00 00 0f 04 00 00 30 34 30 66 00 00 00 00  ........040f....
  4676f0 94 4a 45 00 49 53 4c 00 8c 4a 45 00 49 53 4c 00  .JE.ISL..JE.ISL.
  467700 38 35 30 00 00 00 00 00 31 32 35 32 00 00 00 00  850.....1252....
  467710 1d 04 00 00 30 34 31 64 00 00 00 00 84 4a 45 00  ....041d.....JE.
  467720 53 56 45 00 7c 4a 45 00 53 57 45 00 38 35 30 00  SVE.|JE.SWE.850.
  467730 00 00 00 00 31 32 35 32 00 00 00 00 2d 04 00 00  ....1252....-...
  467740 30 34 32 64 00 00 00 00 74 4a 45 00 45 55 51 00  042d....tJE.EUQ.
  467750 c0 4a 45 00 45 53 50 00 38 35 30 00 00 00 00 00  .JE.ESP.850.....
  467760 31 32 35 32 00 00 00 00 0a 08 00 00 30 38 30 61  1252........080a
  467770 00 00 00 00 6c 4a 45 00 45 53 4d 00 64 4a 45 00  ....lJE.ESM.dJE.
  467780 4d 45 58 00 38 35 30 00 00 00 00 00 31 32 35 32  MEX.850.....1252
  467790 00 00 00 00 0c 08 00 00 30 38 30 63 00 00 00 00  ........080c....
  4677a0 a8 4a 45 00 46 52 42 00 5c 4a 45 00 42 45 4c 00  .JE.FRB.\JE.BEL.
  4677b0 38 35 30 00 00 00 00 00 31 32 35 32 00 00 00 00  850.....1252....
  4677c0 07 0c 00 00 30 63 30 37 00 00 00 00 54 4a 45 00  ....0c07....TJE.
  4677d0 44 45 41 00 4c 4a 45 00 41 55 54 00 38 35 30 00  DEA.LJE.AUT.850.
  4677e0 00 00 00 00 31 32 35 32 00 00 00 00 09 0c 00 00  ....1252........
  4677f0 30 63 30 39 00 00 00 00 44 4a 45 00 45 4e 41 00  0c09....DJE.ENA.
  467800 38 4a 45 00 41 55 53 00 38 35 30 00 00 00 00 00  8JE.AUS.850.....
  467810 31 32 35 32 00 00 00 00 0a 0c 00 00 30 63 30 61  1252........0c0a
  467820 00 00 00 00 20 4a 45 00 45 53 4e 00 c0 4a 45 00  .... JE.ESN..JE.
  467830 45 53 50 00 38 35 30 00 00 00 00 00 31 32 35 32  ESP.850.....1252
  467840 00 00 00 00 0c 0c 00 00 30 63 30 63 00 00 00 00  ........0c0c....
  467850 a8 4a 45 00 46 52 43 00 18 4a 45 00 43 41 4e 00  .JE.FRC..JE.CAN.
  467860 38 35 30 00 00 00 00 00 31 32 35 32 00 00 00 00  850.....1252....
  467870 0a 10 00 00 31 30 30 61 00 00 00 00 6c 4a 45 00  ....100a....lJE.
  467880 45 53 47 00 0c 4a 45 00 47 54 4d 00 38 35 30 00  ESG..JE.GTM.850.
  467890 00 00 00 00 31 32 35 32 00 00 00 00 0c 10 00 00  ....1252........
  4678a0 31 30 30 63 00 00 00 00 a8 4a 45 00 46 52 53 00  100c.....JE.FRS.
  4678b0 00 4a 45 00 43 48 45 00 38 35 30 00 00 00 00 00  .JE.CHE.850.....
  4678c0 31 32 35 32 00 00 00 00 0a 14 00 00 31 34 30 61  1252........140a
  4678d0 00 00 00 00 6c 4a 45 00 45 53 43 00 f4 49 45 00  ....lJE.ESC..IE.
  4678e0 43 52 49 00 38 35 30 00 00 00 00 00 31 32 35 32  CRI.850.....1252
  4678f0 00 00 00 00 0c 14 00 00 31 34 30 63 00 00 00 00  ........140c....
  467900 a8 4a 45 00 46 52 4c 00 e8 49 45 00 4c 55 58 00  .JE.FRL..IE.LUX.
  467910 38 35 30 00 00 00 00 00 31 32 35 32 00 00 00 00  850.....1252....
  467920 0a 18 00 00 31 38 30 61 00 00 00 00 6c 4a 45 00  ....180a....lJE.
  467930 45 53 41 00 e0 49 45 00 50 41 4e 00 38 35 30 00  ESA..IE.PAN.850.
  467940 00 00 00 00 31 32 35 32 00 00 00 00 09 1c 00 00  ....1252........
  467950 31 63 30 39 00 00 00 00 44 4a 45 00 45 4e 53 00  1c09....DJE.ENS.
  467960 d0 49 45 00 5a 41 46 00 34 33 37 00 00 00 00 00  .IE.ZAF.437.....
  467970 31 32 35 32 00 00 00 00 0a 1c 00 00 31 63 30 61  1252........1c0a
  467980 00 00 00 00 6c 4a 45 00 45 53 44 00 bc 49 45 00  ....lJE.ESD..IE.
  467990 44 4f 4d 00 38 35 30 00 00 00 00 00 31 32 35 32  DOM.850.....1252
  4679a0 00 00 00 00 0a 20 00 00 32 30 30 61 00 00 00 00  ..... ..200a....
  4679b0 6c 4a 45 00 45 53 56 00 b0 49 45 00 56 45 4e 00  lJE.ESV..IE.VEN.
  4679c0 38 35 30 00 00 00 00 00 31 32 35 32 00 00 00 00  850.....1252....
  4679d0 0a 24 00 00 32 34 30 61 00 00 00 00 6c 4a 45 00  .$..240a....lJE.
  4679e0 45 53 4f 00 a4 49 45 00 43 4f 4c 00 38 35 30 00  ESO..IE.COL.850.
  4679f0 00 00 00 00 31 32 35 32 00 00 00 00 0a 28 00 00  ....1252.....(..
  467a00 32 38 30 61 00 00 00 00 6c 4a 45 00 45 53 52 00  280a....lJE.ESR.
  467a10 9c 49 45 00 50 45 52 00 38 35 30 00 00 00 00 00  .IE.PER.850.....
  467a20 31 32 35 32 00 00 00 00 0a 2c 00 00 32 63 30 61  1252.....,..2c0a
  467a30 00 00 00 00 6c 4a 45 00 45 53 53 00 90 49 45 00  ....lJE.ESS..IE.
  467a40 41 52 47 00 38 35 30 00 00 00 00 00 31 32 35 32  ARG.850.....1252
  467a50 00 00 00 00 0a 30 00 00 33 30 30 61 00 00 00 00  .....0..300a....
  467a60 6c 4a 45 00 45 53 46 00 88 49 45 00 45 43 55 00  lJE.ESF..IE.ECU.
  467a70 38 35 30 00 00 00 00 00 31 32 35 32 00 00 00 00  850.....1252....
  467a80 0a 34 00 00 33 34 30 61 00 00 00 00 6c 4a 45 00  .4..340a....lJE.
  467a90 45 53 4c 00 80 49 45 00 43 48 4c 00 38 35 30 00  ESL..IE.CHL.850.
  467aa0 00 00 00 00 31 32 35 32 00 00 00 00 0a 38 00 00  ....1252.....8..
  467ab0 33 38 30 61 00 00 00 00 6c 4a 45 00 45 53 59 00  380a....lJE.ESY.
  467ac0 78 49 45 00 55 52 59 00 38 35 30 00 00 00 00 00  xIE.URY.850.....
  467ad0 31 32 35 32 00 00 00 00 0a 3c 00 00 33 63 30 61  1252.....<..3c0a
  467ae0 00 00 00 00 6c 4a 45 00 45 53 5a 00 6c 49 45 00  ....lJE.ESZ.lIE.
  467af0 50 52 59 00 38 35 30 00 00 00 00 00 31 32 35 32  PRY.850.....1252
  467b00 00 00 00 00 0c 0c 1a 0c 07 10 36 04 0c 08 2d 04  ..........6...-.
  467b10 03 04 0c 10 10 08 1d 08 d0 4b 45 00 55 53 41 00  .........KE.USA.
  467b20 c8 4b 45 00 47 42 52 00 c0 4b 45 00 43 48 4e 00  .KE.GBR..KE.CHN.
  467b30 b8 4b 45 00 43 5a 45 00 b0 4b 45 00 47 42 52 00  .KE.CZE..KE.GBR.
  467b40 a0 4b 45 00 47 42 52 00 98 4b 45 00 4e 4c 44 00  .KE.GBR..KE.NLD.
  467b50 8c 4b 45 00 48 4b 47 00 80 4b 45 00 4e 5a 4c 00  .KE.HKG..KE.NZL.
  467b60 7c 4b 45 00 4e 5a 4c 00 70 4b 45 00 43 48 4e 00  |KE.NZL.pKE.CHN.
  467b70 64 4b 45 00 43 48 4e 00 58 4b 45 00 50 52 49 00  dKE.CHN.XKE.PRI.
  467b80 50 4b 45 00 53 56 4b 00 40 4b 45 00 5a 41 46 00  PKE.SVK.@KE.ZAF.
  467b90 34 4b 45 00 4b 4f 52 00 24 4b 45 00 5a 41 46 00  4KE.KOR.$KE.ZAF.
  467ba0 18 4b 45 00 4b 4f 52 00 04 4b 45 00 54 54 4f 00  .KE.KOR..KE.TTO.
  467bb0 e0 4b 45 00 47 42 52 00 f4 4a 45 00 47 42 52 00  .KE.GBR..JE.GBR.
  467bc0 e4 4a 45 00 55 53 41 00 dc 4b 45 00 55 53 41 00  .JE.USA..KE.USA.
  467bd0 e0 4f 45 00 45 4e 55 00 cc 4f 45 00 45 4e 55 00  .OE.ENU..OE.ENU.
  467be0 b8 4f 45 00 45 4e 55 00 ac 4f 45 00 45 4e 41 00  .OE.ENU..OE.ENA.
  467bf0 a4 4f 45 00 4e 4c 42 00 98 4f 45 00 45 4e 43 00  .OE.NLB..OE.ENC.
  467c00 94 4f 45 00 5a 48 48 00 90 4f 45 00 5a 48 49 00  .OE.ZHH..OE.ZHI.
  467c10 88 4f 45 00 43 48 53 00 74 4f 45 00 5a 48 48 00  .OE.CHS.tOE.ZHH.
  467c20 60 4f 45 00 43 48 53 00 4c 4f 45 00 5a 48 49 00  `OE.CHS.LOE.ZHI.
  467c30 38 4f 45 00 43 48 54 00 28 4f 45 00 4e 4c 42 00  8OE.CHT.(OE.NLB.
  467c40 14 4f 45 00 45 4e 55 00 08 4f 45 00 45 4e 41 00  .OE.ENU..OE.ENA.
  467c50 f8 4e 45 00 45 4e 4c 00 ec 4e 45 00 45 4e 43 00  .NE.ENL..NE.ENC.
  467c60 d8 4e 45 00 45 4e 42 00 cc 4e 45 00 45 4e 49 00  .NE.ENB..NE.ENI.
  467c70 bc 4e 45 00 45 4e 4a 00 b0 4e 45 00 45 4e 5a 00  .NE.ENJ..NE.ENZ.
  467c80 98 4e 45 00 45 4e 53 00 7c 4e 45 00 45 4e 54 00  .NE.ENS.|NE.ENT.
  467c90 70 4e 45 00 45 4e 47 00 64 4e 45 00 45 4e 55 00  pNE.ENG.dNE.ENU.
  467ca0 58 4e 45 00 45 4e 55 00 48 4e 45 00 46 52 42 00  XNE.ENU.HNE.FRB.
  467cb0 38 4e 45 00 46 52 43 00 24 4e 45 00 46 52 4c 00  8NE.FRC.$NE.FRL.
  467cc0 14 4e 45 00 46 52 53 00 04 4e 45 00 44 45 41 00  .NE.FRS..NE.DEA.
  467cd0 f0 4d 45 00 44 45 43 00 dc 4d 45 00 44 45 4c 00  .ME.DEC..ME.DEL.
  467ce0 cc 4d 45 00 44 45 53 00 bc 4d 45 00 45 4e 49 00  .ME.DES..ME.ENI.
  467cf0 ac 4d 45 00 49 54 53 00 a0 4d 45 00 4e 4f 52 00  .ME.ITS..ME.NOR.
  467d00 8c 4d 45 00 4e 4f 52 00 78 4d 45 00 4e 4f 4e 00  .ME.NOR.xME.NON.
  467d10 60 4d 45 00 50 54 42 00 4c 4d 45 00 45 53 53 00  `ME.PTB.LME.ESS.
  467d20 3c 4d 45 00 45 53 42 00 2c 4d 45 00 45 53 4c 00  <ME.ESB.,ME.ESL.
  467d30 18 4d 45 00 45 53 4f 00 04 4d 45 00 45 53 43 00  .ME.ESO..ME.ESC.
  467d40 e8 4c 45 00 45 53 44 00 d8 4c 45 00 45 53 46 00  .LE.ESD..LE.ESF.
  467d50 c4 4c 45 00 45 53 45 00 b0 4c 45 00 45 53 47 00  .LE.ESE..LE.ESG.
  467d60 9c 4c 45 00 45 53 48 00 8c 4c 45 00 45 53 4d 00  .LE.ESH..LE.ESM.
  467d70 7c 4c 45 00 45 53 4e 00 68 4c 45 00 45 53 49 00  |LE.ESN.hLE.ESI.
  467d80 58 4c 45 00 45 53 41 00 44 4c 45 00 45 53 5a 00  XLE.ESA.DLE.ESZ.
  467d90 34 4c 45 00 45 53 52 00 20 4c 45 00 45 53 55 00  4LE.ESR. LE.ESU.
  467da0 10 4c 45 00 45 53 59 00 fc 4b 45 00 45 53 56 00  .LE.ESY..KE.ESV.
  467db0 ec 4b 45 00 53 56 46 00 e4 4b 45 00 44 45 53 00  .KE.SVF..KE.DES.
  467dc0 e0 4b 45 00 45 4e 47 00 dc 4b 45 00 45 4e 55 00  .KE.ENG..KE.ENU.
  467dd0 d8 4b 45 00 45 4e 55 00 00 00 00 00 00 00 00 00  .KE.ENU.........
  467de0 00 00 00 00 00 00 00 00 00 a0 02 40 00 00 00 00  ...........@....
  467df0 00 00 00 00 00 c8 05 40 00 00 00 00 00 00 00 00  .......@........
  467e00 00 fa 08 40 00 00 00 00 00 00 00 00 40 9c 0c 40  ...@........@..@
  467e10 00 00 00 00 00 00 00 00 50 c3 0f 40 00 00 00 00  ........P..@....
  467e20 00 00 00 00 24 f4 12 40 00 00 00 00 00 00 00 80  ....$..@........
  467e30 96 98 16 40 00 00 00 00 00 00 00 20 bc be 19 40  ...@....... ...@
  467e40 00 00 00 00 00 04 bf c9 1b 8e 34 40 00 00 00 a1  ..........4@....
  467e50 ed cc ce 1b c2 d3 4e 40 20 f0 9e b5 70 2b a8 ad  ......N@ ...p+..
  467e60 c5 9d 69 40 d0 5d fd 25 e5 1a 8e 4f 19 eb 83 40  ..i@.].%...O...@
  467e70 71 96 d7 95 43 0e 05 8d 29 af 9e 40 f9 bf a0 44  q...C...)..@...D
  467e80 ed 81 12 8f 81 82 b9 40 bf 3c d5 a6 cf ff 49 1f  .......@.<....I.
  467e90 78 c2 d3 40 6f c6 e0 8c e9 80 c9 47 ba 93 a8 41  x..@o......G...A
  467ea0 bc 85 6b 55 27 39 8d f7 70 e0 7c 42 bc dd 8e de  ..kU'9..p.|B....
  467eb0 f9 9d fb eb 7e aa 51 43 a1 e6 76 e3 cc f2 29 2f  ....~.QC..v...)/
  467ec0 84 81 26 44 28 10 17 aa f8 ae 10 e3 c5 c4 fa 44  ..&D(..........D
  467ed0 eb a7 d4 f3 f7 eb e1 4a 7a 95 cf 45 65 cc c7 91  .......Jz..Ee...
  467ee0 0e a6 ae a0 19 e3 a3 46 0d 65 17 0c 75 81 86 75  .......F.e..u..u
  467ef0 76 c9 48 4d 58 42 e4 a7 93 39 3b 35 b8 b2 ed 53  v.HMXB...9;5...S
  467f00 4d a7 e5 5d 3d c5 5d 3b 8b 9e 92 5a ff 5d a6 f0  M..]=.];...Z.]..
  467f10 a1 20 c0 54 a5 8c 37 61 d1 fd 8b 5a 8b d8 25 5d  . .T..7a...Z..%]
  467f20 89 f9 db 67 aa 95 f8 f3 27 bf a2 c8 5d dd 80 6e  ...g....'...]..n
  467f30 4c c9 9b 97 20 8a 02 52 60 c4 25 75 00 00 00 00  L... ..R`.%u....
  467f40 cd cc cd cc cc cc cc cc cc cc fb 3f 71 3d 0a d7  ...........?q=..
  467f50 a3 70 3d 0a d7 a3 f8 3f 5a 64 3b df 4f 8d 97 6e  .p=....?Zd;.O..n
  467f60 12 83 f5 3f c3 d3 2c 65 19 e2 58 17 b7 d1 f1 3f  ...?..,e..X....?
  467f70 d0 0f 23 84 47 1b 47 ac c5 a7 ee 3f 40 a6 b6 69  ..#.G.G....?@..i
  467f80 6c af 05 bd 37 86 eb 3f 33 3d bc 42 7a e5 d5 94  l...7..?3=.Bz...
  467f90 bf d6 e7 3f c2 fd fd ce 61 84 11 77 cc ab e4 3f  ...?....a..w...?
  467fa0 2f 4c 5b e1 4d c4 be 94 95 e6 c9 3f 92 c4 53 3b  /L[.M......?..S;
  467fb0 75 44 cd 14 be 9a af 3f de 67 ba 94 39 45 ad 1e  uD.....?.g..9E..
  467fc0 b1 cf 94 3f 24 23 c6 e2 bc ba 3b 31 61 8b 7a 3f  ...?$#....;1a.z?
  467fd0 61 55 59 c1 7e b1 53 7c 12 bb 5f 3f d7 ee 2f 8d  aUY.~.S|.._?../.
  467fe0 06 be 92 85 15 fb 44 3f 24 3f a5 e9 39 a5 27 ea  ......D?$?..9.'.
  467ff0 7f a8 2a 3f 7d ac a1 e4 bc 64 7c 46 d0 dd 55 3e  ..*?}....d|F..U>
  468000 63 7b 06 cc 23 54 77 83 ff 91 81 3d 91 fa 3a 19  c{..#Tw....=..:.
  468010 7a 63 25 43 31 c0 ac 3c 21 89 d1 38 82 47 97 b8  zc%C1..<!..8.G..
  468020 00 fd d7 3b dc 88 58 08 1b b1 e8 e3 86 a6 03 3b  ...;..X........;
  468030 c6 84 45 42 07 b6 99 75 37 db 2e 3a 33 71 1c d2  ..EB...u7..:3q..
  468040 23 db 32 ee 49 90 5a 39 a6 87 be c0 57 da a5 82  #.2.I.Z9....W...
  468050 a6 a2 b5 32 e2 68 b2 11 a7 52 9f 44 59 b7 10 2c  ...2.h...R.DY..,
  468060 25 49 e4 2d 36 34 4f 53 ae ce 6b 25 8f 59 04 a4  %I.-64OS..k%.Y..
  468070 c0 de c2 7d fb e8 c6 1e 9e e7 88 5a 57 91 3c bf  ...}.......ZW.<.
  468080 50 83 22 18 4e 4b 65 62 fd 83 8f af 06 94 7d 11  P.".NKeb......}.
  468090 e4 2d de 9f ce d2 c8 04 dd a6 d8 0a 00 00 00 00  .-..............
  4680a0 e4 41 45 00 00 00 00 00 2e 3f 41 56 6c 6f 67 69  .AE......?AVlogi
  4680b0 63 5f 65 72 72 6f 72 40 73 74 64 40 40 00 00 00  c_error@std@@...
  4680c0 e4 41 45 00 00 00 00 00 2e 3f 41 56 6c 65 6e 67  .AE......?AVleng
  4680d0 74 68 5f 65 72 72 6f 72 40 73 74 64 40 40 00 00  th_error@std@@..
  4680e0 e4 41 45 00 00 00 00 00 2e 3f 41 56 6f 75 74 5f  .AE......?AVout_
  4680f0 6f 66 5f 72 61 6e 67 65 40 73 74 64 40 40 00 00  of_range@std@@..
  468100 ff ff ff ff 00 00 00 00 e4 41 45 00 00 00 00 00  .........AE.....
  468110 2e 3f 41 56 69 6f 73 5f 62 61 73 65 40 73 74 64  .?AVios_base@std
  468120 40 40 00 00 00 00 00 00 e4 41 45 00 00 00 00 00  @@.......AE.....
  468130 2e 3f 41 56 3f 24 62 61 73 69 63 5f 69 6f 73 40  .?AV?$basic_ios@
  468140 44 55 3f 24 63 68 61 72 5f 74 72 61 69 74 73 40  DU?$char_traits@
  468150 44 40 73 74 64 40 40 40 73 74 64 40 40 00 00 00  D@std@@@std@@...
  468160 e4 41 45 00 00 00 00 00 2e 3f 41 56 3f 24 62 61  .AE......?AV?$ba
  468170 73 69 63 5f 69 73 74 72 65 61 6d 40 44 55 3f 24  sic_istream@DU?$
  468180 63 68 61 72 5f 74 72 61 69 74 73 40 44 40 73 74  char_traits@D@st
  468190 64 40 40 40 73 74 64 40 40 00 00 00 00 00 00 00  d@@@std@@.......
  4681a0 e4 41 45 00 00 00 00 00 2e 3f 41 56 3f 24 62 61  .AE......?AV?$ba
  4681b0 73 69 63 5f 6f 73 74 72 65 61 6d 40 44 55 3f 24  sic_ostream@DU?$
  4681c0 63 68 61 72 5f 74 72 61 69 74 73 40 44 40 73 74  char_traits@D@st
  4681d0 64 40 40 40 73 74 64 40 40 00 00 00 00 00 00 00  d@@@std@@.......
  4681e0 e4 41 45 00 00 00 00 00 2e 3f 41 56 3f 24 62 61  .AE......?AV?$ba
  4681f0 73 69 63 5f 73 74 72 65 61 6d 62 75 66 40 44 55  sic_streambuf@DU
  468200 3f 24 63 68 61 72 5f 74 72 61 69 74 73 40 44 40  ?$char_traits@D@
  468210 73 74 64 40 40 40 73 74 64 40 40 00 00 00 00 00  std@@@std@@.....
  468220 e4 41 45 00 00 00 00 00 2e 3f 41 56 3f 24 62 61  .AE......?AV?$ba
  468230 73 69 63 5f 66 69 6c 65 62 75 66 40 44 55 3f 24  sic_filebuf@DU?$
  468240 63 68 61 72 5f 74 72 61 69 74 73 40 44 40 73 74  char_traits@D@st
  468250 64 40 40 40 73 74 64 40 40 00 00 00 ff ff ff ff  d@@@std@@.......
  468260 e4 41 45 00 00 00 00 00 2e 3f 41 56 3f 24 62 61  .AE......?AV?$ba
  468270 73 69 63 5f 69 6f 73 40 47 55 3f 24 63 68 61 72  sic_ios@GU?$char
  468280 5f 74 72 61 69 74 73 40 47 40 73 74 64 40 40 40  _traits@G@std@@@
  468290 73 74 64 40 40 00 00 00 e4 41 45 00 00 00 00 00  std@@....AE.....
  4682a0 2e 3f 41 56 3f 24 62 61 73 69 63 5f 69 73 74 72  .?AV?$basic_istr
  4682b0 65 61 6d 40 47 55 3f 24 63 68 61 72 5f 74 72 61  eam@GU?$char_tra
  4682c0 69 74 73 40 47 40 73 74 64 40 40 40 73 74 64 40  its@G@std@@@std@
  4682d0 40 00 00 00 00 00 00 00 e4 41 45 00 00 00 00 00  @........AE.....
  4682e0 2e 3f 41 56 3f 24 62 61 73 69 63 5f 6f 73 74 72  .?AV?$basic_ostr
  4682f0 65 61 6d 40 47 55 3f 24 63 68 61 72 5f 74 72 61  eam@GU?$char_tra
  468300 69 74 73 40 47 40 73 74 64 40 40 40 73 74 64 40  its@G@std@@@std@
  468310 40 00 00 00 00 00 00 00 e4 41 45 00 00 00 00 00  @........AE.....
  468320 2e 3f 41 56 3f 24 62 61 73 69 63 5f 66 69 6c 65  .?AV?$basic_file
  468330 62 75 66 40 47 55 3f 24 63 68 61 72 5f 74 72 61  buf@GU?$char_tra
  468340 69 74 73 40 47 40 73 74 64 40 40 40 73 74 64 40  its@G@std@@@std@
  468350 40 00 00 00 00 00 00 00 e4 41 45 00 00 00 00 00  @........AE.....
  468360 2e 3f 41 56 3f 24 62 61 73 69 63 5f 73 74 72 65  .?AV?$basic_stre
  468370 61 6d 62 75 66 40 47 55 3f 24 63 68 61 72 5f 74  ambuf@GU?$char_t
  468380 72 61 69 74 73 40 47 40 73 74 64 40 40 40 73 74  raits@G@std@@@st
  468390 64 40 40 00 01 00 00 00 e4 41 45 00 00 00 00 00  d@@......AE.....
  4683a0 2e 3f 41 56 72 75 6e 74 69 6d 65 5f 65 72 72 6f  .?AVruntime_erro
  4683b0 72 40 73 74 64 40 40 00 e4 41 45 00 00 00 00 00  r@std@@..AE.....
  4683c0 2e 3f 41 56 66 61 69 6c 75 72 65 40 69 6f 73 5f  .?AVfailure@ios_
  4683d0 62 61 73 65 40 73 74 64 40 40 00 00 00 00 00 00  base@std@@......
  4683e0 e4 41 45 00 00 00 00 00 2e 3f 41 56 66 61 63 65  .AE......?AVface
  4683f0 74 40 6c 6f 63 61 6c 65 40 73 74 64 40 40 00 00  t@locale@std@@..
  468400 e4 41 45 00 00 00 00 00 2e 3f 41 56 5f 4c 6f 63  .AE......?AV_Loc
  468410 69 6d 70 40 6c 6f 63 61 6c 65 40 73 74 64 40 40  imp@locale@std@@
  468420 00 00 00 00 00 00 00 00 e4 41 45 00 00 00 00 00  .........AE.....
  468430 2e 3f 41 56 3f 24 6e 75 6d 5f 70 75 74 40 44 56  .?AV?$num_put@DV
  468440 3f 24 6f 73 74 72 65 61 6d 62 75 66 5f 69 74 65  ?$ostreambuf_ite
  468450 72 61 74 6f 72 40 44 55 3f 24 63 68 61 72 5f 74  rator@DU?$char_t
  468460 72 61 69 74 73 40 44 40 73 74 64 40 40 40 73 74  raits@D@std@@@st
  468470 64 40 40 40 73 74 64 40 40 00 00 00 00 00 00 00  d@@@std@@.......
  468480 e4 41 45 00 00 00 00 00 2e 3f 41 56 63 6f 64 65  .AE......?AVcode
  468490 63 76 74 5f 62 61 73 65 40 73 74 64 40 40 00 00  cvt_base@std@@..
  4684a0 e4 41 45 00 00 00 00 00 2e 3f 41 56 3f 24 63 6f  .AE......?AV?$co
  4684b0 64 65 63 76 74 40 44 44 48 40 73 74 64 40 40 00  decvt@DDH@std@@.
  4684c0 e4 41 45 00 00 00 00 00 2e 3f 41 55 63 74 79 70  .AE......?AUctyp
  4684d0 65 5f 62 61 73 65 40 73 74 64 40 40 00 00 00 00  e_base@std@@....
  4684e0 e4 41 45 00 00 00 00 00 2e 3f 41 56 3f 24 63 74  .AE......?AV?$ct
  4684f0 79 70 65 40 44 40 73 74 64 40 40 00 00 00 00 00  ype@D@std@@.....
  468500 e4 41 45 00 00 00 00 00 2e 3f 41 56 3f 24 6e 75  .AE......?AV?$nu
  468510 6d 5f 67 65 74 40 44 56 3f 24 69 73 74 72 65 61  m_get@DV?$istrea
  468520 6d 62 75 66 5f 69 74 65 72 61 74 6f 72 40 44 55  mbuf_iterator@DU
  468530 3f 24 63 68 61 72 5f 74 72 61 69 74 73 40 44 40  ?$char_traits@D@
  468540 73 74 64 40 40 40 73 74 64 40 40 40 73 74 64 40  std@@@std@@@std@
  468550 40 00 00 00 00 00 00 00 e4 41 45 00 00 00 00 00  @........AE.....
  468560 2e 3f 41 56 3f 24 6e 75 6d 70 75 6e 63 74 40 44  .?AV?$numpunct@D
  468570 40 73 74 64 40 40 00 00 e4 41 45 00 00 00 00 00  @std@@...AE.....
  468580 2e 3f 41 56 62 61 64 5f 61 6c 6c 6f 63 40 73 74  .?AVbad_alloc@st
  468590 64 40 40 00 00 00 00 00 e4 41 45 00 00 00 00 00  d@@......AE.....
  4685a0 2e 3f 41 56 3f 24 6e 75 6d 5f 70 75 74 40 47 56  .?AV?$num_put@GV
  4685b0 3f 24 6f 73 74 72 65 61 6d 62 75 66 5f 69 74 65  ?$ostreambuf_ite
  4685c0 72 61 74 6f 72 40 47 55 3f 24 63 68 61 72 5f 74  rator@GU?$char_t
  4685d0 72 61 69 74 73 40 47 40 73 74 64 40 40 40 73 74  raits@G@std@@@st
  4685e0 64 40 40 40 73 74 64 40 40 00 00 00 00 00 00 00  d@@@std@@.......
  4685f0 e4 41 45 00 00 00 00 00 2e 3f 41 56 3f 24 6e 75  .AE......?AV?$nu
  468600 6d 5f 67 65 74 40 47 56 3f 24 69 73 74 72 65 61  m_get@GV?$istrea
  468610 6d 62 75 66 5f 69 74 65 72 61 74 6f 72 40 47 55  mbuf_iterator@GU
  468620 3f 24 63 68 61 72 5f 74 72 61 69 74 73 40 47 40  ?$char_traits@G@
  468630 73 74 64 40 40 40 73 74 64 40 40 40 73 74 64 40  std@@@std@@@std@
  468640 40 00 00 00 00 00 00 00 e4 41 45 00 00 00 00 00  @........AE.....
  468650 2e 3f 41 56 3f 24 74 69 6d 65 5f 70 75 74 40 47  .?AV?$time_put@G
  468660 56 3f 24 6f 73 74 72 65 61 6d 62 75 66 5f 69 74  V?$ostreambuf_it
  468670 65 72 61 74 6f 72 40 47 55 3f 24 63 68 61 72 5f  erator@GU?$char_
  468680 74 72 61 69 74 73 40 47 40 73 74 64 40 40 40 73  traits@G@std@@@s
  468690 74 64 40 40 40 73 74 64 40 40 00 00 00 00 00 00  td@@@std@@......
  4686a0 e4 41 45 00 00 00 00 00 2e 3f 41 55 74 69 6d 65  .AE......?AUtime
  4686b0 5f 62 61 73 65 40 73 74 64 40 40 00 00 00 00 00  _base@std@@.....
  4686c0 e4 41 45 00 00 00 00 00 2e 3f 41 56 3f 24 74 69  .AE......?AV?$ti
  4686d0 6d 65 5f 67 65 74 40 47 56 3f 24 69 73 74 72 65  me_get@GV?$istre
  4686e0 61 6d 62 75 66 5f 69 74 65 72 61 74 6f 72 40 47  ambuf_iterator@G
  4686f0 55 3f 24 63 68 61 72 5f 74 72 61 69 74 73 40 47  U?$char_traits@G
  468700 40 73 74 64 40 40 40 73 74 64 40 40 40 73 74 64  @std@@@std@@@std
  468710 40 40 00 00 00 00 00 00 e4 41 45 00 00 00 00 00  @@.......AE.....
  468720 2e 3f 41 56 3f 24 6d 6f 6e 65 79 70 75 6e 63 74  .?AV?$moneypunct
  468730 40 47 24 30 30 40 73 74 64 40 40 00 00 00 00 00  @G$00@std@@.....
  468740 e4 41 45 00 00 00 00 00 2e 3f 41 55 6d 6f 6e 65  .AE......?AUmone
  468750 79 5f 62 61 73 65 40 73 74 64 40 40 00 00 00 00  y_base@std@@....
  468760 e4 41 45 00 00 00 00 00 2e 3f 41 56 3f 24 5f 4d  .AE......?AV?$_M
  468770 70 75 6e 63 74 40 47 40 73 74 64 40 40 00 00 00  punct@G@std@@...
  468780 e4 41 45 00 00 00 00 00 2e 3f 41 56 3f 24 6d 6f  .AE......?AV?$mo
  468790 6e 65 79 70 75 6e 63 74 40 47 24 30 41 40 40 73  neypunct@G$0A@@s
  4687a0 74 64 40 40 00 00 00 00 e4 41 45 00 00 00 00 00  td@@.....AE.....
  4687b0 2e 3f 41 56 3f 24 6d 6f 6e 65 79 5f 70 75 74 40  .?AV?$money_put@
  4687c0 47 56 3f 24 6f 73 74 72 65 61 6d 62 75 66 5f 69  GV?$ostreambuf_i
  4687d0 74 65 72 61 74 6f 72 40 47 55 3f 24 63 68 61 72  terator@GU?$char
  4687e0 5f 74 72 61 69 74 73 40 47 40 73 74 64 40 40 40  _traits@G@std@@@
  4687f0 73 74 64 40 40 40 73 74 64 40 40 00 00 00 00 00  std@@@std@@.....
  468800 e4 41 45 00 00 00 00 00 2e 3f 41 56 3f 24 6d 6f  .AE......?AV?$mo
  468810 6e 65 79 5f 67 65 74 40 47 56 3f 24 69 73 74 72  ney_get@GV?$istr
  468820 65 61 6d 62 75 66 5f 69 74 65 72 61 74 6f 72 40  eambuf_iterator@
  468830 47 55 3f 24 63 68 61 72 5f 74 72 61 69 74 73 40  GU?$char_traits@
  468840 47 40 73 74 64 40 40 40 73 74 64 40 40 40 73 74  G@std@@@std@@@st
  468850 64 40 40 00 00 00 00 00 e4 41 45 00 00 00 00 00  d@@......AE.....
  468860 2e 3f 41 56 3f 24 63 74 79 70 65 40 47 40 73 74  .?AV?$ctype@G@st
  468870 64 40 40 00 00 00 00 00 e4 41 45 00 00 00 00 00  d@@......AE.....
  468880 2e 3f 41 55 6d 65 73 73 61 67 65 73 5f 62 61 73  .?AUmessages_bas
  468890 65 40 73 74 64 40 40 00 e4 41 45 00 00 00 00 00  e@std@@..AE.....
  4688a0 2e 3f 41 56 3f 24 6d 65 73 73 61 67 65 73 40 47  .?AV?$messages@G
  4688b0 40 73 74 64 40 40 00 00 e4 41 45 00 00 00 00 00  @std@@...AE.....
  4688c0 2e 3f 41 56 3f 24 63 6f 6c 6c 61 74 65 40 47 40  .?AV?$collate@G@
  4688d0 73 74 64 40 40 00 00 00 e4 41 45 00 00 00 00 00  std@@....AE.....
  4688e0 2e 3f 41 56 3f 24 6e 75 6d 70 75 6e 63 74 40 47  .?AV?$numpunct@G
  4688f0 40 73 74 64 40 40 00 00 e4 41 45 00 00 00 00 00  @std@@...AE.....
  468900 2e 3f 41 56 3f 24 63 6f 64 65 63 76 74 40 47 44  .?AV?$codecvt@GD
  468910 48 40 73 74 64 40 40 00 e4 41 45 00 00 00 00 00  H@std@@..AE.....
  468920 2e 3f 41 56 3f 24 74 69 6d 65 5f 70 75 74 40 44  .?AV?$time_put@D
  468930 56 3f 24 6f 73 74 72 65 61 6d 62 75 66 5f 69 74  V?$ostreambuf_it
  468940 65 72 61 74 6f 72 40 44 55 3f 24 63 68 61 72 5f  erator@DU?$char_
  468950 74 72 61 69 74 73 40 44 40 73 74 64 40 40 40 73  traits@D@std@@@s
  468960 74 64 40 40 40 73 74 64 40 40 00 00 00 00 00 00  td@@@std@@......
  468970 e4 41 45 00 00 00 00 00 2e 3f 41 56 3f 24 74 69  .AE......?AV?$ti
  468980 6d 65 5f 67 65 74 40 44 56 3f 24 69 73 74 72 65  me_get@DV?$istre
  468990 61 6d 62 75 66 5f 69 74 65 72 61 74 6f 72 40 44  ambuf_iterator@D
  4689a0 55 3f 24 63 68 61 72 5f 74 72 61 69 74 73 40 44  U?$char_traits@D
  4689b0 40 73 74 64 40 40 40 73 74 64 40 40 40 73 74 64  @std@@@std@@@std
  4689c0 40 40 00 00 00 00 00 00 e4 41 45 00 00 00 00 00  @@.......AE.....
  4689d0 2e 3f 41 56 3f 24 6d 6f 6e 65 79 70 75 6e 63 74  .?AV?$moneypunct
  4689e0 40 44 24 30 30 40 73 74 64 40 40 00 00 00 00 00  @D$00@std@@.....
  4689f0 e4 41 45 00 00 00 00 00 2e 3f 41 56 3f 24 5f 4d  .AE......?AV?$_M
  468a00 70 75 6e 63 74 40 44 40 73 74 64 40 40 00 00 00  punct@D@std@@...
  468a10 e4 41 45 00 00 00 00 00 2e 3f 41 56 3f 24 6d 6f  .AE......?AV?$mo
  468a20 6e 65 79 70 75 6e 63 74 40 44 24 30 41 40 40 73  neypunct@D$0A@@s
  468a30 74 64 40 40 00 00 00 00 e4 41 45 00 00 00 00 00  td@@.....AE.....
  468a40 2e 3f 41 56 3f 24 6d 6f 6e 65 79 5f 70 75 74 40  .?AV?$money_put@
  468a50 44 56 3f 24 6f 73 74 72 65 61 6d 62 75 66 5f 69  DV?$ostreambuf_i
  468a60 74 65 72 61 74 6f 72 40 44 55 3f 24 63 68 61 72  terator@DU?$char
  468a70 5f 74 72 61 69 74 73 40 44 40 73 74 64 40 40 40  _traits@D@std@@@
  468a80 73 74 64 40 40 40 73 74 64 40 40 00 00 00 00 00  std@@@std@@.....
  468a90 e4 41 45 00 00 00 00 00 2e 3f 41 56 3f 24 6d 6f  .AE......?AV?$mo
  468aa0 6e 65 79 5f 67 65 74 40 44 56 3f 24 69 73 74 72  ney_get@DV?$istr
  468ab0 65 61 6d 62 75 66 5f 69 74 65 72 61 74 6f 72 40  eambuf_iterator@
  468ac0 44 55 3f 24 63 68 61 72 5f 74 72 61 69 74 73 40  DU?$char_traits@
  468ad0 44 40 73 74 64 40 40 40 73 74 64 40 40 40 73 74  D@std@@@std@@@st
  468ae0 64 40 40 00 00 00 00 00 e4 41 45 00 00 00 00 00  d@@......AE.....
  468af0 2e 3f 41 56 3f 24 6d 65 73 73 61 67 65 73 40 44  .?AV?$messages@D
  468b00 40 73 74 64 40 40 00 00 e4 41 45 00 00 00 00 00  @std@@...AE.....
  468b10 2e 3f 41 56 3f 24 63 6f 6c 6c 61 74 65 40 44 40  .?AV?$collate@D@
  468b20 73 74 64 40 40 00 00 00 65 64 69 74 00 00 00 00  std@@...edit....
  468b30 68 61 6e 67 65 75 6c 00 6b 61 6e 6a 69 00 00 00  hangeul.kanji...
  468b40 65 6e 67 6c 69 73 68 00 72 6f 6d 61 6e 00 00 00  english.roman...
  468b50 68 61 6e 67 65 75 6c 6d 65 6e 75 00 6b 61 6e 6a  hangeulmenu.kanj
  468b60 69 6d 65 6e 75 00 00 00 77 69 6e 64 6f 77 73 00  imenu...windows.
  468b70 43 33 64 48 4e 65 77 00 43 33 64 4c 4e 65 77 00  C3dHNew.C3dLNew.
  468b80 43 33 64 4e 65 77 00 00 43 33 64 48 00 00 00 00  C3dNew..C3dH....
  468b90 43 33 64 4c 00 00 00 00 43 33 64 00 43 33 64 44  C3dL....C3d.C3dD
  468ba0 00 00 00 00 23 33 32 37 37 30 00 00 44 69 73 61  ....#32770..Disa
  468bb0 62 6c 65 54 68 72 65 61 64 4c 69 62 72 61 72 79  bleThreadLibrary
  468bc0 43 61 6c 6c 73 00 00 00 4b 45 52 4e 45 4c 33 32  Calls...KERNEL32
  468bd0 2e 44 4c 4c 00 00 00 00 00 00 00 00 00 00 f0 7f  .DLL............
  468be0 00 00 00 00 00 00 00 00 00 00 00 00 00 00 00 00  ................
  468bf0 00 00 00 00 00 00 00 00 00 00 00 00 00 00 00 00  ................
  468c00 00 00 00 00 00 00 00 00 00 00 00 00 00 00 00 00  ................
  468c10 00 00 00 00 00 00 00 00 00 00 00 00 00 00 00 00  ................
  468c20 00 00 00 00 00 00 00 00 00 00 00 00 00 00 00 00  ................
  468c30 00 00 00 00 00 00 00 00 00 00 00 00 00 00 00 00  ................
  468c40 00 00 00 00 00 00 00 00 00 00 00 00 00 00 00 00  ................
  468c50 00 00 00 00 00 00 00 00 00 00 00 00 00 00 00 00  ................
  468c60 00 00 00 00 00 00 00 00 00 00 00 00 00 00 00 00  ................
  468c70 00 00 00 00 00 00 00 00 00 00 00 00 00 00 00 00  ................
  468c80 00 00 00 00 00 00 00 00 00 00 00 00 00 00 00 00  ................
  468c90 00 00 00 00 00 00 00 00 00 00 00 00 00 00 00 00  ................
  468ca0 00 00 00 00 00 00 00 00 00 00 00 00 00 00 00 00  ................
  468cb0 00 00 00 00 00 00 00 00 00 00 00 00 00 00 00 00  ................
  468cc0 00 00 00 00 00 00 00 00 00 00 00 00 00 00 00 00  ................
  468cd0 00 00 00 00 00 00 00 00 00 00 00 00 00 00 00 00  ................
  468ce0 00 00 00 00 00 00 00 00 00 00 00 00 00 00 00 00  ................
  468cf0 00 00 00 00 00 00 00 00 00 00 00 00 00 00 00 00  ................
  468d00 00 00 00 00 00 00 00 00 00 00 00 00 00 00 00 00  ................
  468d10 00 00 00 00 00 00 00 00 00 00 00 00 00 00 00 00  ................
  468d20 00 00 00 00 00 00 00 00 00 00 00 00 00 00 00 00  ................
  468d30 00 00 00 00 00 00 00 00 00 00 00 00 00 00 00 00  ................
  468d40 00 00 00 00 00 00 00 00 00 00 00 00 00 00 00 00  ................
  468d50 00 00 00 00 00 00 00 00 00 00 00 00 00 00 00 00  ................
  468d60 00 00 00 00 00 00 00 00 00 00 00 00 00 00 00 00  ................
  468d70 00 00 00 00 00 00 00 00 00 00 00 00 00 00 00 00  ................
  468d80 00 00 00 00 00 00 00 00 00 00 00 00 00 00 00 00  ................
  468d90 00 00 00 00 00 00 00 00 00 00 00 00 00 00 00 00  ................
  468da0 00 00 00 00 00 00 00 00 00 00 00 00 00 00 00 00  ................
  468db0 00 00 00 00 00 00 00 00 00 00 00 00 00 00 00 00  ................
  468dc0 00 00 00 00 00 00 00 00 00 00 00 00 00 00 00 00  ................
  468dd0 00 00 00 00 00 00 00 00 00 00 00 00 00 00 00 00  ................
  468de0 00 00 00 00 00 00 00 00 00 00 00 00 00 00 00 00  ................
  468df0 00 00 00 00 00 00 00 00 00 00 00 00 00 00 00 00  ................
  468e00 00 00 00 00 00 00 00 00 00 00 00 00 00 00 00 00  ................
  468e10 00 00 00 00 00 00 00 00 00 00 00 00 00 00 00 00  ................
  468e20 00 00 00 00 00 00 00 00 00 00 00 00 00 00 00 00  ................
  468e30 00 00 00 00 00 00 00 00 00 00 00 00 00 00 00 00  ................
  468e40 00 00 00 00 00 00 00 00 00 00 00 00 00 00 00 00  ................
  468e50 00 00 00 00 00 00 00 00 00 00 00 00 00 00 00 00  ................
  468e60 00 00 00 00 00 00 00 00 00 00 00 00 00 00 00 00  ................
  468e70 00 00 00 00 00 00 00 00 00 00 00 00 00 00 00 00  ................
  468e80 00 00 00 00 00 00 00 00 00 00 00 00 00 00 00 00  ................
  468e90 00 00 00 00 00 00 00 00 00 00 00 00 00 00 00 00  ................
  468ea0 00 00 00 00 00 00 00 00 00 00 00 00 00 00 00 00  ................
  468eb0 00 00 00 00 00 00 00 00 00 00 00 00 00 00 00 00  ................
  468ec0 00 00 00 00 00 00 00 00 00 00 00 00 00 00 00 00  ................
  468ed0 00 00 00 00 00 00 00 00 00 00 00 00 00 00 00 00  ................
  468ee0 00 00 00 00 00 00 00 00 00 00 00 00 00 00 00 00  ................
  468ef0 00 00 00 00 00 00 00 00 00 00 00 00 00 00 00 00  ................
  468f00 00 00 00 00 00 00 00 00 00 00 00 00 00 00 00 00  ................
  468f10 00 00 00 00 00 00 00 00 00 00 00 00 00 00 00 00  ................
  468f20 00 00 00 00 00 00 00 00 00 00 00 00 00 00 00 00  ................
  468f30 00 00 00 00 00 00 00 00 00 00 00 00 00 00 00 00  ................
  468f40 00 00 00 00 00 00 00 00 00 00 00 00 00 00 00 00  ................
  468f50 00 00 00 00 00 00 00 00 00 00 00 00 00 00 00 00  ................
  468f60 00 00 00 00 00 00 00 00 00 00 00 00 00 00 00 00  ................
  468f70 00 00 00 00 00 00 00 00 00 00 00 00 00 00 00 00  ................
  468f80 00 00 00 00 00 00 00 00 00 00 00 00 00 00 00 00  ................
  468f90 00 00 00 00 00 00 00 00 00 00 00 00 00 00 00 00  ................
  468fa0 00 00 00 00 00 00 00 00 00 00 00 00 00 00 00 00  ................
  468fb0 00 00 00 00 00 00 00 00 00 00 00 00 00 00 00 00  ................
  468fc0 00 00 00 00 00 00 00 00 00 00 00 00 00 00 00 00  ................
  468fd0 00 00 00 00 00 00 00 00 00 00 00 00 00 00 00 00  ................
  468fe0 00 00 00 00 00 00 00 00 00 00 00 00 00 00 00 00  ................
  468ff0 00 00 00 00 00 00 00 00 00 00 00 00 00 00 00 00  ................

Section .rsrc (start = 0x69000, length = 0x230000, minimum allocation = 0x22fcf0):
    Address: 6e000
    Flags: 0x40000040 (data, readable)
    Alignment: 1 (2**0)
