File: Mindstation/LeapFrog/msconfig.exe
Module type: PE (Portable Executable)

Flags: 0x010f (relocations stripped, executable, line numbers stripped, local symbols stripped, 32-bit)
Image type: 32-bit
File version: 0.0
Linker version: 6.0
Program entry point: 0x40578c
Base of code section: 0x1000
Base of data section: 0x6000
Preferred base address: 0x400000
Required OS version: 4.0
Subsystem: CUI
Subsystem version: 4.0
DLL flags: 0x0000 ()
Stack size (reserve): 1048576 bytes
Stack size (commit): 4096 bytes
Heap size (reserve): 1048576 bytes
Heap size (commit): 4096 bytes

No export table

Imported modules:
	Utils.dll
	MSVCP60.dll
	MSVCRT.dll

Imported functions:
	Utils.dll:
		?main@config@@SAAAVconfigEngine@@XZ
		?getValue@configEngine@@QAEHPBDAAV?$basic_string@DU?$char_traits@D@std@@V?$allocator@D@2@@std@@@Z
		?setValue@configEngine@@QAEXPBDABV?$basic_string@DU?$char_traits@D@std@@V?$allocator@D@2@@std@@@Z
		?Save@configEngine@@QAEHXZ
	MSVCP60.dll:
		??_7?$basic_istream@DU?$char_traits@D@std@@@std@@6B@
		??_7?$basic_ios@DU?$char_traits@D@std@@@std@@6B@
		?_Xlen@std@@YAXXZ
		?_Copy@?$basic_string@DU?$char_traits@D@std@@V?$allocator@D@2@@std@@AAEXI@Z
		??0Init@ios_base@std@@QAE@XZ
		??1Init@ios_base@std@@QAE@XZ
		??0_Winit@std@@QAE@XZ
		??1_Winit@std@@QAE@XZ
		?cout@std@@3V?$basic_ostream@DU?$char_traits@D@std@@@1@A
		?_C@?1??_Nullstr@?$basic_string@DU?$char_traits@D@std@@V?$allocator@D@2@@std@@CAPBDXZ@4DB
		?_Eos@?$basic_string@DU?$char_traits@D@std@@V?$allocator@D@2@@std@@AAEXI@Z
		?_Grow@?$basic_string@DU?$char_traits@D@std@@V?$allocator@D@2@@std@@AAE_NI_N@Z
		?_Split@?$basic_string@DU?$char_traits@D@std@@V?$allocator@D@2@@std@@AAEXXZ
		?_Xran@std@@YAXXZ
		?npos@?$basic_string@DU?$char_traits@D@std@@V?$allocator@D@2@@std@@2IB
		??1?$basic_string@DU?$char_traits@D@std@@V?$allocator@D@2@@std@@QAE@XZ
		?_Tidy@?$basic_string@DU?$char_traits@D@std@@V?$allocator@D@2@@std@@AAEX_N@Z
		?assign@?$basic_string@DU?$char_traits@D@std@@V?$allocator@D@2@@std@@QAEAAV12@ABV12@II@Z
		?substr@?$basic_string@DU?$char_traits@D@std@@V?$allocator@D@2@@std@@QBE?AV12@II@Z
		?endl@std@@YAAAV?$basic_ostream@DU?$char_traits@D@std@@@1@AAV21@@Z
		??6std@@YAAAV?$basic_ostream@DU?$char_traits@D@std@@@0@AAV10@PBD@Z
		??6std@@YAAAV?$basic_ostream@DU?$char_traits@D@std@@@0@AAV10@ABV?$basic_string@DU?$char_traits@D@std@@V?$allocator@D@2@@0@@Z
		?assign@?$basic_string@DU?$char_traits@D@std@@V?$allocator@D@2@@std@@QAEAAV12@PBDI@Z
		?erase@?$basic_string@DU?$char_traits@D@std@@V?$allocator@D@2@@std@@QAEAAV12@II@Z
		??0?$basic_string@DU?$char_traits@D@std@@V?$allocator@D@2@@std@@QAE@PBDABV?$allocator@D@1@@Z
		??_8?$basic_stringstream@DU?$char_traits@D@std@@V?$allocator@D@2@@std@@7B?$basic_istream@DU?$char_traits@D@std@@@1@@
		??Hstd@@YA?AV?$basic_string@DU?$char_traits@D@std@@V?$allocator@D@2@@0@ABV10@PBD@Z
		??Hstd@@YA?AV?$basic_string@DU?$char_traits@D@std@@V?$allocator@D@2@@0@PBDABV10@@Z
		??Hstd@@YA?AV?$basic_string@DU?$char_traits@D@std@@V?$allocator@D@2@@0@ABV10@0@Z
		?append@?$basic_string@DU?$char_traits@D@std@@V?$allocator@D@2@@std@@QAEAAV12@ABV12@II@Z
		?append@?$basic_string@DU?$char_traits@D@std@@V?$allocator@D@2@@std@@QAEAAV12@PBDI@Z
		?_Refcnt@?$basic_string@DU?$char_traits@D@std@@V?$allocator@D@2@@std@@AAEAAEPBD@Z
		??1?$basic_streambuf@DU?$char_traits@D@std@@@std@@UAE@XZ
		??_D?$basic_stringstream@DU?$char_traits@D@std@@V?$allocator@D@2@@std@@QAEXXZ
		??1?$basic_iostream@DU?$char_traits@D@std@@@std@@UAE@XZ
		??1?$basic_ios@DU?$char_traits@D@std@@@std@@UAE@XZ
		??1ios_base@std@@UAE@XZ
		??_7?$basic_stringbuf@DU?$char_traits@D@std@@V?$allocator@D@2@@std@@6B@
		??0?$basic_string@DU?$char_traits@D@std@@V?$allocator@D@2@@std@@QAE@ABV?$allocator@D@1@@Z
		??_7?$basic_ostream@DU?$char_traits@D@std@@@std@@6B@
		??_7?$basic_iostream@DU?$char_traits@D@std@@@std@@6B@
		??1locale@std@@QAE@XZ
		??_7?$basic_streambuf@DU?$char_traits@D@std@@@std@@6B@
		?_Tidy@?$basic_stringbuf@DU?$char_traits@D@std@@V?$allocator@D@2@@std@@IAEXXZ
		?str@?$basic_stringstream@DU?$char_traits@D@std@@V?$allocator@D@2@@std@@QBE?AV?$basic_string@DU?$char_traits@D@std@@V?$allocator@D@2@@2@XZ
		??_7?$basic_stringstream@DU?$char_traits@D@std@@V?$allocator@D@2@@std@@6B@
		??0?$basic_stringbuf@DU?$char_traits@D@std@@V?$allocator@D@2@@std@@QAE@H@Z
		??0?$basic_iostream@DU?$char_traits@D@std@@@std@@QAE@PAV?$basic_streambuf@DU?$char_traits@D@std@@@1@@Z
		??0?$basic_ios@DU?$char_traits@D@std@@@std@@IAE@XZ
		??_8?$basic_stringstream@DU?$char_traits@D@std@@V?$allocator@D@2@@std@@7B?$basic_ostream@DU?$char_traits@D@std@@@1@@
	MSVCRT.dll:
		_controlfp
		_exit
		_onexit
		_except_handler3
		memmove
		__CxxFrameHandler
		_purecall
		??2@YAPAXI@Z
		_mbscmp
		_mbsicmp
		free
		__dllonexit
		__set_app_type
		_initterm
		_XcptFilter
		exit
		__p___initenv
		__getmainargs
		__setusermatherr
		_adjust_fdiv
		__p__commode
		__p__fmode

Section .text (start = 0x1000, length = 0x5000, minimum allocation = 0x4e7b):
    Address: 1000
    Flags: 0x60000020 (code, executable, readable)
    Alignment: 1 (2**0)
     ...

4011e0 <no name>:
  4011e0:	6a ff                     push	dword FFFFFFFFh
  4011e2:	68 09 5a 40 00            push	dword 00405A09h
  4011e7:	64 a1 00 00 00 00         mov	eax, [fs:0000h]
  4011ed:	50                        push	eax
  4011ee:	64 89 25 00 00 00 00      mov	[fs:00000000h], esp
  4011f5:	81 ec 34 02 00 00         sub	esp, 00000234h
  4011fb:	53                        push	ebx
  4011fc:	55                        push	ebp
  4011fd:	56                        push	esi
  4011fe:	57                        push	edi
  4011ff:	6a 00                     push	dword 00000000h
  401201:	8d 8c 24 f0 00 00 00      lea	ecx, [esp+000000F0h]
  401208:	e8 f3 24 00 00            call	403700
  40120d:	8d 44 24 1b               lea	eax, [esp+1Bh]
  401211:	8d 8c 24 dc 00 00 00      lea	ecx, [esp+000000DCh]
  401218:	50                        push	eax
  401219:	68 9c 80 40 00            push	dword 0040809Ch
  40121e:	c7 84 24 54 02 00 00      mov	dword [esp+00000254h], 00000000h
		00 00 00 00 
  401229:	ff 15 60 60 40 00         call	dword [00406060h]	; <??0?$basic_string@DU?$char_traits@D@std@@V?$allocator@D@2@@std@@QAE@PBDABV?$allocator@D@1@@Z>
  40122f:	8d 4c 24 18               lea	ecx, [esp+18h]
  401233:	c6 84 24 4c 02 00 00      mov	byte [esp+0000024Ch], 01h
		01 
  40123b:	51                        push	ecx
  40123c:	68 80 80 40 00            push	dword 00408080h
  401241:	8d 8c 24 d4 00 00 00      lea	ecx, [esp+000000D4h]
  401248:	ff 15 60 60 40 00         call	dword [00406060h]	; <??0?$basic_string@DU?$char_traits@D@std@@V?$allocator@D@2@@std@@QAE@PBDABV?$allocator@D@1@@Z>
  40124e:	8d 54 24 17               lea	edx, [esp+17h]
  401252:	8d 8c 24 9c 00 00 00      lea	ecx, [esp+0000009Ch]
  401259:	52                        push	edx
  40125a:	68 78 80 40 00            push	dword 00408078h
  40125f:	c6 84 24 54 02 00 00      mov	byte [esp+00000254h], 02h
		02 
  401267:	ff 15 60 60 40 00         call	dword [00406060h]	; <??0?$basic_string@DU?$char_traits@D@std@@V?$allocator@D@2@@std@@QAE@PBDABV?$allocator@D@1@@Z>
  40126d:	8d 84 24 dc 00 00 00      lea	eax, [esp+000000DCh]
  401274:	8d 8c 24 cc 00 00 00      lea	ecx, [esp+000000CCh]
  40127b:	50                        push	eax
  40127c:	8d 94 24 a0 00 00 00      lea	edx, [esp+000000A0h]
  401283:	51                        push	ecx
  401284:	52                        push	edx
  401285:	8d 8c 24 70 01 00 00      lea	ecx, [esp+00000170h]
  40128c:	c6 84 24 58 02 00 00      mov	byte [esp+00000258h], 03h
		03 
  401294:	e8 57 30 00 00            call	4042f0
  401299:	6a 01                     push	dword 00000001h
  40129b:	8d 8c 24 a0 00 00 00      lea	ecx, [esp+000000A0h]
  4012a2:	c6 84 24 50 02 00 00      mov	byte [esp+00000250h], 07h
		07 
  4012aa:	ff 15 40 60 40 00         call	dword [00406040h]	; <?_Tidy@?$basic_string@DU?$char_traits@D@std@@V?$allocator@D@2@@std@@AAEX_N@Z>
  4012b0:	6a 01                     push	dword 00000001h
  4012b2:	8d 8c 24 d0 00 00 00      lea	ecx, [esp+000000D0h]
  4012b9:	c6 84 24 50 02 00 00      mov	byte [esp+00000250h], 06h
		06 
  4012c1:	ff 15 40 60 40 00         call	dword [00406040h]	; <?_Tidy@?$basic_string@DU?$char_traits@D@std@@V?$allocator@D@2@@std@@AAEX_N@Z>
  4012c7:	6a 01                     push	dword 00000001h
  4012c9:	8d 8c 24 e0 00 00 00      lea	ecx, [esp+000000E0h]
  4012d0:	c6 84 24 50 02 00 00      mov	byte [esp+00000250h], 05h
		05 
  4012d8:	ff 15 40 60 40 00         call	dword [00406040h]	; <?_Tidy@?$basic_string@DU?$char_traits@D@std@@V?$allocator@D@2@@std@@AAEX_N@Z>
  4012de:	8d 44 24 15               lea	eax, [esp+15h]
  4012e2:	8d 4c 24 4c               lea	ecx, [esp+4Ch]
  4012e6:	50                        push	eax
  4012e7:	68 9c 80 40 00            push	dword 0040809Ch
  4012ec:	ff 15 60 60 40 00         call	dword [00406060h]	; <??0?$basic_string@DU?$char_traits@D@std@@V?$allocator@D@2@@std@@QAE@PBDABV?$allocator@D@1@@Z>
  4012f2:	8d 4c 24 1a               lea	ecx, [esp+1Ah]
  4012f6:	c6 84 24 4c 02 00 00      mov	byte [esp+0000024Ch], 08h
		08 
  4012fe:	51                        push	ecx
  4012ff:	68 6c 80 40 00            push	dword 0040806Ch
  401304:	8d 8c 24 c4 00 00 00      lea	ecx, [esp+000000C4h]
  40130b:	ff 15 60 60 40 00         call	dword [00406060h]	; <??0?$basic_string@DU?$char_traits@D@std@@V?$allocator@D@2@@std@@QAE@PBDABV?$allocator@D@1@@Z>
  401311:	8d 54 24 12               lea	edx, [esp+12h]
  401315:	8d 4c 24 7c               lea	ecx, [esp+7Ch]
  401319:	52                        push	edx
  40131a:	68 9c 80 40 00            push	dword 0040809Ch
  40131f:	c6 84 24 54 02 00 00      mov	byte [esp+00000254h], 09h
		09 
  401327:	ff 15 60 60 40 00         call	dword [00406060h]	; <??0?$basic_string@DU?$char_traits@D@std@@V?$allocator@D@2@@std@@QAE@PBDABV?$allocator@D@1@@Z>
  40132d:	8d 44 24 4c               lea	eax, [esp+4Ch]
  401331:	8d 8c 24 bc 00 00 00      lea	ecx, [esp+000000BCh]
  401338:	50                        push	eax
  401339:	8d 94 24 80 00 00 00      lea	edx, [esp+00000080h]
  401340:	51                        push	ecx
  401341:	c6 84 24 54 02 00 00      mov	byte [esp+00000254h], 0Ah
		0a 
  401349:	52                        push	edx
  40134a:	8d 8c 24 cc 01 00 00      lea	ecx, [esp+000001CCh]
  401351:	e8 9a 2f 00 00            call	4042f0
  401356:	6a 01                     push	dword 00000001h
  401358:	8d 8c 24 80 00 00 00      lea	ecx, [esp+00000080h]
  40135f:	c6 84 24 50 02 00 00      mov	byte [esp+00000250h], 0Eh
		0e 
  401367:	ff 15 40 60 40 00         call	dword [00406040h]	; <?_Tidy@?$basic_string@DU?$char_traits@D@std@@V?$allocator@D@2@@std@@AAEX_N@Z>
  40136d:	6a 01                     push	dword 00000001h
  40136f:	8d 8c 24 c0 00 00 00      lea	ecx, [esp+000000C0h]
  401376:	c6 84 24 50 02 00 00      mov	byte [esp+00000250h], 0Dh
		0d 
  40137e:	ff 15 40 60 40 00         call	dword [00406040h]	; <?_Tidy@?$basic_string@DU?$char_traits@D@std@@V?$allocator@D@2@@std@@AAEX_N@Z>
  401384:	6a 01                     push	dword 00000001h
  401386:	8d 4c 24 50               lea	ecx, [esp+50h]
  40138a:	c6 84 24 50 02 00 00      mov	byte [esp+00000250h], 0Ch
		0c 
  401392:	ff 15 40 60 40 00         call	dword [00406040h]	; <?_Tidy@?$basic_string@DU?$char_traits@D@std@@V?$allocator@D@2@@std@@AAEX_N@Z>
  401398:	8d 44 24 13               lea	eax, [esp+13h]
  40139c:	8d 4c 24 6c               lea	ecx, [esp+6Ch]
  4013a0:	50                        push	eax
  4013a1:	68 60 80 40 00            push	dword 00408060h
  4013a6:	ff 15 60 60 40 00         call	dword [00406060h]	; <??0?$basic_string@DU?$char_traits@D@std@@V?$allocator@D@2@@std@@QAE@PBDABV?$allocator@D@1@@Z>
  4013ac:	8d 4c 24 14               lea	ecx, [esp+14h]
  4013b0:	c6 84 24 4c 02 00 00      mov	byte [esp+0000024Ch], 0Fh
		0f 
  4013b8:	51                        push	ecx
  4013b9:	68 5c 80 40 00            push	dword 0040805Ch
  4013be:	8d 4c 24 64               lea	ecx, [esp+64h]
  4013c2:	ff 15 60 60 40 00         call	dword [00406060h]	; <??0?$basic_string@DU?$char_traits@D@std@@V?$allocator@D@2@@std@@QAE@PBDABV?$allocator@D@1@@Z>
  4013c8:	8d 54 24 6c               lea	edx, [esp+6Ch]
  4013cc:	8d 44 24 5c               lea	eax, [esp+5Ch]
  4013d0:	52                        push	edx
  4013d1:	50                        push	eax
  4013d2:	8d 8c 24 24 02 00 00      lea	ecx, [esp+00000224h]
  4013d9:	c6 84 24 54 02 00 00      mov	byte [esp+00000254h], 10h
		10 
  4013e1:	e8 da 05 00 00            call	4019c0
  4013e6:	6a 01                     push	dword 00000001h
  4013e8:	8d 4c 24 60               lea	ecx, [esp+60h]
  4013ec:	c6 84 24 50 02 00 00      mov	byte [esp+00000250h], 13h
		13 
  4013f4:	ff 15 40 60 40 00         call	dword [00406040h]	; <?_Tidy@?$basic_string@DU?$char_traits@D@std@@V?$allocator@D@2@@std@@AAEX_N@Z>
  4013fa:	b3 12                     mov	bl, 12h
  4013fc:	6a 01                     push	dword 00000001h
  4013fe:	8d 4c 24 70               lea	ecx, [esp+70h]
  401402:	88 9c 24 50 02 00 00      mov	[esp+00000250h], bl
  401409:	ff 15 40 60 40 00         call	dword [00406040h]	; <?_Tidy@?$basic_string@DU?$char_traits@D@std@@V?$allocator@D@2@@std@@AAEX_N@Z>
  40140f:	8d 8c 24 1c 02 00 00      lea	ecx, [esp+0000021Ch]
  401416:	c7 84 24 ec 00 00 00      mov	dword [esp+000000ECh], 00406140h
		40 61 40 00 
  401421:	51                        push	ecx
  401422:	8d 8c 24 f0 00 00 00      lea	ecx, [esp+000000F0h]
  401429:	e8 22 12 00 00            call	402650
  40142e:	8d 94 24 64 01 00 00      lea	edx, [esp+00000164h]
  401435:	8d 8c 24 ec 00 00 00      lea	ecx, [esp+000000ECh]
  40143c:	52                        push	edx
  40143d:	e8 de 13 00 00            call	402820
  401442:	8d 44 24 16               lea	eax, [esp+16h]
  401446:	8d 8c 24 8c 00 00 00      lea	ecx, [esp+0000008Ch]
  40144d:	50                        push	eax
  40144e:	68 1c 82 40 00            push	dword 0040821Ch
  401453:	ff 15 60 60 40 00         call	dword [00406060h]	; <??0?$basic_string@DU?$char_traits@D@std@@V?$allocator@D@2@@std@@QAE@PBDABV?$allocator@D@1@@Z>
  401459:	8d 8c 24 8c 00 00 00      lea	ecx, [esp+0000008Ch]
  401460:	c6 84 24 4c 02 00 00      mov	byte [esp+0000024Ch], 14h
		14 
  401468:	51                        push	ecx
  401469:	8d 8c 24 c4 01 00 00      lea	ecx, [esp+000001C4h]
  401470:	e8 7b 2f 00 00            call	4043f0
  401475:	6a 01                     push	dword 00000001h
  401477:	8d 8c 24 90 00 00 00      lea	ecx, [esp+00000090h]
  40147e:	88 9c 24 50 02 00 00      mov	[esp+00000250h], bl
  401485:	ff 15 40 60 40 00         call	dword [00406040h]	; <?_Tidy@?$basic_string@DU?$char_traits@D@std@@V?$allocator@D@2@@std@@AAEX_N@Z>
  40148b:	8d 94 24 c0 01 00 00      lea	edx, [esp+000001C0h]
  401492:	8d 8c 24 ec 00 00 00      lea	ecx, [esp+000000ECh]
  401499:	52                        push	edx
  40149a:	e8 81 13 00 00            call	402820
  40149f:	8d 44 24 19               lea	eax, [esp+19h]
  4014a3:	50                        push	eax
  4014a4:	68 54 80 40 00            push	dword 00408054h
  4014a9:	8d 8c 24 b4 00 00 00      lea	ecx, [esp+000000B4h]
  4014b0:	ff 15 60 60 40 00         call	dword [00406060h]	; <??0?$basic_string@DU?$char_traits@D@std@@V?$allocator@D@2@@std@@QAE@PBDABV?$allocator@D@1@@Z>
  4014b6:	8b 94 24 2c 02 00 00      mov	edx, [esp+0000022Ch]
  4014bd:	8d 8c 24 ac 00 00 00      lea	ecx, [esp+000000ACh]
  4014c4:	51                        push	ecx
  4014c5:	52                        push	edx
  4014c6:	8d 8c 24 2c 02 00 00      lea	ecx, [esp+0000022Ch]
  4014cd:	c6 84 24 54 02 00 00      mov	byte [esp+00000254h], 15h
		15 
  4014d5:	e8 16 34 00 00            call	4048f0
  4014da:	6a 01                     push	dword 00000001h
  4014dc:	8d 8c 24 b0 00 00 00      lea	ecx, [esp+000000B0h]
  4014e3:	88 9c 24 50 02 00 00      mov	[esp+00000250h], bl
  4014ea:	ff 15 40 60 40 00         call	dword [00406040h]	; <?_Tidy@?$basic_string@DU?$char_traits@D@std@@V?$allocator@D@2@@std@@AAEX_N@Z>
  4014f0:	8d 44 24 10               lea	eax, [esp+10h]
  4014f4:	8d 4c 24 1c               lea	ecx, [esp+1Ch]
  4014f8:	50                        push	eax
  4014f9:	c7 84 24 50 02 00 00      mov	dword [esp+00000250h], 00000016h
		16 00 00 00 
  401504:	e8 67 2d 00 00            call	404270
  401509:	8b 84 24 54 02 00 00      mov	eax, [esp+00000254h]
  401510:	b3 17                     mov	bl, 17h
  401512:	83 f8 01                  cmp	eax, 01h
  401515:	88 9c 24 4c 02 00 00      mov	[esp+0000024Ch], bl
  40151c:	7e 53                     jle	401571
  40151e:	8b 8c 24 58 02 00 00      mov	ecx, [esp+00000258h]
  401525:	8d 78 ff                  lea	edi, [eax-01h]
  401528:	8d 71 04                  lea	esi, [ecx+04h]
  40152b:	8b 06                    >mov	eax, [esi]
  40152d:	8d 54 24 11               lea	edx, [esp+11h]
  401531:	52                        push	edx
  401532:	50                        push	eax
  401533:	8d 4c 24 44               lea	ecx, [esp+44h]
  401537:	ff 15 60 60 40 00         call	dword [00406060h]	; <??0?$basic_string@DU?$char_traits@D@std@@V?$allocator@D@2@@std@@QAE@PBDABV?$allocator@D@1@@Z>
  40153d:	8b 54 24 24               mov	edx, [esp+24h]
  401541:	8d 4c 24 3c               lea	ecx, [esp+3Ch]
  401545:	51                        push	ecx
  401546:	52                        push	edx
  401547:	8d 4c 24 24               lea	ecx, [esp+24h]
  40154b:	c6 84 24 54 02 00 00      mov	byte [esp+00000254h], 18h
		18 
  401553:	e8 98 33 00 00            call	4048f0
  401558:	6a 01                     push	dword 00000001h
  40155a:	8d 4c 24 40               lea	ecx, [esp+40h]
  40155e:	88 9c 24 50 02 00 00      mov	[esp+00000250h], bl
  401565:	ff 15 40 60 40 00         call	dword [00406040h]	; <?_Tidy@?$basic_string@DU?$char_traits@D@std@@V?$allocator@D@2@@std@@AAEX_N@Z>
  40156b:	83 c6 04                  add	esi, 04h
  40156e:	4f                        dec	edi
  40156f:	75 ba                     jnz	40152b
  401571:	8d 44 24 1c              >lea	eax, [esp+1Ch]
  401575:	6a 01                     push	dword 00000001h
  401577:	50                        push	eax
  401578:	8d 8c 24 f4 00 00 00      lea	ecx, [esp+000000F4h]
  40157f:	e8 7c 19 00 00            call	402f00
  401584:	8d 4c 24 1c               lea	ecx, [esp+1Ch]
  401588:	c6 84 24 4c 02 00 00      mov	byte [esp+0000024Ch], 16h
		16 
  401590:	e8 fb 2c 00 00            call	404290
  401595:	f6 84 24 40 01 00 00      test	byte [esp+00000140h], 01h
		01 
  40159d:	75 36                     jnz	4015d5
  40159f:	8b 84 24 08 01 00 00      mov	eax, [esp+00000108h]
  4015a6:	85 c0                     test	eax, eax
  4015a8:	8a 84 24 18 01 00 00      mov	al, [esp+00000118h]
  4015af:	75 08                     jnz	4015b9
  4015b1:	a8 01                     test	al, 01h
  4015b3:	0f 84 0a 01 00 00         jz	4016c3
  4015b9:	a8 01                    >test	al, 01h
  4015bb:	74 18                     jz	4015d5
  4015bd:	8b 0d 38 60 40 00         mov	ecx, [00406038h]
  4015c3:	8b 11                     mov	edx, [ecx]
  4015c5:	8d 8c 24 00 01 00 00      lea	ecx, [esp+00000100h]
  4015cc:	52                        push	edx
  4015cd:	6a 00                     push	dword 00000000h
  4015cf:	ff 15 5c 60 40 00         call	dword [0040605Ch]	; <?erase@?$basic_string@DU?$char_traits@D@std@@V?$allocator@D@2@@std@@QAEAAV12@II@Z>
  4015d5:	8a 44 24 11              >mov	al, [esp+11h]
  4015d9:	6a 00                     push	dword 00000000h
  4015db:	8d 4c 24 20               lea	ecx, [esp+20h]
  4015df:	88 44 24 20               mov	[esp+20h], al
  4015e3:	ff 15 40 60 40 00         call	dword [00406040h]	; <?_Tidy@?$basic_string@DU?$char_traits@D@std@@V?$allocator@D@2@@std@@AAEX_N@Z>
  4015e9:	bf 1c 82 40 00            mov	edi, 0040821Ch
  4015ee:	83 c9 ff                  or	ecx, FFh
  4015f1:	33 c0                     xor	eax, eax
  4015f3:	f2 ae                     repne scasb
  4015f5:	f7 d1                     not	ecx
  4015f7:	49                        dec	ecx
  4015f8:	51                        push	ecx
  4015f9:	68 1c 82 40 00            push	dword 0040821Ch
  4015fe:	8d 4c 24 24               lea	ecx, [esp+24h]
  401602:	ff 15 58 60 40 00         call	dword [00406058h]	; <?assign@?$basic_string@DU?$char_traits@D@std@@V?$allocator@D@2@@std@@QAEAAV12@PBDI@Z>
  401608:	8d 4c 24 1c               lea	ecx, [esp+1Ch]
  40160c:	8d 54 24 3c               lea	edx, [esp+3Ch]
  401610:	b3 19                     mov	bl, 19h
  401612:	51                        push	ecx
  401613:	52                        push	edx
  401614:	8d 8c 24 f4 00 00 00      lea	ecx, [esp+000000F4h]
  40161b:	88 9c 24 54 02 00 00      mov	[esp+00000254h], bl
  401622:	e8 c9 13 00 00            call	4029f0
  401627:	50                        push	eax
  401628:	a1 20 60 40 00            mov	eax, [406020h]
  40162d:	50                        push	eax
  40162e:	c6 84 24 54 02 00 00      mov	byte [esp+00000254h], 1Ah
		1a 
  401636:	e8 e1 40 00 00            call	40571c	; <??6std@@YAAAV?$basic_ostream@DU?$char_traits@D@std@@@0@AAV10@ABV?$basic_string@DU?$char_traits@D@std@@V?$allocator@D@2@@0@@Z>
  40163b:	83 c4 08                  add	esp, 08h
  40163e:	8d 4c 24 3c               lea	ecx, [esp+3Ch]
  401642:	88 9c 24 4c 02 00 00      mov	[esp+0000024Ch], bl
  401649:	6a 01                     push	dword 00000001h
  40164b:	ff 15 40 60 40 00         call	dword [00406040h]	; <?_Tidy@?$basic_string@DU?$char_traits@D@std@@V?$allocator@D@2@@std@@AAEX_N@Z>
  401651:	6a 01                     push	dword 00000001h
  401653:	8d 4c 24 20               lea	ecx, [esp+20h]
  401657:	c6 84 24 50 02 00 00      mov	byte [esp+00000250h], 16h
		16 
  40165f:	ff 15 40 60 40 00         call	dword [00406040h]	; <?_Tidy@?$basic_string@DU?$char_traits@D@std@@V?$allocator@D@2@@std@@AAEX_N@Z>
  401665:	8d 8c 24 1c 02 00 00      lea	ecx, [esp+0000021Ch]
  40166c:	c7 84 24 4c 02 00 00      mov	dword [esp+0000024Ch], 0000001Dh
		1d 00 00 00 
  401677:	e8 84 02 00 00            call	401900
  40167c:	8d 8c 24 c0 01 00 00      lea	ecx, [esp+000001C0h]
  401683:	c6 84 24 4c 02 00 00      mov	byte [esp+0000024Ch], 1Ch
		1c 
  40168b:	e8 f0 28 00 00            call	403f80
  401690:	8d 8c 24 64 01 00 00      lea	ecx, [esp+00000164h]
  401697:	c6 84 24 4c 02 00 00      mov	byte [esp+0000024Ch], 1Bh
		1b 
  40169f:	e8 dc 28 00 00            call	403f80
  4016a4:	8d 8c 24 ec 00 00 00      lea	ecx, [esp+000000ECh]
  4016ab:	c7 84 24 4c 02 00 00      mov	dword [esp+0000024Ch], FFFFFFFFh
		ff ff ff ff 
  4016b6:	e8 95 27 00 00            call	403e50
  4016bb:	83 c8 ff                  or	eax, FFh
  4016be:	e9 1e 02 00 00            jmp	4018e1
  4016c3:	8a 9c 24 20 02 00 00     >mov	bl, [esp+00000220h]
  4016ca:	8b b4 24 14 02 00 00      mov	esi, [esp+00000214h]
  4016d1:	8a 4c 24 11               mov	cl, [esp+11h]
  4016d5:	80 e3 01                  and	bl, 01h
  4016d8:	85 f6                     test	esi, esi
  4016da:	88 4c 24 2c               mov	[esp+2Ch], cl
  4016de:	6a 00                     push	dword 00000000h
  4016e0:	8d 4c 24 30               lea	ecx, [esp+30h]
  4016e4:	0f 97 44 24 14            seta	byte [esp+14h]
  4016e9:	ff 15 40 60 40 00         call	dword [00406040h]	; <?_Tidy@?$basic_string@DU?$char_traits@D@std@@V?$allocator@D@2@@std@@AAEX_N@Z>
  4016ef:	8b 84 24 b4 01 00 00      mov	eax, [esp+000001B4h]
  4016f6:	c6 84 24 4c 02 00 00      mov	byte [esp+0000024Ch], 1Eh
		1e 
  4016fe:	85 c0                     test	eax, eax
  401700:	75 05                     jnz	401707
  401702:	a1 24 60 40 00            mov	eax, [406024h]
  401707:	8b 35 28 61 40 00        >mov	esi, [00406128h]
  40170d:	8d 54 24 2c               lea	edx, [esp+2Ch]
  401711:	52                        push	edx
  401712:	50                        push	eax
  401713:	ff d6                     call	esi
  401715:	8b 3d 2c 61 40 00         mov	edi, [0040612Ch]
  40171b:	8b c8                     mov	ecx, eax
  40171d:	ff d7                     call	edi
  40171f:	8b 2d 50 60 40 00         mov	ebp, [00406050h]
  401725:	8a 4c 24 10               mov	cl, [esp+10h]
  401729:	83 f8 6e                  cmp	eax, 6Eh
  40172c:	0f 84 b6 00 00 00         jz	4017e8
  401732:	84 c9                     test	cl, cl
  401734:	0f 85 b6 00 00 00         jnz	4017f0
  40173a:	84 db                     test	bl, bl
  40173c:	75 36                     jnz	401774
  40173e:	8b 0d 20 60 40 00         mov	ecx, [00406020h]
  401744:	8d 84 24 b0 01 00 00      lea	eax, [esp+000001B0h]
  40174b:	68 50 80 40 00            push	dword 00408050h
  401750:	50                        push	eax
  401751:	68 2c 80 40 00            push	dword 0040802Ch
  401756:	51                        push	ecx
  401757:	8b f5                     mov	esi, ebp
  401759:	ff d6                     call	esi
  40175b:	83 c4 08                  add	esp, 08h
  40175e:	50                        push	eax
  40175f:	e8 b8 3f 00 00            call	40571c	; <??6std@@YAAAV?$basic_ostream@DU?$char_traits@D@std@@@0@AAV10@ABV?$basic_string@DU?$char_traits@D@std@@V?$allocator@D@2@@0@@Z>
  401764:	83 c4 08                  add	esp, 08h
  401767:	50                        push	eax
  401768:	ff d6                     call	esi
  40176a:	50                        push	eax
  40176b:	ff 15 4c 60 40 00         call	dword [0040604Ch]	; <?endl@std@@YAAAV?$basic_ostream@DU?$char_traits@D@std@@@1@AAV21@@Z>
  401771:	83 c4 0c                  add	esp, 0Ch
  401774:	6a 01                    >push	dword 00000001h
  401776:	8d 4c 24 30               lea	ecx, [esp+30h]
  40177a:	c6 84 24 50 02 00 00      mov	byte [esp+00000250h], 16h
		16 
  401782:	ff 15 40 60 40 00         call	dword [00406040h]	; <?_Tidy@?$basic_string@DU?$char_traits@D@std@@V?$allocator@D@2@@std@@AAEX_N@Z>
  401788:	8d 8c 24 1c 02 00 00      lea	ecx, [esp+0000021Ch]
  40178f:	c7 84 24 4c 02 00 00      mov	dword [esp+0000024Ch], 00000021h
		21 00 00 00 
  40179a:	e8 61 01 00 00            call	401900
  40179f:	8d 8c 24 c0 01 00 00      lea	ecx, [esp+000001C0h]
  4017a6:	c6 84 24 4c 02 00 00      mov	byte [esp+0000024Ch], 20h
		20 
  4017ae:	e8 cd 27 00 00            call	403f80
  4017b3:	8d 8c 24 64 01 00 00      lea	ecx, [esp+00000164h]
  4017ba:	c6 84 24 4c 02 00 00      mov	byte [esp+0000024Ch], 1Fh
		1f 
  4017c2:	e8 b9 27 00 00            call	403f80
  4017c7:	8d 8c 24 ec 00 00 00      lea	ecx, [esp+000000ECh]
  4017ce:	c7 84 24 4c 02 00 00      mov	dword [esp+0000024Ch], FFFFFFFFh
		ff ff ff ff 
  4017d9:	e8 72 26 00 00            call	403e50
  4017de:	b8 fe ff ff ff            mov	eax, FFFFFFFEh
  4017e3:	e9 f9 00 00 00            jmp	4018e1
  4017e8:	84 c9                    >test	cl, cl
  4017ea:	0f 84 89 00 00 00         jz	401879
  4017f0:	84 db                    >test	bl, bl
  4017f2:	75 3c                     jnz	401830
  4017f4:	83 f8 6e                  cmp	eax, 6Eh
  4017f7:	75 37                     jnz	401830
  4017f9:	8b 0d 20 60 40 00         mov	ecx, [00406020h]
  4017ff:	8d 54 24 2c               lea	edx, [esp+2Ch]
  401803:	52                        push	edx
  401804:	8d 84 24 b4 01 00 00      lea	eax, [esp+000001B4h]
  40180b:	68 24 80 40 00            push	dword 00408024h
  401810:	50                        push	eax
  401811:	51                        push	ecx
  401812:	e8 05 3f 00 00            call	40571c	; <??6std@@YAAAV?$basic_ostream@DU?$char_traits@D@std@@@0@AAV10@ABV?$basic_string@DU?$char_traits@D@std@@V?$allocator@D@2@@0@@Z>
  401817:	83 c4 08                  add	esp, 08h
  40181a:	50                        push	eax
  40181b:	ff d5                     call	ebp
  40181d:	83 c4 08                  add	esp, 08h
  401820:	50                        push	eax
  401821:	e8 f6 3e 00 00            call	40571c	; <??6std@@YAAAV?$basic_ostream@DU?$char_traits@D@std@@@0@AAV10@ABV?$basic_string@DU?$char_traits@D@std@@V?$allocator@D@2@@0@@Z>
  401826:	50                        push	eax
  401827:	ff 15 4c 60 40 00         call	dword [0040604Ch]	; <?endl@std@@YAAAV?$basic_ostream@DU?$char_traits@D@std@@@1@AAV21@@Z>
  40182d:	83 c4 0c                  add	esp, 0Ch
  401830:	8b 84 24 b4 01 00 00     >mov	eax, [esp+000001B4h]
  401837:	85 c0                     test	eax, eax
  401839:	75 05                     jnz	401840
  40183b:	a1 24 60 40 00            mov	eax, [406024h]
  401840:	8d 94 24 0c 02 00 00     >lea	edx, [esp+0000020Ch]
  401847:	52                        push	edx
  401848:	50                        push	eax
  401849:	ff d6                     call	esi
  40184b:	8b c8                     mov	ecx, eax
  40184d:	ff 15 30 61 40 00         call	dword [00406130h]	; <?setValue@configEngine@@QAEXPBDABV?$basic_string@DU?$char_traits@D@std@@V?$allocator@D@2@@std@@@Z>
  401853:	ff d6                     call	esi
  401855:	8b c8                     mov	ecx, eax
  401857:	ff 15 34 61 40 00         call	dword [00406134h]	; <?Save@configEngine@@QAEHXZ>
  40185d:	8b 84 24 b4 01 00 00      mov	eax, [esp+000001B4h]
  401864:	85 c0                     test	eax, eax
  401866:	75 05                     jnz	40186d
  401868:	a1 24 60 40 00            mov	eax, [406024h]
  40186d:	8d 4c 24 2c              >lea	ecx, [esp+2Ch]
  401871:	51                        push	ecx
  401872:	50                        push	eax
  401873:	ff d6                     call	esi
  401875:	8b c8                     mov	ecx, eax
  401877:	ff d7                     call	edi
  401879:	84 db                    >test	bl, bl
  40187b:	75 37                     jnz	4018b4
  40187d:	8b 0d 20 60 40 00         mov	ecx, [00406020h]
  401883:	8d 54 24 2c               lea	edx, [esp+2Ch]
  401887:	52                        push	edx
  401888:	8d 84 24 b4 01 00 00      lea	eax, [esp+000001B4h]
  40188f:	68 20 80 40 00            push	dword 00408020h
  401894:	50                        push	eax
  401895:	51                        push	ecx
  401896:	e8 81 3e 00 00            call	40571c	; <??6std@@YAAAV?$basic_ostream@DU?$char_traits@D@std@@@0@AAV10@ABV?$basic_string@DU?$char_traits@D@std@@V?$allocator@D@2@@0@@Z>
  40189b:	83 c4 08                  add	esp, 08h
  40189e:	50                        push	eax
  40189f:	ff d5                     call	ebp
  4018a1:	83 c4 08                  add	esp, 08h
  4018a4:	50                        push	eax
  4018a5:	e8 72 3e 00 00            call	40571c	; <??6std@@YAAAV?$basic_ostream@DU?$char_traits@D@std@@@0@AAV10@ABV?$basic_string@DU?$char_traits@D@std@@V?$allocator@D@2@@0@@Z>
  4018aa:	50                        push	eax
  4018ab:	ff 15 4c 60 40 00         call	dword [0040604Ch]	; <?endl@std@@YAAAV?$basic_ostream@DU?$char_traits@D@std@@@1@AAV21@@Z>
  4018b1:	83 c4 0c                  add	esp, 0Ch
  4018b4:	6a 01                    >push	dword 00000001h
  4018b6:	8d 4c 24 30               lea	ecx, [esp+30h]
  4018ba:	c6 84 24 50 02 00 00      mov	byte [esp+00000250h], 16h
		16 
  4018c2:	ff 15 40 60 40 00         call	dword [00406040h]	; <?_Tidy@?$basic_string@DU?$char_traits@D@std@@V?$allocator@D@2@@std@@AAEX_N@Z>
  4018c8:	8d 8c 24 ec 00 00 00      lea	ecx, [esp+000000ECh]
  4018cf:	c7 84 24 4c 02 00 00      mov	dword [esp+0000024Ch], FFFFFFFFh
		ff ff ff ff 
  4018da:	e8 a1 27 00 00            call	404080
  4018df:	33 c0                     xor	eax, eax
  4018e1:	8b 8c 24 44 02 00 00     >mov	ecx, [esp+00000244h]
  4018e8:	5f                        pop	edi
  4018e9:	5e                        pop	esi
  4018ea:	5d                        pop	ebp
  4018eb:	5b                        pop	ebx
  4018ec:	64 89 0d 00 00 00 00      mov	[fs:00000000h], ecx
  4018f3:	81 c4 40 02 00 00         add	esp, 00000240h
  4018f9:	c3                        ret
     ...

401900 <no name>:
  401900:	53                        push	ebx
  401901:	55                        push	ebp
  401902:	56                        push	esi
  401903:	57                        push	edi
  401904:	8b f9                     mov	edi, ecx
  401906:	33 db                     xor	ebx, ebx
  401908:	c7 07 44 61 40 00         mov	dword [edi], 00406144h
  40190e:	8b 47 1c                  mov	eax, [edi+1Ch]
  401911:	3b c3                     cmp	eax, ebx
  401913:	74 1d                     jz	401932
  401915:	8d 48 ff                  lea	ecx, [eax-01h]
  401918:	8a 40 ff                  mov	al, [eax-01h]
  40191b:	3a c3                     cmp	al, bl
  40191d:	74 0a                     jz	401929
  40191f:	3c ff                     cmp	al, FFh
  401921:	74 06                     jz	401929
  401923:	fe c8                     dec	al
  401925:	88 01                     mov	[ecx], al
  401927:	eb 09                     jmp	401932
  401929:	51                       >push	ecx
  40192a:	e8 e1 3d 00 00            call	405710
  40192f:	83 c4 04                  add	esp, 04h
  401932:	89 5f 1c                 >mov	[edi+1Ch], ebx
  401935:	89 5f 20                  mov	[edi+20h], ebx
  401938:	89 5f 24                  mov	[edi+24h], ebx
  40193b:	8b 6f 10                  mov	ebp, [edi+10h]
  40193e:	8b 77 0c                  mov	esi, [edi+0Ch]
  401941:	3b f5                     cmp	esi, ebp
  401943:	74 34                     jz	401979
  401945:	8b 46 04                 >mov	eax, [esi+04h]
  401948:	3b c3                     cmp	eax, ebx
  40194a:	74 1d                     jz	401969
  40194c:	8d 48 ff                  lea	ecx, [eax-01h]
  40194f:	8a 40 ff                  mov	al, [eax-01h]
  401952:	3a c3                     cmp	al, bl
  401954:	74 0a                     jz	401960
  401956:	3c ff                     cmp	al, FFh
  401958:	74 06                     jz	401960
  40195a:	fe c8                     dec	al
  40195c:	88 01                     mov	[ecx], al
  40195e:	eb 09                     jmp	401969
  401960:	51                       >push	ecx
  401961:	e8 aa 3d 00 00            call	405710
  401966:	83 c4 04                  add	esp, 04h
  401969:	89 5e 04                 >mov	[esi+04h], ebx
  40196c:	89 5e 08                  mov	[esi+08h], ebx
  40196f:	89 5e 0c                  mov	[esi+0Ch], ebx
  401972:	83 c6 10                  add	esi, 10h
  401975:	3b f5                     cmp	esi, ebp
  401977:	75 cc                     jnz	401945
  401979:	8b 47 0c                 >mov	eax, [edi+0Ch]
  40197c:	50                        push	eax
  40197d:	e8 8e 3d 00 00            call	405710
  401982:	83 c4 04                  add	esp, 04h
  401985:	89 5f 0c                  mov	[edi+0Ch], ebx
  401988:	89 5f 10                  mov	[edi+10h], ebx
  40198b:	89 5f 14                  mov	[edi+14h], ebx
  40198e:	5f                        pop	edi
  40198f:	5e                        pop	esi
  401990:	5d                        pop	ebp
  401991:	5b                        pop	ebx
  401992:	c3                        ret
     ...

4019c0 <no name>:
  4019c0:	6a ff                     push	dword FFFFFFFFh
  4019c2:	68 37 5a 40 00            push	dword 00405A37h
  4019c7:	64 a1 00 00 00 00         mov	eax, [fs:0000h]
  4019cd:	50                        push	eax
  4019ce:	64 89 25 00 00 00 00      mov	[fs:00000000h], esp
  4019d5:	83 ec 08                  sub	esp, 08h
  4019d8:	53                        push	ebx
  4019d9:	55                        push	ebp
  4019da:	56                        push	esi
  4019db:	57                        push	edi
  4019dc:	8b f9                     mov	edi, ecx
  4019de:	89 7c 24 14               mov	[esp+14h], edi
  4019e2:	8a 47 04                  mov	al, [edi+04h]
  4019e5:	8d 77 08                  lea	esi, [edi+08h]
  4019e8:	24 fc                     and	al, FCh
  4019ea:	88 47 04                  mov	[edi+04h], al
  4019ed:	8a 44 24 28               mov	al, [esp+28h]
  4019f1:	88 06                     mov	[esi], al
  4019f3:	33 c0                     xor	eax, eax
  4019f5:	89 46 04                  mov	[esi+04h], eax
  4019f8:	89 46 08                  mov	[esi+08h], eax
  4019fb:	89 46 0c                  mov	[esi+0Ch], eax
  4019fe:	8b 6c 24 2c               mov	ebp, [esp+2Ch]
  401a02:	8d 4f 18                  lea	ecx, [edi+18h]
  401a05:	89 44 24 20               mov	[esp+20h], eax
  401a09:	8a 55 00                  mov	dl, [ebp+00h]
  401a0c:	89 41 04                  mov	[ecx+04h], eax
  401a0f:	88 11                     mov	[ecx], dl
  401a11:	89 41 08                  mov	[ecx+08h], eax
  401a14:	89 41 0c                  mov	[ecx+0Ch], eax
  401a17:	8b 15 38 60 40 00         mov	edx, [00406038h]
  401a1d:	8b 12                     mov	edx, [edx]
  401a1f:	52                        push	edx
  401a20:	50                        push	eax
  401a21:	55                        push	ebp
  401a22:	ff 15 44 60 40 00         call	dword [00406044h]	; <?assign@?$basic_string@DU?$char_traits@D@std@@V?$allocator@D@2@@std@@QAEAAV12@ABV12@II@Z>
  401a28:	c7 07 44 61 40 00         mov	dword [edi], 00406144h
  401a2e:	8b 5e 08                  mov	ebx, [esi+08h]
  401a31:	8b 46 0c                  mov	eax, [esi+0Ch]
  401a34:	c6 44 24 20 01            mov	byte [esp+20h], 01h
  401a39:	2b c3                     sub	eax, ebx
  401a3b:	c1 f8 04                  sar	eax, 04h
  401a3e:	83 f8 01                  cmp	eax, 01h
  401a41:	0f 83 b6 00 00 00         jae	401afd
  401a47:	8b ce                     mov	ecx, esi
  401a49:	e8 52 37 00 00            call	4051a0
  401a4e:	83 f8 01                  cmp	eax, 01h
  401a51:	76 0d                     jbe	401a60
  401a53:	8b ce                     mov	ecx, esi
  401a55:	e8 46 37 00 00            call	4051a0
  401a5a:	89 44 24 2c               mov	[esp+2Ch], eax
  401a5e:	eb 08                     jmp	401a68
  401a60:	c7 44 24 2c 01 00 00     >mov	dword [esp+2Ch], 00000001h
		00 
  401a68:	8b ce                    >mov	ecx, esi
  401a6a:	e8 31 37 00 00            call	4051a0
  401a6f:	8b e8                     mov	ebp, eax
  401a71:	8b 44 24 2c               mov	eax, [esp+2Ch]
  401a75:	03 e8                     add	ebp, eax
  401a77:	8b c5                     mov	eax, ebp
  401a79:	79 02                     jns	401a7d
  401a7b:	33 c0                     xor	eax, eax
  401a7d:	c1 e0 04                 >shl	eax, 04h
  401a80:	50                        push	eax
  401a81:	e8 00 3d 00 00            call	405786	; <??2@YAPAXI@Z>
  401a86:	8b 4e 04                  mov	ecx, [esi+04h]
  401a89:	83 c4 04                  add	esp, 04h
  401a8c:	89 44 24 10               mov	[esp+10h], eax
  401a90:	50                        push	eax
  401a91:	53                        push	ebx
  401a92:	51                        push	ecx
  401a93:	8b ce                     mov	ecx, esi
  401a95:	e8 26 37 00 00            call	4051c0
  401a9a:	8b 54 24 28               mov	edx, [esp+28h]
  401a9e:	8b ce                     mov	ecx, esi
  401aa0:	52                        push	edx
  401aa1:	6a 01                     push	dword 00000001h
  401aa3:	50                        push	eax
  401aa4:	89 44 24 38               mov	[esp+38h], eax
  401aa8:	e8 53 37 00 00            call	405200
  401aad:	8b 44 24 2c               mov	eax, [esp+2Ch]
  401ab1:	8b 4e 08                  mov	ecx, [esi+08h]
  401ab4:	83 c0 10                  add	eax, 10h
  401ab7:	50                        push	eax
  401ab8:	51                        push	ecx
  401ab9:	53                        push	ebx
  401aba:	8b ce                     mov	ecx, esi
  401abc:	e8 ff 36 00 00            call	4051c0
  401ac1:	8b 56 08                  mov	edx, [esi+08h]
  401ac4:	8b 46 04                  mov	eax, [esi+04h]
  401ac7:	52                        push	edx
  401ac8:	50                        push	eax
  401ac9:	8b ce                     mov	ecx, esi
  401acb:	e8 b0 2f 00 00            call	404a80
  401ad0:	8b 4e 04                  mov	ecx, [esi+04h]
  401ad3:	51                        push	ecx
  401ad4:	e8 37 3c 00 00            call	405710
  401ad9:	8b 5c 24 14               mov	ebx, [esp+14h]
  401add:	83 c4 04                  add	esp, 04h
  401ae0:	c1 e5 04                  shl	ebp, 04h
  401ae3:	03 eb                     add	ebp, ebx
  401ae5:	8b ce                     mov	ecx, esi
  401ae7:	89 6e 0c                  mov	[esi+0Ch], ebp
  401aea:	e8 b1 36 00 00            call	4051a0
  401aef:	40                        inc	eax
  401af0:	89 5e 04                  mov	[esi+04h], ebx
  401af3:	c1 e0 04                  shl	eax, 04h
  401af6:	03 c3                     add	eax, ebx
  401af8:	89 46 08                  mov	[esi+08h], eax
  401afb:	eb 79                     jmp	401b76
  401afd:	8b d3                    >mov	edx, ebx
  401aff:	2b d3                     sub	edx, ebx
  401b01:	c1 fa 04                  sar	edx, 04h
  401b04:	83 fa 01                  cmp	edx, 01h
  401b07:	73 3c                     jae	401b45
  401b09:	8d 43 10                  lea	eax, [ebx+10h]
  401b0c:	8b ce                     mov	ecx, esi
  401b0e:	50                        push	eax
  401b0f:	53                        push	ebx
  401b10:	53                        push	ebx
  401b11:	e8 aa 36 00 00            call	4051c0
  401b16:	8b 46 08                  mov	eax, [esi+08h]
  401b19:	8b 6c 24 28               mov	ebp, [esp+28h]
  401b1d:	8b c8                     mov	ecx, eax
  401b1f:	ba 01 00 00 00            mov	edx, 00000001h
  401b24:	2b cb                     sub	ecx, ebx
  401b26:	55                        push	ebp
  401b27:	c1 f9 04                  sar	ecx, 04h
  401b2a:	2b d1                     sub	edx, ecx
  401b2c:	8b ce                     mov	ecx, esi
  401b2e:	52                        push	edx
  401b2f:	50                        push	eax
  401b30:	e8 cb 36 00 00            call	405200
  401b35:	8b 46 08                  mov	eax, [esi+08h]
  401b38:	55                        push	ebp
  401b39:	50                        push	eax
  401b3a:	53                        push	ebx
  401b3b:	e8 80 37 00 00            call	4052c0
  401b40:	83 c4 0c                  add	esp, 0Ch
  401b43:	eb 2d                     jmp	401b72
  401b45:	53                       >push	ebx
  401b46:	8d 4b f0                  lea	ecx, [ebx-10h]
  401b49:	53                        push	ebx
  401b4a:	51                        push	ecx
  401b4b:	8b ce                     mov	ecx, esi
  401b4d:	e8 6e 36 00 00            call	4051c0
  401b52:	8b 46 08                  mov	eax, [esi+08h]
  401b55:	50                        push	eax
  401b56:	83 c0 f0                  add	eax, F0h
  401b59:	50                        push	eax
  401b5a:	53                        push	ebx
  401b5b:	e8 b0 38 00 00            call	405410
  401b60:	8b 54 24 34               mov	edx, [esp+34h]
  401b64:	8d 43 10                  lea	eax, [ebx+10h]
  401b67:	52                        push	edx
  401b68:	50                        push	eax
  401b69:	53                        push	ebx
  401b6a:	e8 51 37 00 00            call	4052c0
  401b6f:	83 c4 18                  add	esp, 18h
  401b72:	83 46 08 10              >add	dword [esi+08h], 10h
  401b76:	8b 4c 24 18              >mov	ecx, [esp+18h]
  401b7a:	c7 07 60 61 40 00         mov	dword [edi], 00406160h
  401b80:	8b c7                     mov	eax, edi
  401b82:	5f                        pop	edi
  401b83:	5e                        pop	esi
  401b84:	5d                        pop	ebp
  401b85:	5b                        pop	ebx
  401b86:	64 89 0d 00 00 00 00      mov	[fs:00000000h], ecx
  401b8d:	83 c4 14                  add	esp, 14h
  401b90:	c2 08 00                  ret	0008h
     ...

402430 <no name>:
  402430:	51                        push	ecx
  402431:	53                        push	ebx
  402432:	55                        push	ebp
  402433:	8b 6c 24 10               mov	ebp, [esp+10h]
  402437:	56                        push	esi
  402438:	8b 71 0c                  mov	esi, [ecx+0Ch]
  40243b:	57                        push	edi
  40243c:	33 ff                     xor	edi, edi
  40243e:	8a 06                     mov	al, [esi]
  402440:	89 7d 04                  mov	[ebp+04h], edi
  402443:	88 45 00                  mov	[ebp+00h], al
  402446:	89 7d 08                  mov	[ebp+08h], edi
  402449:	89 7d 0c                  mov	[ebp+0Ch], edi
  40244c:	8b 0d 38 60 40 00         mov	ecx, [00406038h]
  402452:	89 7c 24 10               mov	[esp+10h], edi
  402456:	8b 01                     mov	eax, [ecx]
  402458:	8b 4e 08                  mov	ecx, [esi+08h]
  40245b:	8b d9                     mov	ebx, ecx
  40245d:	3b c3                     cmp	eax, ebx
  40245f:	73 02                     jae	402463
  402461:	8b d8                     mov	ebx, eax
  402463:	3b ee                    >cmp	ebp, esi
  402465:	75 67                     jnz	4024ce
  402467:	3b df                     cmp	ebx, edi
  402469:	8b f0                     mov	esi, eax
  40246b:	76 06                     jbe	402473
  40246d:	ff 15 34 60 40 00         call	dword [00406034h]	; <?_Xran@std@@YAXXZ>
  402473:	8b cd                    >mov	ecx, ebp
  402475:	ff 15 30 60 40 00         call	dword [00406030h]	; <?_Split@?$basic_string@DU?$char_traits@D@std@@V?$allocator@D@2@@std@@AAEXXZ>
  40247b:	8b 45 08                  mov	eax, [ebp+08h]
  40247e:	2b c3                     sub	eax, ebx
  402480:	3b c6                     cmp	eax, esi
  402482:	73 02                     jae	402486
  402484:	8b f0                     mov	esi, eax
  402486:	3b f7                    >cmp	esi, edi
  402488:	76 32                     jbe	4024bc
  40248a:	8b 55 04                  mov	edx, [ebp+04h]
  40248d:	2b c6                     sub	eax, esi
  40248f:	03 da                     add	ebx, edx
  402491:	50                        push	eax
  402492:	8d 04 33                  lea	eax, [ebx+esi*1]
  402495:	50                        push	eax
  402496:	53                        push	ebx
  402497:	ff 15 dc 60 40 00         call	dword [004060DCh]	; <memmove>
  40249d:	8b 5d 08                  mov	ebx, [ebp+08h]
  4024a0:	83 c4 0c                  add	esp, 0Ch
  4024a3:	2b de                     sub	ebx, esi
  4024a5:	8b cd                     mov	ecx, ebp
  4024a7:	57                        push	edi
  4024a8:	53                        push	ebx
  4024a9:	ff 15 2c 60 40 00         call	dword [0040602Ch]	; <?_Grow@?$basic_string@DU?$char_traits@D@std@@V?$allocator@D@2@@std@@AAE_NI_N@Z>
  4024af:	84 c0                     test	al, al
  4024b1:	74 09                     jz	4024bc
  4024b3:	53                        push	ebx
  4024b4:	8b cd                     mov	ecx, ebp
  4024b6:	ff 15 28 60 40 00         call	dword [00406028h]	; <?_Eos@?$basic_string@DU?$char_traits@D@std@@V?$allocator@D@2@@std@@AAEXI@Z>
  4024bc:	8b cd                    >mov	ecx, ebp
  4024be:	ff 15 30 60 40 00         call	dword [00406030h]	; <?_Split@?$basic_string@DU?$char_traits@D@std@@V?$allocator@D@2@@std@@AAEXXZ>
  4024c4:	5f                        pop	edi
  4024c5:	8b c5                     mov	eax, ebp
  4024c7:	5e                        pop	esi
  4024c8:	5d                        pop	ebp
  4024c9:	5b                        pop	ebx
  4024ca:	59                        pop	ecx
  4024cb:	c2 04 00                  ret	0004h
  4024ce:	3b df                    >cmp	ebx, edi
  4024d0:	76 4d                     jbe	40251f
  4024d2:	3b d9                     cmp	ebx, ecx
  4024d4:	75 49                     jnz	40251f
  4024d6:	8b 46 04                  mov	eax, [esi+04h]
  4024d9:	3b c7                     cmp	eax, edi
  4024db:	75 05                     jnz	4024e2
  4024dd:	a1 24 60 40 00            mov	eax, [406024h]
  4024e2:	80 78 ff fe              >cmp	byte [eax-01h], FEh
  4024e6:	73 37                     jae	40251f
  4024e8:	6a 01                     push	dword 00000001h
  4024ea:	8b cd                     mov	ecx, ebp
  4024ec:	ff 15 40 60 40 00         call	dword [00406040h]	; <?_Tidy@?$basic_string@DU?$char_traits@D@std@@V?$allocator@D@2@@std@@AAEX_N@Z>
  4024f2:	8b 46 04                  mov	eax, [esi+04h]
  4024f5:	3b c7                     cmp	eax, edi
  4024f7:	75 05                     jnz	4024fe
  4024f9:	a1 24 60 40 00            mov	eax, [406024h]
  4024fe:	89 45 04                 >mov	[ebp+04h], eax
  402501:	8b 4e 08                  mov	ecx, [esi+08h]
  402504:	89 4d 08                  mov	[ebp+08h], ecx
  402507:	8b 56 0c                  mov	edx, [esi+0Ch]
  40250a:	89 55 0c                  mov	[ebp+0Ch], edx
  40250d:	8a 48 ff                  mov	cl, [eax-01h]
  402510:	fe c1                     inc	cl
  402512:	5f                        pop	edi
  402513:	88 48 ff                  mov	[eax-01h], cl
  402516:	8b c5                     mov	eax, ebp
  402518:	5e                        pop	esi
  402519:	5d                        pop	ebp
  40251a:	5b                        pop	ebx
  40251b:	59                        pop	ecx
  40251c:	c2 04 00                  ret	0004h
  40251f:	6a 01                    >push	dword 00000001h
  402521:	53                        push	ebx
  402522:	8b cd                     mov	ecx, ebp
  402524:	ff 15 2c 60 40 00         call	dword [0040602Ch]	; <?_Grow@?$basic_string@DU?$char_traits@D@std@@V?$allocator@D@2@@std@@AAE_NI_N@Z>
  40252a:	84 c0                     test	al, al
  40252c:	74 2a                     jz	402558
  40252e:	8b 76 04                  mov	esi, [esi+04h]
  402531:	3b f7                     cmp	esi, edi
  402533:	75 06                     jnz	40253b
  402535:	8b 35 24 60 40 00         mov	esi, [00406024h]
  40253b:	8b 7d 04                 >mov	edi, [ebp+04h]
  40253e:	8b cb                     mov	ecx, ebx
  402540:	8b c1                     mov	eax, ecx
  402542:	c1 e9 02                  shr	ecx, 02h
  402545:	f3 a5                     rep movsd
  402547:	8b c8                     mov	ecx, eax
  402549:	83 e1 03                  and	ecx, 03h
  40254c:	f3 a4                     rep movsb
  40254e:	8b 4d 04                  mov	ecx, [ebp+04h]
  402551:	89 5d 08                  mov	[ebp+08h], ebx
  402554:	c6 04 19 00               mov	byte [ecx+ebx*1], 00h
  402558:	5f                       >pop	edi
  402559:	8b c5                     mov	eax, ebp
  40255b:	5e                        pop	esi
  40255c:	5d                        pop	ebp
  40255d:	5b                        pop	ebx
  40255e:	59                        pop	ecx
  40255f:	c2 04 00                  ret	0004h
     ...

402650 <no name>:
  402650:	83 ec 0c                  sub	esp, 0Ch
  402653:	8b 44 24 10               mov	eax, [esp+10h]
  402657:	56                        push	esi
  402658:	8d 71 04                  lea	esi, [ecx+04h]
  40265b:	89 44 24 0c               mov	[esp+0Ch], eax
  40265f:	57                        push	edi
  402660:	c7 44 24 0c 00 00 00      mov	dword [esp+0Ch], 00000000h
		00 
  402668:	8b 46 08                  mov	eax, [esi+08h]
  40266b:	8b 4e 0c                  mov	ecx, [esi+0Ch]
  40266e:	2b c8                     sub	ecx, eax
  402670:	8b f8                     mov	edi, eax
  402672:	c1 f9 03                  sar	ecx, 03h
  402675:	83 f9 01                  cmp	ecx, 01h
  402678:	0f 83 e3 00 00 00         jae	402761
  40267e:	8b 56 04                  mov	edx, [esi+04h]
  402681:	85 d2                     test	edx, edx
  402683:	74 0c                     jz	402691
  402685:	8b c8                     mov	ecx, eax
  402687:	2b ca                     sub	ecx, edx
  402689:	c1 f9 03                  sar	ecx, 03h
  40268c:	83 f9 01                  cmp	ecx, 01h
  40268f:	77 05                     ja	402696
  402691:	b9 01 00 00 00           >mov	ecx, 00000001h
  402696:	85 d2                    >test	edx, edx
  402698:	75 04                     jnz	40269e
  40269a:	33 c0                     xor	eax, eax
  40269c:	eb 05                     jmp	4026a3
  40269e:	2b c2                    >sub	eax, edx
  4026a0:	c1 f8 03                  sar	eax, 03h
  4026a3:	03 c1                    >add	eax, ecx
  4026a5:	85 c0                     test	eax, eax
  4026a7:	89 44 24 08               mov	[esp+08h], eax
  4026ab:	7d 02                     jge	4026af
  4026ad:	33 c0                     xor	eax, eax
  4026af:	53                       >push	ebx
  4026b0:	8d 14 c5 00 00 00 00      lea	edx, [eax*8+00000000h]
  4026b7:	55                        push	ebp
  4026b8:	52                        push	edx
  4026b9:	e8 c8 30 00 00            call	405786	; <??2@YAPAXI@Z>
  4026be:	8b 6e 04                  mov	ebp, [esi+04h]
  4026c1:	83 c4 04                  add	esp, 04h
  4026c4:	3b ef                     cmp	ebp, edi
  4026c6:	89 44 24 20               mov	[esp+20h], eax
  4026ca:	8b d8                     mov	ebx, eax
  4026cc:	74 14                     jz	4026e2
  4026ce:	55                       >push	ebp
  4026cf:	53                        push	ebx
  4026d0:	e8 1b 30 00 00            call	4056f0
  4026d5:	83 c5 08                  add	ebp, 08h
  4026d8:	83 c4 08                  add	esp, 08h
  4026db:	83 c3 08                  add	ebx, 08h
  4026de:	3b ef                     cmp	ebp, edi
  4026e0:	75 ec                     jnz	4026ce
  4026e2:	8d 44 24 14              >lea	eax, [esp+14h]
  4026e6:	8b ce                     mov	ecx, esi
  4026e8:	50                        push	eax
  4026e9:	6a 01                     push	dword 00000001h
  4026eb:	53                        push	ebx
  4026ec:	e8 9f 2b 00 00            call	405290
  4026f1:	8b 4e 08                  mov	ecx, [esi+08h]
  4026f4:	83 c3 08                  add	ebx, 08h
  4026f7:	53                        push	ebx
  4026f8:	51                        push	ecx
  4026f9:	57                        push	edi
  4026fa:	8b ce                     mov	ecx, esi
  4026fc:	e8 4f 2b 00 00            call	405250
  402701:	8b 56 08                  mov	edx, [esi+08h]
  402704:	8b 46 04                  mov	eax, [esi+04h]
  402707:	52                        push	edx
  402708:	50                        push	eax
  402709:	8b ce                     mov	ecx, esi
  40270b:	e8 70 25 00 00            call	404c80
  402710:	8b 4e 04                  mov	ecx, [esi+04h]
  402713:	51                        push	ecx
  402714:	e8 f7 2f 00 00            call	405710
  402719:	8b 54 24 24               mov	edx, [esp+24h]
  40271d:	8b 44 24 14               mov	eax, [esp+14h]
  402721:	83 c4 04                  add	esp, 04h
  402724:	8d 0c c2                  lea	ecx, [edx+eax*8]
  402727:	8b 46 04                  mov	eax, [esi+04h]
  40272a:	5d                        pop	ebp
  40272b:	89 4e 0c                  mov	[esi+0Ch], ecx
  40272e:	85 c0                     test	eax, eax
  402730:	5b                        pop	ebx
  402731:	75 14                     jnz	402747
  402733:	33 c9                     xor	ecx, ecx
  402735:	89 56 04                  mov	[esi+04h], edx
  402738:	5f                        pop	edi
  402739:	8d 44 ca 08               lea	eax, [edx+ecx*8+08h]
  40273d:	89 46 08                  mov	[esi+08h], eax
  402740:	5e                        pop	esi
  402741:	83 c4 0c                  add	esp, 0Ch
  402744:	c2 04 00                  ret	0004h
  402747:	8b 4e 08                 >mov	ecx, [esi+08h]
  40274a:	89 56 04                  mov	[esi+04h], edx
  40274d:	2b c8                     sub	ecx, eax
  40274f:	5f                        pop	edi
  402750:	c1 f9 03                  sar	ecx, 03h
  402753:	8d 44 ca 08               lea	eax, [edx+ecx*8+08h]
  402757:	89 46 08                  mov	[esi+08h], eax
  40275a:	5e                        pop	esi
  40275b:	83 c4 0c                  add	esp, 0Ch
  40275e:	c2 04 00                  ret	0004h
  402761:	8b c8                    >mov	ecx, eax
  402763:	2b cf                     sub	ecx, edi
  402765:	c1 f9 03                  sar	ecx, 03h
  402768:	83 f9 01                  cmp	ecx, 01h
  40276b:	73 58                     jae	4027c5
  40276d:	8d 57 08                  lea	edx, [edi+08h]
  402770:	8b ce                     mov	ecx, esi
  402772:	52                        push	edx
  402773:	50                        push	eax
  402774:	57                        push	edi
  402775:	e8 d6 2a 00 00            call	405250
  40277a:	8b 46 08                  mov	eax, [esi+08h]
  40277d:	8d 4c 24 0c               lea	ecx, [esp+0Ch]
  402781:	8b d0                     mov	edx, eax
  402783:	51                        push	ecx
  402784:	2b d7                     sub	edx, edi
  402786:	b9 01 00 00 00            mov	ecx, 00000001h
  40278b:	c1 fa 03                  sar	edx, 03h
  40278e:	2b ca                     sub	ecx, edx
  402790:	51                        push	ecx
  402791:	50                        push	eax
  402792:	8b ce                     mov	ecx, esi
  402794:	e8 f7 2a 00 00            call	405290
  402799:	8b 46 08                  mov	eax, [esi+08h]
  40279c:	3b f8                     cmp	edi, eax
  40279e:	74 6e                     jz	40280e
  4027a0:	8b 54 24 0c              >mov	edx, [esp+0Ch]
  4027a4:	89 17                     mov	[edi], edx
  4027a6:	8b 4c 24 10               mov	ecx, [esp+10h]
  4027aa:	89 4f 04                  mov	[edi+04h], ecx
  4027ad:	83 c7 08                  add	edi, 08h
  4027b0:	3b f8                     cmp	edi, eax
  4027b2:	75 ec                     jnz	4027a0
  4027b4:	8b 46 08                  mov	eax, [esi+08h]
  4027b7:	5f                        pop	edi
  4027b8:	83 c0 08                  add	eax, 08h
  4027bb:	89 46 08                  mov	[esi+08h], eax
  4027be:	5e                        pop	esi
  4027bf:	83 c4 0c                  add	esp, 0Ch
  4027c2:	c2 04 00                  ret	0004h
  4027c5:	50                       >push	eax
  4027c6:	50                        push	eax
  4027c7:	83 c0 f8                  add	eax, F8h
  4027ca:	8b ce                     mov	ecx, esi
  4027cc:	50                        push	eax
  4027cd:	e8 7e 2a 00 00            call	405250
  4027d2:	8b 4e 08                  mov	ecx, [esi+08h]
  4027d5:	8d 41 f8                  lea	eax, [ecx-08h]
  4027d8:	3b f8                     cmp	edi, eax
  4027da:	74 15                     jz	4027f1
  4027dc:	8b 50 f8                 >mov	edx, [eax-08h]
  4027df:	83 e8 08                  sub	eax, 08h
  4027e2:	83 e9 08                  sub	ecx, 08h
  4027e5:	3b c7                     cmp	eax, edi
  4027e7:	89 11                     mov	[ecx], edx
  4027e9:	8b 50 04                  mov	edx, [eax+04h]
  4027ec:	89 51 04                  mov	[ecx+04h], edx
  4027ef:	75 eb                     jnz	4027dc
  4027f1:	8d 4f 08                 >lea	ecx, [edi+08h]
  4027f4:	8b c7                     mov	eax, edi
  4027f6:	3b f9                     cmp	edi, ecx
  4027f8:	74 14                     jz	40280e
  4027fa:	8b 54 24 0c              >mov	edx, [esp+0Ch]
  4027fe:	89 10                     mov	[eax], edx
  402800:	8b 54 24 10               mov	edx, [esp+10h]
  402804:	89 50 04                  mov	[eax+04h], edx
  402807:	83 c0 08                  add	eax, 08h
  40280a:	3b c1                     cmp	eax, ecx
  40280c:	75 ec                     jnz	4027fa
  40280e:	8b 46 08                 >mov	eax, [esi+08h]
  402811:	5f                        pop	edi
  402812:	83 c0 08                  add	eax, 08h
  402815:	89 46 08                  mov	[esi+08h], eax
  402818:	5e                        pop	esi
  402819:	83 c4 0c                  add	esp, 0Ch
  40281c:	c2 04 00                  ret	0004h
     ...

402820 <no name>:
  402820:	83 ec 0c                  sub	esp, 0Ch
  402823:	8b 44 24 10               mov	eax, [esp+10h]
  402827:	56                        push	esi
  402828:	8d 71 04                  lea	esi, [ecx+04h]
  40282b:	89 44 24 0c               mov	[esp+0Ch], eax
  40282f:	57                        push	edi
  402830:	c7 44 24 0c 01 00 00      mov	dword [esp+0Ch], 00000001h
		00 
  402838:	8b 46 08                  mov	eax, [esi+08h]
  40283b:	8b 4e 0c                  mov	ecx, [esi+0Ch]
  40283e:	2b c8                     sub	ecx, eax
  402840:	8b f8                     mov	edi, eax
  402842:	c1 f9 03                  sar	ecx, 03h
  402845:	83 f9 01                  cmp	ecx, 01h
  402848:	0f 83 e3 00 00 00         jae	402931
  40284e:	8b 56 04                  mov	edx, [esi+04h]
  402851:	85 d2                     test	edx, edx
  402853:	74 0c                     jz	402861
  402855:	8b c8                     mov	ecx, eax
  402857:	2b ca                     sub	ecx, edx
  402859:	c1 f9 03                  sar	ecx, 03h
  40285c:	83 f9 01                  cmp	ecx, 01h
  40285f:	77 05                     ja	402866
  402861:	b9 01 00 00 00           >mov	ecx, 00000001h
  402866:	85 d2                    >test	edx, edx
  402868:	75 04                     jnz	40286e
  40286a:	33 c0                     xor	eax, eax
  40286c:	eb 05                     jmp	402873
  40286e:	2b c2                    >sub	eax, edx
  402870:	c1 f8 03                  sar	eax, 03h
  402873:	03 c1                    >add	eax, ecx
  402875:	85 c0                     test	eax, eax
  402877:	89 44 24 08               mov	[esp+08h], eax
  40287b:	7d 02                     jge	40287f
  40287d:	33 c0                     xor	eax, eax
  40287f:	53                       >push	ebx
  402880:	8d 14 c5 00 00 00 00      lea	edx, [eax*8+00000000h]
  402887:	55                        push	ebp
  402888:	52                        push	edx
  402889:	e8 f8 2e 00 00            call	405786	; <??2@YAPAXI@Z>
  40288e:	8b 6e 04                  mov	ebp, [esi+04h]
  402891:	83 c4 04                  add	esp, 04h
  402894:	3b ef                     cmp	ebp, edi
  402896:	89 44 24 20               mov	[esp+20h], eax
  40289a:	8b d8                     mov	ebx, eax
  40289c:	74 14                     jz	4028b2
  40289e:	55                       >push	ebp
  40289f:	53                        push	ebx
  4028a0:	e8 4b 2e 00 00            call	4056f0
  4028a5:	83 c5 08                  add	ebp, 08h
  4028a8:	83 c4 08                  add	esp, 08h
  4028ab:	83 c3 08                  add	ebx, 08h
  4028ae:	3b ef                     cmp	ebp, edi
  4028b0:	75 ec                     jnz	40289e
  4028b2:	8d 44 24 14              >lea	eax, [esp+14h]
  4028b6:	8b ce                     mov	ecx, esi
  4028b8:	50                        push	eax
  4028b9:	6a 01                     push	dword 00000001h
  4028bb:	53                        push	ebx
  4028bc:	e8 cf 29 00 00            call	405290
  4028c1:	8b 4e 08                  mov	ecx, [esi+08h]
  4028c4:	83 c3 08                  add	ebx, 08h
  4028c7:	53                        push	ebx
  4028c8:	51                        push	ecx
  4028c9:	57                        push	edi
  4028ca:	8b ce                     mov	ecx, esi
  4028cc:	e8 7f 29 00 00            call	405250
  4028d1:	8b 56 08                  mov	edx, [esi+08h]
  4028d4:	8b 46 04                  mov	eax, [esi+04h]
  4028d7:	52                        push	edx
  4028d8:	50                        push	eax
  4028d9:	8b ce                     mov	ecx, esi
  4028db:	e8 a0 23 00 00            call	404c80
  4028e0:	8b 4e 04                  mov	ecx, [esi+04h]
  4028e3:	51                        push	ecx
  4028e4:	e8 27 2e 00 00            call	405710
  4028e9:	8b 54 24 24               mov	edx, [esp+24h]
  4028ed:	8b 44 24 14               mov	eax, [esp+14h]
  4028f1:	83 c4 04                  add	esp, 04h
  4028f4:	8d 0c c2                  lea	ecx, [edx+eax*8]
  4028f7:	8b 46 04                  mov	eax, [esi+04h]
  4028fa:	5d                        pop	ebp
  4028fb:	89 4e 0c                  mov	[esi+0Ch], ecx
  4028fe:	85 c0                     test	eax, eax
  402900:	5b                        pop	ebx
  402901:	75 14                     jnz	402917
  402903:	33 c9                     xor	ecx, ecx
  402905:	89 56 04                  mov	[esi+04h], edx
  402908:	5f                        pop	edi
  402909:	8d 44 ca 08               lea	eax, [edx+ecx*8+08h]
  40290d:	89 46 08                  mov	[esi+08h], eax
  402910:	5e                        pop	esi
  402911:	83 c4 0c                  add	esp, 0Ch
  402914:	c2 04 00                  ret	0004h
  402917:	8b 4e 08                 >mov	ecx, [esi+08h]
  40291a:	89 56 04                  mov	[esi+04h], edx
  40291d:	2b c8                     sub	ecx, eax
  40291f:	5f                        pop	edi
  402920:	c1 f9 03                  sar	ecx, 03h
  402923:	8d 44 ca 08               lea	eax, [edx+ecx*8+08h]
  402927:	89 46 08                  mov	[esi+08h], eax
  40292a:	5e                        pop	esi
  40292b:	83 c4 0c                  add	esp, 0Ch
  40292e:	c2 04 00                  ret	0004h
  402931:	8b c8                    >mov	ecx, eax
  402933:	2b cf                     sub	ecx, edi
  402935:	c1 f9 03                  sar	ecx, 03h
  402938:	83 f9 01                  cmp	ecx, 01h
  40293b:	73 58                     jae	402995
  40293d:	8d 57 08                  lea	edx, [edi+08h]
  402940:	8b ce                     mov	ecx, esi
  402942:	52                        push	edx
  402943:	50                        push	eax
  402944:	57                        push	edi
  402945:	e8 06 29 00 00            call	405250
  40294a:	8b 46 08                  mov	eax, [esi+08h]
  40294d:	8d 4c 24 0c               lea	ecx, [esp+0Ch]
  402951:	8b d0                     mov	edx, eax
  402953:	51                        push	ecx
  402954:	2b d7                     sub	edx, edi
  402956:	b9 01 00 00 00            mov	ecx, 00000001h
  40295b:	c1 fa 03                  sar	edx, 03h
  40295e:	2b ca                     sub	ecx, edx
  402960:	51                        push	ecx
  402961:	50                        push	eax
  402962:	8b ce                     mov	ecx, esi
  402964:	e8 27 29 00 00            call	405290
  402969:	8b 46 08                  mov	eax, [esi+08h]
  40296c:	3b f8                     cmp	edi, eax
  40296e:	74 6e                     jz	4029de
  402970:	8b 54 24 0c              >mov	edx, [esp+0Ch]
  402974:	89 17                     mov	[edi], edx
  402976:	8b 4c 24 10               mov	ecx, [esp+10h]
  40297a:	89 4f 04                  mov	[edi+04h], ecx
  40297d:	83 c7 08                  add	edi, 08h
  402980:	3b f8                     cmp	edi, eax
  402982:	75 ec                     jnz	402970
  402984:	8b 46 08                  mov	eax, [esi+08h]
  402987:	5f                        pop	edi
  402988:	83 c0 08                  add	eax, 08h
  40298b:	89 46 08                  mov	[esi+08h], eax
  40298e:	5e                        pop	esi
  40298f:	83 c4 0c                  add	esp, 0Ch
  402992:	c2 04 00                  ret	0004h
  402995:	50                       >push	eax
  402996:	50                        push	eax
  402997:	83 c0 f8                  add	eax, F8h
  40299a:	8b ce                     mov	ecx, esi
  40299c:	50                        push	eax
  40299d:	e8 ae 28 00 00            call	405250
  4029a2:	8b 4e 08                  mov	ecx, [esi+08h]
  4029a5:	8d 41 f8                  lea	eax, [ecx-08h]
  4029a8:	3b f8                     cmp	edi, eax
  4029aa:	74 15                     jz	4029c1
  4029ac:	8b 50 f8                 >mov	edx, [eax-08h]
  4029af:	83 e8 08                  sub	eax, 08h
  4029b2:	83 e9 08                  sub	ecx, 08h
  4029b5:	3b c7                     cmp	eax, edi
  4029b7:	89 11                     mov	[ecx], edx
  4029b9:	8b 50 04                  mov	edx, [eax+04h]
  4029bc:	89 51 04                  mov	[ecx+04h], edx
  4029bf:	75 eb                     jnz	4029ac
  4029c1:	8d 4f 08                 >lea	ecx, [edi+08h]
  4029c4:	8b c7                     mov	eax, edi
  4029c6:	3b f9                     cmp	edi, ecx
  4029c8:	74 14                     jz	4029de
  4029ca:	8b 54 24 0c              >mov	edx, [esp+0Ch]
  4029ce:	89 10                     mov	[eax], edx
  4029d0:	8b 54 24 10               mov	edx, [esp+10h]
  4029d4:	89 50 04                  mov	[eax+04h], edx
  4029d7:	83 c0 08                  add	eax, 08h
  4029da:	3b c1                     cmp	eax, ecx
  4029dc:	75 ec                     jnz	4029ca
  4029de:	8b 46 08                 >mov	eax, [esi+08h]
  4029e1:	5f                        pop	edi
  4029e2:	83 c0 08                  add	eax, 08h
  4029e5:	89 46 08                  mov	[esi+08h], eax
  4029e8:	5e                        pop	esi
  4029e9:	83 c4 0c                  add	esp, 0Ch
  4029ec:	c2 04 00                  ret	0004h
     ...

4029f0 <no name>:
  4029f0:	6a ff                     push	dword FFFFFFFFh
  4029f2:	68 99 5b 40 00            push	dword 00405B99h
  4029f7:	64 a1 00 00 00 00         mov	eax, [fs:0000h]
  4029fd:	50                        push	eax
  4029fe:	64 89 25 00 00 00 00      mov	[fs:00000000h], esp
  402a05:	81 ec c4 00 00 00         sub	esp, 000000C4h
  402a0b:	53                        push	ebx
  402a0c:	a1 64 60 40 00            mov	eax, [406064h]
  402a11:	55                        push	ebp
  402a12:	56                        push	esi
  402a13:	57                        push	edi
  402a14:	8b f9                     mov	edi, ecx
  402a16:	8b 0d c4 60 40 00         mov	ecx, [004060C4h]
  402a1c:	89 7c 24 1c               mov	[esp+1Ch], edi
  402a20:	89 4c 24 50               mov	[esp+50h], ecx
  402a24:	8d 8c 24 a0 00 00 00      lea	ecx, [esp+000000A0h]
  402a2b:	c7 44 24 24 00 00 00      mov	dword [esp+24h], 00000000h
		00 
  402a33:	89 44 24 48               mov	[esp+48h], eax
  402a37:	ff 15 c0 60 40 00         call	dword [004060C0h]	; <??0?$basic_ios@DU?$char_traits@D@std@@@std@@IAE@XZ>
  402a3d:	be 02 00 00 00            mov	esi, 00000002h
  402a42:	89 74 24 24               mov	[esp+24h], esi
  402a46:	8d 54 24 54               lea	edx, [esp+54h]
  402a4a:	6a 00                     push	dword 00000000h
  402a4c:	52                        push	edx
  402a4d:	8d 4c 24 50               lea	ecx, [esp+50h]
  402a51:	c7 84 24 e4 00 00 00      mov	dword [esp+000000E4h], 00000001h
		01 00 00 00 
  402a5c:	ff 15 bc 60 40 00         call	dword [004060BCh]	; <??0?$basic_iostream@DU?$char_traits@D@std@@@std@@QAE@PAV?$basic_streambuf@DU?$char_traits@D@std@@@1@@Z>
  402a62:	6a 03                     push	dword 00000003h
  402a64:	8d 4c 24 58               lea	ecx, [esp+58h]
  402a68:	89 b4 24 e0 00 00 00      mov	[esp+000000E0h], esi
  402a6f:	ff 15 b8 60 40 00         call	dword [004060B8h]	; <??0?$basic_stringbuf@DU?$char_traits@D@std@@V?$allocator@D@2@@std@@QAE@H@Z>
  402a75:	8b 44 24 48               mov	eax, [esp+48h]
  402a79:	8b 15 b4 60 40 00         mov	edx, [004060B4h]
  402a7f:	8b 48 04                  mov	ecx, [eax+04h]
  402a82:	89 54 0c 48               mov	[esp+ecx*1+48h], edx
  402a86:	8b 07                     mov	eax, [edi]
  402a88:	8d 4c 24 38               lea	ecx, [esp+38h]
  402a8c:	51                        push	ecx
  402a8d:	8b cf                     mov	ecx, edi
  402a8f:	c7 84 24 e0 00 00 00      mov	dword [esp+000000E0h], 00000003h
		03 00 00 00 
  402a9a:	ff 10                     call	dword [eax]
  402a9c:	8b 44 24 40               mov	eax, [esp+40h]
  402aa0:	c6 84 24 dc 00 00 00      mov	byte [esp+000000DCh], 04h
		04 
  402aa8:	85 c0                     test	eax, eax
  402aaa:	74 46                     jz	402af2
  402aac:	8b 07                     mov	eax, [edi]
  402aae:	8d 74 24 48               lea	esi, [esp+48h]
  402ab2:	f7 de                     neg	esi
  402ab4:	8d 4c 24 28               lea	ecx, [esp+28h]
  402ab8:	8d 54 24 50               lea	edx, [esp+50h]
  402abc:	1b f6                     sbb	esi, esi
  402abe:	51                        push	ecx
  402abf:	8b cf                     mov	ecx, edi
  402ac1:	23 f2                     and	esi, edx
  402ac3:	ff 10                     call	dword [eax]
  402ac5:	50                        push	eax
  402ac6:	56                        push	esi
  402ac7:	c6 84 24 e4 00 00 00      mov	byte [esp+000000E4h], 05h
		05 
  402acf:	e8 48 2c 00 00            call	40571c	; <??6std@@YAAAV?$basic_ostream@DU?$char_traits@D@std@@@0@AAV10@ABV?$basic_string@DU?$char_traits@D@std@@V?$allocator@D@2@@0@@Z>
  402ad4:	50                        push	eax
  402ad5:	ff 15 4c 60 40 00         call	dword [0040604Ch]	; <?endl@std@@YAAAV?$basic_ostream@DU?$char_traits@D@std@@@1@AAV21@@Z>
  402adb:	83 c4 0c                  add	esp, 0Ch
  402ade:	8d 4c 24 28               lea	ecx, [esp+28h]
  402ae2:	c6 84 24 dc 00 00 00      mov	byte [esp+000000DCh], 04h
		04 
  402aea:	6a 01                     push	dword 00000001h
  402aec:	ff 15 40 60 40 00         call	dword [00406040h]	; <?_Tidy@?$basic_string@DU?$char_traits@D@std@@V?$allocator@D@2@@std@@AAEX_N@Z>
  402af2:	8b 8c 24 e8 00 00 00     >mov	ecx, [esp+000000E8h]
  402af9:	8b 41 08                  mov	eax, [ecx+08h]
  402afc:	85 c0                     test	eax, eax
  402afe:	74 11                     jz	402b11
  402b00:	8d 44 24 48               lea	eax, [esp+48h]
  402b04:	8d 54 24 50               lea	edx, [esp+50h]
  402b08:	f7 d8                     neg	eax
  402b0a:	1b c0                     sbb	eax, eax
  402b0c:	51                        push	ecx
  402b0d:	23 c2                     and	eax, edx
  402b0f:	eb 19                     jmp	402b2a
  402b11:	8b 47 1c                 >mov	eax, [edi+1Ch]
  402b14:	85 c0                     test	eax, eax
  402b16:	74 29                     jz	402b41
  402b18:	8d 44 24 48               lea	eax, [esp+48h]
  402b1c:	8d 4c 24 50               lea	ecx, [esp+50h]
  402b20:	f7 d8                     neg	eax
  402b22:	1b c0                     sbb	eax, eax
  402b24:	8d 57 14                  lea	edx, [edi+14h]
  402b27:	23 c1                     and	eax, ecx
  402b29:	52                        push	edx
  402b2a:	50                       >push	eax
  402b2b:	e8 ec 2b 00 00            call	40571c	; <??6std@@YAAAV?$basic_ostream@DU?$char_traits@D@std@@@0@AAV10@ABV?$basic_string@DU?$char_traits@D@std@@V?$allocator@D@2@@0@@Z>
  402b30:	50                        push	eax
  402b31:	ff 15 4c 60 40 00         call	dword [0040604Ch]	; <?endl@std@@YAAAV?$basic_ostream@DU?$char_traits@D@std@@@1@AAV21@@Z>
  402b37:	50                        push	eax
  402b38:	ff 15 4c 60 40 00         call	dword [0040604Ch]	; <?endl@std@@YAAAV?$basic_ostream@DU?$char_traits@D@std@@@1@AAV21@@Z>
  402b3e:	83 c4 10                  add	esp, 10h
  402b41:	8d 44 24 48              >lea	eax, [esp+48h]
  402b45:	8b 1d 50 60 40 00         mov	ebx, [00406050h]
  402b4b:	f7 d8                     neg	eax
  402b4d:	1b c0                     sbb	eax, eax
  402b4f:	8d 4c 24 50               lea	ecx, [esp+50h]
  402b53:	23 c1                     and	eax, ecx
  402b55:	68 f8 80 40 00            push	dword 004080F8h
  402b5a:	50                        push	eax
  402b5b:	ff d3                     call	ebx
  402b5d:	8a 47 24                  mov	al, [edi+24h]
  402b60:	83 c4 08                  add	esp, 08h
  402b63:	a8 01                     test	al, 01h
  402b65:	74 24                     jz	402b8b
  402b67:	8d 44 24 48               lea	eax, [esp+48h]
  402b6b:	8d 54 24 50               lea	edx, [esp+50h]
  402b6f:	f7 d8                     neg	eax
  402b71:	1b c0                     sbb	eax, eax
  402b73:	68 ec 80 40 00            push	dword 004080ECh
  402b78:	23 c2                     and	eax, edx
  402b7a:	68 e8 80 40 00            push	dword 004080E8h
  402b7f:	50                        push	eax
  402b80:	ff d3                     call	ebx
  402b82:	83 c4 08                  add	esp, 08h
  402b85:	50                        push	eax
  402b86:	ff d3                     call	ebx
  402b88:	83 c4 08                  add	esp, 08h
  402b8b:	8b 77 08                 >mov	esi, [edi+08h]
  402b8e:	8b 47 0c                  mov	eax, [edi+0Ch]
  402b91:	3b f0                     cmp	esi, eax
  402b93:	89 74 24 14               mov	[esp+14h], esi
  402b97:	0f 84 e6 00 00 00         jz	402c83
  402b9d:	8b 06                    >mov	eax, [esi]
  402b9f:	c7 44 24 20 e4 80 40      mov	dword [esp+20h], 004080E4h
		00 
  402ba7:	85 c0                     test	eax, eax
  402ba9:	74 08                     jz	402bb3
  402bab:	c7 44 24 20 1c 82 40      mov	dword [esp+20h], 0040821Ch
		00 
  402bb3:	8d 6c 24 48              >lea	ebp, [esp+48h]
  402bb7:	8a 4c 24 13               mov	cl, [esp+13h]
  402bbb:	f7 dd                     neg	ebp
  402bbd:	1b ed                     sbb	ebp, ebp
  402bbf:	83 ec 10                  sub	esp, 10h
  402bc2:	8b dc                     mov	ebx, esp
  402bc4:	8d 44 24 60               lea	eax, [esp+60h]
  402bc8:	89 64 24 28               mov	[esp+28h], esp
  402bcc:	6a 00                     push	dword 00000000h
  402bce:	88 0b                     mov	[ebx], cl
  402bd0:	8b cb                     mov	ecx, ebx
  402bd2:	23 e8                     and	ebp, eax
  402bd4:	ff 15 40 60 40 00         call	dword [00406040h]	; <?_Tidy@?$basic_string@DU?$char_traits@D@std@@V?$allocator@D@2@@std@@AAEX_N@Z>
  402bda:	8b 7c 24 30               mov	edi, [esp+30h]
  402bde:	83 c9 ff                  or	ecx, FFh
  402be1:	33 c0                     xor	eax, eax
  402be3:	6a 01                     push	dword 00000001h
  402be5:	f2 ae                     repne scasb
  402be7:	f7 d1                     not	ecx
  402be9:	49                        dec	ecx
  402bea:	8b f9                     mov	edi, ecx
  402bec:	8b cb                     mov	ecx, ebx
  402bee:	57                        push	edi
  402bef:	89 7c 24 30               mov	[esp+30h], edi
  402bf3:	ff 15 2c 60 40 00         call	dword [0040602Ch]	; <?_Grow@?$basic_string@DU?$char_traits@D@std@@V?$allocator@D@2@@std@@AAE_NI_N@Z>
  402bf9:	84 c0                     test	al, al
  402bfb:	74 28                     jz	402c25
  402bfd:	8b 43 04                  mov	eax, [ebx+04h]
  402c00:	8b 74 24 30               mov	esi, [esp+30h]
  402c04:	8b cf                     mov	ecx, edi
  402c06:	8b f8                     mov	edi, eax
  402c08:	8b d1                     mov	edx, ecx
  402c0a:	c1 e9 02                  shr	ecx, 02h
  402c0d:	f3 a5                     rep movsd
  402c0f:	8b ca                     mov	ecx, edx
  402c11:	8b c2                     mov	eax, edx
  402c13:	83 e1 03                  and	ecx, 03h
  402c16:	50                        push	eax
  402c17:	f3 a4                     rep movsb
  402c19:	8b cb                     mov	ecx, ebx
  402c1b:	ff 15 28 60 40 00         call	dword [00406028h]	; <?_Eos@?$basic_string@DU?$char_traits@D@std@@V?$allocator@D@2@@std@@AAEXI@Z>
  402c21:	8b 74 24 24               mov	esi, [esp+24h]
  402c25:	8b 4e 04                 >mov	ecx, [esi+04h]
  402c28:	8d 44 24 38               lea	eax, [esp+38h]
  402c2c:	50                        push	eax
  402c2d:	8b 11                     mov	edx, [ecx]
  402c2f:	ff 52 14                  call	dword [edx+14h]
  402c32:	50                        push	eax
  402c33:	68 e8 80 40 00            push	dword 004080E8h
  402c38:	55                        push	ebp
  402c39:	c6 84 24 e8 00 00 00      mov	byte [esp+000000E8h], 06h
		06 
  402c41:	ff 15 50 60 40 00         call	dword [00406050h]	; <??6std@@YAAAV?$basic_ostream@DU?$char_traits@D@std@@@0@AAV10@PBD@Z>
  402c47:	83 c4 08                  add	esp, 08h
  402c4a:	50                        push	eax
  402c4b:	e8 cc 2a 00 00            call	40571c	; <??6std@@YAAAV?$basic_ostream@DU?$char_traits@D@std@@@0@AAV10@ABV?$basic_string@DU?$char_traits@D@std@@V?$allocator@D@2@@0@@Z>
  402c50:	83 c4 08                  add	esp, 08h
  402c53:	8d 4c 24 28               lea	ecx, [esp+28h]
  402c57:	c6 84 24 dc 00 00 00      mov	byte [esp+000000DCh], 04h
		04 
  402c5f:	6a 01                     push	dword 00000001h
  402c61:	ff 15 40 60 40 00         call	dword [00406040h]	; <?_Tidy@?$basic_string@DU?$char_traits@D@std@@V?$allocator@D@2@@std@@AAEX_N@Z>
  402c67:	8b 4c 24 1c               mov	ecx, [esp+1Ch]
  402c6b:	83 c6 08                  add	esi, 08h
  402c6e:	89 74 24 14               mov	[esp+14h], esi
  402c72:	3b 71 0c                  cmp	esi, [ecx+0Ch]
  402c75:	0f 85 22 ff ff ff         jnz	402b9d
  402c7b:	8b 1d 50 60 40 00         mov	ebx, [00406050h]
  402c81:	8b f9                     mov	edi, ecx
  402c83:	8d 54 24 50              >lea	edx, [esp+50h]
  402c87:	52                        push	edx
  402c88:	ff 15 4c 60 40 00         call	dword [0040604Ch]	; <?endl@std@@YAAAV?$basic_ostream@DU?$char_traits@D@std@@@1@AAV21@@Z>
  402c8e:	8d 44 24 54               lea	eax, [esp+54h]
  402c92:	50                        push	eax
  402c93:	ff 15 4c 60 40 00         call	dword [0040604Ch]	; <?endl@std@@YAAAV?$basic_ostream@DU?$char_traits@D@std@@@1@AAV21@@Z>
  402c99:	8a 47 24                  mov	al, [edi+24h]
  402c9c:	83 c4 08                  add	esp, 08h
  402c9f:	a8 01                     test	al, 01h
  402ca1:	74 20                     jz	402cc3
  402ca3:	8d 44 24 48               lea	eax, [esp+48h]
  402ca7:	8d 4c 24 50               lea	ecx, [esp+50h]
  402cab:	f7 d8                     neg	eax
  402cad:	1b c0                     sbb	eax, eax
  402caf:	68 bc 80 40 00            push	dword 004080BCh
  402cb4:	23 c1                     and	eax, ecx
  402cb6:	50                        push	eax
  402cb7:	ff d3                     call	ebx
  402cb9:	50                        push	eax
  402cba:	ff 15 4c 60 40 00         call	dword [0040604Ch]	; <?endl@std@@YAAAV?$basic_ostream@DU?$char_traits@D@std@@@1@AAV21@@Z>
  402cc0:	83 c4 0c                  add	esp, 0Ch
  402cc3:	8b 47 08                 >mov	eax, [edi+08h]
  402cc6:	8b 7f 0c                  mov	edi, [edi+0Ch]
  402cc9:	3b c7                     cmp	eax, edi
  402ccb:	89 44 24 14               mov	[esp+14h], eax
  402ccf:	0f 84 00 01 00 00         jz	402dd5
  402cd5:	eb 04                     jmp	402cdb
  402cd7:	8b 44 24 14              >mov	eax, [esp+14h]
  402cdb:	8b 08                    >mov	ecx, [eax]
  402cdd:	be e4 80 40 00            mov	esi, 004080E4h
  402ce2:	85 c9                     test	ecx, ecx
  402ce4:	74 05                     jz	402ceb
  402ce6:	be 1c 82 40 00            mov	esi, 0040821Ch
  402ceb:	8a 54 24 13              >mov	dl, [esp+13h]
  402cef:	83 ec 10                  sub	esp, 10h
  402cf2:	8b ec                     mov	ebp, esp
  402cf4:	89 64 24 28               mov	[esp+28h], esp
  402cf8:	6a 00                     push	dword 00000000h
  402cfa:	8b cd                     mov	ecx, ebp
  402cfc:	88 55 00                  mov	[ebp+00h], dl
  402cff:	ff 15 40 60 40 00         call	dword [00406040h]	; <?_Tidy@?$basic_string@DU?$char_traits@D@std@@V?$allocator@D@2@@std@@AAEX_N@Z>
  402d05:	8b fe                     mov	edi, esi
  402d07:	83 c9 ff                  or	ecx, FFh
  402d0a:	33 c0                     xor	eax, eax
  402d0c:	6a 01                     push	dword 00000001h
  402d0e:	f2 ae                     repne scasb
  402d10:	f7 d1                     not	ecx
  402d12:	49                        dec	ecx
  402d13:	8b d9                     mov	ebx, ecx
  402d15:	8b cd                     mov	ecx, ebp
  402d17:	53                        push	ebx
  402d18:	ff 15 2c 60 40 00         call	dword [0040602Ch]	; <?_Grow@?$basic_string@DU?$char_traits@D@std@@V?$allocator@D@2@@std@@AAE_NI_N@Z>
  402d1e:	84 c0                     test	al, al
  402d20:	74 1e                     jz	402d40
  402d22:	8b 7d 04                  mov	edi, [ebp+04h]
  402d25:	8b cb                     mov	ecx, ebx
  402d27:	8b c1                     mov	eax, ecx
  402d29:	c1 e9 02                  shr	ecx, 02h
  402d2c:	f3 a5                     rep movsd
  402d2e:	8b c8                     mov	ecx, eax
  402d30:	83 e1 03                  and	ecx, 03h
  402d33:	f3 a4                     rep movsb
  402d35:	8b 45 04                  mov	eax, [ebp+04h]
  402d38:	89 5d 08                  mov	[ebp+08h], ebx
  402d3b:	03 d8                     add	ebx, eax
  402d3d:	c6 03 00                  mov	byte [ebx], 00h
  402d40:	8b 74 24 24              >mov	esi, [esp+24h]
  402d44:	8d 44 24 38               lea	eax, [esp+38h]
  402d48:	50                        push	eax
  402d49:	8b 4e 04                  mov	ecx, [esi+04h]
  402d4c:	8b 11                     mov	edx, [ecx]
  402d4e:	ff 52 18                  call	dword [edx+18h]
  402d51:	8b 44 24 30               mov	eax, [esp+30h]
  402d55:	33 ff                     xor	edi, edi
  402d57:	3b c7                     cmp	eax, edi
  402d59:	c6 84 24 dc 00 00 00      mov	byte [esp+000000DCh], 07h
		07 
  402d61:	74 23                     jz	402d86
  402d63:	8d 44 24 48               lea	eax, [esp+48h]
  402d67:	8d 4c 24 50               lea	ecx, [esp+50h]
  402d6b:	f7 d8                     neg	eax
  402d6d:	1b c0                     sbb	eax, eax
  402d6f:	8d 54 24 28               lea	edx, [esp+28h]
  402d73:	23 c1                     and	eax, ecx
  402d75:	52                        push	edx
  402d76:	50                        push	eax
  402d77:	e8 a0 29 00 00            call	40571c	; <??6std@@YAAAV?$basic_ostream@DU?$char_traits@D@std@@@0@AAV10@ABV?$basic_string@DU?$char_traits@D@std@@V?$allocator@D@2@@0@@Z>
  402d7c:	50                        push	eax
  402d7d:	ff 15 4c 60 40 00         call	dword [0040604Ch]	; <?endl@std@@YAAAV?$basic_ostream@DU?$char_traits@D@std@@@1@AAV21@@Z>
  402d83:	83 c4 0c                  add	esp, 0Ch
  402d86:	8b 44 24 2c              >mov	eax, [esp+2Ch]
  402d8a:	c6 84 24 dc 00 00 00      mov	byte [esp+000000DCh], 04h
		04 
  402d92:	3b c7                     cmp	eax, edi
  402d94:	74 1d                     jz	402db3
  402d96:	8d 48 ff                  lea	ecx, [eax-01h]
  402d99:	8a 40 ff                  mov	al, [eax-01h]
  402d9c:	84 c0                     test	al, al
  402d9e:	74 0a                     jz	402daa
  402da0:	3c ff                     cmp	al, FFh
  402da2:	74 06                     jz	402daa
  402da4:	fe c8                     dec	al
  402da6:	88 01                     mov	[ecx], al
  402da8:	eb 09                     jmp	402db3
  402daa:	51                       >push	ecx
  402dab:	e8 60 29 00 00            call	405710
  402db0:	83 c4 04                  add	esp, 04h
  402db3:	8b 44 24 1c              >mov	eax, [esp+1Ch]
  402db7:	83 c6 08                  add	esi, 08h
  402dba:	89 7c 24 2c               mov	[esp+2Ch], edi
  402dbe:	89 7c 24 30               mov	[esp+30h], edi
  402dc2:	8b 48 0c                  mov	ecx, [eax+0Ch]
  402dc5:	89 7c 24 34               mov	[esp+34h], edi
  402dc9:	3b f1                     cmp	esi, ecx
  402dcb:	89 74 24 14               mov	[esp+14h], esi
  402dcf:	0f 85 02 ff ff ff         jnz	402cd7
  402dd5:	8b b4 24 e4 00 00 00     >mov	esi, [esp+000000E4h]
  402ddc:	8d 4c 24 48               lea	ecx, [esp+48h]
  402de0:	56                        push	esi
  402de1:	ff 15 b0 60 40 00         call	dword [004060B0h]	; <?str@?$basic_stringstream@DU?$char_traits@D@std@@V?$allocator@D@2@@std@@QBE?AV?$basic_string@DU?$char_traits@D@std@@V?$allocator@D@2@@2@XZ>
  402de7:	c7 44 24 24 03 00 00      mov	dword [esp+24h], 00000003h
		00 
  402def:	8b 44 24 3c               mov	eax, [esp+3Ch]
  402df3:	33 ff                     xor	edi, edi
  402df5:	3b c7                     cmp	eax, edi
  402df7:	74 1d                     jz	402e16
  402df9:	8d 48 ff                  lea	ecx, [eax-01h]
  402dfc:	8a 40 ff                  mov	al, [eax-01h]
  402dff:	84 c0                     test	al, al
  402e01:	74 0a                     jz	402e0d
  402e03:	3c ff                     cmp	al, FFh
  402e05:	74 06                     jz	402e0d
  402e07:	fe c8                     dec	al
  402e09:	88 01                     mov	[ecx], al
  402e0b:	eb 09                     jmp	402e16
  402e0d:	51                       >push	ecx
  402e0e:	e8 fd 28 00 00            call	405710
  402e13:	83 c4 04                  add	esp, 04h
  402e16:	8b 54 24 48              >mov	edx, [esp+48h]
  402e1a:	8d 8c 24 a0 00 00 00      lea	ecx, [esp+000000A0h]
  402e21:	89 7c 24 3c               mov	[esp+3Ch], edi
  402e25:	89 7c 24 40               mov	[esp+40h], edi
  402e29:	89 7c 24 44               mov	[esp+44h], edi
  402e2d:	8b 42 04                  mov	eax, [edx+04h]
  402e30:	89 4c 24 18               mov	[esp+18h], ecx
  402e34:	8b 0d b4 60 40 00         mov	ecx, [004060B4h]
  402e3a:	89 4c 04 48               mov	[esp+eax*1+48h], ecx
  402e3e:	a1 94 60 40 00            mov	eax, [406094h]
  402e43:	8d 54 24 54               lea	edx, [esp+54h]
  402e47:	c7 84 24 dc 00 00 00      mov	dword [esp+000000DCh], 00000008h
		08 00 00 00 
  402e52:	89 54 24 1c               mov	[esp+1Ch], edx
  402e56:	89 44 24 54               mov	[esp+54h], eax
  402e5a:	8d 4c 24 54               lea	ecx, [esp+54h]
  402e5e:	c6 84 24 dc 00 00 00      mov	byte [esp+000000DCh], 09h
		09 
  402e66:	ff 15 ac 60 40 00         call	dword [004060ACh]	; <?_Tidy@?$basic_stringbuf@DU?$char_traits@D@std@@V?$allocator@D@2@@std@@IAEXXZ>
  402e6c:	8b 0d a8 60 40 00         mov	ecx, [004060A8h]
  402e72:	89 4c 24 54               mov	[esp+54h], ecx
  402e76:	8d 8c 24 88 00 00 00      lea	ecx, [esp+00000088h]
  402e7d:	ff 15 a4 60 40 00         call	dword [004060A4h]	; <??1locale@std@@QAE@XZ>
  402e83:	8b 54 24 48               mov	edx, [esp+48h]
  402e87:	8b 0d a0 60 40 00         mov	ecx, [004060A0h]
  402e8d:	c6 84 24 dc 00 00 00      mov	byte [esp+000000DCh], 00h
		00 
  402e95:	8b 42 04                  mov	eax, [edx+04h]
  402e98:	8d 54 24 50               lea	edx, [esp+50h]
  402e9c:	89 4c 04 48               mov	[esp+eax*1+48h], ecx
  402ea0:	8d 44 24 48               lea	eax, [esp+48h]
  402ea4:	f7 d8                     neg	eax
  402ea6:	1b c0                     sbb	eax, eax
  402ea8:	23 c2                     and	eax, edx
  402eaa:	8b 08                     mov	ecx, [eax]
  402eac:	8b 51 04                  mov	edx, [ecx+04h]
  402eaf:	8b 0d 9c 60 40 00         mov	ecx, [0040609Ch]
  402eb5:	89 0c 02                  mov	[edx+eax*1], ecx
  402eb8:	8b 54 24 48               mov	edx, [esp+48h]
  402ebc:	8b 0d 00 60 40 00         mov	ecx, [00406000h]
  402ec2:	8b 42 04                  mov	eax, [edx+04h]
  402ec5:	89 4c 04 48               mov	[esp+eax*1+48h], ecx
  402ec9:	8b 15 04 60 40 00         mov	edx, [00406004h]
  402ecf:	8d 8c 24 a0 00 00 00      lea	ecx, [esp+000000A0h]
  402ed6:	89 94 24 a0 00 00 00      mov	[esp+000000A0h], edx
  402edd:	ff 15 90 60 40 00         call	dword [00406090h]	; <??1ios_base@std@@UAE@XZ>
  402ee3:	8b 8c 24 d4 00 00 00      mov	ecx, [esp+000000D4h]
  402eea:	8b c6                     mov	eax, esi
  402eec:	5f                        pop	edi
  402eed:	5e                        pop	esi
  402eee:	5d                        pop	ebp
  402eef:	64 89 0d 00 00 00 00      mov	[fs:00000000h], ecx
  402ef6:	5b                        pop	ebx
  402ef7:	81 c4 d0 00 00 00         add	esp, 000000D0h
  402efd:	c2 08 00                  ret	0008h

402f00 <no name>:
  402f00:	6a ff                     push	dword FFFFFFFFh
  402f02:	68 85 5c 40 00            push	dword 00405C85h
  402f07:	64 a1 00 00 00 00         mov	eax, [fs:0000h]
  402f0d:	50                        push	eax
  402f0e:	64 89 25 00 00 00 00      mov	[fs:00000000h], esp
  402f15:	81 ec 88 00 00 00         sub	esp, 00000088h
  402f1b:	a1 38 60 40 00            mov	eax, [406038h]
  402f20:	53                        push	ebx
  402f21:	8b d9                     mov	ebx, ecx
  402f23:	55                        push	ebp
  402f24:	8b 08                     mov	ecx, [eax]
  402f26:	56                        push	esi
  402f27:	57                        push	edi
  402f28:	8d 73 14                  lea	esi, [ebx+14h]
  402f2b:	33 ed                     xor	ebp, ebp
  402f2d:	51                        push	ecx
  402f2e:	55                        push	ebp
  402f2f:	8b ce                     mov	ecx, esi
  402f31:	89 74 24 1c               mov	[esp+1Ch], esi
  402f35:	ff 15 5c 60 40 00         call	dword [0040605Ch]	; <?erase@?$basic_string@DU?$char_traits@D@std@@V?$allocator@D@2@@std@@QAEAAV12@II@Z>
  402f3b:	8b 84 24 a8 00 00 00      mov	eax, [esp+000000A8h]
  402f42:	8b 78 04                  mov	edi, [eax+04h]
  402f45:	8b 40 08                  mov	eax, [eax+08h]
  402f48:	3b f8                     cmp	edi, eax
  402f4a:	0f 84 17 05 00 00         jz	403467
  402f50:	8b 47 08                 >mov	eax, [edi+08h]
  402f53:	c6 44 24 13 00            mov	byte [esp+13h], 00h
  402f58:	83 f8 01                  cmp	eax, 01h
  402f5b:	0f 86 94 00 00 00         jbe	402ff5
  402f61:	3b c5                     cmp	eax, ebp
  402f63:	77 06                     ja	402f6b
  402f65:	ff 15 34 60 40 00         call	dword [00406034h]	; <?_Xran@std@@YAXXZ>
  402f6b:	8b 57 04                 >mov	edx, [edi+04h]
  402f6e:	80 3a 2f                  cmp	byte [edx], 2Fh
  402f71:	74 13                     jz	402f86
  402f73:	39 6f 08                  cmp	[edi+08h], ebp
  402f76:	77 06                     ja	402f7e
  402f78:	ff 15 34 60 40 00         call	dword [00406034h]	; <?_Xran@std@@YAXXZ>
  402f7e:	8b 47 04                 >mov	eax, [edi+04h]
  402f81:	80 38 2d                  cmp	byte [eax], 2Dh
  402f84:	75 6f                     jnz	402ff5
  402f86:	8b 0d 38 60 40 00        >mov	ecx, [00406038h]
  402f8c:	8d 44 24 18               lea	eax, [esp+18h]
  402f90:	8b 11                     mov	edx, [ecx]
  402f92:	8b cf                     mov	ecx, edi
  402f94:	52                        push	edx
  402f95:	6a 01                     push	dword 00000001h
  402f97:	50                        push	eax
  402f98:	ff 15 48 60 40 00         call	dword [00406048h]	; <?substr@?$basic_string@DU?$char_traits@D@std@@V?$allocator@D@2@@std@@QBE?AV12@II@Z>
  402f9e:	8b e8                     mov	ebp, eax
  402fa0:	8b 73 08                  mov	esi, [ebx+08h]
  402fa3:	8b 43 0c                  mov	eax, [ebx+0Ch]
  402fa6:	3b f0                     cmp	esi, eax
  402fa8:	c7 84 24 a0 00 00 00      mov	dword [esp+000000A0h], 00000000h
		00 00 00 00 
  402fb3:	74 1c                     jz	402fd1
  402fb5:	83 3e 00                 >cmp	dword [esi], 00h
  402fb8:	75 0d                     jnz	402fc7
  402fba:	8b 4e 04                  mov	ecx, [esi+04h]
  402fbd:	55                        push	ebp
  402fbe:	e8 8d 06 00 00            call	403650
  402fc3:	84 c0                     test	al, al
  402fc5:	75 29                     jnz	402ff0
  402fc7:	8b 43 0c                 >mov	eax, [ebx+0Ch]
  402fca:	83 c6 08                  add	esi, 08h
  402fcd:	3b f0                     cmp	esi, eax
  402fcf:	75 e4                     jnz	402fb5
  402fd1:	33 f6                    >xor	esi, esi
  402fd3:	83 cd ff                 >or	ebp, FFh
  402fd6:	6a 01                     push	dword 00000001h
  402fd8:	8d 4c 24 1c               lea	ecx, [esp+1Ch]
  402fdc:	89 ac 24 a4 00 00 00      mov	[esp+000000A4h], ebp
  402fe3:	ff 15 40 60 40 00         call	dword [00406040h]	; <?_Tidy@?$basic_string@DU?$char_traits@D@std@@V?$allocator@D@2@@std@@AAEX_N@Z>
  402fe9:	c6 44 24 13 01            mov	byte [esp+13h], 01h
  402fee:	eb 49                     jmp	403039
  402ff0:	8b 76 04                 >mov	esi, [esi+04h]
  402ff3:	eb de                     jmp	402fd3
  402ff5:	8b 6b 08                 >mov	ebp, [ebx+08h]
  402ff8:	8b 43 0c                  mov	eax, [ebx+0Ch]
  402ffb:	3b e8                     cmp	ebp, eax
  402ffd:	0f 84 ba 00 00 00         jz	4030bd
  403003:	83 7d 00 01              >cmp	dword [ebp+00h], 01h
  403007:	75 1d                     jnz	403026
  403009:	8b 75 04                  mov	esi, [ebp+04h]
  40300c:	8b ce                     mov	ecx, esi
  40300e:	8b 16                     mov	edx, [esi]
  403010:	ff 52 08                  call	dword [edx+08h]
  403013:	84 c0                     test	al, al
  403015:	74 0b                     jz	403022
  403017:	8b 06                     mov	eax, [esi]
  403019:	8b ce                     mov	ecx, esi
  40301b:	ff 50 0c                  call	dword [eax+0Ch]
  40301e:	84 c0                     test	al, al
  403020:	75 14                     jnz	403036
  403022:	8b 74 24 14              >mov	esi, [esp+14h]
  403026:	8b 43 0c                 >mov	eax, [ebx+0Ch]
  403029:	83 c5 08                  add	ebp, 08h
  40302c:	3b e8                     cmp	ebp, eax
  40302e:	0f 84 89 00 00 00         jz	4030bd
  403034:	eb cd                     jmp	403003
  403036:	83 cd ff                 >or	ebp, FFh
  403039:	85 f6                    >test	esi, esi
  40303b:	74 7a                     jz	4030b7
  40303d:	8b 16                     mov	edx, [esi]
  40303f:	8b ce                     mov	ecx, esi
  403041:	ff 52 08                  call	dword [edx+08h]
  403044:	84 c0                     test	al, al
  403046:	74 3c                     jz	403084
  403048:	8a 44 24 13               mov	al, [esp+13h]
  40304c:	84 c0                     test	al, al
  40304e:	74 13                     jz	403063
  403050:	8b 84 24 a8 00 00 00      mov	eax, [esp+000000A8h]
  403057:	83 c7 10                  add	edi, 10h
  40305a:	3b 78 08                  cmp	edi, [eax+08h]
  40305d:	0f 84 d5 00 00 00         jz	403138
  403063:	8b 16                    >mov	edx, [esi]
  403065:	8b ce                     mov	ecx, esi
  403067:	ff 52 0c                  call	dword [edx+0Ch]
  40306a:	84 c0                     test	al, al
  40306c:	0f 84 68 01 00 00         jz	4031da
  403072:	8b 06                     mov	eax, [esi]
  403074:	57                        push	edi
  403075:	8b ce                     mov	ecx, esi
  403077:	ff 50 10                  call	dword [eax+10h]
  40307a:	84 c0                     test	al, al
  40307c:	0f 84 4e 02 00 00         jz	4032d0
  403082:	eb 0a                     jmp	40308e
  403084:	f6 46 04 01              >test	byte [esi+04h], 01h
  403088:	0f 85 38 03 00 00         jnz	4033c6
  40308e:	8a 56 04                 >mov	dl, [esi+04h]
  403091:	8b 8c 24 a8 00 00 00      mov	ecx, [esp+000000A8h]
  403098:	80 ca 01                  or	dl, 01h
  40309b:	83 c7 10                  add	edi, 10h
  40309e:	88 56 04                  mov	[esi+04h], dl
  4030a1:	8b 41 08                  mov	eax, [ecx+08h]
  4030a4:	8b 74 24 14               mov	esi, [esp+14h]
  4030a8:	3b f8                     cmp	edi, eax
  4030aa:	0f 84 b5 03 00 00         jz	403465
  4030b0:	33 ed                     xor	ebp, ebp
  4030b2:	e9 99 fe ff ff            jmp	402f50
  4030b7:	8b 74 24 14              >mov	esi, [esp+14h]
  4030bb:	eb 03                     jmp	4030c0
  4030bd:	83 cd ff                 >or	ebp, FFh
  4030c0:	57                       >push	edi
  4030c1:	8d 54 24 3c               lea	edx, [esp+3Ch]
  4030c5:	68 98 81 40 00            push	dword 00408198h
  4030ca:	52                        push	edx
  4030cb:	e8 58 26 00 00            call	405728	; <??Hstd@@YA?AV?$basic_string@DU?$char_traits@D@std@@V?$allocator@D@2@@0@PBDABV10@@Z>
  4030d0:	68 94 81 40 00            push	dword 00408194h
  4030d5:	50                        push	eax
  4030d6:	8d 44 24 2c               lea	eax, [esp+2Ch]
  4030da:	c7 84 24 b4 00 00 00      mov	dword [esp+000000B4h], 00000001h
		01 00 00 00 
  4030e5:	50                        push	eax
  4030e6:	e8 37 26 00 00            call	405722	; <??Hstd@@YA?AV?$basic_string@DU?$char_traits@D@std@@V?$allocator@D@2@@0@ABV10@PBD@Z>
  4030eb:	83 c4 18                  add	esp, 18h
  4030ee:	8b 0d 38 60 40 00         mov	ecx, [00406038h]
  4030f4:	c6 84 24 a0 00 00 00      mov	byte [esp+000000A0h], 02h
		02 
  4030fc:	8b 11                     mov	edx, [ecx]
  4030fe:	8b ce                     mov	ecx, esi
  403100:	52                        push	edx
  403101:	6a 00                     push	dword 00000000h
  403103:	50                        push	eax
  403104:	ff 15 44 60 40 00         call	dword [00406044h]	; <?assign@?$basic_string@DU?$char_traits@D@std@@V?$allocator@D@2@@std@@QAEAAV12@ABV12@II@Z>
  40310a:	6a 01                     push	dword 00000001h
  40310c:	8d 4c 24 1c               lea	ecx, [esp+1Ch]
  403110:	c6 84 24 a4 00 00 00      mov	byte [esp+000000A4h], 01h
		01 
  403118:	ff 15 40 60 40 00         call	dword [00406040h]	; <?_Tidy@?$basic_string@DU?$char_traits@D@std@@V?$allocator@D@2@@std@@AAEX_N@Z>
  40311e:	6a 01                     push	dword 00000001h
  403120:	8d 4c 24 3c               lea	ecx, [esp+3Ch]
  403124:	89 ac 24 a4 00 00 00      mov	[esp+000000A4h], ebp
  40312b:	ff 15 40 60 40 00         call	dword [00406040h]	; <?_Tidy@?$basic_string@DU?$char_traits@D@std@@V?$allocator@D@2@@std@@AAEX_N@Z>
  403131:	32 c0                     xor	al, al
  403133:	e9 51 03 00 00            jmp	403489
  403138:	8d 44 24 28              >lea	eax, [esp+28h]
  40313c:	8b ce                     mov	ecx, esi
  40313e:	50                        push	eax
  40313f:	e8 ec f2 ff ff            call	402430
  403144:	50                        push	eax
  403145:	8d 4c 24 1c               lea	ecx, [esp+1Ch]
  403149:	68 88 81 40 00            push	dword 00408188h
  40314e:	51                        push	ecx
  40314f:	c7 84 24 ac 00 00 00      mov	dword [esp+000000ACh], 00000003h
		03 00 00 00 
  40315a:	e8 c9 25 00 00            call	405728	; <??Hstd@@YA?AV?$basic_string@DU?$char_traits@D@std@@V?$allocator@D@2@@0@PBDABV10@@Z>
  40315f:	68 70 81 40 00            push	dword 00408170h
  403164:	8d 54 24 48               lea	edx, [esp+48h]
  403168:	b3 04                     mov	bl, 04h
  40316a:	50                        push	eax
  40316b:	52                        push	edx
  40316c:	88 9c 24 b8 00 00 00      mov	[esp+000000B8h], bl
  403173:	e8 aa 25 00 00            call	405722	; <??Hstd@@YA?AV?$basic_string@DU?$char_traits@D@std@@V?$allocator@D@2@@0@ABV10@PBD@Z>
  403178:	83 c4 18                  add	esp, 18h
  40317b:	8b 0d 38 60 40 00         mov	ecx, [00406038h]
  403181:	c6 84 24 a0 00 00 00      mov	byte [esp+000000A0h], 05h
		05 
  403189:	8b 11                     mov	edx, [ecx]
  40318b:	8b 4c 24 14               mov	ecx, [esp+14h]
  40318f:	52                        push	edx
  403190:	6a 00                     push	dword 00000000h
  403192:	50                        push	eax
  403193:	ff 15 44 60 40 00         call	dword [00406044h]	; <?assign@?$basic_string@DU?$char_traits@D@std@@V?$allocator@D@2@@std@@QAEAAV12@ABV12@II@Z>
  403199:	6a 01                     push	dword 00000001h
  40319b:	8d 4c 24 3c               lea	ecx, [esp+3Ch]
  40319f:	88 9c 24 a4 00 00 00      mov	[esp+000000A4h], bl
  4031a6:	ff 15 40 60 40 00         call	dword [00406040h]	; <?_Tidy@?$basic_string@DU?$char_traits@D@std@@V?$allocator@D@2@@std@@AAEX_N@Z>
  4031ac:	6a 01                     push	dword 00000001h
  4031ae:	8d 4c 24 1c               lea	ecx, [esp+1Ch]
  4031b2:	c6 84 24 a4 00 00 00      mov	byte [esp+000000A4h], 03h
		03 
  4031ba:	ff 15 40 60 40 00         call	dword [00406040h]	; <?_Tidy@?$basic_string@DU?$char_traits@D@std@@V?$allocator@D@2@@std@@AAEX_N@Z>
  4031c0:	6a 01                     push	dword 00000001h
  4031c2:	8d 4c 24 2c               lea	ecx, [esp+2Ch]
  4031c6:	89 ac 24 a4 00 00 00      mov	[esp+000000A4h], ebp
  4031cd:	ff 15 40 60 40 00         call	dword [00406040h]	; <?_Tidy@?$basic_string@DU?$char_traits@D@std@@V?$allocator@D@2@@std@@AAEX_N@Z>
  4031d3:	32 c0                     xor	al, al
  4031d5:	e9 af 02 00 00            jmp	403489
  4031da:	8d 44 24 48              >lea	eax, [esp+48h]
  4031de:	8b ce                     mov	ecx, esi
  4031e0:	50                        push	eax
  4031e1:	e8 4a f2 ff ff            call	402430
  4031e6:	50                        push	eax
  4031e7:	8d 4c 24 5c               lea	ecx, [esp+5Ch]
  4031eb:	68 88 81 40 00            push	dword 00408188h
  4031f0:	51                        push	ecx
  4031f1:	c7 84 24 ac 00 00 00      mov	dword [esp+000000ACh], 00000006h
		06 00 00 00 
  4031fc:	e8 27 25 00 00            call	405728	; <??Hstd@@YA?AV?$basic_string@DU?$char_traits@D@std@@V?$allocator@D@2@@0@PBDABV10@@Z>
  403201:	68 48 81 40 00            push	dword 00408148h
  403206:	8d 54 24 28               lea	edx, [esp+28h]
  40320a:	50                        push	eax
  40320b:	52                        push	edx
  40320c:	c6 84 24 b8 00 00 00      mov	byte [esp+000000B8h], 07h
		07 
  403214:	e8 09 25 00 00            call	405722	; <??Hstd@@YA?AV?$basic_string@DU?$char_traits@D@std@@V?$allocator@D@2@@0@ABV10@PBD@Z>
  403219:	57                        push	edi
  40321a:	50                        push	eax
  40321b:	8d 44 24 58               lea	eax, [esp+58h]
  40321f:	c6 84 24 c0 00 00 00      mov	byte [esp+000000C0h], 08h
		08 
  403227:	50                        push	eax
  403228:	e8 01 25 00 00            call	40572e	; <??Hstd@@YA?AV?$basic_string@DU?$char_traits@D@std@@V?$allocator@D@2@@0@ABV10@0@Z>
  40322d:	68 94 81 40 00            push	dword 00408194h
  403232:	8d 4c 24 50               lea	ecx, [esp+50h]
  403236:	b3 09                     mov	bl, 09h
  403238:	50                        push	eax
  403239:	51                        push	ecx
  40323a:	88 9c 24 d0 00 00 00      mov	[esp+000000D0h], bl
  403241:	e8 dc 24 00 00            call	405722	; <??Hstd@@YA?AV?$basic_string@DU?$char_traits@D@std@@V?$allocator@D@2@@0@ABV10@PBD@Z>
  403246:	83 c4 30                  add	esp, 30h
  403249:	8b 15 38 60 40 00         mov	edx, [00406038h]
  40324f:	c6 84 24 a0 00 00 00      mov	byte [esp+000000A0h], 0Ah
		0a 
  403257:	8b 0a                     mov	ecx, [edx]
  403259:	51                        push	ecx
  40325a:	8b 4c 24 18               mov	ecx, [esp+18h]
  40325e:	6a 00                     push	dword 00000000h
  403260:	50                        push	eax
  403261:	ff 15 44 60 40 00         call	dword [00406044h]	; <?assign@?$basic_string@DU?$char_traits@D@std@@V?$allocator@D@2@@std@@QAEAAV12@ABV12@II@Z>
  403267:	6a 01                     push	dword 00000001h
  403269:	8d 4c 24 2c               lea	ecx, [esp+2Ch]
  40326d:	88 9c 24 a4 00 00 00      mov	[esp+000000A4h], bl
  403274:	ff 15 40 60 40 00         call	dword [00406040h]	; <?_Tidy@?$basic_string@DU?$char_traits@D@std@@V?$allocator@D@2@@std@@AAEX_N@Z>
  40327a:	6a 01                     push	dword 00000001h
  40327c:	8d 4c 24 3c               lea	ecx, [esp+3Ch]
  403280:	c6 84 24 a4 00 00 00      mov	byte [esp+000000A4h], 08h
		08 
  403288:	ff 15 40 60 40 00         call	dword [00406040h]	; <?_Tidy@?$basic_string@DU?$char_traits@D@std@@V?$allocator@D@2@@std@@AAEX_N@Z>
  40328e:	6a 01                     push	dword 00000001h
  403290:	8d 4c 24 1c               lea	ecx, [esp+1Ch]
  403294:	c6 84 24 a4 00 00 00      mov	byte [esp+000000A4h], 07h
		07 
  40329c:	ff 15 40 60 40 00         call	dword [00406040h]	; <?_Tidy@?$basic_string@DU?$char_traits@D@std@@V?$allocator@D@2@@std@@AAEX_N@Z>
  4032a2:	6a 01                     push	dword 00000001h
  4032a4:	8d 4c 24 5c               lea	ecx, [esp+5Ch]
  4032a8:	c6 84 24 a4 00 00 00      mov	byte [esp+000000A4h], 06h
		06 
  4032b0:	ff 15 40 60 40 00         call	dword [00406040h]	; <?_Tidy@?$basic_string@DU?$char_traits@D@std@@V?$allocator@D@2@@std@@AAEX_N@Z>
  4032b6:	6a 01                     push	dword 00000001h
  4032b8:	8d 4c 24 4c               lea	ecx, [esp+4Ch]
  4032bc:	89 ac 24 a4 00 00 00      mov	[esp+000000A4h], ebp
  4032c3:	ff 15 40 60 40 00         call	dword [00406040h]	; <?_Tidy@?$basic_string@DU?$char_traits@D@std@@V?$allocator@D@2@@std@@AAEX_N@Z>
  4032c9:	32 c0                     xor	al, al
  4032cb:	e9 b9 01 00 00            jmp	403489
  4032d0:	8d 54 24 18              >lea	edx, [esp+18h]
  4032d4:	8b ce                     mov	ecx, esi
  4032d6:	52                        push	edx
  4032d7:	e8 54 f1 ff ff            call	402430
  4032dc:	50                        push	eax
  4032dd:	8d 44 24 3c               lea	eax, [esp+3Ch]
  4032e1:	68 88 81 40 00            push	dword 00408188h
  4032e6:	50                        push	eax
  4032e7:	c7 84 24 ac 00 00 00      mov	dword [esp+000000ACh], 0000000Bh
		0b 00 00 00 
  4032f2:	e8 31 24 00 00            call	405728	; <??Hstd@@YA?AV?$basic_string@DU?$char_traits@D@std@@V?$allocator@D@2@@0@PBDABV10@@Z>
  4032f7:	68 28 81 40 00            push	dword 00408128h
  4032fc:	8d 4c 24 38               lea	ecx, [esp+38h]
  403300:	50                        push	eax
  403301:	51                        push	ecx
  403302:	c6 84 24 b8 00 00 00      mov	byte [esp+000000B8h], 0Ch
		0c 
  40330a:	e8 13 24 00 00            call	405722	; <??Hstd@@YA?AV?$basic_string@DU?$char_traits@D@std@@V?$allocator@D@2@@0@ABV10@PBD@Z>
  40330f:	57                        push	edi
  403310:	8d 54 24 74               lea	edx, [esp+74h]
  403314:	50                        push	eax
  403315:	52                        push	edx
  403316:	c6 84 24 c4 00 00 00      mov	byte [esp+000000C4h], 0Dh
		0d 
  40331e:	e8 0b 24 00 00            call	40572e	; <??Hstd@@YA?AV?$basic_string@DU?$char_traits@D@std@@V?$allocator@D@2@@0@ABV10@0@Z>
  403323:	68 94 81 40 00            push	dword 00408194h
  403328:	50                        push	eax
  403329:	8d 44 24 74               lea	eax, [esp+74h]
  40332d:	b3 0e                     mov	bl, 0Eh
  40332f:	50                        push	eax
  403330:	88 9c 24 d0 00 00 00      mov	[esp+000000D0h], bl
  403337:	e8 e6 23 00 00            call	405722	; <??Hstd@@YA?AV?$basic_string@DU?$char_traits@D@std@@V?$allocator@D@2@@0@ABV10@PBD@Z>
  40333c:	83 c4 30                  add	esp, 30h
  40333f:	8b 0d 38 60 40 00         mov	ecx, [00406038h]
  403345:	c6 84 24 a0 00 00 00      mov	byte [esp+000000A0h], 0Fh
		0f 
  40334d:	8b 11                     mov	edx, [ecx]
  40334f:	8b 4c 24 14               mov	ecx, [esp+14h]
  403353:	52                        push	edx
  403354:	6a 00                     push	dword 00000000h
  403356:	50                        push	eax
  403357:	ff 15 44 60 40 00         call	dword [00406044h]	; <?assign@?$basic_string@DU?$char_traits@D@std@@V?$allocator@D@2@@std@@QAEAAV12@ABV12@II@Z>
  40335d:	6a 01                     push	dword 00000001h
  40335f:	8d 4c 24 4c               lea	ecx, [esp+4Ch]
  403363:	88 9c 24 a4 00 00 00      mov	[esp+000000A4h], bl
  40336a:	ff 15 40 60 40 00         call	dword [00406040h]	; <?_Tidy@?$basic_string@DU?$char_traits@D@std@@V?$allocator@D@2@@std@@AAEX_N@Z>
  403370:	6a 01                     push	dword 00000001h
  403372:	8d 4c 24 5c               lea	ecx, [esp+5Ch]
  403376:	c6 84 24 a4 00 00 00      mov	byte [esp+000000A4h], 0Dh
		0d 
  40337e:	ff 15 40 60 40 00         call	dword [00406040h]	; <?_Tidy@?$basic_string@DU?$char_traits@D@std@@V?$allocator@D@2@@std@@AAEX_N@Z>
  403384:	6a 01                     push	dword 00000001h
  403386:	8d 4c 24 2c               lea	ecx, [esp+2Ch]
  40338a:	c6 84 24 a4 00 00 00      mov	byte [esp+000000A4h], 0Ch
		0c 
  403392:	ff 15 40 60 40 00         call	dword [00406040h]	; <?_Tidy@?$basic_string@DU?$char_traits@D@std@@V?$allocator@D@2@@std@@AAEX_N@Z>
  403398:	6a 01                     push	dword 00000001h
  40339a:	8d 4c 24 3c               lea	ecx, [esp+3Ch]
  40339e:	c6 84 24 a4 00 00 00      mov	byte [esp+000000A4h], 0Bh
		0b 
  4033a6:	ff 15 40 60 40 00         call	dword [00406040h]	; <?_Tidy@?$basic_string@DU?$char_traits@D@std@@V?$allocator@D@2@@std@@AAEX_N@Z>
  4033ac:	6a 01                     push	dword 00000001h
  4033ae:	8d 4c 24 1c               lea	ecx, [esp+1Ch]
  4033b2:	89 ac 24 a4 00 00 00      mov	[esp+000000A4h], ebp
  4033b9:	ff 15 40 60 40 00         call	dword [00406040h]	; <?_Tidy@?$basic_string@DU?$char_traits@D@std@@V?$allocator@D@2@@std@@AAEX_N@Z>
  4033bf:	32 c0                     xor	al, al
  4033c1:	e9 c3 00 00 00            jmp	403489
  4033c6:	8d 44 24 28              >lea	eax, [esp+28h]
  4033ca:	8b ce                     mov	ecx, esi
  4033cc:	50                        push	eax
  4033cd:	e8 5e f0 ff ff            call	402430
  4033d2:	50                        push	eax
  4033d3:	8d 4c 24 5c               lea	ecx, [esp+5Ch]
  4033d7:	68 88 81 40 00            push	dword 00408188h
  4033dc:	51                        push	ecx
  4033dd:	c7 84 24 ac 00 00 00      mov	dword [esp+000000ACh], 00000010h
		10 00 00 00 
  4033e8:	e8 3b 23 00 00            call	405728	; <??Hstd@@YA?AV?$basic_string@DU?$char_traits@D@std@@V?$allocator@D@2@@0@PBDABV10@@Z>
  4033ed:	68 14 81 40 00            push	dword 00408114h
  4033f2:	8d 54 24 58               lea	edx, [esp+58h]
  4033f6:	b3 11                     mov	bl, 11h
  4033f8:	50                        push	eax
  4033f9:	52                        push	edx
  4033fa:	88 9c 24 b8 00 00 00      mov	[esp+000000B8h], bl
  403401:	e8 1c 23 00 00            call	405722	; <??Hstd@@YA?AV?$basic_string@DU?$char_traits@D@std@@V?$allocator@D@2@@0@ABV10@PBD@Z>
  403406:	83 c4 18                  add	esp, 18h
  403409:	8b 0d 38 60 40 00         mov	ecx, [00406038h]
  40340f:	c6 84 24 a0 00 00 00      mov	byte [esp+000000A0h], 12h
		12 
  403417:	8b 11                     mov	edx, [ecx]
  403419:	8b 4c 24 14               mov	ecx, [esp+14h]
  40341d:	52                        push	edx
  40341e:	6a 00                     push	dword 00000000h
  403420:	50                        push	eax
  403421:	ff 15 44 60 40 00         call	dword [00406044h]	; <?assign@?$basic_string@DU?$char_traits@D@std@@V?$allocator@D@2@@std@@QAEAAV12@ABV12@II@Z>
  403427:	6a 01                     push	dword 00000001h
  403429:	8d 4c 24 4c               lea	ecx, [esp+4Ch]
  40342d:	88 9c 24 a4 00 00 00      mov	[esp+000000A4h], bl
  403434:	ff 15 40 60 40 00         call	dword [00406040h]	; <?_Tidy@?$basic_string@DU?$char_traits@D@std@@V?$allocator@D@2@@std@@AAEX_N@Z>
  40343a:	6a 01                     push	dword 00000001h
  40343c:	8d 4c 24 5c               lea	ecx, [esp+5Ch]
  403440:	c6 84 24 a4 00 00 00      mov	byte [esp+000000A4h], 10h
		10 
  403448:	ff 15 40 60 40 00         call	dword [00406040h]	; <?_Tidy@?$basic_string@DU?$char_traits@D@std@@V?$allocator@D@2@@std@@AAEX_N@Z>
  40344e:	6a 01                     push	dword 00000001h
  403450:	8d 4c 24 2c               lea	ecx, [esp+2Ch]
  403454:	89 ac 24 a4 00 00 00      mov	[esp+000000A4h], ebp
  40345b:	ff 15 40 60 40 00         call	dword [00406040h]	; <?_Tidy@?$basic_string@DU?$char_traits@D@std@@V?$allocator@D@2@@std@@AAEX_N@Z>
  403461:	32 c0                     xor	al, al
  403463:	eb 24                     jmp	403489
  403465:	33 ed                    >xor	ebp, ebp
  403467:	8b 7b 08                 >mov	edi, [ebx+08h]
  40346a:	8b 43 0c                  mov	eax, [ebx+0Ch]
  40346d:	3b f8                     cmp	edi, eax
  40346f:	74 16                     jz	403487
  403471:	8b 4f 04                 >mov	ecx, [edi+04h]
  403474:	8b 01                     mov	eax, [ecx]
  403476:	ff 50 04                  call	dword [eax+04h]
  403479:	84 c0                     test	al, al
  40347b:	74 27                     jz	4034a4
  40347d:	8b 43 0c                  mov	eax, [ebx+0Ch]
  403480:	83 c7 08                  add	edi, 08h
  403483:	3b f8                     cmp	edi, eax
  403485:	75 ea                     jnz	403471
  403487:	b0 01                    >mov	al, 01h
  403489:	8b 8c 24 98 00 00 00     >mov	ecx, [esp+00000098h]
  403490:	5f                        pop	edi
  403491:	5e                        pop	esi
  403492:	5d                        pop	ebp
  403493:	5b                        pop	ebx
  403494:	64 89 0d 00 00 00 00      mov	[fs:00000000h], ecx
  40349b:	81 c4 94 00 00 00         add	esp, 00000094h
  4034a1:	c2 08 00                  ret	0008h
  4034a4:	8d 8c 24 88 00 00 00     >lea	ecx, [esp+00000088h]
  4034ab:	51                        push	ecx
  4034ac:	8b 4f 04                  mov	ecx, [edi+04h]
  4034af:	e8 7c ef ff ff            call	402430
  4034b4:	50                        push	eax
  4034b5:	8d 54 24 6c               lea	edx, [esp+6Ch]
  4034b9:	68 00 81 40 00            push	dword 00408100h
  4034be:	52                        push	edx
  4034bf:	c7 84 24 ac 00 00 00      mov	dword [esp+000000ACh], 00000013h
		13 00 00 00 
  4034ca:	e8 59 22 00 00            call	405728	; <??Hstd@@YA?AV?$basic_string@DU?$char_traits@D@std@@V?$allocator@D@2@@0@PBDABV10@@Z>
  4034cf:	68 94 81 40 00            push	dword 00408194h
  4034d4:	50                        push	eax
  4034d5:	8d 84 24 8c 00 00 00      lea	eax, [esp+0000008Ch]
  4034dc:	c6 84 24 b4 00 00 00      mov	byte [esp+000000B4h], 14h
		14 
  4034e4:	50                        push	eax
  4034e5:	e8 38 22 00 00            call	405722	; <??Hstd@@YA?AV?$basic_string@DU?$char_traits@D@std@@V?$allocator@D@2@@0@ABV10@PBD@Z>
  4034ea:	83 c4 18                  add	esp, 18h
  4034ed:	8b f8                     mov	edi, eax
  4034ef:	8b 0d 38 60 40 00         mov	ecx, [00406038h]
  4034f5:	c6 84 24 a0 00 00 00      mov	byte [esp+000000A0h], 15h
		15 
  4034fd:	8b 01                     mov	eax, [ecx]
  4034ff:	8b 4f 08                  mov	ecx, [edi+08h]
  403502:	8b d9                     mov	ebx, ecx
  403504:	3b c3                     cmp	eax, ebx
  403506:	73 02                     jae	40350a
  403508:	8b d8                     mov	ebx, eax
  40350a:	3b f7                    >cmp	esi, edi
  40350c:	75 19                     jnz	403527
  40350e:	50                        push	eax
  40350f:	53                        push	ebx
  403510:	8b ce                     mov	ecx, esi
  403512:	ff 15 5c 60 40 00         call	dword [0040605Ch]	; <?erase@?$basic_string@DU?$char_traits@D@std@@V?$allocator@D@2@@std@@QAEAAV12@II@Z>
  403518:	55                        push	ebp
  403519:	55                        push	ebp
  40351a:	8b ce                     mov	ecx, esi
  40351c:	ff 15 5c 60 40 00         call	dword [0040605Ch]	; <?erase@?$basic_string@DU?$char_traits@D@std@@V?$allocator@D@2@@std@@QAEAAV12@II@Z>
  403522:	e9 89 00 00 00            jmp	4035b0
  403527:	3b dd                    >cmp	ebx, ebp
  403529:	76 45                     jbe	403570
  40352b:	3b d9                     cmp	ebx, ecx
  40352d:	75 41                     jnz	403570
  40352f:	8b 47 04                  mov	eax, [edi+04h]
  403532:	3b c5                     cmp	eax, ebp
  403534:	75 05                     jnz	40353b
  403536:	a1 24 60 40 00            mov	eax, [406024h]
  40353b:	80 78 ff fe              >cmp	byte [eax-01h], FEh
  40353f:	73 2f                     jae	403570
  403541:	6a 01                     push	dword 00000001h
  403543:	8b ce                     mov	ecx, esi
  403545:	ff 15 40 60 40 00         call	dword [00406040h]	; <?_Tidy@?$basic_string@DU?$char_traits@D@std@@V?$allocator@D@2@@std@@AAEX_N@Z>
  40354b:	8b 47 04                  mov	eax, [edi+04h]
  40354e:	3b c5                     cmp	eax, ebp
  403550:	75 05                     jnz	403557
  403552:	a1 24 60 40 00            mov	eax, [406024h]
  403557:	89 46 04                 >mov	[esi+04h], eax
  40355a:	8b 57 08                  mov	edx, [edi+08h]
  40355d:	89 56 08                  mov	[esi+08h], edx
  403560:	8b 4f 0c                  mov	ecx, [edi+0Ch]
  403563:	89 4e 0c                  mov	[esi+0Ch], ecx
  403566:	8a 48 ff                  mov	cl, [eax-01h]
  403569:	fe c1                     inc	cl
  40356b:	88 48 ff                  mov	[eax-01h], cl
  40356e:	eb 40                     jmp	4035b0
  403570:	6a 01                    >push	dword 00000001h
  403572:	53                        push	ebx
  403573:	8b ce                     mov	ecx, esi
  403575:	ff 15 2c 60 40 00         call	dword [0040602Ch]	; <?_Grow@?$basic_string@DU?$char_traits@D@std@@V?$allocator@D@2@@std@@AAE_NI_N@Z>
  40357b:	84 c0                     test	al, al
  40357d:	74 31                     jz	4035b0
  40357f:	8b 7f 04                  mov	edi, [edi+04h]
  403582:	8b 35 24 60 40 00         mov	esi, [00406024h]
  403588:	3b fd                     cmp	edi, ebp
  40358a:	74 02                     jz	40358e
  40358c:	8b f7                     mov	esi, edi
  40358e:	8b 44 24 14              >mov	eax, [esp+14h]
  403592:	8b cb                     mov	ecx, ebx
  403594:	8b d1                     mov	edx, ecx
  403596:	53                        push	ebx
  403597:	8b 78 04                  mov	edi, [eax+04h]
  40359a:	c1 e9 02                  shr	ecx, 02h
  40359d:	f3 a5                     rep movsd
  40359f:	8b ca                     mov	ecx, edx
  4035a1:	83 e1 03                  and	ecx, 03h
  4035a4:	f3 a4                     rep movsb
  4035a6:	8b c8                     mov	ecx, eax
  4035a8:	ff 15 28 60 40 00         call	dword [00406028h]	; <?_Eos@?$basic_string@DU?$char_traits@D@std@@V?$allocator@D@2@@std@@AAEXI@Z>
  4035ae:	33 ed                     xor	ebp, ebp
  4035b0:	8b 44 24 7c              >mov	eax, [esp+7Ch]
  4035b4:	3b c5                     cmp	eax, ebp
  4035b6:	74 1d                     jz	4035d5
  4035b8:	8d 48 ff                  lea	ecx, [eax-01h]
  4035bb:	8a 40 ff                  mov	al, [eax-01h]
  4035be:	84 c0                     test	al, al
  4035c0:	74 0a                     jz	4035cc
  4035c2:	3c ff                     cmp	al, FFh
  4035c4:	74 06                     jz	4035cc
  4035c6:	fe c8                     dec	al
  4035c8:	88 01                     mov	[ecx], al
  4035ca:	eb 09                     jmp	4035d5
  4035cc:	51                       >push	ecx
  4035cd:	e8 3e 21 00 00            call	405710
  4035d2:	83 c4 04                  add	esp, 04h
  4035d5:	8b 44 24 6c              >mov	eax, [esp+6Ch]
  4035d9:	89 6c 24 7c               mov	[esp+7Ch], ebp
  4035dd:	3b c5                     cmp	eax, ebp
  4035df:	89 ac 24 80 00 00 00      mov	[esp+00000080h], ebp
  4035e6:	89 ac 24 84 00 00 00      mov	[esp+00000084h], ebp
  4035ed:	74 1d                     jz	40360c
  4035ef:	8d 48 ff                  lea	ecx, [eax-01h]
  4035f2:	8a 40 ff                  mov	al, [eax-01h]
  4035f5:	84 c0                     test	al, al
  4035f7:	74 0a                     jz	403603
  4035f9:	3c ff                     cmp	al, FFh
  4035fb:	74 06                     jz	403603
  4035fd:	fe c8                     dec	al
  4035ff:	88 01                     mov	[ecx], al
  403601:	eb 09                     jmp	40360c
  403603:	51                       >push	ecx
  403604:	e8 07 21 00 00            call	405710
  403609:	83 c4 04                  add	esp, 04h
  40360c:	8b 84 24 8c 00 00 00     >mov	eax, [esp+0000008Ch]
  403613:	89 6c 24 6c               mov	[esp+6Ch], ebp
  403617:	3b c5                     cmp	eax, ebp
  403619:	89 6c 24 70               mov	[esp+70h], ebp
  40361d:	89 6c 24 74               mov	[esp+74h], ebp
  403621:	74 22                     jz	403645
  403623:	8d 48 ff                  lea	ecx, [eax-01h]
  403626:	8a 40 ff                  mov	al, [eax-01h]
  403629:	84 c0                     test	al, al
  40362b:	74 0f                     jz	40363c
  40362d:	3c ff                     cmp	al, FFh
  40362f:	74 0b                     jz	40363c
  403631:	fe c8                     dec	al
  403633:	88 01                     mov	[ecx], al
  403635:	32 c0                     xor	al, al
  403637:	e9 4d fe ff ff            jmp	403489
  40363c:	51                       >push	ecx
  40363d:	e8 ce 20 00 00            call	405710
  403642:	83 c4 04                  add	esp, 04h
  403645:	32 c0                    >xor	al, al
  403647:	e9 3d fe ff ff            jmp	403489
     ...

403650 <no name>:
  403650:	53                        push	ebx
  403651:	55                        push	ebp
  403652:	56                        push	esi
  403653:	57                        push	edi
  403654:	8b f9                     mov	edi, ecx
  403656:	bd c0 36 40 00            mov	ebp, 004036C0h
  40365b:	f6 47 04 02               test	byte [edi+04h], 02h
  40365f:	75 05                     jnz	403666
  403661:	bd e0 36 40 00            mov	ebp, 004036E0h
  403666:	8b 77 0c                 >mov	esi, [edi+0Ch]
  403669:	8b 47 10                  mov	eax, [edi+10h]
  40366c:	3b f0                     cmp	esi, eax
  40366e:	74 31                     jz	4036a1
  403670:	8b 5c 24 14               mov	ebx, [esp+14h]
  403674:	8b 43 04                 >mov	eax, [ebx+04h]
  403677:	8b 15 24 60 40 00         mov	edx, [00406024h]
  40367d:	85 c0                     test	eax, eax
  40367f:	75 02                     jnz	403683
  403681:	8b c2                     mov	eax, edx
  403683:	8b 4e 04                 >mov	ecx, [esi+04h]
  403686:	85 c9                     test	ecx, ecx
  403688:	75 02                     jnz	40368c
  40368a:	8b ca                     mov	ecx, edx
  40368c:	50                       >push	eax
  40368d:	51                        push	ecx
  40368e:	ff d5                     call	ebp
  403690:	83 c4 08                  add	esp, 08h
  403693:	85 c0                     test	eax, eax
  403695:	74 13                     jz	4036aa
  403697:	8b 47 10                  mov	eax, [edi+10h]
  40369a:	83 c6 10                  add	esi, 10h
  40369d:	3b f0                     cmp	esi, eax
  40369f:	75 d3                     jnz	403674
  4036a1:	5f                       >pop	edi
  4036a2:	5e                        pop	esi
  4036a3:	5d                        pop	ebp
  4036a4:	32 c0                     xor	al, al
  4036a6:	5b                        pop	ebx
  4036a7:	c2 04 00                  ret	0004h
  4036aa:	5f                       >pop	edi
  4036ab:	5e                        pop	esi
  4036ac:	5d                        pop	ebp
  4036ad:	b0 01                     mov	al, 01h
  4036af:	5b                        pop	ebx
  4036b0:	c2 04 00                  ret	0004h
     ...

403700 <no name>:
  403700:	6a ff                     push	dword FFFFFFFFh
  403702:	68 f8 5c 40 00            push	dword 00405CF8h
  403707:	64 a1 00 00 00 00         mov	eax, [fs:0000h]
  40370d:	50                        push	eax
  40370e:	64 89 25 00 00 00 00      mov	[fs:00000000h], esp
  403715:	83 ec 48                  sub	esp, 48h
  403718:	53                        push	ebx
  403719:	55                        push	ebp
  40371a:	56                        push	esi
  40371b:	8b f1                     mov	esi, ecx
  40371d:	57                        push	edi
  40371e:	89 74 24 14               mov	[esp+14h], esi
  403722:	8d 6e 04                  lea	ebp, [esi+04h]
  403725:	8b cd                     mov	ecx, ebp
  403727:	e8 a4 05 00 00            call	403cd0
  40372c:	8d 44 24 13               lea	eax, [esp+13h]
  403730:	8d 4e 14                  lea	ecx, [esi+14h]
  403733:	50                        push	eax
  403734:	c7 44 24 64 00 00 00      mov	dword [esp+64h], 00000000h
		00 
  40373c:	ff 15 98 60 40 00         call	dword [00406098h]	; <??0?$basic_string@DU?$char_traits@D@std@@V?$allocator@D@2@@std@@QAE@ABV?$allocator@D@1@@Z>
  403742:	8a 46 24                  mov	al, [esi+24h]
  403745:	8a 5c 24 68               mov	bl, [esp+68h]
  403749:	8a c8                     mov	cl, al
  40374b:	c7 06 80 61 40 00         mov	dword [esi], 00406180h
  403751:	32 cb                     xor	cl, bl
  403753:	80 e1 01                  and	cl, 01h
  403756:	32 c8                     xor	cl, al
  403758:	88 4e 24                  mov	[esi+24h], cl
  40375b:	8a 54 24 68               mov	dl, [esp+68h]
  40375f:	6a 00                     push	dword 00000000h
  403761:	8d 4c 24 2c               lea	ecx, [esp+2Ch]
  403765:	c7 44 24 64 01 00 00      mov	dword [esp+64h], 00000001h
		00 
  40376d:	88 54 24 2c               mov	[esp+2Ch], dl
  403771:	ff 15 40 60 40 00         call	dword [00406040h]	; <?_Tidy@?$basic_string@DU?$char_traits@D@std@@V?$allocator@D@2@@std@@AAEX_N@Z>
  403777:	bf dc 81 40 00            mov	edi, 004081DCh
  40377c:	83 c9 ff                  or	ecx, FFh
  40377f:	33 c0                     xor	eax, eax
  403781:	f2 ae                     repne scasb
  403783:	f7 d1                     not	ecx
  403785:	49                        dec	ecx
  403786:	51                        push	ecx
  403787:	68 dc 81 40 00            push	dword 004081DCh
  40378c:	8d 4c 24 30               lea	ecx, [esp+30h]
  403790:	ff 15 58 60 40 00         call	dword [00406058h]	; <?assign@?$basic_string@DU?$char_traits@D@std@@V?$allocator@D@2@@std@@QAEAAV12@PBDI@Z>
  403796:	8a 44 24 68               mov	al, [esp+68h]
  40379a:	6a 00                     push	dword 00000000h
  40379c:	8d 4c 24 1c               lea	ecx, [esp+1Ch]
  4037a0:	c6 44 24 64 02            mov	byte [esp+64h], 02h
  4037a5:	88 44 24 1c               mov	[esp+1Ch], al
  4037a9:	ff 15 40 60 40 00         call	dword [00406040h]	; <?_Tidy@?$basic_string@DU?$char_traits@D@std@@V?$allocator@D@2@@std@@AAEX_N@Z>
  4037af:	bf d8 81 40 00            mov	edi, 004081D8h
  4037b4:	83 c9 ff                  or	ecx, FFh
  4037b7:	33 c0                     xor	eax, eax
  4037b9:	f2 ae                     repne scasb
  4037bb:	f7 d1                     not	ecx
  4037bd:	49                        dec	ecx
  4037be:	51                        push	ecx
  4037bf:	68 d8 81 40 00            push	dword 004081D8h
  4037c4:	8d 4c 24 20               lea	ecx, [esp+20h]
  4037c8:	ff 15 58 60 40 00         call	dword [00406058h]	; <?assign@?$basic_string@DU?$char_traits@D@std@@V?$allocator@D@2@@std@@QAEAAV12@PBDI@Z>
  4037ce:	8d 4c 24 28               lea	ecx, [esp+28h]
  4037d2:	8d 5e 28                  lea	ebx, [esi+28h]
  4037d5:	8d 54 24 18               lea	edx, [esp+18h]
  4037d9:	51                        push	ecx
  4037da:	52                        push	edx
  4037db:	8b cb                     mov	ecx, ebx
  4037dd:	c6 44 24 68 03            mov	byte [esp+68h], 03h
  4037e2:	e8 49 02 00 00            call	403a30
  4037e7:	c7 03 60 61 40 00         mov	dword [ebx], 00406160h
  4037ed:	6a 01                     push	dword 00000001h
  4037ef:	8d 4c 24 1c               lea	ecx, [esp+1Ch]
  4037f3:	c6 44 24 64 06            mov	byte [esp+64h], 06h
  4037f8:	ff 15 40 60 40 00         call	dword [00406040h]	; <?_Tidy@?$basic_string@DU?$char_traits@D@std@@V?$allocator@D@2@@std@@AAEX_N@Z>
  4037fe:	6a 01                     push	dword 00000001h
  403800:	8d 4c 24 2c               lea	ecx, [esp+2Ch]
  403804:	c6 44 24 64 05            mov	byte [esp+64h], 05h
  403809:	ff 15 40 60 40 00         call	dword [00406040h]	; <?_Tidy@?$basic_string@DU?$char_traits@D@std@@V?$allocator@D@2@@std@@AAEX_N@Z>
  40380f:	8a 44 24 68               mov	al, [esp+68h]
  403813:	6a 00                     push	dword 00000000h
  403815:	88 44 24 4c               mov	[esp+4Ch], al
  403819:	8d 4c 24 4c               lea	ecx, [esp+4Ch]
  40381d:	ff 15 40 60 40 00         call	dword [00406040h]	; <?_Tidy@?$basic_string@DU?$char_traits@D@std@@V?$allocator@D@2@@std@@AAEX_N@Z>
  403823:	bf c8 81 40 00            mov	edi, 004081C8h
  403828:	83 c9 ff                  or	ecx, FFh
  40382b:	33 c0                     xor	eax, eax
  40382d:	f2 ae                     repne scasb
  40382f:	f7 d1                     not	ecx
  403831:	49                        dec	ecx
  403832:	51                        push	ecx
  403833:	68 c8 81 40 00            push	dword 004081C8h
  403838:	8d 4c 24 50               lea	ecx, [esp+50h]
  40383c:	ff 15 58 60 40 00         call	dword [00406058h]	; <?assign@?$basic_string@DU?$char_traits@D@std@@V?$allocator@D@2@@std@@QAEAAV12@PBDI@Z>
  403842:	8a 4c 24 68               mov	cl, [esp+68h]
  403846:	6a 00                     push	dword 00000000h
  403848:	88 4c 24 3c               mov	[esp+3Ch], cl
  40384c:	8d 4c 24 3c               lea	ecx, [esp+3Ch]
  403850:	c6 44 24 64 07            mov	byte [esp+64h], 07h
  403855:	ff 15 40 60 40 00         call	dword [00406040h]	; <?_Tidy@?$basic_string@DU?$char_traits@D@std@@V?$allocator@D@2@@std@@AAEX_N@Z>
  40385b:	bf c4 81 40 00            mov	edi, 004081C4h
  403860:	83 c9 ff                  or	ecx, FFh
  403863:	33 c0                     xor	eax, eax
  403865:	f2 ae                     repne scasb
  403867:	f7 d1                     not	ecx
  403869:	49                        dec	ecx
  40386a:	51                        push	ecx
  40386b:	68 c4 81 40 00            push	dword 004081C4h
  403870:	8d 4c 24 40               lea	ecx, [esp+40h]
  403874:	ff 15 58 60 40 00         call	dword [00406058h]	; <?assign@?$basic_string@DU?$char_traits@D@std@@V?$allocator@D@2@@std@@QAEAAV12@PBDI@Z>
  40387a:	8d 54 24 48               lea	edx, [esp+48h]
  40387e:	8d 7e 50                  lea	edi, [esi+50h]
  403881:	8d 44 24 38               lea	eax, [esp+38h]
  403885:	52                        push	edx
  403886:	50                        push	eax
  403887:	8b cf                     mov	ecx, edi
  403889:	c6 44 24 68 08            mov	byte [esp+68h], 08h
  40388e:	e8 9d 01 00 00            call	403a30
  403893:	c7 07 60 61 40 00         mov	dword [edi], 00406160h
  403899:	6a 01                     push	dword 00000001h
  40389b:	8d 4c 24 3c               lea	ecx, [esp+3Ch]
  40389f:	c6 44 24 64 0b            mov	byte [esp+64h], 0Bh
  4038a4:	ff 15 40 60 40 00         call	dword [00406040h]	; <?_Tidy@?$basic_string@DU?$char_traits@D@std@@V?$allocator@D@2@@std@@AAEX_N@Z>
  4038aa:	6a 01                     push	dword 00000001h
  4038ac:	8d 4c 24 4c               lea	ecx, [esp+4Ch]
  4038b0:	c6 44 24 64 0a            mov	byte [esp+64h], 0Ah
  4038b5:	ff 15 40 60 40 00         call	dword [00406040h]	; <?_Tidy@?$basic_string@DU?$char_traits@D@std@@V?$allocator@D@2@@std@@AAEX_N@Z>
  4038bb:	c7 06 7c 61 40 00         mov	dword [esi], 0040617Ch
  4038c1:	8b 45 08                  mov	eax, [ebp+08h]
  4038c4:	8d 4c 24 18               lea	ecx, [esp+18h]
  4038c8:	c7 44 24 18 00 00 00      mov	dword [esp+18h], 00000000h
		00 
  4038d0:	51                        push	ecx
  4038d1:	50                        push	eax
  4038d2:	8b cd                     mov	ecx, ebp
  4038d4:	89 5c 24 24               mov	[esp+24h], ebx
  4038d8:	e8 f3 11 00 00            call	404ad0
  4038dd:	8a 54 24 68               mov	dl, [esp+68h]
  4038e1:	6a 00                     push	dword 00000000h
  4038e3:	8d 4c 24 2c               lea	ecx, [esp+2Ch]
  4038e7:	88 54 24 2c               mov	[esp+2Ch], dl
  4038eb:	ff 15 40 60 40 00         call	dword [00406040h]	; <?_Tidy@?$basic_string@DU?$char_traits@D@std@@V?$allocator@D@2@@std@@AAEX_N@Z>
  4038f1:	bf c0 81 40 00            mov	edi, 004081C0h
  4038f6:	83 c9 ff                  or	ecx, FFh
  4038f9:	33 c0                     xor	eax, eax
  4038fb:	f2 ae                     repne scasb
  4038fd:	f7 d1                     not	ecx
  4038ff:	49                        dec	ecx
  403900:	51                        push	ecx
  403901:	68 c0 81 40 00            push	dword 004081C0h
  403906:	8d 4c 24 30               lea	ecx, [esp+30h]
  40390a:	ff 15 58 60 40 00         call	dword [00406058h]	; <?assign@?$basic_string@DU?$char_traits@D@std@@V?$allocator@D@2@@std@@QAEAAV12@PBDI@Z>
  403910:	8b 46 38                  mov	eax, [esi+38h]
  403913:	8d 5e 30                  lea	ebx, [esi+30h]
  403916:	8d 4c 24 28               lea	ecx, [esp+28h]
  40391a:	c6 44 24 60 0c            mov	byte [esp+60h], 0Ch
  40391f:	51                        push	ecx
  403920:	50                        push	eax
  403921:	8b cb                     mov	ecx, ebx
  403923:	e8 c8 0f 00 00            call	4048f0
  403928:	6a 01                     push	dword 00000001h
  40392a:	8d 4c 24 2c               lea	ecx, [esp+2Ch]
  40392e:	c6 44 24 64 0a            mov	byte [esp+64h], 0Ah
  403933:	ff 15 40 60 40 00         call	dword [00406040h]	; <?_Tidy@?$basic_string@DU?$char_traits@D@std@@V?$allocator@D@2@@std@@AAEX_N@Z>
  403939:	8a 54 24 68               mov	dl, [esp+68h]
  40393d:	6a 00                     push	dword 00000000h
  40393f:	8d 4c 24 2c               lea	ecx, [esp+2Ch]
  403943:	88 54 24 2c               mov	[esp+2Ch], dl
  403947:	ff 15 40 60 40 00         call	dword [00406040h]	; <?_Tidy@?$basic_string@DU?$char_traits@D@std@@V?$allocator@D@2@@std@@AAEX_N@Z>
  40394d:	bf b8 81 40 00            mov	edi, 004081B8h
  403952:	83 c9 ff                  or	ecx, FFh
  403955:	33 c0                     xor	eax, eax
  403957:	f2 ae                     repne scasb
  403959:	f7 d1                     not	ecx
  40395b:	49                        dec	ecx
  40395c:	51                        push	ecx
  40395d:	68 b8 81 40 00            push	dword 004081B8h
  403962:	8d 4c 24 30               lea	ecx, [esp+30h]
  403966:	ff 15 58 60 40 00         call	dword [00406058h]	; <?assign@?$basic_string@DU?$char_traits@D@std@@V?$allocator@D@2@@std@@QAEAAV12@PBDI@Z>
  40396c:	8b 43 08                  mov	eax, [ebx+08h]
  40396f:	8d 4c 24 28               lea	ecx, [esp+28h]
  403973:	51                        push	ecx
  403974:	50                        push	eax
  403975:	8b cb                     mov	ecx, ebx
  403977:	c6 44 24 68 0d            mov	byte [esp+68h], 0Dh
  40397c:	e8 6f 0f 00 00            call	4048f0
  403981:	6a 01                     push	dword 00000001h
  403983:	8d 4c 24 2c               lea	ecx, [esp+2Ch]
  403987:	c6 44 24 64 0a            mov	byte [esp+64h], 0Ah
  40398c:	ff 15 40 60 40 00         call	dword [00406040h]	; <?_Tidy@?$basic_string@DU?$char_traits@D@std@@V?$allocator@D@2@@std@@AAEX_N@Z>
  403992:	8d 46 50                  lea	eax, [esi+50h]
  403995:	8d 54 24 18               lea	edx, [esp+18h]
  403999:	89 44 24 1c               mov	[esp+1Ch], eax
  40399d:	8b 45 08                  mov	eax, [ebp+08h]
  4039a0:	52                        push	edx
  4039a1:	6a 01                     push	dword 00000001h
  4039a3:	50                        push	eax
  4039a4:	8b cd                     mov	ecx, ebp
  4039a6:	c7 44 24 24 00 00 00      mov	dword [esp+24h], 00000000h
		00 
  4039ae:	e8 9d 15 00 00            call	404f50
  4039b3:	8a 44 24 68               mov	al, [esp+68h]
  4039b7:	6a 00                     push	dword 00000000h
  4039b9:	8d 4c 24 2c               lea	ecx, [esp+2Ch]
  4039bd:	88 44 24 2c               mov	[esp+2Ch], al
  4039c1:	ff 15 40 60 40 00         call	dword [00406040h]	; <?_Tidy@?$basic_string@DU?$char_traits@D@std@@V?$allocator@D@2@@std@@AAEX_N@Z>
  4039c7:	bf b0 81 40 00            mov	edi, 004081B0h
  4039cc:	83 c9 ff                  or	ecx, FFh
  4039cf:	33 c0                     xor	eax, eax
  4039d1:	f2 ae                     repne scasb
  4039d3:	f7 d1                     not	ecx
  4039d5:	49                        dec	ecx
  4039d6:	51                        push	ecx
  4039d7:	68 b0 81 40 00            push	dword 004081B0h
  4039dc:	8d 4c 24 30               lea	ecx, [esp+30h]
  4039e0:	ff 15 58 60 40 00         call	dword [00406058h]	; <?assign@?$basic_string@DU?$char_traits@D@std@@V?$allocator@D@2@@std@@QAEAAV12@PBDI@Z>
  4039e6:	8b 46 60                  mov	eax, [esi+60h]
  4039e9:	8d 4e 58                  lea	ecx, [esi+58h]
  4039ec:	8d 54 24 28               lea	edx, [esp+28h]
  4039f0:	c6 44 24 60 0e            mov	byte [esp+60h], 0Eh
  4039f5:	52                        push	edx
  4039f6:	6a 01                     push	dword 00000001h
  4039f8:	50                        push	eax
  4039f9:	e8 92 12 00 00            call	404c90
  4039fe:	6a 01                     push	dword 00000001h
  403a00:	8d 4c 24 2c               lea	ecx, [esp+2Ch]
  403a04:	c6 44 24 64 0a            mov	byte [esp+64h], 0Ah
  403a09:	ff 15 40 60 40 00         call	dword [00406040h]	; <?_Tidy@?$basic_string@DU?$char_traits@D@std@@V?$allocator@D@2@@std@@AAEX_N@Z>
  403a0f:	8b 4c 24 58               mov	ecx, [esp+58h]
  403a13:	8b c6                     mov	eax, esi
  403a15:	5f                        pop	edi
  403a16:	5e                        pop	esi
  403a17:	5d                        pop	ebp
  403a18:	5b                        pop	ebx
  403a19:	64 89 0d 00 00 00 00      mov	[fs:00000000h], ecx
  403a20:	83 c4 54                  add	esp, 54h
  403a23:	c2 04 00                  ret	0004h
     ...

403a30 <no name>:
  403a30:	6a ff                     push	dword FFFFFFFFh
  403a32:	68 27 5d 40 00            push	dword 00405D27h
  403a37:	64 a1 00 00 00 00         mov	eax, [fs:0000h]
  403a3d:	50                        push	eax
  403a3e:	64 89 25 00 00 00 00      mov	[fs:00000000h], esp
  403a45:	83 ec 08                  sub	esp, 08h
  403a48:	8a 44 24 18               mov	al, [esp+18h]
  403a4c:	53                        push	ebx
  403a4d:	8b d9                     mov	ebx, ecx
  403a4f:	55                        push	ebp
  403a50:	56                        push	esi
  403a51:	33 ed                     xor	ebp, ebp
  403a53:	8a 4b 04                  mov	cl, [ebx+04h]
  403a56:	8d 73 08                  lea	esi, [ebx+08h]
  403a59:	80 e1 fc                  and	cl, FCh
  403a5c:	57                        push	edi
  403a5d:	88 4b 04                  mov	[ebx+04h], cl
  403a60:	89 5c 24 14               mov	[esp+14h], ebx
  403a64:	88 06                     mov	[esi], al
  403a66:	89 6e 04                  mov	[esi+04h], ebp
  403a69:	89 6e 08                  mov	[esi+08h], ebp
  403a6c:	89 6e 0c                  mov	[esi+0Ch], ebp
  403a6f:	8b 7c 24 2c               mov	edi, [esp+2Ch]
  403a73:	8d 4b 18                  lea	ecx, [ebx+18h]
  403a76:	89 6c 24 20               mov	[esp+20h], ebp
  403a7a:	8a 17                     mov	dl, [edi]
  403a7c:	89 69 04                  mov	[ecx+04h], ebp
  403a7f:	88 11                     mov	[ecx], dl
  403a81:	89 69 08                  mov	[ecx+08h], ebp
  403a84:	89 69 0c                  mov	[ecx+0Ch], ebp
  403a87:	a1 38 60 40 00            mov	eax, [406038h]
  403a8c:	8b 10                     mov	edx, [eax]
  403a8e:	52                        push	edx
  403a8f:	55                        push	ebp
  403a90:	57                        push	edi
  403a91:	ff 15 44 60 40 00         call	dword [00406044h]	; <?assign@?$basic_string@DU?$char_traits@D@std@@V?$allocator@D@2@@std@@QAEAAV12@ABV12@II@Z>
  403a97:	c7 03 44 61 40 00         mov	dword [ebx], 00406144h
  403a9d:	8b 46 08                  mov	eax, [esi+08h]
  403aa0:	8b 4e 0c                  mov	ecx, [esi+0Ch]
  403aa3:	c6 44 24 20 01            mov	byte [esp+20h], 01h
  403aa8:	2b c8                     sub	ecx, eax
  403aaa:	8b f8                     mov	edi, eax
  403aac:	c1 f9 04                  sar	ecx, 04h
  403aaf:	83 f9 01                  cmp	ecx, 01h
  403ab2:	0f 83 b2 00 00 00         jae	403b6a
  403ab8:	8b 4e 04                  mov	ecx, [esi+04h]
  403abb:	3b cd                     cmp	ecx, ebp
  403abd:	74 0e                     jz	403acd
  403abf:	2b c1                     sub	eax, ecx
  403ac1:	c1 f8 04                  sar	eax, 04h
  403ac4:	83 f8 01                  cmp	eax, 01h
  403ac7:	89 44 24 2c               mov	[esp+2Ch], eax
  403acb:	77 08                     ja	403ad5
  403acd:	c7 44 24 2c 01 00 00     >mov	dword [esp+2Ch], 00000001h
		00 
  403ad5:	8b ce                    >mov	ecx, esi
  403ad7:	e8 c4 16 00 00            call	4051a0
  403adc:	8b e8                     mov	ebp, eax
  403ade:	8b 44 24 2c               mov	eax, [esp+2Ch]
  403ae2:	03 e8                     add	ebp, eax
  403ae4:	8b c5                     mov	eax, ebp
  403ae6:	79 02                     jns	403aea
  403ae8:	33 c0                     xor	eax, eax
  403aea:	c1 e0 04                 >shl	eax, 04h
  403aed:	50                        push	eax
  403aee:	e8 93 1c 00 00            call	405786	; <??2@YAPAXI@Z>
  403af3:	8b 56 04                  mov	edx, [esi+04h]
  403af6:	83 c4 04                  add	esp, 04h
  403af9:	8b ce                     mov	ecx, esi
  403afb:	89 44 24 10               mov	[esp+10h], eax
  403aff:	50                        push	eax
  403b00:	57                        push	edi
  403b01:	52                        push	edx
  403b02:	e8 b9 16 00 00            call	4051c0
  403b07:	8b 4c 24 28               mov	ecx, [esp+28h]
  403b0b:	89 44 24 2c               mov	[esp+2Ch], eax
  403b0f:	51                        push	ecx
  403b10:	6a 01                     push	dword 00000001h
  403b12:	50                        push	eax
  403b13:	8b ce                     mov	ecx, esi
  403b15:	e8 e6 16 00 00            call	405200
  403b1a:	8b 54 24 2c               mov	edx, [esp+2Ch]
  403b1e:	8b 46 08                  mov	eax, [esi+08h]
  403b21:	83 c2 10                  add	edx, 10h
  403b24:	8b ce                     mov	ecx, esi
  403b26:	52                        push	edx
  403b27:	50                        push	eax
  403b28:	57                        push	edi
  403b29:	e8 92 16 00 00            call	4051c0
  403b2e:	8b 4e 08                  mov	ecx, [esi+08h]
  403b31:	8b 56 04                  mov	edx, [esi+04h]
  403b34:	51                        push	ecx
  403b35:	52                        push	edx
  403b36:	8b ce                     mov	ecx, esi
  403b38:	e8 43 0f 00 00            call	404a80
  403b3d:	8b 46 04                  mov	eax, [esi+04h]
  403b40:	50                        push	eax
  403b41:	e8 ca 1b 00 00            call	405710
  403b46:	8b 7c 24 14               mov	edi, [esp+14h]
  403b4a:	83 c4 04                  add	esp, 04h
  403b4d:	c1 e5 04                  shl	ebp, 04h
  403b50:	03 ef                     add	ebp, edi
  403b52:	8b ce                     mov	ecx, esi
  403b54:	89 6e 0c                  mov	[esi+0Ch], ebp
  403b57:	e8 44 16 00 00            call	4051a0
  403b5c:	40                        inc	eax
  403b5d:	89 7e 04                  mov	[esi+04h], edi
  403b60:	c1 e0 04                  shl	eax, 04h
  403b63:	03 c7                     add	eax, edi
  403b65:	89 46 08                  mov	[esi+08h], eax
  403b68:	eb 79                     jmp	403be3
  403b6a:	8b c8                    >mov	ecx, eax
  403b6c:	2b cf                     sub	ecx, edi
  403b6e:	c1 f9 04                  sar	ecx, 04h
  403b71:	83 f9 01                  cmp	ecx, 01h
  403b74:	73 3c                     jae	403bb2
  403b76:	8d 57 10                  lea	edx, [edi+10h]
  403b79:	8b ce                     mov	ecx, esi
  403b7b:	52                        push	edx
  403b7c:	50                        push	eax
  403b7d:	57                        push	edi
  403b7e:	e8 3d 16 00 00            call	4051c0
  403b83:	8b 46 08                  mov	eax, [esi+08h]
  403b86:	8b 6c 24 28               mov	ebp, [esp+28h]
  403b8a:	8b c8                     mov	ecx, eax
  403b8c:	ba 01 00 00 00            mov	edx, 00000001h
  403b91:	2b cf                     sub	ecx, edi
  403b93:	55                        push	ebp
  403b94:	c1 f9 04                  sar	ecx, 04h
  403b97:	2b d1                     sub	edx, ecx
  403b99:	8b ce                     mov	ecx, esi
  403b9b:	52                        push	edx
  403b9c:	50                        push	eax
  403b9d:	e8 5e 16 00 00            call	405200
  403ba2:	8b 46 08                  mov	eax, [esi+08h]
  403ba5:	55                        push	ebp
  403ba6:	50                        push	eax
  403ba7:	57                        push	edi
  403ba8:	e8 13 17 00 00            call	4052c0
  403bad:	83 c4 0c                  add	esp, 0Ch
  403bb0:	eb 2d                     jmp	403bdf
  403bb2:	50                       >push	eax
  403bb3:	50                        push	eax
  403bb4:	83 c0 f0                  add	eax, F0h
  403bb7:	8b ce                     mov	ecx, esi
  403bb9:	50                        push	eax
  403bba:	e8 01 16 00 00            call	4051c0
  403bbf:	8b 46 08                  mov	eax, [esi+08h]
  403bc2:	50                        push	eax
  403bc3:	83 c0 f0                  add	eax, F0h
  403bc6:	50                        push	eax
  403bc7:	57                        push	edi
  403bc8:	e8 43 18 00 00            call	405410
  403bcd:	8b 4c 24 34               mov	ecx, [esp+34h]
  403bd1:	8d 57 10                  lea	edx, [edi+10h]
  403bd4:	51                        push	ecx
  403bd5:	52                        push	edx
  403bd6:	57                        push	edi
  403bd7:	e8 e4 16 00 00            call	4052c0
  403bdc:	83 c4 18                  add	esp, 18h
  403bdf:	83 46 08 10              >add	dword [esi+08h], 10h
  403be3:	8b 4c 24 18              >mov	ecx, [esp+18h]
  403be7:	5f                        pop	edi
  403be8:	5e                        pop	esi
  403be9:	8b c3                     mov	eax, ebx
  403beb:	5d                        pop	ebp
  403bec:	5b                        pop	ebx
  403bed:	64 89 0d 00 00 00 00      mov	[fs:00000000h], ecx
  403bf4:	83 c4 14                  add	esp, 14h
  403bf7:	c2 08 00                  ret	0008h
     ...

403cd0 <no name>:
  403cd0:	51                        push	ecx
  403cd1:	8b c1                     mov	eax, ecx
  403cd3:	8a 4c 24 03               mov	cl, [esp+03h]
  403cd7:	88 08                     mov	[eax], cl
  403cd9:	33 c9                     xor	ecx, ecx
  403cdb:	89 48 04                  mov	[eax+04h], ecx
  403cde:	89 48 08                  mov	[eax+08h], ecx
  403ce1:	89 48 0c                  mov	[eax+0Ch], ecx
  403ce4:	59                        pop	ecx
  403ce5:	c3                        ret
     ...

403cf0 <no name>:
  403cf0:	51                        push	ecx
  403cf1:	56                        push	esi
  403cf2:	8b f1                     mov	esi, ecx
  403cf4:	8b 46 04                  mov	eax, [esi+04h]
  403cf7:	50                        push	eax
  403cf8:	89 44 24 08               mov	[esp+08h], eax
  403cfc:	e8 0f 1a 00 00            call	405710
  403d01:	83 c4 04                  add	esp, 04h
  403d04:	33 c0                     xor	eax, eax
  403d06:	89 46 04                  mov	[esi+04h], eax
  403d09:	89 46 08                  mov	[esi+08h], eax
  403d0c:	89 46 0c                  mov	[esi+0Ch], eax
  403d0f:	5e                        pop	esi
  403d10:	59                        pop	ecx
  403d11:	c3                        ret
     ...

403e50 <no name>:
  403e50:	6a ff                     push	dword FFFFFFFFh
  403e52:	68 53 5d 40 00            push	dword 00405D53h
  403e57:	64 a1 00 00 00 00         mov	eax, [fs:0000h]
  403e5d:	50                        push	eax
  403e5e:	64 89 25 00 00 00 00      mov	[fs:00000000h], esp
  403e65:	51                        push	ecx
  403e66:	53                        push	ebx
  403e67:	55                        push	ebp
  403e68:	56                        push	esi
  403e69:	8b f1                     mov	esi, ecx
  403e6b:	57                        push	edi
  403e6c:	89 74 24 10               mov	[esp+10h], esi
  403e70:	bd 44 61 40 00            mov	ebp, 00406144h
  403e75:	6a 01                     push	dword 00000001h
  403e77:	8d 4e 68                  lea	ecx, [esi+68h]
  403e7a:	c7 44 24 20 01 00 00      mov	dword [esp+20h], 00000001h
		00 
  403e82:	89 6e 50                  mov	[esi+50h], ebp
  403e85:	ff 15 40 60 40 00         call	dword [00406040h]	; <?_Tidy@?$basic_string@DU?$char_traits@D@std@@V?$allocator@D@2@@std@@AAEX_N@Z>
  403e8b:	8b 5e 60                  mov	ebx, [esi+60h]
  403e8e:	8b 7e 5c                  mov	edi, [esi+5Ch]
  403e91:	3b fb                     cmp	edi, ebx
  403e93:	74 11                     jz	403ea6
  403e95:	6a 01                    >push	dword 00000001h
  403e97:	8b cf                     mov	ecx, edi
  403e99:	ff 15 40 60 40 00         call	dword [00406040h]	; <?_Tidy@?$basic_string@DU?$char_traits@D@std@@V?$allocator@D@2@@std@@AAEX_N@Z>
  403e9f:	83 c7 10                  add	edi, 10h
  403ea2:	3b fb                     cmp	edi, ebx
  403ea4:	75 ef                     jnz	403e95
  403ea6:	8b 46 5c                 >mov	eax, [esi+5Ch]
  403ea9:	50                        push	eax
  403eaa:	e8 61 18 00 00            call	405710
  403eaf:	33 db                     xor	ebx, ebx
  403eb1:	83 c4 04                  add	esp, 04h
  403eb4:	89 5e 5c                  mov	[esi+5Ch], ebx
  403eb7:	89 5e 60                  mov	[esi+60h], ebx
  403eba:	89 5e 64                  mov	[esi+64h], ebx
  403ebd:	89 6e 28                  mov	[esi+28h], ebp
  403ec0:	8b 46 44                  mov	eax, [esi+44h]
  403ec3:	88 5c 24 1c               mov	[esp+1Ch], bl
  403ec7:	3b c3                     cmp	eax, ebx
  403ec9:	74 1d                     jz	403ee8
  403ecb:	8d 48 ff                  lea	ecx, [eax-01h]
  403ece:	8a 40 ff                  mov	al, [eax-01h]
  403ed1:	3a c3                     cmp	al, bl
  403ed3:	74 0a                     jz	403edf
  403ed5:	3c ff                     cmp	al, FFh
  403ed7:	74 06                     jz	403edf
  403ed9:	fe c8                     dec	al
  403edb:	88 01                     mov	[ecx], al
  403edd:	eb 09                     jmp	403ee8
  403edf:	51                       >push	ecx
  403ee0:	e8 2b 18 00 00            call	405710
  403ee5:	83 c4 04                  add	esp, 04h
  403ee8:	89 5e 44                 >mov	[esi+44h], ebx
  403eeb:	89 5e 48                  mov	[esi+48h], ebx
  403eee:	89 5e 4c                  mov	[esi+4Ch], ebx
  403ef1:	8b 6e 38                  mov	ebp, [esi+38h]
  403ef4:	8b 7e 34                  mov	edi, [esi+34h]
  403ef7:	3b fd                     cmp	edi, ebp
  403ef9:	74 0f                     jz	403f0a
  403efb:	53                       >push	ebx
  403efc:	8b cf                     mov	ecx, edi
  403efe:	e8 5d 09 00 00            call	404860
  403f03:	83 c7 10                  add	edi, 10h
  403f06:	3b fd                     cmp	edi, ebp
  403f08:	75 f1                     jnz	403efb
  403f0a:	8b 46 34                 >mov	eax, [esi+34h]
  403f0d:	50                        push	eax
  403f0e:	e8 fd 17 00 00            call	405710
  403f13:	89 5e 34                  mov	[esi+34h], ebx
  403f16:	89 5e 38                  mov	[esi+38h], ebx
  403f19:	89 5e 3c                  mov	[esi+3Ch], ebx
  403f1c:	8b 46 18                  mov	eax, [esi+18h]
  403f1f:	83 c4 04                  add	esp, 04h
  403f22:	3b c3                     cmp	eax, ebx
  403f24:	74 1d                     jz	403f43
  403f26:	8d 48 ff                  lea	ecx, [eax-01h]
  403f29:	8a 40 ff                  mov	al, [eax-01h]
  403f2c:	3a c3                     cmp	al, bl
  403f2e:	74 0a                     jz	403f3a
  403f30:	3c ff                     cmp	al, FFh
  403f32:	74 06                     jz	403f3a
  403f34:	fe c8                     dec	al
  403f36:	88 01                     mov	[ecx], al
  403f38:	eb 09                     jmp	403f43
  403f3a:	51                       >push	ecx
  403f3b:	e8 d0 17 00 00            call	405710
  403f40:	83 c4 04                  add	esp, 04h
  403f43:	89 5e 18                 >mov	[esi+18h], ebx
  403f46:	89 5e 1c                  mov	[esi+1Ch], ebx
  403f49:	89 5e 20                  mov	[esi+20h], ebx
  403f4c:	8b 46 08                  mov	eax, [esi+08h]
  403f4f:	50                        push	eax
  403f50:	89 44 24 14               mov	[esp+14h], eax
  403f54:	e8 b7 17 00 00            call	405710
  403f59:	8b 4c 24 18               mov	ecx, [esp+18h]
  403f5d:	83 c4 04                  add	esp, 04h
  403f60:	89 5e 08                  mov	[esi+08h], ebx
  403f63:	89 5e 0c                  mov	[esi+0Ch], ebx
  403f66:	89 5e 10                  mov	[esi+10h], ebx
  403f69:	5f                        pop	edi
  403f6a:	5e                        pop	esi
  403f6b:	5d                        pop	ebp
  403f6c:	5b                        pop	ebx
  403f6d:	64 89 0d 00 00 00 00      mov	[fs:00000000h], ecx
  403f74:	83 c4 10                  add	esp, 10h
  403f77:	c3                        ret
     ...

403f80 <no name>:
  403f80:	53                        push	ebx
  403f81:	55                        push	ebp
  403f82:	56                        push	esi
  403f83:	8b f1                     mov	esi, ecx
  403f85:	33 db                     xor	ebx, ebx
  403f87:	57                        push	edi
  403f88:	8b 46 50                  mov	eax, [esi+50h]
  403f8b:	3b c3                     cmp	eax, ebx
  403f8d:	74 1d                     jz	403fac
  403f8f:	8d 48 ff                  lea	ecx, [eax-01h]
  403f92:	8a 40 ff                  mov	al, [eax-01h]
  403f95:	3a c3                     cmp	al, bl
  403f97:	74 0a                     jz	403fa3
  403f99:	3c ff                     cmp	al, FFh
  403f9b:	74 06                     jz	403fa3
  403f9d:	fe c8                     dec	al
  403f9f:	88 01                     mov	[ecx], al
  403fa1:	eb 09                     jmp	403fac
  403fa3:	51                       >push	ecx
  403fa4:	e8 67 17 00 00            call	405710
  403fa9:	83 c4 04                  add	esp, 04h
  403fac:	89 5e 50                 >mov	[esi+50h], ebx
  403faf:	89 5e 54                  mov	[esi+54h], ebx
  403fb2:	89 5e 58                  mov	[esi+58h], ebx
  403fb5:	8b 46 40                  mov	eax, [esi+40h]
  403fb8:	3b c3                     cmp	eax, ebx
  403fba:	74 1d                     jz	403fd9
  403fbc:	8d 48 ff                  lea	ecx, [eax-01h]
  403fbf:	8a 40 ff                  mov	al, [eax-01h]
  403fc2:	3a c3                     cmp	al, bl
  403fc4:	74 0a                     jz	403fd0
  403fc6:	3c ff                     cmp	al, FFh
  403fc8:	74 06                     jz	403fd0
  403fca:	fe c8                     dec	al
  403fcc:	88 01                     mov	[ecx], al
  403fce:	eb 09                     jmp	403fd9
  403fd0:	51                       >push	ecx
  403fd1:	e8 3a 17 00 00            call	405710
  403fd6:	83 c4 04                  add	esp, 04h
  403fd9:	89 5e 40                 >mov	[esi+40h], ebx
  403fdc:	89 5e 44                  mov	[esi+44h], ebx
  403fdf:	89 5e 48                  mov	[esi+48h], ebx
  403fe2:	8b 46 2c                  mov	eax, [esi+2Ch]
  403fe5:	3b c3                     cmp	eax, ebx
  403fe7:	74 1d                     jz	404006
  403fe9:	8d 48 ff                  lea	ecx, [eax-01h]
  403fec:	8a 40 ff                  mov	al, [eax-01h]
  403fef:	3a c3                     cmp	al, bl
  403ff1:	74 0a                     jz	403ffd
  403ff3:	3c ff                     cmp	al, FFh
  403ff5:	74 06                     jz	403ffd
  403ff7:	fe c8                     dec	al
  403ff9:	88 01                     mov	[ecx], al
  403ffb:	eb 09                     jmp	404006
  403ffd:	51                       >push	ecx
  403ffe:	e8 0d 17 00 00            call	405710
  404003:	83 c4 04                  add	esp, 04h
  404006:	89 5e 2c                 >mov	[esi+2Ch], ebx
  404009:	89 5e 30                  mov	[esi+30h], ebx
  40400c:	89 5e 34                  mov	[esi+34h], ebx
  40400f:	c7 06 44 61 40 00         mov	dword [esi], 00406144h
  404015:	8b 46 1c                  mov	eax, [esi+1Ch]
  404018:	3b c3                     cmp	eax, ebx
  40401a:	74 1d                     jz	404039
  40401c:	8d 48 ff                  lea	ecx, [eax-01h]
  40401f:	8a 40 ff                  mov	al, [eax-01h]
  404022:	3a c3                     cmp	al, bl
  404024:	74 0a                     jz	404030
  404026:	3c ff                     cmp	al, FFh
  404028:	74 06                     jz	404030
  40402a:	fe c8                     dec	al
  40402c:	88 01                     mov	[ecx], al
  40402e:	eb 09                     jmp	404039
  404030:	51                       >push	ecx
  404031:	e8 da 16 00 00            call	405710
  404036:	83 c4 04                  add	esp, 04h
  404039:	89 5e 1c                 >mov	[esi+1Ch], ebx
  40403c:	89 5e 20                  mov	[esi+20h], ebx
  40403f:	89 5e 24                  mov	[esi+24h], ebx
  404042:	8b 6e 10                  mov	ebp, [esi+10h]
  404045:	8b 7e 0c                  mov	edi, [esi+0Ch]
  404048:	3b fd                     cmp	edi, ebp
  40404a:	74 11                     jz	40405d
  40404c:	6a 01                    >push	dword 00000001h
  40404e:	8b cf                     mov	ecx, edi
  404050:	ff 15 40 60 40 00         call	dword [00406040h]	; <?_Tidy@?$basic_string@DU?$char_traits@D@std@@V?$allocator@D@2@@std@@AAEX_N@Z>
  404056:	83 c7 10                  add	edi, 10h
  404059:	3b fd                     cmp	edi, ebp
  40405b:	75 ef                     jnz	40404c
  40405d:	8b 46 0c                 >mov	eax, [esi+0Ch]
  404060:	50                        push	eax
  404061:	e8 aa 16 00 00            call	405710
  404066:	83 c4 04                  add	esp, 04h
  404069:	89 5e 0c                  mov	[esi+0Ch], ebx
  40406c:	89 5e 10                  mov	[esi+10h], ebx
  40406f:	89 5e 14                  mov	[esi+14h], ebx
  404072:	5f                        pop	edi
  404073:	5e                        pop	esi
  404074:	5d                        pop	ebp
  404075:	5b                        pop	ebx
  404076:	c3                        ret
     ...

404080 <no name>:
  404080:	6a ff                     push	dword FFFFFFFFh
  404082:	68 c9 5d 40 00            push	dword 00405DC9h
  404087:	64 a1 00 00 00 00         mov	eax, [fs:0000h]
  40408d:	50                        push	eax
  40408e:	64 89 25 00 00 00 00      mov	[fs:00000000h], esp
  404095:	83 ec 08                  sub	esp, 08h
  404098:	53                        push	ebx
  404099:	55                        push	ebp
  40409a:	56                        push	esi
  40409b:	8b f1                     mov	esi, ecx
  40409d:	57                        push	edi
  40409e:	89 74 24 14               mov	[esp+14h], esi
  4040a2:	6a 01                     push	dword 00000001h
  4040a4:	8d 8e 48 01 00 00         lea	ecx, [esi+00000148h]
  4040aa:	c7 44 24 24 02 00 00      mov	dword [esp+24h], 00000002h
		00 
  4040b2:	c7 86 30 01 00 00 44      mov	dword [esi+00000130h], 00406144h
		61 40 00 
  4040bc:	ff 15 40 60 40 00         call	dword [00406040h]	; <?_Tidy@?$basic_string@DU?$char_traits@D@std@@V?$allocator@D@2@@std@@AAEX_N@Z>
  4040c2:	8b ae 40 01 00 00         mov	ebp, [esi+00000140h]
  4040c8:	8b be 3c 01 00 00         mov	edi, [esi+0000013Ch]
  4040ce:	33 db                     xor	ebx, ebx
  4040d0:	3b fd                     cmp	edi, ebp
  4040d2:	74 0f                     jz	4040e3
  4040d4:	53                       >push	ebx
  4040d5:	8b cf                     mov	ecx, edi
  4040d7:	e8 84 07 00 00            call	404860
  4040dc:	83 c7 10                  add	edi, 10h
  4040df:	3b fd                     cmp	edi, ebp
  4040e1:	75 f1                     jnz	4040d4
  4040e3:	8b 86 3c 01 00 00        >mov	eax, [esi+0000013Ch]
  4040e9:	50                        push	eax
  4040ea:	e8 21 16 00 00            call	405710
  4040ef:	8d be d4 00 00 00         lea	edi, [esi+000000D4h]
  4040f5:	83 c4 04                  add	esp, 04h
  4040f8:	89 9e 3c 01 00 00         mov	[esi+0000013Ch], ebx
  4040fe:	89 9e 40 01 00 00         mov	[esi+00000140h], ebx
  404104:	89 9e 44 01 00 00         mov	[esi+00000144h], ebx
  40410a:	89 7c 24 10               mov	[esp+10h], edi
  40410e:	6a 01                     push	dword 00000001h
  404110:	8d 4f 4c                  lea	ecx, [edi+4Ch]
  404113:	c6 44 24 24 05            mov	byte [esp+24h], 05h
  404118:	ff 15 40 60 40 00         call	dword [00406040h]	; <?_Tidy@?$basic_string@DU?$char_traits@D@std@@V?$allocator@D@2@@std@@AAEX_N@Z>
  40411e:	6a 01                     push	dword 00000001h
  404120:	8d 4f 3c                  lea	ecx, [edi+3Ch]
  404123:	c6 44 24 24 04            mov	byte [esp+24h], 04h
  404128:	ff 15 40 60 40 00         call	dword [00406040h]	; <?_Tidy@?$basic_string@DU?$char_traits@D@std@@V?$allocator@D@2@@std@@AAEX_N@Z>
  40412e:	6a 01                     push	dword 00000001h
  404130:	8d 4f 28                  lea	ecx, [edi+28h]
  404133:	c6 44 24 24 03            mov	byte [esp+24h], 03h
  404138:	ff 15 40 60 40 00         call	dword [00406040h]	; <?_Tidy@?$basic_string@DU?$char_traits@D@std@@V?$allocator@D@2@@std@@AAEX_N@Z>
  40413e:	6a 01                     push	dword 00000001h
  404140:	8d 4f 18                  lea	ecx, [edi+18h]
  404143:	c6 44 24 24 01            mov	byte [esp+24h], 01h
  404148:	c7 07 44 61 40 00         mov	dword [edi], 00406144h
  40414e:	ff 15 40 60 40 00         call	dword [00406040h]	; <?_Tidy@?$basic_string@DU?$char_traits@D@std@@V?$allocator@D@2@@std@@AAEX_N@Z>
  404154:	8b 47 10                  mov	eax, [edi+10h]
  404157:	8b 6f 0c                  mov	ebp, [edi+0Ch]
  40415a:	3b e8                     cmp	ebp, eax
  40415c:	89 44 24 10               mov	[esp+10h], eax
  404160:	74 13                     jz	404175
  404162:	53                       >push	ebx
  404163:	8b cd                     mov	ecx, ebp
  404165:	e8 f6 06 00 00            call	404860
  40416a:	8b 44 24 10               mov	eax, [esp+10h]
  40416e:	83 c5 10                  add	ebp, 10h
  404171:	3b e8                     cmp	ebp, eax
  404173:	75 ed                     jnz	404162
  404175:	8b 47 0c                 >mov	eax, [edi+0Ch]
  404178:	50                        push	eax
  404179:	e8 92 15 00 00            call	405710
  40417e:	89 5f 0c                  mov	[edi+0Ch], ebx
  404181:	89 5f 10                  mov	[edi+10h], ebx
  404184:	89 5f 14                  mov	[edi+14h], ebx
  404187:	8d 7e 78                  lea	edi, [esi+78h]
  40418a:	83 c4 04                  add	esp, 04h
  40418d:	89 7c 24 10               mov	[esp+10h], edi
  404191:	6a 01                     push	dword 00000001h
  404193:	8d 4f 4c                  lea	ecx, [edi+4Ch]
  404196:	c6 44 24 24 08            mov	byte [esp+24h], 08h
  40419b:	ff 15 40 60 40 00         call	dword [00406040h]	; <?_Tidy@?$basic_string@DU?$char_traits@D@std@@V?$allocator@D@2@@std@@AAEX_N@Z>
  4041a1:	6a 01                     push	dword 00000001h
  4041a3:	8d 4f 3c                  lea	ecx, [edi+3Ch]
  4041a6:	c6 44 24 24 07            mov	byte [esp+24h], 07h
  4041ab:	ff 15 40 60 40 00         call	dword [00406040h]	; <?_Tidy@?$basic_string@DU?$char_traits@D@std@@V?$allocator@D@2@@std@@AAEX_N@Z>
  4041b1:	6a 01                     push	dword 00000001h
  4041b3:	8d 4f 28                  lea	ecx, [edi+28h]
  4041b6:	c6 44 24 24 06            mov	byte [esp+24h], 06h
  4041bb:	ff 15 40 60 40 00         call	dword [00406040h]	; <?_Tidy@?$basic_string@DU?$char_traits@D@std@@V?$allocator@D@2@@std@@AAEX_N@Z>
  4041c1:	6a 01                     push	dword 00000001h
  4041c3:	8d 4f 18                  lea	ecx, [edi+18h]
  4041c6:	88 5c 24 24               mov	[esp+24h], bl
  4041ca:	c7 07 44 61 40 00         mov	dword [edi], 00406144h
  4041d0:	ff 15 40 60 40 00         call	dword [00406040h]	; <?_Tidy@?$basic_string@DU?$char_traits@D@std@@V?$allocator@D@2@@std@@AAEX_N@Z>
  4041d6:	8b 47 10                  mov	eax, [edi+10h]
  4041d9:	8b 6f 0c                  mov	ebp, [edi+0Ch]
  4041dc:	3b e8                     cmp	ebp, eax
  4041de:	89 44 24 10               mov	[esp+10h], eax
  4041e2:	74 13                     jz	4041f7
  4041e4:	53                       >push	ebx
  4041e5:	8b cd                     mov	ecx, ebp
  4041e7:	e8 74 06 00 00            call	404860
  4041ec:	8b 44 24 10               mov	eax, [esp+10h]
  4041f0:	83 c5 10                  add	ebp, 10h
  4041f3:	3b e8                     cmp	ebp, eax
  4041f5:	75 ed                     jnz	4041e4
  4041f7:	8b 47 0c                 >mov	eax, [edi+0Ch]
  4041fa:	50                        push	eax
  4041fb:	e8 10 15 00 00            call	405710
  404200:	83 c4 04                  add	esp, 04h
  404203:	89 5f 0c                  mov	[edi+0Ch], ebx
  404206:	89 5f 10                  mov	[edi+10h], ebx
  404209:	89 5f 14                  mov	[edi+14h], ebx
  40420c:	8d 4e 50                  lea	ecx, [esi+50h]
  40420f:	c7 44 24 20 09 00 00      mov	dword [esp+20h], 00000009h
		00 
  404217:	e8 e4 d6 ff ff            call	401900
  40421c:	6a 01                     push	dword 00000001h
  40421e:	8d 4e 40                  lea	ecx, [esi+40h]
  404221:	c7 46 28 44 61 40 00      mov	dword [esi+28h], 00406144h
  404228:	ff 15 40 60 40 00         call	dword [00406040h]	; <?_Tidy@?$basic_string@DU?$char_traits@D@std@@V?$allocator@D@2@@std@@AAEX_N@Z>
  40422e:	8d 4e 30                  lea	ecx, [esi+30h]
  404231:	e8 5a 00 00 00            call	404290
  404236:	6a 01                     push	dword 00000001h
  404238:	8d 4e 14                  lea	ecx, [esi+14h]
  40423b:	c7 44 24 24 ff ff ff      mov	dword [esp+24h], FFFFFFFFh
		ff 
  404243:	ff 15 40 60 40 00         call	dword [00406040h]	; <?_Tidy@?$basic_string@DU?$char_traits@D@std@@V?$allocator@D@2@@std@@AAEX_N@Z>
  404249:	8d 4e 04                  lea	ecx, [esi+04h]
  40424c:	e8 9f fa ff ff            call	403cf0
  404251:	8b 4c 24 18               mov	ecx, [esp+18h]
  404255:	5f                        pop	edi
  404256:	5e                        pop	esi
  404257:	5d                        pop	ebp
  404258:	5b                        pop	ebx
  404259:	64 89 0d 00 00 00 00      mov	[fs:00000000h], ecx
  404260:	83 c4 14                  add	esp, 14h
  404263:	c3                        ret
     ...

404270 <no name>:
  404270:	8b c1                     mov	eax, ecx
  404272:	8b 4c 24 04               mov	ecx, [esp+04h]
  404276:	8a 11                     mov	dl, [ecx]
  404278:	33 c9                     xor	ecx, ecx
  40427a:	88 10                     mov	[eax], dl
  40427c:	89 48 04                  mov	[eax+04h], ecx
  40427f:	89 48 08                  mov	[eax+08h], ecx
  404282:	89 48 0c                  mov	[eax+0Ch], ecx
  404285:	c2 04 00                  ret	0004h
     ...

404290 <no name>:
  404290:	53                        push	ebx
  404291:	55                        push	ebp
  404292:	56                        push	esi
  404293:	57                        push	edi
  404294:	8b f9                     mov	edi, ecx
  404296:	33 db                     xor	ebx, ebx
  404298:	8b 6f 08                  mov	ebp, [edi+08h]
  40429b:	8b 77 04                  mov	esi, [edi+04h]
  40429e:	3b f5                     cmp	esi, ebp
  4042a0:	74 34                     jz	4042d6
  4042a2:	8b 46 04                 >mov	eax, [esi+04h]
  4042a5:	3b c3                     cmp	eax, ebx
  4042a7:	74 1d                     jz	4042c6
  4042a9:	8d 48 ff                  lea	ecx, [eax-01h]
  4042ac:	8a 40 ff                  mov	al, [eax-01h]
  4042af:	3a c3                     cmp	al, bl
  4042b1:	74 0a                     jz	4042bd
  4042b3:	3c ff                     cmp	al, FFh
  4042b5:	74 06                     jz	4042bd
  4042b7:	fe c8                     dec	al
  4042b9:	88 01                     mov	[ecx], al
  4042bb:	eb 09                     jmp	4042c6
  4042bd:	51                       >push	ecx
  4042be:	e8 4d 14 00 00            call	405710
  4042c3:	83 c4 04                  add	esp, 04h
  4042c6:	89 5e 04                 >mov	[esi+04h], ebx
  4042c9:	89 5e 08                  mov	[esi+08h], ebx
  4042cc:	89 5e 0c                  mov	[esi+0Ch], ebx
  4042cf:	83 c6 10                  add	esi, 10h
  4042d2:	3b f5                     cmp	esi, ebp
  4042d4:	75 cc                     jnz	4042a2
  4042d6:	8b 47 04                 >mov	eax, [edi+04h]
  4042d9:	50                        push	eax
  4042da:	e8 31 14 00 00            call	405710
  4042df:	83 c4 04                  add	esp, 04h
  4042e2:	89 5f 04                  mov	[edi+04h], ebx
  4042e5:	89 5f 08                  mov	[edi+08h], ebx
  4042e8:	89 5f 0c                  mov	[edi+0Ch], ebx
  4042eb:	5f                        pop	edi
  4042ec:	5e                        pop	esi
  4042ed:	5d                        pop	ebp
  4042ee:	5b                        pop	ebx
  4042ef:	c3                        ret

4042f0 <no name>:
  4042f0:	6a ff                     push	dword FFFFFFFFh
  4042f2:	68 ff 5d 40 00            push	dword 00405DFFh
  4042f7:	64 a1 00 00 00 00         mov	eax, [fs:0000h]
  4042fd:	50                        push	eax
  4042fe:	64 89 25 00 00 00 00      mov	[fs:00000000h], esp
  404305:	51                        push	ecx
  404306:	53                        push	ebx
  404307:	55                        push	ebp
  404308:	8a 44 24 20               mov	al, [esp+20h]
  40430c:	56                        push	esi
  40430d:	8b f1                     mov	esi, ecx
  40430f:	57                        push	edi
  404310:	33 db                     xor	ebx, ebx
  404312:	89 74 24 10               mov	[esp+10h], esi
  404316:	8a 4e 04                  mov	cl, [esi+04h]
  404319:	8d 7e 08                  lea	edi, [esi+08h]
  40431c:	80 e1 fc                  and	cl, FCh
  40431f:	88 4e 04                  mov	[esi+04h], cl
  404322:	88 07                     mov	[edi], al
  404324:	89 5f 04                  mov	[edi+04h], ebx
  404327:	89 5f 08                  mov	[edi+08h], ebx
  40432a:	89 5f 0c                  mov	[edi+0Ch], ebx
  40432d:	8b 4c 24 28               mov	ecx, [esp+28h]
  404331:	8d 6e 18                  lea	ebp, [esi+18h]
  404334:	53                        push	ebx
  404335:	89 5c 24 20               mov	[esp+20h], ebx
  404339:	8a 11                     mov	dl, [ecx]
  40433b:	8b cd                     mov	ecx, ebp
  40433d:	88 55 00                  mov	[ebp+00h], dl
  404340:	ff 15 40 60 40 00         call	dword [00406040h]	; <?_Tidy@?$basic_string@DU?$char_traits@D@std@@V?$allocator@D@2@@std@@AAEX_N@Z>
  404346:	a1 38 60 40 00            mov	eax, [406038h]
  40434b:	8b 54 24 28               mov	edx, [esp+28h]
  40434f:	8b 08                     mov	ecx, [eax]
  404351:	51                        push	ecx
  404352:	53                        push	ebx
  404353:	52                        push	edx
  404354:	8b cd                     mov	ecx, ebp
  404356:	ff 15 44 60 40 00         call	dword [00406044h]	; <?assign@?$basic_string@DU?$char_traits@D@std@@V?$allocator@D@2@@std@@QAEAAV12@ABV12@II@Z>
  40435c:	8b 4c 24 24               mov	ecx, [esp+24h]
  404360:	c7 06 44 61 40 00         mov	dword [esi], 00406144h
  404366:	8b 47 08                  mov	eax, [edi+08h]
  404369:	51                        push	ecx
  40436a:	6a 01                     push	dword 00000001h
  40436c:	50                        push	eax
  40436d:	8b cf                     mov	ecx, edi
  40436f:	c6 44 24 28 01            mov	byte [esp+28h], 01h
  404374:	e8 17 09 00 00            call	404c90
  404379:	8b 7c 24 2c               mov	edi, [esp+2Ch]
  40437d:	8d 4e 28                  lea	ecx, [esi+28h]
  404380:	c7 44 24 1c 02 00 00      mov	dword [esp+1Ch], 00000002h
		00 
  404388:	8a 17                     mov	dl, [edi]
  40438a:	89 59 04                  mov	[ecx+04h], ebx
  40438d:	88 11                     mov	[ecx], dl
  40438f:	89 59 08                  mov	[ecx+08h], ebx
  404392:	89 59 0c                  mov	[ecx+0Ch], ebx
  404395:	a1 38 60 40 00            mov	eax, [406038h]
  40439a:	8b 10                     mov	edx, [eax]
  40439c:	52                        push	edx
  40439d:	53                        push	ebx
  40439e:	57                        push	edi
  40439f:	ff 15 44 60 40 00         call	dword [00406044h]	; <?assign@?$basic_string@DU?$char_traits@D@std@@V?$allocator@D@2@@std@@QAEAAV12@ABV12@II@Z>
  4043a5:	8a 44 24 28               mov	al, [esp+28h]
  4043a9:	8a 4c 24 28               mov	cl, [esp+28h]
  4043ad:	88 5e 38                  mov	[esi+38h], bl
  4043b0:	88 46 3c                  mov	[esi+3Ch], al
  4043b3:	89 5e 40                  mov	[esi+40h], ebx
  4043b6:	89 5e 44                  mov	[esi+44h], ebx
  4043b9:	89 5e 48                  mov	[esi+48h], ebx
  4043bc:	88 4e 4c                  mov	[esi+4Ch], cl
  4043bf:	8b 4c 24 14               mov	ecx, [esp+14h]
  4043c3:	89 5e 50                  mov	[esi+50h], ebx
  4043c6:	89 5e 54                  mov	[esi+54h], ebx
  4043c9:	89 5e 58                  mov	[esi+58h], ebx
  4043cc:	c7 06 84 61 40 00         mov	dword [esi], 00406184h
  4043d2:	8b c6                     mov	eax, esi
  4043d4:	5f                        pop	edi
  4043d5:	5e                        pop	esi
  4043d6:	5d                        pop	ebp
  4043d7:	5b                        pop	ebx
  4043d8:	64 89 0d 00 00 00 00      mov	[fs:00000000h], ecx
  4043df:	83 c4 10                  add	esp, 10h
  4043e2:	c2 0c 00                  ret	000Ch
     ...

4043f0 <no name>:
  4043f0:	51                        push	ecx
  4043f1:	a1 38 60 40 00            mov	eax, [406038h]
  4043f6:	53                        push	ebx
  4043f7:	55                        push	ebp
  4043f8:	56                        push	esi
  4043f9:	8b 30                     mov	esi, [eax]
  4043fb:	57                        push	edi
  4043fc:	8b 7c 24 18               mov	edi, [esp+18h]
  404400:	89 4c 24 10               mov	[esp+10h], ecx
  404404:	8d 69 4c                  lea	ebp, [ecx+4Ch]
  404407:	8b 47 08                  mov	eax, [edi+08h]
  40440a:	8b d8                     mov	ebx, eax
  40440c:	3b f3                     cmp	esi, ebx
  40440e:	73 02                     jae	404412
  404410:	8b de                     mov	ebx, esi
  404412:	3b ef                    >cmp	ebp, edi
  404414:	75 66                     jnz	40447c
  404416:	39 5d 08                  cmp	[ebp+08h], ebx
  404419:	73 06                     jae	404421
  40441b:	ff 15 34 60 40 00         call	dword [00406034h]	; <?_Xran@std@@YAXXZ>
  404421:	8b cd                    >mov	ecx, ebp
  404423:	ff 15 30 60 40 00         call	dword [00406030h]	; <?_Split@?$basic_string@DU?$char_traits@D@std@@V?$allocator@D@2@@std@@AAEXXZ>
  404429:	8b 45 08                  mov	eax, [ebp+08h]
  40442c:	2b c3                     sub	eax, ebx
  40442e:	3b c6                     cmp	eax, esi
  404430:	73 02                     jae	404434
  404432:	8b f0                     mov	esi, eax
  404434:	85 f6                    >test	esi, esi
  404436:	76 33                     jbe	40446b
  404438:	8b 4d 04                  mov	ecx, [ebp+04h]
  40443b:	2b c6                     sub	eax, esi
  40443d:	03 cb                     add	ecx, ebx
  40443f:	50                        push	eax
  404440:	8d 14 31                  lea	edx, [ecx+esi*1]
  404443:	52                        push	edx
  404444:	51                        push	ecx
  404445:	ff 15 dc 60 40 00         call	dword [004060DCh]	; <memmove>
  40444b:	8b 5d 08                  mov	ebx, [ebp+08h]
  40444e:	83 c4 0c                  add	esp, 0Ch
  404451:	2b de                     sub	ebx, esi
  404453:	8b cd                     mov	ecx, ebp
  404455:	6a 00                     push	dword 00000000h
  404457:	53                        push	ebx
  404458:	ff 15 2c 60 40 00         call	dword [0040602Ch]	; <?_Grow@?$basic_string@DU?$char_traits@D@std@@V?$allocator@D@2@@std@@AAE_NI_N@Z>
  40445e:	84 c0                     test	al, al
  404460:	74 09                     jz	40446b
  404462:	53                        push	ebx
  404463:	8b cd                     mov	ecx, ebp
  404465:	ff 15 28 60 40 00         call	dword [00406028h]	; <?_Eos@?$basic_string@DU?$char_traits@D@std@@V?$allocator@D@2@@std@@AAEXI@Z>
  40446b:	6a 00                    >push	dword 00000000h
  40446d:	6a 00                     push	dword 00000000h
  40446f:	8b cd                     mov	ecx, ebp
  404471:	ff 15 5c 60 40 00         call	dword [0040605Ch]	; <?erase@?$basic_string@DU?$char_traits@D@std@@V?$allocator@D@2@@std@@QAEAAV12@II@Z>
  404477:	e9 87 00 00 00            jmp	404503
  40447c:	85 db                    >test	ebx, ebx
  40447e:	76 45                     jbe	4044c5
  404480:	3b d8                     cmp	ebx, eax
  404482:	75 41                     jnz	4044c5
  404484:	8b 47 04                  mov	eax, [edi+04h]
  404487:	85 c0                     test	eax, eax
  404489:	75 05                     jnz	404490
  40448b:	a1 24 60 40 00            mov	eax, [406024h]
  404490:	80 78 ff fe              >cmp	byte [eax-01h], FEh
  404494:	73 2f                     jae	4044c5
  404496:	6a 01                     push	dword 00000001h
  404498:	8b cd                     mov	ecx, ebp
  40449a:	ff 15 40 60 40 00         call	dword [00406040h]	; <?_Tidy@?$basic_string@DU?$char_traits@D@std@@V?$allocator@D@2@@std@@AAEX_N@Z>
  4044a0:	8b 47 04                  mov	eax, [edi+04h]
  4044a3:	85 c0                     test	eax, eax
  4044a5:	75 05                     jnz	4044ac
  4044a7:	a1 24 60 40 00            mov	eax, [406024h]
  4044ac:	89 45 04                 >mov	[ebp+04h], eax
  4044af:	8b 4f 08                  mov	ecx, [edi+08h]
  4044b2:	89 4d 08                  mov	[ebp+08h], ecx
  4044b5:	8b 57 0c                  mov	edx, [edi+0Ch]
  4044b8:	89 55 0c                  mov	[ebp+0Ch], edx
  4044bb:	8a 48 ff                  mov	cl, [eax-01h]
  4044be:	fe c1                     inc	cl
  4044c0:	88 48 ff                  mov	[eax-01h], cl
  4044c3:	eb 3e                     jmp	404503
  4044c5:	6a 01                    >push	dword 00000001h
  4044c7:	53                        push	ebx
  4044c8:	8b cd                     mov	ecx, ebp
  4044ca:	ff 15 2c 60 40 00         call	dword [0040602Ch]	; <?_Grow@?$basic_string@DU?$char_traits@D@std@@V?$allocator@D@2@@std@@AAE_NI_N@Z>
  4044d0:	84 c0                     test	al, al
  4044d2:	74 2f                     jz	404503
  4044d4:	8b 7f 04                  mov	edi, [edi+04h]
  4044d7:	8b 35 24 60 40 00         mov	esi, [00406024h]
  4044dd:	85 ff                     test	edi, edi
  4044df:	74 02                     jz	4044e3
  4044e1:	8b f7                     mov	esi, edi
  4044e3:	8b 7d 04                 >mov	edi, [ebp+04h]
  4044e6:	8b cb                     mov	ecx, ebx
  4044e8:	8b c1                     mov	eax, ecx
  4044ea:	53                        push	ebx
  4044eb:	c1 e9 02                  shr	ecx, 02h
  4044ee:	f3 a5                     rep movsd
  4044f0:	8b c8                     mov	ecx, eax
  4044f2:	83 e1 03                  and	ecx, 03h
  4044f5:	f3 a4                     rep movsb
  4044f7:	8b cd                     mov	ecx, ebp
  4044f9:	ff 15 28 60 40 00         call	dword [00406028h]	; <?_Eos@?$basic_string@DU?$char_traits@D@std@@V?$allocator@D@2@@std@@AAEXI@Z>
  4044ff:	8b 7c 24 18               mov	edi, [esp+18h]
  404503:	8b 15 38 60 40 00        >mov	edx, [00406038h]
  404509:	8b 47 08                  mov	eax, [edi+08h]
  40450c:	8b 4c 24 10               mov	ecx, [esp+10h]
  404510:	8b d8                     mov	ebx, eax
  404512:	8b 32                     mov	esi, [edx]
  404514:	3b f3                     cmp	esi, ebx
  404516:	8d 69 3c                  lea	ebp, [ecx+3Ch]
  404519:	73 02                     jae	40451d
  40451b:	8b de                     mov	ebx, esi
  40451d:	3b ef                    >cmp	ebp, edi
  40451f:	75 71                     jnz	404592
  404521:	39 5d 08                  cmp	[ebp+08h], ebx
  404524:	73 06                     jae	40452c
  404526:	ff 15 34 60 40 00         call	dword [00406034h]	; <?_Xran@std@@YAXXZ>
  40452c:	8b cd                    >mov	ecx, ebp
  40452e:	ff 15 30 60 40 00         call	dword [00406030h]	; <?_Split@?$basic_string@DU?$char_traits@D@std@@V?$allocator@D@2@@std@@AAEXXZ>
  404534:	8b 45 08                  mov	eax, [ebp+08h]
  404537:	2b c3                     sub	eax, ebx
  404539:	3b c6                     cmp	eax, esi
  40453b:	73 02                     jae	40453f
  40453d:	8b f0                     mov	esi, eax
  40453f:	85 f6                    >test	esi, esi
  404541:	76 33                     jbe	404576
  404543:	8b 4d 04                  mov	ecx, [ebp+04h]
  404546:	2b c6                     sub	eax, esi
  404548:	03 d9                     add	ebx, ecx
  40454a:	50                        push	eax
  40454b:	8d 14 33                  lea	edx, [ebx+esi*1]
  40454e:	52                        push	edx
  40454f:	53                        push	ebx
  404550:	ff 15 dc 60 40 00         call	dword [004060DCh]	; <memmove>
  404556:	8b 5d 08                  mov	ebx, [ebp+08h]
  404559:	83 c4 0c                  add	esp, 0Ch
  40455c:	2b de                     sub	ebx, esi
  40455e:	8b cd                     mov	ecx, ebp
  404560:	6a 00                     push	dword 00000000h
  404562:	53                        push	ebx
  404563:	ff 15 2c 60 40 00         call	dword [0040602Ch]	; <?_Grow@?$basic_string@DU?$char_traits@D@std@@V?$allocator@D@2@@std@@AAE_NI_N@Z>
  404569:	84 c0                     test	al, al
  40456b:	74 09                     jz	404576
  40456d:	53                        push	ebx
  40456e:	8b cd                     mov	ecx, ebp
  404570:	ff 15 28 60 40 00         call	dword [00406028h]	; <?_Eos@?$basic_string@DU?$char_traits@D@std@@V?$allocator@D@2@@std@@AAEXI@Z>
  404576:	6a 00                    >push	dword 00000000h
  404578:	6a 00                     push	dword 00000000h
  40457a:	8b cd                     mov	ecx, ebp
  40457c:	ff 15 5c 60 40 00         call	dword [0040605Ch]	; <?erase@?$basic_string@DU?$char_traits@D@std@@V?$allocator@D@2@@std@@QAEAAV12@II@Z>
  404582:	8b 44 24 10               mov	eax, [esp+10h]
  404586:	5f                        pop	edi
  404587:	5e                        pop	esi
  404588:	5d                        pop	ebp
  404589:	c6 40 38 01               mov	byte [eax+38h], 01h
  40458d:	5b                        pop	ebx
  40458e:	59                        pop	ecx
  40458f:	c2 04 00                  ret	0004h
  404592:	85 db                    >test	ebx, ebx
  404594:	76 53                     jbe	4045e9
  404596:	3b d8                     cmp	ebx, eax
  404598:	75 4f                     jnz	4045e9
  40459a:	8b 47 04                  mov	eax, [edi+04h]
  40459d:	85 c0                     test	eax, eax
  40459f:	75 05                     jnz	4045a6
  4045a1:	a1 24 60 40 00            mov	eax, [406024h]
  4045a6:	80 78 ff fe              >cmp	byte [eax-01h], FEh
  4045aa:	73 3d                     jae	4045e9
  4045ac:	6a 01                     push	dword 00000001h
  4045ae:	8b cd                     mov	ecx, ebp
  4045b0:	ff 15 40 60 40 00         call	dword [00406040h]	; <?_Tidy@?$basic_string@DU?$char_traits@D@std@@V?$allocator@D@2@@std@@AAEX_N@Z>
  4045b6:	8b 47 04                  mov	eax, [edi+04h]
  4045b9:	85 c0                     test	eax, eax
  4045bb:	75 05                     jnz	4045c2
  4045bd:	a1 24 60 40 00            mov	eax, [406024h]
  4045c2:	89 45 04                 >mov	[ebp+04h], eax
  4045c5:	8b 4f 08                  mov	ecx, [edi+08h]
  4045c8:	89 4d 08                  mov	[ebp+08h], ecx
  4045cb:	8b 57 0c                  mov	edx, [edi+0Ch]
  4045ce:	89 55 0c                  mov	[ebp+0Ch], edx
  4045d1:	8a 48 ff                  mov	cl, [eax-01h]
  4045d4:	fe c1                     inc	cl
  4045d6:	5f                        pop	edi
  4045d7:	88 48 ff                  mov	[eax-01h], cl
  4045da:	8b 44 24 0c               mov	eax, [esp+0Ch]
  4045de:	5e                        pop	esi
  4045df:	5d                        pop	ebp
  4045e0:	c6 40 38 01               mov	byte [eax+38h], 01h
  4045e4:	5b                        pop	ebx
  4045e5:	59                        pop	ecx
  4045e6:	c2 04 00                  ret	0004h
  4045e9:	6a 01                    >push	dword 00000001h
  4045eb:	53                        push	ebx
  4045ec:	8b cd                     mov	ecx, ebp
  4045ee:	ff 15 2c 60 40 00         call	dword [0040602Ch]	; <?_Grow@?$basic_string@DU?$char_traits@D@std@@V?$allocator@D@2@@std@@AAE_NI_N@Z>
  4045f4:	84 c0                     test	al, al
  4045f6:	74 3b                     jz	404633
  4045f8:	8b 7f 04                  mov	edi, [edi+04h]
  4045fb:	8b 35 24 60 40 00         mov	esi, [00406024h]
  404601:	85 ff                     test	edi, edi
  404603:	74 02                     jz	404607
  404605:	8b f7                     mov	esi, edi
  404607:	8b 7d 04                 >mov	edi, [ebp+04h]
  40460a:	8b cb                     mov	ecx, ebx
  40460c:	8b d1                     mov	edx, ecx
  40460e:	53                        push	ebx
  40460f:	c1 e9 02                  shr	ecx, 02h
  404612:	f3 a5                     rep movsd
  404614:	8b ca                     mov	ecx, edx
  404616:	83 e1 03                  and	ecx, 03h
  404619:	f3 a4                     rep movsb
  40461b:	8b cd                     mov	ecx, ebp
  40461d:	ff 15 28 60 40 00         call	dword [00406028h]	; <?_Eos@?$basic_string@DU?$char_traits@D@std@@V?$allocator@D@2@@std@@AAEXI@Z>
  404623:	8b 44 24 10               mov	eax, [esp+10h]
  404627:	5f                        pop	edi
  404628:	5e                        pop	esi
  404629:	5d                        pop	ebp
  40462a:	c6 40 38 01               mov	byte [eax+38h], 01h
  40462e:	5b                        pop	ebx
  40462f:	59                        pop	ecx
  404630:	c2 04 00                  ret	0004h
  404633:	8b 4c 24 10              >mov	ecx, [esp+10h]
  404637:	5f                        pop	edi
  404638:	5e                        pop	esi
  404639:	5d                        pop	ebp
  40463a:	c6 41 38 01               mov	byte [ecx+38h], 01h
  40463e:	5b                        pop	ebx
  40463f:	59                        pop	ecx
  404640:	c2 04 00                  ret	0004h
     ...

404860 <no name>:
  404860:	56                        push	esi
  404861:	8b f1                     mov	esi, ecx
  404863:	8b 46 04                  mov	eax, [esi+04h]
  404866:	85 c0                     test	eax, eax
  404868:	74 1d                     jz	404887
  40486a:	8d 48 ff                  lea	ecx, [eax-01h]
  40486d:	8a 40 ff                  mov	al, [eax-01h]
  404870:	84 c0                     test	al, al
  404872:	74 0a                     jz	40487e
  404874:	3c ff                     cmp	al, FFh
  404876:	74 06                     jz	40487e
  404878:	fe c8                     dec	al
  40487a:	88 01                     mov	[ecx], al
  40487c:	eb 09                     jmp	404887
  40487e:	51                       >push	ecx
  40487f:	e8 8c 0e 00 00            call	405710
  404884:	83 c4 04                  add	esp, 04h
  404887:	8a 44 24 08              >mov	al, [esp+08h]
  40488b:	c7 46 04 00 00 00 00      mov	dword [esi+04h], 00000000h
  404892:	a8 01                     test	al, 01h
  404894:	c7 46 08 00 00 00 00      mov	dword [esi+08h], 00000000h
  40489b:	c7 46 0c 00 00 00 00      mov	dword [esi+0Ch], 00000000h
  4048a2:	74 09                     jz	4048ad
  4048a4:	56                        push	esi
  4048a5:	e8 66 0e 00 00            call	405710
  4048aa:	83 c4 04                  add	esp, 04h
  4048ad:	8b c6                    >mov	eax, esi
  4048af:	5e                        pop	esi
  4048b0:	c2 04 00                  ret	0004h
     ...

4048f0 <no name>:
  4048f0:	83 ec 08                  sub	esp, 08h
  4048f3:	53                        push	ebx
  4048f4:	55                        push	ebp
  4048f5:	56                        push	esi
  4048f6:	8b f1                     mov	esi, ecx
  4048f8:	57                        push	edi
  4048f9:	8b 7c 24 1c               mov	edi, [esp+1Ch]
  4048fd:	8b 46 08                  mov	eax, [esi+08h]
  404900:	8b 4e 0c                  mov	ecx, [esi+0Ch]
  404903:	8b 56 04                  mov	edx, [esi+04h]
  404906:	8b df                     mov	ebx, edi
  404908:	2b c8                     sub	ecx, eax
  40490a:	2b da                     sub	ebx, edx
  40490c:	c1 f9 04                  sar	ecx, 04h
  40490f:	c1 fb 04                  sar	ebx, 04h
  404912:	83 f9 01                  cmp	ecx, 01h
  404915:	89 5c 24 14               mov	[esp+14h], ebx
  404919:	0f 83 ce 00 00 00         jae	4049ed
  40491f:	85 d2                     test	edx, edx
  404921:	74 0c                     jz	40492f
  404923:	8b c8                     mov	ecx, eax
  404925:	2b ca                     sub	ecx, edx
  404927:	c1 f9 04                  sar	ecx, 04h
  40492a:	83 f9 01                  cmp	ecx, 01h
  40492d:	77 05                     ja	404934
  40492f:	b9 01 00 00 00           >mov	ecx, 00000001h
  404934:	85 d2                    >test	edx, edx
  404936:	75 04                     jnz	40493c
  404938:	33 c0                     xor	eax, eax
  40493a:	eb 05                     jmp	404941
  40493c:	2b c2                    >sub	eax, edx
  40493e:	c1 f8 04                  sar	eax, 04h
  404941:	03 c1                    >add	eax, ecx
  404943:	85 c0                     test	eax, eax
  404945:	89 44 24 1c               mov	[esp+1Ch], eax
  404949:	7d 02                     jge	40494d
  40494b:	33 c0                     xor	eax, eax
  40494d:	c1 e0 04                 >shl	eax, 04h
  404950:	50                        push	eax
  404951:	e8 30 0e 00 00            call	405786	; <??2@YAPAXI@Z>
  404956:	8b 5e 04                  mov	ebx, [esi+04h]
  404959:	83 c4 04                  add	esp, 04h
  40495c:	3b df                     cmp	ebx, edi
  40495e:	89 44 24 10               mov	[esp+10h], eax
  404962:	8b e8                     mov	ebp, eax
  404964:	74 14                     jz	40497a
  404966:	53                       >push	ebx
  404967:	55                        push	ebp
  404968:	e8 03 0c 00 00            call	405570
  40496d:	83 c3 10                  add	ebx, 10h
  404970:	83 c4 08                  add	esp, 08h
  404973:	83 c5 10                  add	ebp, 10h
  404976:	3b df                     cmp	ebx, edi
  404978:	75 ec                     jnz	404966
  40497a:	8b 54 24 20              >mov	edx, [esp+20h]
  40497e:	52                        push	edx
  40497f:	55                        push	ebp
  404980:	e8 eb 0b 00 00            call	405570
  404985:	8b 46 08                  mov	eax, [esi+08h]
  404988:	83 c4 08                  add	esp, 08h
  40498b:	83 c5 10                  add	ebp, 10h
  40498e:	8b ce                     mov	ecx, esi
  404990:	55                        push	ebp
  404991:	50                        push	eax
  404992:	57                        push	edi
  404993:	e8 28 08 00 00            call	4051c0
  404998:	8b 4e 08                  mov	ecx, [esi+08h]
  40499b:	8b 56 04                  mov	edx, [esi+04h]
  40499e:	51                        push	ecx
  40499f:	52                        push	edx
  4049a0:	8b ce                     mov	ecx, esi
  4049a2:	e8 d9 00 00 00            call	404a80
  4049a7:	8b 46 04                  mov	eax, [esi+04h]
  4049aa:	50                        push	eax
  4049ab:	e8 60 0d 00 00            call	405710
  4049b0:	8b 44 24 20               mov	eax, [esp+20h]
  4049b4:	8b 7c 24 14               mov	edi, [esp+14h]
  4049b8:	c1 e0 04                  shl	eax, 04h
  4049bb:	03 c7                     add	eax, edi
  4049bd:	83 c4 04                  add	esp, 04h
  4049c0:	8b ce                     mov	ecx, esi
  4049c2:	89 46 0c                  mov	[esi+0Ch], eax
  4049c5:	e8 d6 07 00 00            call	4051a0
  4049ca:	8b 5c 24 14               mov	ebx, [esp+14h]
  4049ce:	40                        inc	eax
  4049cf:	c1 e0 04                  shl	eax, 04h
  4049d2:	03 c7                     add	eax, edi
  4049d4:	89 7e 04                  mov	[esi+04h], edi
  4049d7:	89 46 08                  mov	[esi+08h], eax
  4049da:	8b c3                     mov	eax, ebx
  4049dc:	8b cf                     mov	ecx, edi
  4049de:	5f                        pop	edi
  4049df:	c1 e0 04                  shl	eax, 04h
  4049e2:	5e                        pop	esi
  4049e3:	5d                        pop	ebp
  4049e4:	03 c1                     add	eax, ecx
  4049e6:	5b                        pop	ebx
  4049e7:	83 c4 08                  add	esp, 08h
  4049ea:	c2 08 00                  ret	0008h
  4049ed:	8b c8                    >mov	ecx, eax
  4049ef:	2b cf                     sub	ecx, edi
  4049f1:	c1 f9 04                  sar	ecx, 04h
  4049f4:	83 f9 01                  cmp	ecx, 01h
  4049f7:	73 3c                     jae	404a35
  4049f9:	8d 57 10                  lea	edx, [edi+10h]
  4049fc:	8b ce                     mov	ecx, esi
  4049fe:	52                        push	edx
  4049ff:	50                        push	eax
  404a00:	57                        push	edi
  404a01:	e8 ba 07 00 00            call	4051c0
  404a06:	8b 46 08                  mov	eax, [esi+08h]
  404a09:	8b 6c 24 20               mov	ebp, [esp+20h]
  404a0d:	8b c8                     mov	ecx, eax
  404a0f:	ba 01 00 00 00            mov	edx, 00000001h
  404a14:	2b cf                     sub	ecx, edi
  404a16:	55                        push	ebp
  404a17:	c1 f9 04                  sar	ecx, 04h
  404a1a:	2b d1                     sub	edx, ecx
  404a1c:	8b ce                     mov	ecx, esi
  404a1e:	52                        push	edx
  404a1f:	50                        push	eax
  404a20:	e8 db 07 00 00            call	405200
  404a25:	8b 46 08                  mov	eax, [esi+08h]
  404a28:	55                        push	ebp
  404a29:	50                        push	eax
  404a2a:	57                        push	edi
  404a2b:	e8 90 08 00 00            call	4052c0
  404a30:	83 c4 0c                  add	esp, 0Ch
  404a33:	eb 2d                     jmp	404a62
  404a35:	50                       >push	eax
  404a36:	50                        push	eax
  404a37:	83 c0 f0                  add	eax, F0h
  404a3a:	8b ce                     mov	ecx, esi
  404a3c:	50                        push	eax
  404a3d:	e8 7e 07 00 00            call	4051c0
  404a42:	8b 46 08                  mov	eax, [esi+08h]
  404a45:	50                        push	eax
  404a46:	83 c0 f0                  add	eax, F0h
  404a49:	50                        push	eax
  404a4a:	57                        push	edi
  404a4b:	e8 c0 09 00 00            call	405410
  404a50:	8b 4c 24 2c               mov	ecx, [esp+2Ch]
  404a54:	8d 57 10                  lea	edx, [edi+10h]
  404a57:	51                        push	ecx
  404a58:	52                        push	edx
  404a59:	57                        push	edi
  404a5a:	e8 61 08 00 00            call	4052c0
  404a5f:	83 c4 18                  add	esp, 18h
  404a62:	8b 46 08                 >mov	eax, [esi+08h]
  404a65:	8b 4e 04                  mov	ecx, [esi+04h]
  404a68:	83 c0 10                  add	eax, 10h
  404a6b:	5f                        pop	edi
  404a6c:	89 46 08                  mov	[esi+08h], eax
  404a6f:	8b c3                     mov	eax, ebx
  404a71:	c1 e0 04                  shl	eax, 04h
  404a74:	5e                        pop	esi
  404a75:	5d                        pop	ebp
  404a76:	03 c1                     add	eax, ecx
  404a78:	5b                        pop	ebx
  404a79:	83 c4 08                  add	esp, 08h
  404a7c:	c2 08 00                  ret	0008h
     ...

404a80 <no name>:
  404a80:	56                        push	esi
  404a81:	8b 74 24 08               mov	esi, [esp+08h]
  404a85:	57                        push	edi
  404a86:	8b 7c 24 10               mov	edi, [esp+10h]
  404a8a:	3b f7                     cmp	esi, edi
  404a8c:	74 38                     jz	404ac6
  404a8e:	53                        push	ebx
  404a8f:	33 db                     xor	ebx, ebx
  404a91:	8b 46 04                 >mov	eax, [esi+04h]
  404a94:	3b c3                     cmp	eax, ebx
  404a96:	74 1d                     jz	404ab5
  404a98:	8d 48 ff                  lea	ecx, [eax-01h]
  404a9b:	8a 40 ff                  mov	al, [eax-01h]
  404a9e:	3a c3                     cmp	al, bl
  404aa0:	74 0a                     jz	404aac
  404aa2:	3c ff                     cmp	al, FFh
  404aa4:	74 06                     jz	404aac
  404aa6:	fe c8                     dec	al
  404aa8:	88 01                     mov	[ecx], al
  404aaa:	eb 09                     jmp	404ab5
  404aac:	51                       >push	ecx
  404aad:	e8 5e 0c 00 00            call	405710
  404ab2:	83 c4 04                  add	esp, 04h
  404ab5:	89 5e 04                 >mov	[esi+04h], ebx
  404ab8:	89 5e 08                  mov	[esi+08h], ebx
  404abb:	89 5e 0c                  mov	[esi+0Ch], ebx
  404abe:	83 c6 10                  add	esi, 10h
  404ac1:	3b f7                     cmp	esi, edi
  404ac3:	75 cc                     jnz	404a91
  404ac5:	5b                        pop	ebx
  404ac6:	5f                       >pop	edi
  404ac7:	5e                        pop	esi
  404ac8:	c2 08 00                  ret	0008h
     ...

404ad0 <no name>:
  404ad0:	83 ec 08                  sub	esp, 08h
  404ad3:	53                        push	ebx
  404ad4:	55                        push	ebp
  404ad5:	56                        push	esi
  404ad6:	8b f1                     mov	esi, ecx
  404ad8:	57                        push	edi
  404ad9:	8b 7c 24 1c               mov	edi, [esp+1Ch]
  404add:	8b 46 08                  mov	eax, [esi+08h]
  404ae0:	8b 4e 0c                  mov	ecx, [esi+0Ch]
  404ae3:	8b 56 04                  mov	edx, [esi+04h]
  404ae6:	8b ef                     mov	ebp, edi
  404ae8:	2b c8                     sub	ecx, eax
  404aea:	2b ea                     sub	ebp, edx
  404aec:	c1 f9 03                  sar	ecx, 03h
  404aef:	c1 fd 03                  sar	ebp, 03h
  404af2:	83 f9 01                  cmp	ecx, 01h
  404af5:	89 6c 24 14               mov	[esp+14h], ebp
  404af9:	0f 83 ca 00 00 00         jae	404bc9
  404aff:	85 d2                     test	edx, edx
  404b01:	74 0c                     jz	404b0f
  404b03:	8b c8                     mov	ecx, eax
  404b05:	2b ca                     sub	ecx, edx
  404b07:	c1 f9 03                  sar	ecx, 03h
  404b0a:	83 f9 01                  cmp	ecx, 01h
  404b0d:	77 05                     ja	404b14
  404b0f:	b9 01 00 00 00           >mov	ecx, 00000001h
  404b14:	85 d2                    >test	edx, edx
  404b16:	75 04                     jnz	404b1c
  404b18:	33 c0                     xor	eax, eax
  404b1a:	eb 05                     jmp	404b21
  404b1c:	2b c2                    >sub	eax, edx
  404b1e:	c1 f8 03                  sar	eax, 03h
  404b21:	03 c1                    >add	eax, ecx
  404b23:	85 c0                     test	eax, eax
  404b25:	89 44 24 10               mov	[esp+10h], eax
  404b29:	7d 02                     jge	404b2d
  404b2b:	33 c0                     xor	eax, eax
  404b2d:	8d 14 c5 00 00 00 00     >lea	edx, [eax*8+00000000h]
  404b34:	52                        push	edx
  404b35:	e8 4c 0c 00 00            call	405786	; <??2@YAPAXI@Z>
  404b3a:	8b 5e 04                  mov	ebx, [esi+04h]
  404b3d:	83 c4 04                  add	esp, 04h
  404b40:	3b df                     cmp	ebx, edi
  404b42:	89 44 24 1c               mov	[esp+1Ch], eax
  404b46:	8b e8                     mov	ebp, eax
  404b48:	74 14                     jz	404b5e
  404b4a:	53                       >push	ebx
  404b4b:	55                        push	ebp
  404b4c:	e8 9f 0b 00 00            call	4056f0
  404b51:	83 c3 08                  add	ebx, 08h
  404b54:	83 c4 08                  add	esp, 08h
  404b57:	83 c5 08                  add	ebp, 08h
  404b5a:	3b df                     cmp	ebx, edi
  404b5c:	75 ec                     jnz	404b4a
  404b5e:	8b 44 24 20              >mov	eax, [esp+20h]
  404b62:	50                        push	eax
  404b63:	55                        push	ebp
  404b64:	e8 87 0b 00 00            call	4056f0
  404b69:	8b 4e 08                  mov	ecx, [esi+08h]
  404b6c:	83 c4 08                  add	esp, 08h
  404b6f:	83 c5 08                  add	ebp, 08h
  404b72:	55                        push	ebp
  404b73:	51                        push	ecx
  404b74:	57                        push	edi
  404b75:	8b ce                     mov	ecx, esi
  404b77:	e8 d4 06 00 00            call	405250
  404b7c:	8b 56 08                  mov	edx, [esi+08h]
  404b7f:	8b 46 04                  mov	eax, [esi+04h]
  404b82:	52                        push	edx
  404b83:	50                        push	eax
  404b84:	8b ce                     mov	ecx, esi
  404b86:	e8 f5 00 00 00            call	404c80
  404b8b:	8b 4e 04                  mov	ecx, [esi+04h]
  404b8e:	51                        push	ecx
  404b8f:	e8 7c 0b 00 00            call	405710
  404b94:	8b 7c 24 20               mov	edi, [esp+20h]
  404b98:	8b 54 24 14               mov	edx, [esp+14h]
  404b9c:	83 c4 04                  add	esp, 04h
  404b9f:	8b ce                     mov	ecx, esi
  404ba1:	8d 04 d7                  lea	eax, [edi+edx*8]
  404ba4:	89 46 0c                  mov	[esi+0Ch], eax
  404ba7:	e8 84 06 00 00            call	405230
  404bac:	8b 6c 24 14               mov	ebp, [esp+14h]
  404bb0:	8d 4c c7 08               lea	ecx, [edi+eax*8+08h]
  404bb4:	8b c7                     mov	eax, edi
  404bb6:	89 7e 04                  mov	[esi+04h], edi
  404bb9:	89 4e 08                  mov	[esi+08h], ecx
  404bbc:	5f                        pop	edi
  404bbd:	8d 04 e8                  lea	eax, [eax+ebp*8]
  404bc0:	5e                        pop	esi
  404bc1:	5d                        pop	ebp
  404bc2:	5b                        pop	ebx
  404bc3:	83 c4 08                  add	esp, 08h
  404bc6:	c2 08 00                  ret	0008h
  404bc9:	8b d0                    >mov	edx, eax
  404bcb:	2b d7                     sub	edx, edi
  404bcd:	c1 fa 03                  sar	edx, 03h
  404bd0:	83 fa 01                  cmp	edx, 01h
  404bd3:	73 48                     jae	404c1d
  404bd5:	8d 4f 08                  lea	ecx, [edi+08h]
  404bd8:	51                        push	ecx
  404bd9:	50                        push	eax
  404bda:	57                        push	edi
  404bdb:	8b ce                     mov	ecx, esi
  404bdd:	e8 6e 06 00 00            call	405250
  404be2:	8b 46 08                  mov	eax, [esi+08h]
  404be5:	8b 5c 24 20               mov	ebx, [esp+20h]
  404be9:	8b d0                     mov	edx, eax
  404beb:	b9 01 00 00 00            mov	ecx, 00000001h
  404bf0:	2b d7                     sub	edx, edi
  404bf2:	53                        push	ebx
  404bf3:	c1 fa 03                  sar	edx, 03h
  404bf6:	2b ca                     sub	ecx, edx
  404bf8:	51                        push	ecx
  404bf9:	50                        push	eax
  404bfa:	8b ce                     mov	ecx, esi
  404bfc:	e8 8f 06 00 00            call	405290
  404c01:	8b 4e 08                  mov	ecx, [esi+08h]
  404c04:	8b c7                     mov	eax, edi
  404c06:	3b f9                     cmp	edi, ecx
  404c08:	74 5d                     jz	404c67
  404c0a:	8b 13                    >mov	edx, [ebx]
  404c0c:	89 10                     mov	[eax], edx
  404c0e:	8b 53 04                  mov	edx, [ebx+04h]
  404c11:	89 50 04                  mov	[eax+04h], edx
  404c14:	83 c0 08                  add	eax, 08h
  404c17:	3b c1                     cmp	eax, ecx
  404c19:	75 ef                     jnz	404c0a
  404c1b:	eb 4a                     jmp	404c67
  404c1d:	50                       >push	eax
  404c1e:	50                        push	eax
  404c1f:	83 c0 f8                  add	eax, F8h
  404c22:	8b ce                     mov	ecx, esi
  404c24:	50                        push	eax
  404c25:	e8 26 06 00 00            call	405250
  404c2a:	8b 4e 08                  mov	ecx, [esi+08h]
  404c2d:	8d 41 f8                  lea	eax, [ecx-08h]
  404c30:	3b f8                     cmp	edi, eax
  404c32:	74 15                     jz	404c49
  404c34:	8b 50 f8                 >mov	edx, [eax-08h]
  404c37:	83 e8 08                  sub	eax, 08h
  404c3a:	83 e9 08                  sub	ecx, 08h
  404c3d:	3b c7                     cmp	eax, edi
  404c3f:	89 11                     mov	[ecx], edx
  404c41:	8b 50 04                  mov	edx, [eax+04h]
  404c44:	89 51 04                  mov	[ecx+04h], edx
  404c47:	75 eb                     jnz	404c34
  404c49:	8d 57 08                 >lea	edx, [edi+08h]
  404c4c:	8b c7                     mov	eax, edi
  404c4e:	3b fa                     cmp	edi, edx
  404c50:	74 15                     jz	404c67
  404c52:	8b 4c 24 20               mov	ecx, [esp+20h]
  404c56:	8b 39                    >mov	edi, [ecx]
  404c58:	89 38                     mov	[eax], edi
  404c5a:	8b 79 04                  mov	edi, [ecx+04h]
  404c5d:	89 78 04                  mov	[eax+04h], edi
  404c60:	83 c0 08                  add	eax, 08h
  404c63:	3b c2                     cmp	eax, edx
  404c65:	75 ef                     jnz	404c56
  404c67:	8b 46 08                 >mov	eax, [esi+08h]
  404c6a:	5f                        pop	edi
  404c6b:	83 c0 08                  add	eax, 08h
  404c6e:	89 46 08                  mov	[esi+08h], eax
  404c71:	8b 46 04                  mov	eax, [esi+04h]
  404c74:	5e                        pop	esi
  404c75:	8d 04 e8                  lea	eax, [eax+ebp*8]
  404c78:	5d                        pop	ebp
  404c79:	5b                        pop	ebx
  404c7a:	83 c4 08                  add	esp, 08h
  404c7d:	c2 08 00                  ret	0008h

404c80 <no name>:
  404c80:	c2 08 00                  ret	0008h
     ...

404c90 <no name>:
  404c90:	83 ec 0c                  sub	esp, 0Ch
  404c93:	8b 41 0c                  mov	eax, [ecx+0Ch]
  404c96:	53                        push	ebx
  404c97:	55                        push	ebp
  404c98:	56                        push	esi
  404c99:	8b 71 08                  mov	esi, [ecx+08h]
  404c9c:	57                        push	edi
  404c9d:	8b 7c 24 24               mov	edi, [esp+24h]
  404ca1:	2b c6                     sub	eax, esi
  404ca3:	c1 f8 04                  sar	eax, 04h
  404ca6:	3b c7                     cmp	eax, edi
  404ca8:	89 4c 24 10               mov	[esp+10h], ecx
  404cac:	0f 83 39 01 00 00         jae	404deb
  404cb2:	8b 49 04                  mov	ecx, [ecx+04h]
  404cb5:	85 c9                     test	ecx, ecx
  404cb7:	74 0b                     jz	404cc4
  404cb9:	8b c6                     mov	eax, esi
  404cbb:	2b c1                     sub	eax, ecx
  404cbd:	c1 f8 04                  sar	eax, 04h
  404cc0:	3b f8                     cmp	edi, eax
  404cc2:	72 02                     jb	404cc6
  404cc4:	8b c7                    >mov	eax, edi
  404cc6:	85 c9                    >test	ecx, ecx
  404cc8:	75 04                     jnz	404cce
  404cca:	33 f6                     xor	esi, esi
  404ccc:	eb 05                     jmp	404cd3
  404cce:	2b f1                    >sub	esi, ecx
  404cd0:	c1 fe 04                  sar	esi, 04h
  404cd3:	03 c6                    >add	eax, esi
  404cd5:	85 c0                     test	eax, eax
  404cd7:	89 44 24 14               mov	[esp+14h], eax
  404cdb:	7d 02                     jge	404cdf
  404cdd:	33 c0                     xor	eax, eax
  404cdf:	c1 e0 04                 >shl	eax, 04h
  404ce2:	50                        push	eax
  404ce3:	e8 9e 0a 00 00            call	405786	; <??2@YAPAXI@Z>
  404ce8:	8b 6c 24 14               mov	ebp, [esp+14h]
  404cec:	89 44 24 1c               mov	[esp+1Ch], eax
  404cf0:	8b d8                     mov	ebx, eax
  404cf2:	8b 44 24 24               mov	eax, [esp+24h]
  404cf6:	8b 75 04                  mov	esi, [ebp+04h]
  404cf9:	83 c4 04                  add	esp, 04h
  404cfc:	3b f0                     cmp	esi, eax
  404cfe:	74 18                     jz	404d18
  404d00:	56                       >push	esi
  404d01:	53                        push	ebx
  404d02:	e8 69 08 00 00            call	405570
  404d07:	8b 44 24 28               mov	eax, [esp+28h]
  404d0b:	83 c6 10                  add	esi, 10h
  404d0e:	83 c4 08                  add	esp, 08h
  404d11:	83 c3 10                  add	ebx, 10h
  404d14:	3b f0                     cmp	esi, eax
  404d16:	75 e8                     jnz	404d00
  404d18:	85 ff                    >test	edi, edi
  404d1a:	8b f3                     mov	esi, ebx
  404d1c:	76 20                     jbe	404d3e
  404d1e:	89 7c 24 24               mov	[esp+24h], edi
  404d22:	8b 4c 24 28              >mov	ecx, [esp+28h]
  404d26:	51                        push	ecx
  404d27:	56                        push	esi
  404d28:	e8 43 08 00 00            call	405570
  404d2d:	8b 44 24 2c               mov	eax, [esp+2Ch]
  404d31:	83 c4 08                  add	esp, 08h
  404d34:	83 c6 10                  add	esi, 10h
  404d37:	48                        dec	eax
  404d38:	89 44 24 24               mov	[esp+24h], eax
  404d3c:	75 e4                     jnz	404d22
  404d3e:	8b 74 24 20              >mov	esi, [esp+20h]
  404d42:	8b d7                     mov	edx, edi
  404d44:	c1 e2 04                  shl	edx, 04h
  404d47:	8d 04 1a                  lea	eax, [edx+ebx*1]
  404d4a:	8b 5d 08                  mov	ebx, [ebp+08h]
  404d4d:	3b f3                     cmp	esi, ebx
  404d4f:	74 24                     jz	404d75
  404d51:	89 44 24 20               mov	[esp+20h], eax
  404d55:	8b 44 24 20              >mov	eax, [esp+20h]
  404d59:	56                        push	esi
  404d5a:	50                        push	eax
  404d5b:	e8 10 08 00 00            call	405570
  404d60:	8b 4c 24 28               mov	ecx, [esp+28h]
  404d64:	83 c6 10                  add	esi, 10h
  404d67:	83 c4 08                  add	esp, 08h
  404d6a:	83 c1 10                  add	ecx, 10h
  404d6d:	3b f3                     cmp	esi, ebx
  404d6f:	89 4c 24 20               mov	[esp+20h], ecx
  404d73:	75 e0                     jnz	404d55
  404d75:	8b 5d 08                 >mov	ebx, [ebp+08h]
  404d78:	8b 75 04                  mov	esi, [ebp+04h]
  404d7b:	3b f3                     cmp	esi, ebx
  404d7d:	74 11                     jz	404d90
  404d7f:	6a 01                    >push	dword 00000001h
  404d81:	8b ce                     mov	ecx, esi
  404d83:	ff 15 40 60 40 00         call	dword [00406040h]	; <?_Tidy@?$basic_string@DU?$char_traits@D@std@@V?$allocator@D@2@@std@@AAEX_N@Z>
  404d89:	83 c6 10                  add	esi, 10h
  404d8c:	3b f3                     cmp	esi, ebx
  404d8e:	75 ef                     jnz	404d7f
  404d90:	8b 4d 04                 >mov	ecx, [ebp+04h]
  404d93:	51                        push	ecx
  404d94:	e8 77 09 00 00            call	405710
  404d99:	8b 44 24 18               mov	eax, [esp+18h]
  404d9d:	8b 54 24 1c               mov	edx, [esp+1Ch]
  404da1:	8b 4d 04                  mov	ecx, [ebp+04h]
  404da4:	83 c4 04                  add	esp, 04h
  404da7:	c1 e0 04                  shl	eax, 04h
  404daa:	03 c2                     add	eax, edx
  404dac:	85 c9                     test	ecx, ecx
  404dae:	89 45 0c                  mov	[ebp+0Ch], eax
  404db1:	75 19                     jnz	404dcc
  404db3:	33 c0                     xor	eax, eax
  404db5:	89 55 04                  mov	[ebp+04h], edx
  404db8:	8b c7                     mov	eax, edi
  404dba:	5f                        pop	edi
  404dbb:	c1 e0 04                  shl	eax, 04h
  404dbe:	03 c2                     add	eax, edx
  404dc0:	5e                        pop	esi
  404dc1:	89 45 08                  mov	[ebp+08h], eax
  404dc4:	5d                        pop	ebp
  404dc5:	5b                        pop	ebx
  404dc6:	83 c4 0c                  add	esp, 0Ch
  404dc9:	c2 0c 00                  ret	000Ch
  404dcc:	8b 45 08                 >mov	eax, [ebp+08h]
  404dcf:	89 55 04                  mov	[ebp+04h], edx
  404dd2:	2b c1                     sub	eax, ecx
  404dd4:	c1 f8 04                  sar	eax, 04h
  404dd7:	03 c7                     add	eax, edi
  404dd9:	5f                        pop	edi
  404dda:	c1 e0 04                  shl	eax, 04h
  404ddd:	03 c2                     add	eax, edx
  404ddf:	5e                        pop	esi
  404de0:	89 45 08                  mov	[ebp+08h], eax
  404de3:	5d                        pop	ebp
  404de4:	5b                        pop	ebx
  404de5:	83 c4 0c                  add	esp, 0Ch
  404de8:	c2 0c 00                  ret	000Ch
  404deb:	8b 5c 24 20              >mov	ebx, [esp+20h]
  404def:	8b d6                     mov	edx, esi
  404df1:	2b d3                     sub	edx, ebx
  404df3:	c1 fa 04                  sar	edx, 04h
  404df6:	3b d7                     cmp	edx, edi
  404df8:	0f 83 a9 00 00 00         jae	404ea7
  404dfe:	8b c7                     mov	eax, edi
  404e00:	8b eb                     mov	ebp, ebx
  404e02:	c1 e0 04                  shl	eax, 04h
  404e05:	3b de                     cmp	ebx, esi
  404e07:	89 44 24 20               mov	[esp+20h], eax
  404e0b:	8d 14 18                  lea	edx, [eax+ebx*1]
  404e0e:	74 2c                     jz	404e3c
  404e10:	89 54 24 24               mov	[esp+24h], edx
  404e14:	8b 44 24 24              >mov	eax, [esp+24h]
  404e18:	55                        push	ebp
  404e19:	50                        push	eax
  404e1a:	e8 51 07 00 00            call	405570
  404e1f:	8b 4c 24 2c               mov	ecx, [esp+2Ch]
  404e23:	83 c5 10                  add	ebp, 10h
  404e26:	83 c4 08                  add	esp, 08h
  404e29:	83 c1 10                  add	ecx, 10h
  404e2c:	3b ee                     cmp	ebp, esi
  404e2e:	89 4c 24 24               mov	[esp+24h], ecx
  404e32:	75 e0                     jnz	404e14
  404e34:	8b 44 24 20               mov	eax, [esp+20h]
  404e38:	8b 4c 24 10               mov	ecx, [esp+10h]
  404e3c:	8b 71 08                 >mov	esi, [ecx+08h]
  404e3f:	8b 6c 24 28               mov	ebp, [esp+28h]
  404e43:	8b d6                     mov	edx, esi
  404e45:	2b d3                     sub	edx, ebx
  404e47:	c1 fa 04                  sar	edx, 04h
  404e4a:	2b fa                     sub	edi, edx
  404e4c:	74 18                     jz	404e66
  404e4e:	55                       >push	ebp
  404e4f:	56                        push	esi
  404e50:	e8 1b 07 00 00            call	405570
  404e55:	83 c4 08                  add	esp, 08h
  404e58:	83 c6 10                  add	esi, 10h
  404e5b:	4f                        dec	edi
  404e5c:	75 f0                     jnz	404e4e
  404e5e:	8b 44 24 20               mov	eax, [esp+20h]
  404e62:	8b 4c 24 10               mov	ecx, [esp+10h]
  404e66:	8b 79 08                 >mov	edi, [ecx+08h]
  404e69:	8b f3                     mov	esi, ebx
  404e6b:	3b df                     cmp	ebx, edi
  404e6d:	0f 84 cc 00 00 00         jz	404f3f
  404e73:	a1 38 60 40 00           >mov	eax, [406038h]
  404e78:	8b 08                     mov	ecx, [eax]
  404e7a:	51                        push	ecx
  404e7b:	6a 00                     push	dword 00000000h
  404e7d:	55                        push	ebp
  404e7e:	8b ce                     mov	ecx, esi
  404e80:	ff 15 44 60 40 00         call	dword [00406044h]	; <?assign@?$basic_string@DU?$char_traits@D@std@@V?$allocator@D@2@@std@@QAEAAV12@ABV12@II@Z>
  404e86:	83 c6 10                  add	esi, 10h
  404e89:	3b f7                     cmp	esi, edi
  404e8b:	75 e6                     jnz	404e73
  404e8d:	8b 4c 24 10               mov	ecx, [esp+10h]
  404e91:	8b 44 24 20               mov	eax, [esp+20h]
  404e95:	5f                        pop	edi
  404e96:	5e                        pop	esi
  404e97:	8b 51 08                  mov	edx, [ecx+08h]
  404e9a:	5d                        pop	ebp
  404e9b:	03 d0                     add	edx, eax
  404e9d:	5b                        pop	ebx
  404e9e:	89 51 08                  mov	[ecx+08h], edx
  404ea1:	83 c4 0c                  add	esp, 0Ch
  404ea4:	c2 0c 00                  ret	000Ch
  404ea7:	85 ff                    >test	edi, edi
  404ea9:	0f 86 93 00 00 00         jbe	404f42
  404eaf:	c1 e7 04                  shl	edi, 04h
  404eb2:	8b c7                     mov	eax, edi
  404eb4:	8b fe                     mov	edi, esi
  404eb6:	2b f8                     sub	edi, eax
  404eb8:	8b ee                     mov	ebp, esi
  404eba:	3b fe                     cmp	edi, esi
  404ebc:	89 44 24 20               mov	[esp+20h], eax
  404ec0:	74 1c                     jz	404ede
  404ec2:	57                       >push	edi
  404ec3:	55                        push	ebp
  404ec4:	e8 a7 06 00 00            call	405570
  404ec9:	83 c7 10                  add	edi, 10h
  404ecc:	83 c4 08                  add	esp, 08h
  404ecf:	83 c5 10                  add	ebp, 10h
  404ed2:	3b fe                     cmp	edi, esi
  404ed4:	75 ec                     jnz	404ec2
  404ed6:	8b 4c 24 10               mov	ecx, [esp+10h]
  404eda:	8b 44 24 20               mov	eax, [esp+20h]
  404ede:	8b 79 08                 >mov	edi, [ecx+08h]
  404ee1:	8b f7                     mov	esi, edi
  404ee3:	2b f0                     sub	esi, eax
  404ee5:	3b de                     cmp	ebx, esi
  404ee7:	74 26                     jz	404f0f
  404ee9:	8b 15 38 60 40 00        >mov	edx, [00406038h]
  404eef:	83 ee 10                  sub	esi, 10h
  404ef2:	83 ef 10                  sub	edi, 10h
  404ef5:	8b 02                     mov	eax, [edx]
  404ef7:	8b cf                     mov	ecx, edi
  404ef9:	50                        push	eax
  404efa:	6a 00                     push	dword 00000000h
  404efc:	56                        push	esi
  404efd:	ff 15 44 60 40 00         call	dword [00406044h]	; <?assign@?$basic_string@DU?$char_traits@D@std@@V?$allocator@D@2@@std@@QAEAAV12@ABV12@II@Z>
  404f03:	3b f3                     cmp	esi, ebx
  404f05:	75 e2                     jnz	404ee9
  404f07:	8b 4c 24 10               mov	ecx, [esp+10h]
  404f0b:	8b 44 24 20               mov	eax, [esp+20h]
  404f0f:	8d 3c 18                 >lea	edi, [eax+ebx*1]
  404f12:	8b f3                     mov	esi, ebx
  404f14:	3b df                     cmp	ebx, edi
  404f16:	74 27                     jz	404f3f
  404f18:	8b 5c 24 28               mov	ebx, [esp+28h]
  404f1c:	8b 0d 38 60 40 00        >mov	ecx, [00406038h]
  404f22:	8b 11                     mov	edx, [ecx]
  404f24:	8b ce                     mov	ecx, esi
  404f26:	52                        push	edx
  404f27:	6a 00                     push	dword 00000000h
  404f29:	53                        push	ebx
  404f2a:	ff 15 44 60 40 00         call	dword [00406044h]	; <?assign@?$basic_string@DU?$char_traits@D@std@@V?$allocator@D@2@@std@@QAEAAV12@ABV12@II@Z>
  404f30:	83 c6 10                  add	esi, 10h
  404f33:	3b f7                     cmp	esi, edi
  404f35:	75 e5                     jnz	404f1c
  404f37:	8b 4c 24 10               mov	ecx, [esp+10h]
  404f3b:	8b 44 24 20               mov	eax, [esp+20h]
  404f3f:	01 41 08                 >add	[ecx+08h], eax
  404f42:	5f                       >pop	edi
  404f43:	5e                        pop	esi
  404f44:	5d                        pop	ebp
  404f45:	5b                        pop	ebx
  404f46:	83 c4 0c                  add	esp, 0Ch
  404f49:	c2 0c 00                  ret	000Ch
     ...

404f50 <no name>:
  404f50:	83 ec 08                  sub	esp, 08h
  404f53:	53                        push	ebx
  404f54:	55                        push	ebp
  404f55:	56                        push	esi
  404f56:	57                        push	edi
  404f57:	8b 6c 24 20               mov	ebp, [esp+20h]
  404f5b:	8b f9                     mov	edi, ecx
  404f5d:	89 7c 24 10               mov	[esp+10h], edi
  404f61:	8b 47 08                  mov	eax, [edi+08h]
  404f64:	8b 4f 0c                  mov	ecx, [edi+0Ch]
  404f67:	2b c8                     sub	ecx, eax
  404f69:	c1 f9 03                  sar	ecx, 03h
  404f6c:	3b cd                     cmp	ecx, ebp
  404f6e:	0f 83 18 01 00 00         jae	40508c
  404f74:	8b 57 04                  mov	edx, [edi+04h]
  404f77:	85 d2                     test	edx, edx
  404f79:	74 0b                     jz	404f86
  404f7b:	8b c8                     mov	ecx, eax
  404f7d:	2b ca                     sub	ecx, edx
  404f7f:	c1 f9 03                  sar	ecx, 03h
  404f82:	3b e9                     cmp	ebp, ecx
  404f84:	72 02                     jb	404f88
  404f86:	8b cd                    >mov	ecx, ebp
  404f88:	85 d2                    >test	edx, edx
  404f8a:	75 04                     jnz	404f90
  404f8c:	33 c0                     xor	eax, eax
  404f8e:	eb 05                     jmp	404f95
  404f90:	2b c2                    >sub	eax, edx
  404f92:	c1 f8 03                  sar	eax, 03h
  404f95:	03 c1                    >add	eax, ecx
  404f97:	85 c0                     test	eax, eax
  404f99:	89 44 24 14               mov	[esp+14h], eax
  404f9d:	7d 02                     jge	404fa1
  404f9f:	33 c0                     xor	eax, eax
  404fa1:	8d 14 c5 00 00 00 00     >lea	edx, [eax*8+00000000h]
  404fa8:	52                        push	edx
  404fa9:	e8 d8 07 00 00            call	405786	; <??2@YAPAXI@Z>
  404fae:	8b 5c 24 20               mov	ebx, [esp+20h]
  404fb2:	89 44 24 24               mov	[esp+24h], eax
  404fb6:	8b c8                     mov	ecx, eax
  404fb8:	8b 47 04                  mov	eax, [edi+04h]
  404fbb:	83 c4 04                  add	esp, 04h
  404fbe:	3b c3                     cmp	eax, ebx
  404fc0:	74 18                     jz	404fda
  404fc2:	85 c9                    >test	ecx, ecx
  404fc4:	74 0a                     jz	404fd0
  404fc6:	8b 10                     mov	edx, [eax]
  404fc8:	89 11                     mov	[ecx], edx
  404fca:	8b 50 04                  mov	edx, [eax+04h]
  404fcd:	89 51 04                  mov	[ecx+04h], edx
  404fd0:	83 c0 08                 >add	eax, 08h
  404fd3:	83 c1 08                  add	ecx, 08h
  404fd6:	3b c3                     cmp	eax, ebx
  404fd8:	75 e8                     jnz	404fc2
  404fda:	85 ed                    >test	ebp, ebp
  404fdc:	8b c1                     mov	eax, ecx
  404fde:	76 1e                     jbe	404ffe
  404fe0:	8b 74 24 24               mov	esi, [esp+24h]
  404fe4:	8b d5                     mov	edx, ebp
  404fe6:	85 c0                    >test	eax, eax
  404fe8:	74 0e                     jz	404ff8
  404fea:	8b 3e                     mov	edi, [esi]
  404fec:	89 38                     mov	[eax], edi
  404fee:	8b 7e 04                  mov	edi, [esi+04h]
  404ff1:	89 78 04                  mov	[eax+04h], edi
  404ff4:	8b 7c 24 10               mov	edi, [esp+10h]
  404ff8:	83 c0 08                 >add	eax, 08h
  404ffb:	4a                        dec	edx
  404ffc:	75 e8                     jnz	404fe6
  404ffe:	8b 7f 08                 >mov	edi, [edi+08h]
  405001:	8d 34 ed 00 00 00 00      lea	esi, [ebp*8+00000000h]
  405008:	3b df                     cmp	ebx, edi
  40500a:	8d 14 0e                  lea	edx, [esi+ecx*1]
  40500d:	74 20                     jz	40502f
  40500f:	8b c2                     mov	eax, edx
  405011:	2b c6                     sub	eax, esi
  405013:	2b c1                     sub	eax, ecx
  405015:	03 c3                     add	eax, ebx
  405017:	85 d2                    >test	edx, edx
  405019:	74 0a                     jz	405025
  40501b:	8b 08                     mov	ecx, [eax]
  40501d:	89 0a                     mov	[edx], ecx
  40501f:	8b 48 04                  mov	ecx, [eax+04h]
  405022:	89 4a 04                  mov	[edx+04h], ecx
  405025:	83 c0 08                 >add	eax, 08h
  405028:	83 c2 08                  add	edx, 08h
  40502b:	3b c7                     cmp	eax, edi
  40502d:	75 e8                     jnz	405017
  40502f:	8b 74 24 10              >mov	esi, [esp+10h]
  405033:	8b 46 04                  mov	eax, [esi+04h]
  405036:	50                        push	eax
  405037:	89 44 24 28               mov	[esp+28h], eax
  40503b:	e8 d0 06 00 00            call	405710
  405040:	8b 54 24 24               mov	edx, [esp+24h]
  405044:	8b 44 24 18               mov	eax, [esp+18h]
  405048:	83 c4 04                  add	esp, 04h
  40504b:	8d 0c c2                  lea	ecx, [edx+eax*8]
  40504e:	89 4e 0c                  mov	[esi+0Ch], ecx
  405051:	8b 4e 04                  mov	ecx, [esi+04h]
  405054:	85 c9                     test	ecx, ecx
  405056:	75 17                     jnz	40506f
  405058:	33 c0                     xor	eax, eax
  40505a:	89 56 04                  mov	[esi+04h], edx
  40505d:	8b c5                     mov	eax, ebp
  40505f:	5f                        pop	edi
  405060:	8d 04 c2                  lea	eax, [edx+eax*8]
  405063:	89 46 08                  mov	[esi+08h], eax
  405066:	5e                        pop	esi
  405067:	5d                        pop	ebp
  405068:	5b                        pop	ebx
  405069:	83 c4 08                  add	esp, 08h
  40506c:	c2 0c 00                  ret	000Ch
  40506f:	8b 46 08                 >mov	eax, [esi+08h]
  405072:	89 56 04                  mov	[esi+04h], edx
  405075:	2b c1                     sub	eax, ecx
  405077:	5f                        pop	edi
  405078:	c1 f8 03                  sar	eax, 03h
  40507b:	03 c5                     add	eax, ebp
  40507d:	8d 04 c2                  lea	eax, [edx+eax*8]
  405080:	89 46 08                  mov	[esi+08h], eax
  405083:	5e                        pop	esi
  405084:	5d                        pop	ebp
  405085:	5b                        pop	ebx
  405086:	83 c4 08                  add	esp, 08h
  405089:	c2 0c 00                  ret	000Ch
  40508c:	8b 74 24 1c              >mov	esi, [esp+1Ch]
  405090:	8b c8                     mov	ecx, eax
  405092:	2b ce                     sub	ecx, esi
  405094:	c1 f9 03                  sar	ecx, 03h
  405097:	3b cd                     cmp	ecx, ebp
  405099:	0f 83 80 00 00 00         jae	40511f
  40509f:	8d 1c ed 00 00 00 00      lea	ebx, [ebp*8+00000000h]
  4050a6:	3b f0                     cmp	esi, eax
  4050a8:	8d 14 33                  lea	edx, [ebx+esi*1]
  4050ab:	74 20                     jz	4050cd
  4050ad:	8b ca                     mov	ecx, edx
  4050af:	2b cb                     sub	ecx, ebx
  4050b1:	85 d2                    >test	edx, edx
  4050b3:	74 0e                     jz	4050c3
  4050b5:	8b 39                     mov	edi, [ecx]
  4050b7:	89 3a                     mov	[edx], edi
  4050b9:	8b 79 04                  mov	edi, [ecx+04h]
  4050bc:	89 7a 04                  mov	[edx+04h], edi
  4050bf:	8b 7c 24 10               mov	edi, [esp+10h]
  4050c3:	83 c1 08                 >add	ecx, 08h
  4050c6:	83 c2 08                  add	edx, 08h
  4050c9:	3b c8                     cmp	ecx, eax
  4050cb:	75 e4                     jnz	4050b1
  4050cd:	8b 47 08                 >mov	eax, [edi+08h]
  4050d0:	8b d0                     mov	edx, eax
  4050d2:	2b d6                     sub	edx, esi
  4050d4:	c1 fa 03                  sar	edx, 03h
  4050d7:	2b ea                     sub	ebp, edx
  4050d9:	8b 54 24 24               mov	edx, [esp+24h]
  4050dd:	74 14                     jz	4050f3
  4050df:	85 c0                    >test	eax, eax
  4050e1:	74 0a                     jz	4050ed
  4050e3:	8b 0a                     mov	ecx, [edx]
  4050e5:	89 08                     mov	[eax], ecx
  4050e7:	8b 4a 04                  mov	ecx, [edx+04h]
  4050ea:	89 48 04                  mov	[eax+04h], ecx
  4050ed:	83 c0 08                 >add	eax, 08h
  4050f0:	4d                        dec	ebp
  4050f1:	75 ec                     jnz	4050df
  4050f3:	8b 4f 08                 >mov	ecx, [edi+08h]
  4050f6:	8b c6                     mov	eax, esi
  4050f8:	3b f1                     cmp	esi, ecx
  4050fa:	74 11                     jz	40510d
  4050fc:	8b 32                    >mov	esi, [edx]
  4050fe:	89 30                     mov	[eax], esi
  405100:	8b 72 04                  mov	esi, [edx+04h]
  405103:	89 70 04                  mov	[eax+04h], esi
  405106:	83 c0 08                  add	eax, 08h
  405109:	3b c1                     cmp	eax, ecx
  40510b:	75 ef                     jnz	4050fc
  40510d:	8b 47 08                 >mov	eax, [edi+08h]
  405110:	03 c3                     add	eax, ebx
  405112:	89 47 08                  mov	[edi+08h], eax
  405115:	5f                        pop	edi
  405116:	5e                        pop	esi
  405117:	5d                        pop	ebp
  405118:	5b                        pop	ebx
  405119:	83 c4 08                  add	esp, 08h
  40511c:	c2 0c 00                  ret	000Ch
  40511f:	85 ed                    >test	ebp, ebp
  405121:	76 66                     jbe	405189
  405123:	c1 e5 03                  shl	ebp, 03h
  405126:	8b c8                     mov	ecx, eax
  405128:	8b d0                     mov	edx, eax
  40512a:	2b cd                     sub	ecx, ebp
  40512c:	3b c8                     cmp	ecx, eax
  40512e:	74 18                     jz	405148
  405130:	85 d2                    >test	edx, edx
  405132:	74 0a                     jz	40513e
  405134:	8b 19                     mov	ebx, [ecx]
  405136:	89 1a                     mov	[edx], ebx
  405138:	8b 59 04                  mov	ebx, [ecx+04h]
  40513b:	89 5a 04                  mov	[edx+04h], ebx
  40513e:	83 c1 08                 >add	ecx, 08h
  405141:	83 c2 08                  add	edx, 08h
  405144:	3b c8                     cmp	ecx, eax
  405146:	75 e8                     jnz	405130
  405148:	8b 4f 08                 >mov	ecx, [edi+08h]
  40514b:	8b c1                     mov	eax, ecx
  40514d:	2b c5                     sub	eax, ebp
  40514f:	3b f0                     cmp	esi, eax
  405151:	74 15                     jz	405168
  405153:	8b 50 f8                 >mov	edx, [eax-08h]
  405156:	83 e8 08                  sub	eax, 08h
  405159:	83 e9 08                  sub	ecx, 08h
  40515c:	3b c6                     cmp	eax, esi
  40515e:	89 11                     mov	[ecx], edx
  405160:	8b 50 04                  mov	edx, [eax+04h]
  405163:	89 51 04                  mov	[ecx+04h], edx
  405166:	75 eb                     jnz	405153
  405168:	8d 14 2e                 >lea	edx, [esi+ebp*1]
  40516b:	8b c6                     mov	eax, esi
  40516d:	3b f2                     cmp	esi, edx
  40516f:	74 15                     jz	405186
  405171:	8b 4c 24 24               mov	ecx, [esp+24h]
  405175:	8b 31                    >mov	esi, [ecx]
  405177:	89 30                     mov	[eax], esi
  405179:	8b 71 04                  mov	esi, [ecx+04h]
  40517c:	89 70 04                  mov	[eax+04h], esi
  40517f:	83 c0 08                  add	eax, 08h
  405182:	3b c2                     cmp	eax, edx
  405184:	75 ef                     jnz	405175
  405186:	01 6f 08                 >add	[edi+08h], ebp
  405189:	5f                       >pop	edi
  40518a:	5e                        pop	esi
  40518b:	5d                        pop	ebp
  40518c:	5b                        pop	ebx
  40518d:	83 c4 08                  add	esp, 08h
  405190:	c2 0c 00                  ret	000Ch
     ...

4051a0 <no name>:
  4051a0:	8b 51 04                  mov	edx, [ecx+04h]
  4051a3:	85 d2                     test	edx, edx
  4051a5:	75 03                     jnz	4051aa
  4051a7:	33 c0                     xor	eax, eax
  4051a9:	c3                        ret
  4051aa:	8b 41 08                 >mov	eax, [ecx+08h]
  4051ad:	2b c2                     sub	eax, edx
  4051af:	c1 f8 04                  sar	eax, 04h
  4051b2:	c3                        ret
     ...

4051c0 <no name>:
  4051c0:	53                        push	ebx
  4051c1:	8b 5c 24 0c               mov	ebx, [esp+0Ch]
  4051c5:	56                        push	esi
  4051c6:	8b 74 24 0c               mov	esi, [esp+0Ch]
  4051ca:	3b f3                     cmp	esi, ebx
  4051cc:	74 21                     jz	4051ef
  4051ce:	57                        push	edi
  4051cf:	8b 7c 24 18               mov	edi, [esp+18h]
  4051d3:	56                       >push	esi
  4051d4:	57                        push	edi
  4051d5:	e8 96 03 00 00            call	405570
  4051da:	83 c6 10                  add	esi, 10h
  4051dd:	83 c4 08                  add	esp, 08h
  4051e0:	83 c7 10                  add	edi, 10h
  4051e3:	3b f3                     cmp	esi, ebx
  4051e5:	75 ec                     jnz	4051d3
  4051e7:	8b c7                     mov	eax, edi
  4051e9:	5f                        pop	edi
  4051ea:	5e                        pop	esi
  4051eb:	5b                        pop	ebx
  4051ec:	c2 0c 00                  ret	000Ch
  4051ef:	8b 44 24 14              >mov	eax, [esp+14h]
  4051f3:	5e                        pop	esi
  4051f4:	5b                        pop	ebx
  4051f5:	c2 0c 00                  ret	000Ch
     ...

405200 <no name>:
  405200:	57                        push	edi
  405201:	8b 7c 24 0c               mov	edi, [esp+0Ch]
  405205:	85 ff                     test	edi, edi
  405207:	76 1c                     jbe	405225
  405209:	53                        push	ebx
  40520a:	8b 5c 24 14               mov	ebx, [esp+14h]
  40520e:	56                        push	esi
  40520f:	8b 74 24 10               mov	esi, [esp+10h]
  405213:	53                       >push	ebx
  405214:	56                        push	esi
  405215:	e8 56 03 00 00            call	405570
  40521a:	83 c4 08                  add	esp, 08h
  40521d:	83 c6 10                  add	esi, 10h
  405220:	4f                        dec	edi
  405221:	75 f0                     jnz	405213
  405223:	5e                        pop	esi
  405224:	5b                        pop	ebx
  405225:	5f                       >pop	edi
  405226:	c2 0c 00                  ret	000Ch
     ...

405230 <no name>:
  405230:	8b 51 04                  mov	edx, [ecx+04h]
  405233:	85 d2                     test	edx, edx
  405235:	75 03                     jnz	40523a
  405237:	33 c0                     xor	eax, eax
  405239:	c3                        ret
  40523a:	8b 41 08                 >mov	eax, [ecx+08h]
  40523d:	2b c2                     sub	eax, edx
  40523f:	c1 f8 03                  sar	eax, 03h
  405242:	c3                        ret
     ...

405250 <no name>:
  405250:	8b 4c 24 04               mov	ecx, [esp+04h]
  405254:	8b 54 24 08               mov	edx, [esp+08h]
  405258:	3b ca                     cmp	ecx, edx
  40525a:	74 21                     jz	40527d
  40525c:	8b 44 24 0c               mov	eax, [esp+0Ch]
  405260:	56                        push	esi
  405261:	85 c0                    >test	eax, eax
  405263:	74 0a                     jz	40526f
  405265:	8b 31                     mov	esi, [ecx]
  405267:	89 30                     mov	[eax], esi
  405269:	8b 71 04                  mov	esi, [ecx+04h]
  40526c:	89 70 04                  mov	[eax+04h], esi
  40526f:	83 c1 08                 >add	ecx, 08h
  405272:	83 c0 08                  add	eax, 08h
  405275:	3b ca                     cmp	ecx, edx
  405277:	75 e8                     jnz	405261
  405279:	5e                        pop	esi
  40527a:	c2 0c 00                  ret	000Ch
  40527d:	8b 44 24 0c              >mov	eax, [esp+0Ch]
  405281:	c2 0c 00                  ret	000Ch
     ...

405290 <no name>:
  405290:	8b 44 24 08               mov	eax, [esp+08h]
  405294:	85 c0                     test	eax, eax
  405296:	76 20                     jbe	4052b8
  405298:	8b 4c 24 0c               mov	ecx, [esp+0Ch]
  40529c:	8b d0                     mov	edx, eax
  40529e:	8b 44 24 04               mov	eax, [esp+04h]
  4052a2:	56                        push	esi
  4052a3:	85 c0                    >test	eax, eax
  4052a5:	74 0a                     jz	4052b1
  4052a7:	8b 31                     mov	esi, [ecx]
  4052a9:	89 30                     mov	[eax], esi
  4052ab:	8b 71 04                  mov	esi, [ecx+04h]
  4052ae:	89 70 04                  mov	[eax+04h], esi
  4052b1:	83 c0 08                 >add	eax, 08h
  4052b4:	4a                        dec	edx
  4052b5:	75 ec                     jnz	4052a3
  4052b7:	5e                        pop	esi
  4052b8:	c2 0c 00                 >ret	000Ch
     ...

4052c0 <no name>:
  4052c0:	8b 44 24 08               mov	eax, [esp+08h]
  4052c4:	55                        push	ebp
  4052c5:	8b 6c 24 08               mov	ebp, [esp+08h]
  4052c9:	3b e8                     cmp	ebp, eax
  4052cb:	0f 84 38 01 00 00         jz	405409
  4052d1:	53                        push	ebx
  4052d2:	56                        push	esi
  4052d3:	57                        push	edi
  4052d4:	a1 38 60 40 00           >mov	eax, [406038h]
  4052d9:	8b 7c 24 1c               mov	edi, [esp+1Ch]
  4052dd:	8b 30                     mov	esi, [eax]
  4052df:	8b 47 08                  mov	eax, [edi+08h]
  4052e2:	8b d8                     mov	ebx, eax
  4052e4:	3b f3                     cmp	esi, ebx
  4052e6:	73 02                     jae	4052ea
  4052e8:	8b de                     mov	ebx, esi
  4052ea:	3b ef                    >cmp	ebp, edi
  4052ec:	75 62                     jnz	405350
  4052ee:	39 5d 08                  cmp	[ebp+08h], ebx
  4052f1:	73 06                     jae	4052f9
  4052f3:	ff 15 34 60 40 00         call	dword [00406034h]	; <?_Xran@std@@YAXXZ>
  4052f9:	8b cd                    >mov	ecx, ebp
  4052fb:	ff 15 30 60 40 00         call	dword [00406030h]	; <?_Split@?$basic_string@DU?$char_traits@D@std@@V?$allocator@D@2@@std@@AAEXXZ>
  405301:	8b 45 08                  mov	eax, [ebp+08h]
  405304:	2b c3                     sub	eax, ebx
  405306:	3b c6                     cmp	eax, esi
  405308:	73 02                     jae	40530c
  40530a:	8b f0                     mov	esi, eax
  40530c:	85 f6                    >test	esi, esi
  40530e:	76 33                     jbe	405343
  405310:	8b 4d 04                  mov	ecx, [ebp+04h]
  405313:	2b c6                     sub	eax, esi
  405315:	03 d9                     add	ebx, ecx
  405317:	50                        push	eax
  405318:	8d 14 33                  lea	edx, [ebx+esi*1]
  40531b:	52                        push	edx
  40531c:	53                        push	ebx
  40531d:	ff 15 dc 60 40 00         call	dword [004060DCh]	; <memmove>
  405323:	8b 7d 08                  mov	edi, [ebp+08h]
  405326:	83 c4 0c                  add	esp, 0Ch
  405329:	2b fe                     sub	edi, esi
  40532b:	8b cd                     mov	ecx, ebp
  40532d:	6a 00                     push	dword 00000000h
  40532f:	57                        push	edi
  405330:	ff 15 2c 60 40 00         call	dword [0040602Ch]	; <?_Grow@?$basic_string@DU?$char_traits@D@std@@V?$allocator@D@2@@std@@AAE_NI_N@Z>
  405336:	84 c0                     test	al, al
  405338:	74 09                     jz	405343
  40533a:	57                        push	edi
  40533b:	8b cd                     mov	ecx, ebp
  40533d:	ff 15 28 60 40 00         call	dword [00406028h]	; <?_Eos@?$basic_string@DU?$char_traits@D@std@@V?$allocator@D@2@@std@@AAEXI@Z>
  405343:	8b cd                    >mov	ecx, ebp
  405345:	ff 15 30 60 40 00         call	dword [00406030h]	; <?_Split@?$basic_string@DU?$char_traits@D@std@@V?$allocator@D@2@@std@@AAEXXZ>
  40534b:	e9 a7 00 00 00            jmp	4053f7
  405350:	33 f6                    >xor	esi, esi
  405352:	3b de                     cmp	ebx, esi
  405354:	76 68                     jbe	4053be
  405356:	3b d8                     cmp	ebx, eax
  405358:	75 64                     jnz	4053be
  40535a:	8b 47 04                  mov	eax, [edi+04h]
  40535d:	3b c6                     cmp	eax, esi
  40535f:	75 05                     jnz	405366
  405361:	a1 24 60 40 00            mov	eax, [406024h]
  405366:	80 78 ff fe              >cmp	byte [eax-01h], FEh
  40536a:	73 52                     jae	4053be
  40536c:	8b 45 04                  mov	eax, [ebp+04h]
  40536f:	3b c6                     cmp	eax, esi
  405371:	74 1d                     jz	405390
  405373:	8d 48 ff                  lea	ecx, [eax-01h]
  405376:	8a 40 ff                  mov	al, [eax-01h]
  405379:	84 c0                     test	al, al
  40537b:	74 0a                     jz	405387
  40537d:	3c ff                     cmp	al, FFh
  40537f:	74 06                     jz	405387
  405381:	fe c8                     dec	al
  405383:	88 01                     mov	[ecx], al
  405385:	eb 09                     jmp	405390
  405387:	51                       >push	ecx
  405388:	e8 83 03 00 00            call	405710
  40538d:	83 c4 04                  add	esp, 04h
  405390:	89 75 04                 >mov	[ebp+04h], esi
  405393:	89 75 08                  mov	[ebp+08h], esi
  405396:	89 75 0c                  mov	[ebp+0Ch], esi
  405399:	8b 47 04                  mov	eax, [edi+04h]
  40539c:	3b c6                     cmp	eax, esi
  40539e:	75 05                     jnz	4053a5
  4053a0:	a1 24 60 40 00            mov	eax, [406024h]
  4053a5:	89 45 04                 >mov	[ebp+04h], eax
  4053a8:	8b 4f 08                  mov	ecx, [edi+08h]
  4053ab:	89 4d 08                  mov	[ebp+08h], ecx
  4053ae:	8b 57 0c                  mov	edx, [edi+0Ch]
  4053b1:	89 55 0c                  mov	[ebp+0Ch], edx
  4053b4:	8a 48 ff                  mov	cl, [eax-01h]
  4053b7:	fe c1                     inc	cl
  4053b9:	88 48 ff                  mov	[eax-01h], cl
  4053bc:	eb 39                     jmp	4053f7
  4053be:	6a 01                    >push	dword 00000001h
  4053c0:	53                        push	ebx
  4053c1:	8b cd                     mov	ecx, ebp
  4053c3:	ff 15 2c 60 40 00         call	dword [0040602Ch]	; <?_Grow@?$basic_string@DU?$char_traits@D@std@@V?$allocator@D@2@@std@@AAE_NI_N@Z>
  4053c9:	84 c0                     test	al, al
  4053cb:	74 2a                     jz	4053f7
  4053cd:	8b 77 04                  mov	esi, [edi+04h]
  4053d0:	85 f6                     test	esi, esi
  4053d2:	75 06                     jnz	4053da
  4053d4:	8b 35 24 60 40 00         mov	esi, [00406024h]
  4053da:	8b 7d 04                 >mov	edi, [ebp+04h]
  4053dd:	8b cb                     mov	ecx, ebx
  4053df:	8b c1                     mov	eax, ecx
  4053e1:	c1 e9 02                  shr	ecx, 02h
  4053e4:	f3 a5                     rep movsd
  4053e6:	8b c8                     mov	ecx, eax
  4053e8:	83 e1 03                  and	ecx, 03h
  4053eb:	f3 a4                     rep movsb
  4053ed:	8b 4d 04                  mov	ecx, [ebp+04h]
  4053f0:	89 5d 08                  mov	[ebp+08h], ebx
  4053f3:	c6 04 19 00               mov	byte [ecx+ebx*1], 00h
  4053f7:	8b 44 24 18              >mov	eax, [esp+18h]
  4053fb:	83 c5 10                  add	ebp, 10h
  4053fe:	3b e8                     cmp	ebp, eax
  405400:	0f 85 ce fe ff ff         jnz	4052d4
  405406:	5f                        pop	edi
  405407:	5e                        pop	esi
  405408:	5b                        pop	ebx
  405409:	5d                       >pop	ebp
  40540a:	c3                        ret
     ...

405410 <no name>:
  405410:	8b 44 24 04               mov	eax, [esp+04h]
  405414:	57                        push	edi
  405415:	8b 7c 24 0c               mov	edi, [esp+0Ch]
  405419:	3b c7                     cmp	eax, edi
  40541b:	0f 84 45 01 00 00         jz	405566
  405421:	53                        push	ebx
  405422:	55                        push	ebp
  405423:	8b 6c 24 18               mov	ebp, [esp+18h]
  405427:	56                        push	esi
  405428:	a1 38 60 40 00           >mov	eax, [406038h]
  40542d:	83 ef 10                  sub	edi, 10h
  405430:	83 ed 10                  sub	ebp, 10h
  405433:	89 7c 24 18               mov	[esp+18h], edi
  405437:	8b 30                     mov	esi, [eax]
  405439:	8b 47 08                  mov	eax, [edi+08h]
  40543c:	8b d8                     mov	ebx, eax
  40543e:	3b f3                     cmp	esi, ebx
  405440:	73 02                     jae	405444
  405442:	8b de                     mov	ebx, esi
  405444:	3b ef                    >cmp	ebp, edi
  405446:	75 62                     jnz	4054aa
  405448:	39 5d 08                  cmp	[ebp+08h], ebx
  40544b:	73 06                     jae	405453
  40544d:	ff 15 34 60 40 00         call	dword [00406034h]	; <?_Xran@std@@YAXXZ>
  405453:	8b cd                    >mov	ecx, ebp
  405455:	ff 15 30 60 40 00         call	dword [00406030h]	; <?_Split@?$basic_string@DU?$char_traits@D@std@@V?$allocator@D@2@@std@@AAEXXZ>
  40545b:	8b 45 08                  mov	eax, [ebp+08h]
  40545e:	2b c3                     sub	eax, ebx
  405460:	3b c6                     cmp	eax, esi
  405462:	73 02                     jae	405466
  405464:	8b f0                     mov	esi, eax
  405466:	85 f6                    >test	esi, esi
  405468:	76 33                     jbe	40549d
  40546a:	8b 4d 04                  mov	ecx, [ebp+04h]
  40546d:	2b c6                     sub	eax, esi
  40546f:	03 d9                     add	ebx, ecx
  405471:	50                        push	eax
  405472:	8d 14 33                  lea	edx, [ebx+esi*1]
  405475:	52                        push	edx
  405476:	53                        push	ebx
  405477:	ff 15 dc 60 40 00         call	dword [004060DCh]	; <memmove>
  40547d:	8b 5d 08                  mov	ebx, [ebp+08h]
  405480:	83 c4 0c                  add	esp, 0Ch
  405483:	2b de                     sub	ebx, esi
  405485:	8b cd                     mov	ecx, ebp
  405487:	6a 00                     push	dword 00000000h
  405489:	53                        push	ebx
  40548a:	ff 15 2c 60 40 00         call	dword [0040602Ch]	; <?_Grow@?$basic_string@DU?$char_traits@D@std@@V?$allocator@D@2@@std@@AAE_NI_N@Z>
  405490:	84 c0                     test	al, al
  405492:	74 09                     jz	40549d
  405494:	53                        push	ebx
  405495:	8b cd                     mov	ecx, ebp
  405497:	ff 15 28 60 40 00         call	dword [00406028h]	; <?_Eos@?$basic_string@DU?$char_traits@D@std@@V?$allocator@D@2@@std@@AAEXI@Z>
  40549d:	8b cd                    >mov	ecx, ebp
  40549f:	ff 15 30 60 40 00         call	dword [00406030h]	; <?_Split@?$basic_string@DU?$char_traits@D@std@@V?$allocator@D@2@@std@@AAEXXZ>
  4054a5:	e9 ab 00 00 00            jmp	405555
  4054aa:	33 f6                    >xor	esi, esi
  4054ac:	3b de                     cmp	ebx, esi
  4054ae:	76 68                     jbe	405518
  4054b0:	3b d8                     cmp	ebx, eax
  4054b2:	75 64                     jnz	405518
  4054b4:	8b 47 04                  mov	eax, [edi+04h]
  4054b7:	3b c6                     cmp	eax, esi
  4054b9:	75 05                     jnz	4054c0
  4054bb:	a1 24 60 40 00            mov	eax, [406024h]
  4054c0:	80 78 ff fe              >cmp	byte [eax-01h], FEh
  4054c4:	73 52                     jae	405518
  4054c6:	8b 45 04                  mov	eax, [ebp+04h]
  4054c9:	3b c6                     cmp	eax, esi
  4054cb:	74 1d                     jz	4054ea
  4054cd:	8d 48 ff                  lea	ecx, [eax-01h]
  4054d0:	8a 40 ff                  mov	al, [eax-01h]
  4054d3:	84 c0                     test	al, al
  4054d5:	74 0a                     jz	4054e1
  4054d7:	3c ff                     cmp	al, FFh
  4054d9:	74 06                     jz	4054e1
  4054db:	fe c8                     dec	al
  4054dd:	88 01                     mov	[ecx], al
  4054df:	eb 09                     jmp	4054ea
  4054e1:	51                       >push	ecx
  4054e2:	e8 29 02 00 00            call	405710
  4054e7:	83 c4 04                  add	esp, 04h
  4054ea:	89 75 04                 >mov	[ebp+04h], esi
  4054ed:	89 75 08                  mov	[ebp+08h], esi
  4054f0:	89 75 0c                  mov	[ebp+0Ch], esi
  4054f3:	8b 47 04                  mov	eax, [edi+04h]
  4054f6:	3b c6                     cmp	eax, esi
  4054f8:	75 05                     jnz	4054ff
  4054fa:	a1 24 60 40 00            mov	eax, [406024h]
  4054ff:	89 45 04                 >mov	[ebp+04h], eax
  405502:	8b 4f 08                  mov	ecx, [edi+08h]
  405505:	89 4d 08                  mov	[ebp+08h], ecx
  405508:	8b 57 0c                  mov	edx, [edi+0Ch]
  40550b:	89 55 0c                  mov	[ebp+0Ch], edx
  40550e:	8a 48 ff                  mov	cl, [eax-01h]
  405511:	fe c1                     inc	cl
  405513:	88 48 ff                  mov	[eax-01h], cl
  405516:	eb 3d                     jmp	405555
  405518:	6a 01                    >push	dword 00000001h
  40551a:	53                        push	ebx
